
GY-61.elf:     file format elf32-littlearm

Sections:
Idx Name          Size      VMA       LMA       File off  Algn
  0 .isr_vector   0000010c  08000000  08000000  00010000  2**0
                  CONTENTS, ALLOC, LOAD, READONLY, DATA
  1 .text         000036b4  0800010c  0800010c  0001010c  2**2
                  CONTENTS, ALLOC, LOAD, READONLY, CODE
  2 .rodata       000000f0  080037c0  080037c0  000137c0  2**2
                  CONTENTS, ALLOC, LOAD, READONLY, DATA
  3 .ARM.extab    00000000  080038b0  080038b0  00020070  2**0
                  CONTENTS
  4 .ARM          00000000  080038b0  080038b0  00020070  2**0
                  CONTENTS
  5 .preinit_array 00000000  080038b0  080038b0  00020070  2**0
                  CONTENTS, ALLOC, LOAD, DATA
  6 .init_array   00000004  080038b0  080038b0  000138b0  2**2
                  CONTENTS, ALLOC, LOAD, DATA
  7 .fini_array   00000004  080038b4  080038b4  000138b4  2**2
                  CONTENTS, ALLOC, LOAD, DATA
  8 .data         00000070  20000000  080038b8  00020000  2**2
                  CONTENTS, ALLOC, LOAD, DATA
  9 .bss          000000f8  20000070  08003928  00020070  2**2
                  ALLOC
 10 ._user_heap_stack 00000600  20000168  08003928  00020168  2**0
                  ALLOC
 11 .ARM.attributes 00000029  00000000  00000000  00020070  2**0
                  CONTENTS, READONLY
 12 .debug_info   0000793a  00000000  00000000  00020099  2**0
                  CONTENTS, READONLY, DEBUGGING, OCTETS
 13 .debug_abbrev 00001b48  00000000  00000000  000279d3  2**0
                  CONTENTS, READONLY, DEBUGGING, OCTETS
 14 .debug_aranges 00000890  00000000  00000000  00029520  2**3
                  CONTENTS, READONLY, DEBUGGING, OCTETS
 15 .debug_ranges 000007d8  00000000  00000000  00029db0  2**3
                  CONTENTS, READONLY, DEBUGGING, OCTETS
 16 .debug_macro  000182ff  00000000  00000000  0002a588  2**0
                  CONTENTS, READONLY, DEBUGGING, OCTETS
 17 .debug_line   00009750  00000000  00000000  00042887  2**0
                  CONTENTS, READONLY, DEBUGGING, OCTETS
 18 .debug_str    000887e1  00000000  00000000  0004bfd7  2**0
                  CONTENTS, READONLY, DEBUGGING, OCTETS
 19 .comment      00000050  00000000  00000000  000d47b8  2**0
                  CONTENTS, READONLY
 20 .debug_frame  0000293c  00000000  00000000  000d4808  2**2
                  CONTENTS, READONLY, DEBUGGING, OCTETS

Disassembly of section .text:

0800010c <__do_global_dtors_aux>:
 800010c:	b510      	push	{r4, lr}
 800010e:	4c05      	ldr	r4, [pc, #20]	; (8000124 <__do_global_dtors_aux+0x18>)
 8000110:	7823      	ldrb	r3, [r4, #0]
 8000112:	b933      	cbnz	r3, 8000122 <__do_global_dtors_aux+0x16>
 8000114:	4b04      	ldr	r3, [pc, #16]	; (8000128 <__do_global_dtors_aux+0x1c>)
 8000116:	b113      	cbz	r3, 800011e <__do_global_dtors_aux+0x12>
 8000118:	4804      	ldr	r0, [pc, #16]	; (800012c <__do_global_dtors_aux+0x20>)
 800011a:	f3af 8000 	nop.w
 800011e:	2301      	movs	r3, #1
 8000120:	7023      	strb	r3, [r4, #0]
 8000122:	bd10      	pop	{r4, pc}
 8000124:	20000070 	.word	0x20000070
 8000128:	00000000 	.word	0x00000000
 800012c:	080037a8 	.word	0x080037a8

08000130 <frame_dummy>:
 8000130:	b508      	push	{r3, lr}
 8000132:	4b03      	ldr	r3, [pc, #12]	; (8000140 <frame_dummy+0x10>)
 8000134:	b11b      	cbz	r3, 800013e <frame_dummy+0xe>
 8000136:	4903      	ldr	r1, [pc, #12]	; (8000144 <frame_dummy+0x14>)
 8000138:	4803      	ldr	r0, [pc, #12]	; (8000148 <frame_dummy+0x18>)
 800013a:	f3af 8000 	nop.w
 800013e:	bd08      	pop	{r3, pc}
 8000140:	00000000 	.word	0x00000000
 8000144:	20000074 	.word	0x20000074
 8000148:	080037a8 	.word	0x080037a8

0800014c <__io_putchar>:
#else
#define PUTCHAR_PROTOTYPE int fputc(int ch, FILE *f)
#endif /* __GNUC__ */

PUTCHAR_PROTOTYPE
{
 800014c:	b580      	push	{r7, lr}
 800014e:	b082      	sub	sp, #8
 8000150:	af00      	add	r7, sp, #0
 8000152:	6078      	str	r0, [r7, #4]
  /* Place your implementation of fputc here */
  /* e.g. write a character to the USART1 and Loop until the end of transmission */
  HAL_UART_Transmit(&huart2, (uint8_t *)&ch, 1, 0xFFFF);
 8000154:	1d39      	adds	r1, r7, #4
 8000156:	f64f 73ff 	movw	r3, #65535	; 0xffff
 800015a:	2201      	movs	r2, #1
 800015c:	4803      	ldr	r0, [pc, #12]	; (800016c <__io_putchar+0x20>)
 800015e:	f002 f9f2 	bl	8002546 <HAL_UART_Transmit>

  return ch;
 8000162:	687b      	ldr	r3, [r7, #4]
}
 8000164:	4618      	mov	r0, r3
 8000166:	3708      	adds	r7, #8
 8000168:	46bd      	mov	sp, r7
 800016a:	bd80      	pop	{r7, pc}
 800016c:	20000100 	.word	0x20000100

08000170 <map.0>:
  */
int main(void)
{
  /* USER CODE BEGIN 1 */
	long map(long x, long in_min, long in_max, long out_min, long out_max)
	{
 8000170:	b480      	push	{r7}
 8000172:	b087      	sub	sp, #28
 8000174:	af00      	add	r7, sp, #0
 8000176:	6178      	str	r0, [r7, #20]
 8000178:	6139      	str	r1, [r7, #16]
 800017a:	60fa      	str	r2, [r7, #12]
 800017c:	60bb      	str	r3, [r7, #8]
 800017e:	f8c7 c004 	str.w	ip, [r7, #4]
	  return (x - in_min) * (out_max - out_min) / (in_max - in_min) + out_min;
 8000182:	697a      	ldr	r2, [r7, #20]
 8000184:	693b      	ldr	r3, [r7, #16]
 8000186:	1ad3      	subs	r3, r2, r3
 8000188:	6a39      	ldr	r1, [r7, #32]
 800018a:	68ba      	ldr	r2, [r7, #8]
 800018c:	1a8a      	subs	r2, r1, r2
 800018e:	fb03 f202 	mul.w	r2, r3, r2
 8000192:	68f9      	ldr	r1, [r7, #12]
 8000194:	693b      	ldr	r3, [r7, #16]
 8000196:	1acb      	subs	r3, r1, r3
 8000198:	fb92 f2f3 	sdiv	r2, r2, r3
 800019c:	68bb      	ldr	r3, [r7, #8]
 800019e:	4413      	add	r3, r2
	}
 80001a0:	4618      	mov	r0, r3
 80001a2:	371c      	adds	r7, #28
 80001a4:	46bd      	mov	sp, r7
 80001a6:	bc80      	pop	{r7}
 80001a8:	4770      	bx	lr
	...

080001ac <main>:
{
 80001ac:	b580      	push	{r7, lr}
 80001ae:	b086      	sub	sp, #24
 80001b0:	af02      	add	r7, sp, #8
int main(void)
 80001b2:	f107 0318 	add.w	r3, r7, #24
 80001b6:	603b      	str	r3, [r7, #0]
  /* USER CODE END 1 */

  /* MCU Configuration--------------------------------------------------------*/

  /* Reset of all peripherals, Initializes the Flash interface and the Systick. */
  HAL_Init();
 80001b8:	f000 fb9c 	bl	80008f4 <HAL_Init>
  /* USER CODE BEGIN Init */

  /* USER CODE END Init */

  /* Configure the system clock */
  SystemClock_Config();
 80001bc:	f000 f84e 	bl	800025c <SystemClock_Config>
  /* USER CODE BEGIN SysInit */

  /* USER CODE END SysInit */

  /* Initialize all configured peripherals */
  MX_GPIO_Init();
 80001c0:	f000 f946 	bl	8000450 <MX_GPIO_Init>
  MX_DMA_Init();
 80001c4:	f000 f926 	bl	8000414 <MX_DMA_Init>
  MX_USART2_UART_Init();
 80001c8:	f000 f8fa 	bl	80003c0 <MX_USART2_UART_Init>
  MX_ADC1_Init();
 80001cc:	f000 f89c 	bl	8000308 <MX_ADC1_Init>
  /* USER CODE BEGIN 2 */
  HAL_ADC_Start_DMA(&hadc1, adc_value, 3);
 80001d0:	2203      	movs	r2, #3
 80001d2:	491f      	ldr	r1, [pc, #124]	; (8000250 <main+0xa4>)
 80001d4:	481f      	ldr	r0, [pc, #124]	; (8000254 <main+0xa8>)
 80001d6:	f000 fceb 	bl	8000bb0 <HAL_ADC_Start_DMA>
  /* USER CODE BEGIN WHILE */
  while (1)
  {
    /* USER CODE END WHILE */

	  int xAng = map(adc_value[0], 1541, 2341, -90, 90);
 80001da:	4b1d      	ldr	r3, [pc, #116]	; (8000250 <main+0xa4>)
 80001dc:	681b      	ldr	r3, [r3, #0]
 80001de:	4618      	mov	r0, r3
 80001e0:	463b      	mov	r3, r7
 80001e2:	225a      	movs	r2, #90	; 0x5a
 80001e4:	9200      	str	r2, [sp, #0]
 80001e6:	469c      	mov	ip, r3
 80001e8:	f06f 0359 	mvn.w	r3, #89	; 0x59
 80001ec:	f640 1225 	movw	r2, #2341	; 0x925
 80001f0:	f240 6105 	movw	r1, #1541	; 0x605
 80001f4:	f7ff ffbc 	bl	8000170 <map.0>
 80001f8:	60f8      	str	r0, [r7, #12]
	  int yAng = map(adc_value[1], 1552, 2376, -90, 90);
 80001fa:	4b15      	ldr	r3, [pc, #84]	; (8000250 <main+0xa4>)
 80001fc:	685b      	ldr	r3, [r3, #4]
 80001fe:	4618      	mov	r0, r3
 8000200:	463b      	mov	r3, r7
 8000202:	225a      	movs	r2, #90	; 0x5a
 8000204:	9200      	str	r2, [sp, #0]
 8000206:	469c      	mov	ip, r3
 8000208:	f06f 0359 	mvn.w	r3, #89	; 0x59
 800020c:	f640 1248 	movw	r2, #2376	; 0x948
 8000210:	f44f 61c2 	mov.w	r1, #1552	; 0x610
 8000214:	f7ff ffac 	bl	8000170 <map.0>
 8000218:	60b8      	str	r0, [r7, #8]
	  int zAng = map(adc_value[2], 1723, 3369, -90, 90);
 800021a:	4b0d      	ldr	r3, [pc, #52]	; (8000250 <main+0xa4>)
 800021c:	689b      	ldr	r3, [r3, #8]
 800021e:	4618      	mov	r0, r3
 8000220:	463b      	mov	r3, r7
 8000222:	225a      	movs	r2, #90	; 0x5a
 8000224:	9200      	str	r2, [sp, #0]
 8000226:	469c      	mov	ip, r3
 8000228:	f06f 0359 	mvn.w	r3, #89	; 0x59
 800022c:	f640 5229 	movw	r2, #3369	; 0xd29
 8000230:	f240 61bb 	movw	r1, #1723	; 0x6bb
 8000234:	f7ff ff9c 	bl	8000170 <map.0>
 8000238:	6078      	str	r0, [r7, #4]
//	  x = RAD_TO_DEG * (atan2(-yAng, -zAng) + PI);
//	  y = RAD_TO_DEG * (atan2(-xAng, -zAng) + PI);
//	  z = RAD_TO_DEG * (atan2(-yAng, -xAng) + PI);


	  printf("X_Value : %ld, Y_Value : %ld,  Z_Value : %ld\r\n", xAng, yAng, zAng);
 800023a:	687b      	ldr	r3, [r7, #4]
 800023c:	68ba      	ldr	r2, [r7, #8]
 800023e:	68f9      	ldr	r1, [r7, #12]
 8000240:	4805      	ldr	r0, [pc, #20]	; (8000258 <main+0xac>)
 8000242:	f002 fb1d 	bl	8002880 <iprintf>
	  HAL_Delay(200);
 8000246:	20c8      	movs	r0, #200	; 0xc8
 8000248:	f000 fbb6 	bl	80009b8 <HAL_Delay>
  {
 800024c:	e7c5      	b.n	80001da <main+0x2e>
 800024e:	bf00      	nop
 8000250:	20000144 	.word	0x20000144
 8000254:	2000008c 	.word	0x2000008c
 8000258:	080037c0 	.word	0x080037c0

0800025c <SystemClock_Config>:
/**
  * @brief System Clock Configuration
  * @retval None
  */
void SystemClock_Config(void)
{
 800025c:	b580      	push	{r7, lr}
 800025e:	b094      	sub	sp, #80	; 0x50
 8000260:	af00      	add	r7, sp, #0
  RCC_OscInitTypeDef RCC_OscInitStruct = {0};
 8000262:	f107 0328 	add.w	r3, r7, #40	; 0x28
 8000266:	2228      	movs	r2, #40	; 0x28
 8000268:	2100      	movs	r1, #0
 800026a:	4618      	mov	r0, r3
 800026c:	f002 fb00 	bl	8002870 <memset>
  RCC_ClkInitTypeDef RCC_ClkInitStruct = {0};
 8000270:	f107 0314 	add.w	r3, r7, #20
 8000274:	2200      	movs	r2, #0
 8000276:	601a      	str	r2, [r3, #0]
 8000278:	605a      	str	r2, [r3, #4]
 800027a:	609a      	str	r2, [r3, #8]
 800027c:	60da      	str	r2, [r3, #12]
 800027e:	611a      	str	r2, [r3, #16]
  RCC_PeriphCLKInitTypeDef PeriphClkInit = {0};
 8000280:	1d3b      	adds	r3, r7, #4
 8000282:	2200      	movs	r2, #0
 8000284:	601a      	str	r2, [r3, #0]
 8000286:	605a      	str	r2, [r3, #4]
 8000288:	609a      	str	r2, [r3, #8]
 800028a:	60da      	str	r2, [r3, #12]

  /** Initializes the RCC Oscillators according to the specified parameters
  * in the RCC_OscInitTypeDef structure.
  */
  RCC_OscInitStruct.OscillatorType = RCC_OSCILLATORTYPE_HSI;
 800028c:	2302      	movs	r3, #2
 800028e:	62bb      	str	r3, [r7, #40]	; 0x28
  RCC_OscInitStruct.HSIState = RCC_HSI_ON;
 8000290:	2301      	movs	r3, #1
 8000292:	63bb      	str	r3, [r7, #56]	; 0x38
  RCC_OscInitStruct.HSICalibrationValue = RCC_HSICALIBRATION_DEFAULT;
 8000294:	2310      	movs	r3, #16
 8000296:	63fb      	str	r3, [r7, #60]	; 0x3c
  RCC_OscInitStruct.PLL.PLLState = RCC_PLL_ON;
 8000298:	2302      	movs	r3, #2
 800029a:	647b      	str	r3, [r7, #68]	; 0x44
  RCC_OscInitStruct.PLL.PLLSource = RCC_PLLSOURCE_HSI_DIV2;
 800029c:	2300      	movs	r3, #0
 800029e:	64bb      	str	r3, [r7, #72]	; 0x48
  RCC_OscInitStruct.PLL.PLLMUL = RCC_PLL_MUL16;
 80002a0:	f44f 1360 	mov.w	r3, #3670016	; 0x380000
 80002a4:	64fb      	str	r3, [r7, #76]	; 0x4c
  if (HAL_RCC_OscConfig(&RCC_OscInitStruct) != HAL_OK)
 80002a6:	f107 0328 	add.w	r3, r7, #40	; 0x28
 80002aa:	4618      	mov	r0, r3
 80002ac:	f001 fc2e 	bl	8001b0c <HAL_RCC_OscConfig>
 80002b0:	4603      	mov	r3, r0
 80002b2:	2b00      	cmp	r3, #0
 80002b4:	d001      	beq.n	80002ba <SystemClock_Config+0x5e>
  {
    Error_Handler();
 80002b6:	f000 f939 	bl	800052c <Error_Handler>
  }

  /** Initializes the CPU, AHB and APB buses clocks
  */
  RCC_ClkInitStruct.ClockType = RCC_CLOCKTYPE_HCLK|RCC_CLOCKTYPE_SYSCLK
 80002ba:	230f      	movs	r3, #15
 80002bc:	617b      	str	r3, [r7, #20]
                              |RCC_CLOCKTYPE_PCLK1|RCC_CLOCKTYPE_PCLK2;
  RCC_ClkInitStruct.SYSCLKSource = RCC_SYSCLKSOURCE_PLLCLK;
 80002be:	2302      	movs	r3, #2
 80002c0:	61bb      	str	r3, [r7, #24]
  RCC_ClkInitStruct.AHBCLKDivider = RCC_SYSCLK_DIV1;
 80002c2:	2300      	movs	r3, #0
 80002c4:	61fb      	str	r3, [r7, #28]
  RCC_ClkInitStruct.APB1CLKDivider = RCC_HCLK_DIV2;
 80002c6:	f44f 6380 	mov.w	r3, #1024	; 0x400
 80002ca:	623b      	str	r3, [r7, #32]
  RCC_ClkInitStruct.APB2CLKDivider = RCC_HCLK_DIV1;
 80002cc:	2300      	movs	r3, #0
 80002ce:	627b      	str	r3, [r7, #36]	; 0x24

  if (HAL_RCC_ClockConfig(&RCC_ClkInitStruct, FLASH_LATENCY_2) != HAL_OK)
 80002d0:	f107 0314 	add.w	r3, r7, #20
 80002d4:	2102      	movs	r1, #2
 80002d6:	4618      	mov	r0, r3
 80002d8:	f001 fe9a 	bl	8002010 <HAL_RCC_ClockConfig>
 80002dc:	4603      	mov	r3, r0
 80002de:	2b00      	cmp	r3, #0
 80002e0:	d001      	beq.n	80002e6 <SystemClock_Config+0x8a>
  {
    Error_Handler();
 80002e2:	f000 f923 	bl	800052c <Error_Handler>
  }
  PeriphClkInit.PeriphClockSelection = RCC_PERIPHCLK_ADC;
 80002e6:	2302      	movs	r3, #2
 80002e8:	607b      	str	r3, [r7, #4]
  PeriphClkInit.AdcClockSelection = RCC_ADCPCLK2_DIV2;
 80002ea:	2300      	movs	r3, #0
 80002ec:	60fb      	str	r3, [r7, #12]
  if (HAL_RCCEx_PeriphCLKConfig(&PeriphClkInit) != HAL_OK)
 80002ee:	1d3b      	adds	r3, r7, #4
 80002f0:	4618      	mov	r0, r3
 80002f2:	f002 f825 	bl	8002340 <HAL_RCCEx_PeriphCLKConfig>
 80002f6:	4603      	mov	r3, r0
 80002f8:	2b00      	cmp	r3, #0
 80002fa:	d001      	beq.n	8000300 <SystemClock_Config+0xa4>
  {
    Error_Handler();
 80002fc:	f000 f916 	bl	800052c <Error_Handler>
  }
}
 8000300:	bf00      	nop
 8000302:	3750      	adds	r7, #80	; 0x50
 8000304:	46bd      	mov	sp, r7
 8000306:	bd80      	pop	{r7, pc}

08000308 <MX_ADC1_Init>:
  * @brief ADC1 Initialization Function
  * @param None
  * @retval None
  */
static void MX_ADC1_Init(void)
{
 8000308:	b580      	push	{r7, lr}
 800030a:	b084      	sub	sp, #16
 800030c:	af00      	add	r7, sp, #0

  /* USER CODE BEGIN ADC1_Init 0 */

  /* USER CODE END ADC1_Init 0 */

  ADC_ChannelConfTypeDef sConfig = {0};
 800030e:	1d3b      	adds	r3, r7, #4
 8000310:	2200      	movs	r2, #0
 8000312:	601a      	str	r2, [r3, #0]
 8000314:	605a      	str	r2, [r3, #4]
 8000316:	609a      	str	r2, [r3, #8]

  /* USER CODE END ADC1_Init 1 */

  /** Common config
  */
  hadc1.Instance = ADC1;
 8000318:	4b27      	ldr	r3, [pc, #156]	; (80003b8 <MX_ADC1_Init+0xb0>)
 800031a:	4a28      	ldr	r2, [pc, #160]	; (80003bc <MX_ADC1_Init+0xb4>)
 800031c:	601a      	str	r2, [r3, #0]
  hadc1.Init.ScanConvMode = ADC_SCAN_ENABLE;
 800031e:	4b26      	ldr	r3, [pc, #152]	; (80003b8 <MX_ADC1_Init+0xb0>)
 8000320:	f44f 7280 	mov.w	r2, #256	; 0x100
 8000324:	609a      	str	r2, [r3, #8]
  hadc1.Init.ContinuousConvMode = ENABLE;
 8000326:	4b24      	ldr	r3, [pc, #144]	; (80003b8 <MX_ADC1_Init+0xb0>)
 8000328:	2201      	movs	r2, #1
 800032a:	731a      	strb	r2, [r3, #12]
  hadc1.Init.DiscontinuousConvMode = DISABLE;
 800032c:	4b22      	ldr	r3, [pc, #136]	; (80003b8 <MX_ADC1_Init+0xb0>)
 800032e:	2200      	movs	r2, #0
 8000330:	751a      	strb	r2, [r3, #20]
  hadc1.Init.ExternalTrigConv = ADC_SOFTWARE_START;
 8000332:	4b21      	ldr	r3, [pc, #132]	; (80003b8 <MX_ADC1_Init+0xb0>)
 8000334:	f44f 2260 	mov.w	r2, #917504	; 0xe0000
 8000338:	61da      	str	r2, [r3, #28]
  hadc1.Init.DataAlign = ADC_DATAALIGN_RIGHT;
 800033a:	4b1f      	ldr	r3, [pc, #124]	; (80003b8 <MX_ADC1_Init+0xb0>)
 800033c:	2200      	movs	r2, #0
 800033e:	605a      	str	r2, [r3, #4]
  hadc1.Init.NbrOfConversion = 3;
 8000340:	4b1d      	ldr	r3, [pc, #116]	; (80003b8 <MX_ADC1_Init+0xb0>)
 8000342:	2203      	movs	r2, #3
 8000344:	611a      	str	r2, [r3, #16]
  if (HAL_ADC_Init(&hadc1) != HAL_OK)
 8000346:	481c      	ldr	r0, [pc, #112]	; (80003b8 <MX_ADC1_Init+0xb0>)
 8000348:	f000 fb5a 	bl	8000a00 <HAL_ADC_Init>
 800034c:	4603      	mov	r3, r0
 800034e:	2b00      	cmp	r3, #0
 8000350:	d001      	beq.n	8000356 <MX_ADC1_Init+0x4e>
  {
    Error_Handler();
 8000352:	f000 f8eb 	bl	800052c <Error_Handler>
  }

  /** Configure Regular Channel
  */
  sConfig.Channel = ADC_CHANNEL_0;
 8000356:	2300      	movs	r3, #0
 8000358:	607b      	str	r3, [r7, #4]
  sConfig.Rank = ADC_REGULAR_RANK_1;
 800035a:	2301      	movs	r3, #1
 800035c:	60bb      	str	r3, [r7, #8]
  sConfig.SamplingTime = ADC_SAMPLETIME_239CYCLES_5;
 800035e:	2307      	movs	r3, #7
 8000360:	60fb      	str	r3, [r7, #12]
  if (HAL_ADC_ConfigChannel(&hadc1, &sConfig) != HAL_OK)
 8000362:	1d3b      	adds	r3, r7, #4
 8000364:	4619      	mov	r1, r3
 8000366:	4814      	ldr	r0, [pc, #80]	; (80003b8 <MX_ADC1_Init+0xb0>)
 8000368:	f000 fd1c 	bl	8000da4 <HAL_ADC_ConfigChannel>
 800036c:	4603      	mov	r3, r0
 800036e:	2b00      	cmp	r3, #0
 8000370:	d001      	beq.n	8000376 <MX_ADC1_Init+0x6e>
  {
    Error_Handler();
 8000372:	f000 f8db 	bl	800052c <Error_Handler>
  }

  /** Configure Regular Channel
  */
  sConfig.Channel = ADC_CHANNEL_1;
 8000376:	2301      	movs	r3, #1
 8000378:	607b      	str	r3, [r7, #4]
  sConfig.Rank = ADC_REGULAR_RANK_2;
 800037a:	2302      	movs	r3, #2
 800037c:	60bb      	str	r3, [r7, #8]
  if (HAL_ADC_ConfigChannel(&hadc1, &sConfig) != HAL_OK)
 800037e:	1d3b      	adds	r3, r7, #4
 8000380:	4619      	mov	r1, r3
 8000382:	480d      	ldr	r0, [pc, #52]	; (80003b8 <MX_ADC1_Init+0xb0>)
 8000384:	f000 fd0e 	bl	8000da4 <HAL_ADC_ConfigChannel>
 8000388:	4603      	mov	r3, r0
 800038a:	2b00      	cmp	r3, #0
 800038c:	d001      	beq.n	8000392 <MX_ADC1_Init+0x8a>
  {
    Error_Handler();
 800038e:	f000 f8cd 	bl	800052c <Error_Handler>
  }

  /** Configure Regular Channel
  */
  sConfig.Channel = ADC_CHANNEL_4;
 8000392:	2304      	movs	r3, #4
 8000394:	607b      	str	r3, [r7, #4]
  sConfig.Rank = ADC_REGULAR_RANK_3;
 8000396:	2303      	movs	r3, #3
 8000398:	60bb      	str	r3, [r7, #8]
  if (HAL_ADC_ConfigChannel(&hadc1, &sConfig) != HAL_OK)
 800039a:	1d3b      	adds	r3, r7, #4
 800039c:	4619      	mov	r1, r3
 800039e:	4806      	ldr	r0, [pc, #24]	; (80003b8 <MX_ADC1_Init+0xb0>)
 80003a0:	f000 fd00 	bl	8000da4 <HAL_ADC_ConfigChannel>
 80003a4:	4603      	mov	r3, r0
 80003a6:	2b00      	cmp	r3, #0
 80003a8:	d001      	beq.n	80003ae <MX_ADC1_Init+0xa6>
  {
    Error_Handler();
 80003aa:	f000 f8bf 	bl	800052c <Error_Handler>
  }
  /* USER CODE BEGIN ADC1_Init 2 */

  /* USER CODE END ADC1_Init 2 */

}
 80003ae:	bf00      	nop
 80003b0:	3710      	adds	r7, #16
 80003b2:	46bd      	mov	sp, r7
 80003b4:	bd80      	pop	{r7, pc}
 80003b6:	bf00      	nop
 80003b8:	2000008c 	.word	0x2000008c
 80003bc:	40012400 	.word	0x40012400

080003c0 <MX_USART2_UART_Init>:
  * @brief USART2 Initialization Function
  * @param None
  * @retval None
  */
static void MX_USART2_UART_Init(void)
{
 80003c0:	b580      	push	{r7, lr}
 80003c2:	af00      	add	r7, sp, #0
  /* USER CODE END USART2_Init 0 */

  /* USER CODE BEGIN USART2_Init 1 */

  /* USER CODE END USART2_Init 1 */
  huart2.Instance = USART2;
 80003c4:	4b11      	ldr	r3, [pc, #68]	; (800040c <MX_USART2_UART_Init+0x4c>)
 80003c6:	4a12      	ldr	r2, [pc, #72]	; (8000410 <MX_USART2_UART_Init+0x50>)
 80003c8:	601a      	str	r2, [r3, #0]
  huart2.Init.BaudRate = 115200;
 80003ca:	4b10      	ldr	r3, [pc, #64]	; (800040c <MX_USART2_UART_Init+0x4c>)
 80003cc:	f44f 32e1 	mov.w	r2, #115200	; 0x1c200
 80003d0:	605a      	str	r2, [r3, #4]
  huart2.Init.WordLength = UART_WORDLENGTH_8B;
 80003d2:	4b0e      	ldr	r3, [pc, #56]	; (800040c <MX_USART2_UART_Init+0x4c>)
 80003d4:	2200      	movs	r2, #0
 80003d6:	609a      	str	r2, [r3, #8]
  huart2.Init.StopBits = UART_STOPBITS_1;
 80003d8:	4b0c      	ldr	r3, [pc, #48]	; (800040c <MX_USART2_UART_Init+0x4c>)
 80003da:	2200      	movs	r2, #0
 80003dc:	60da      	str	r2, [r3, #12]
  huart2.Init.Parity = UART_PARITY_NONE;
 80003de:	4b0b      	ldr	r3, [pc, #44]	; (800040c <MX_USART2_UART_Init+0x4c>)
 80003e0:	2200      	movs	r2, #0
 80003e2:	611a      	str	r2, [r3, #16]
  huart2.Init.Mode = UART_MODE_TX_RX;
 80003e4:	4b09      	ldr	r3, [pc, #36]	; (800040c <MX_USART2_UART_Init+0x4c>)
 80003e6:	220c      	movs	r2, #12
 80003e8:	615a      	str	r2, [r3, #20]
  huart2.Init.HwFlowCtl = UART_HWCONTROL_NONE;
 80003ea:	4b08      	ldr	r3, [pc, #32]	; (800040c <MX_USART2_UART_Init+0x4c>)
 80003ec:	2200      	movs	r2, #0
 80003ee:	619a      	str	r2, [r3, #24]
  huart2.Init.OverSampling = UART_OVERSAMPLING_16;
 80003f0:	4b06      	ldr	r3, [pc, #24]	; (800040c <MX_USART2_UART_Init+0x4c>)
 80003f2:	2200      	movs	r2, #0
 80003f4:	61da      	str	r2, [r3, #28]
  if (HAL_UART_Init(&huart2) != HAL_OK)
 80003f6:	4805      	ldr	r0, [pc, #20]	; (800040c <MX_USART2_UART_Init+0x4c>)
 80003f8:	f002 f858 	bl	80024ac <HAL_UART_Init>
 80003fc:	4603      	mov	r3, r0
 80003fe:	2b00      	cmp	r3, #0
 8000400:	d001      	beq.n	8000406 <MX_USART2_UART_Init+0x46>
  {
    Error_Handler();
 8000402:	f000 f893 	bl	800052c <Error_Handler>
  }
  /* USER CODE BEGIN USART2_Init 2 */

  /* USER CODE END USART2_Init 2 */

}
 8000406:	bf00      	nop
 8000408:	bd80      	pop	{r7, pc}
 800040a:	bf00      	nop
 800040c:	20000100 	.word	0x20000100
 8000410:	40004400 	.word	0x40004400

08000414 <MX_DMA_Init>:

/**
  * Enable DMA controller clock
  */
static void MX_DMA_Init(void)
{
 8000414:	b580      	push	{r7, lr}
 8000416:	b082      	sub	sp, #8
 8000418:	af00      	add	r7, sp, #0

  /* DMA controller clock enable */
  __HAL_RCC_DMA1_CLK_ENABLE();
 800041a:	4b0c      	ldr	r3, [pc, #48]	; (800044c <MX_DMA_Init+0x38>)
 800041c:	695b      	ldr	r3, [r3, #20]
 800041e:	4a0b      	ldr	r2, [pc, #44]	; (800044c <MX_DMA_Init+0x38>)
 8000420:	f043 0301 	orr.w	r3, r3, #1
 8000424:	6153      	str	r3, [r2, #20]
 8000426:	4b09      	ldr	r3, [pc, #36]	; (800044c <MX_DMA_Init+0x38>)
 8000428:	695b      	ldr	r3, [r3, #20]
 800042a:	f003 0301 	and.w	r3, r3, #1
 800042e:	607b      	str	r3, [r7, #4]
 8000430:	687b      	ldr	r3, [r7, #4]

  /* DMA interrupt init */
  /* DMA1_Channel1_IRQn interrupt configuration */
  HAL_NVIC_SetPriority(DMA1_Channel1_IRQn, 0, 0);
 8000432:	2200      	movs	r2, #0
 8000434:	2100      	movs	r1, #0
 8000436:	200b      	movs	r0, #11
 8000438:	f000 ff85 	bl	8001346 <HAL_NVIC_SetPriority>
  HAL_NVIC_EnableIRQ(DMA1_Channel1_IRQn);
 800043c:	200b      	movs	r0, #11
 800043e:	f000 ff9e 	bl	800137e <HAL_NVIC_EnableIRQ>

}
 8000442:	bf00      	nop
 8000444:	3708      	adds	r7, #8
 8000446:	46bd      	mov	sp, r7
 8000448:	bd80      	pop	{r7, pc}
 800044a:	bf00      	nop
 800044c:	40021000 	.word	0x40021000

08000450 <MX_GPIO_Init>:
  * @brief GPIO Initialization Function
  * @param None
  * @retval None
  */
static void MX_GPIO_Init(void)
{
 8000450:	b580      	push	{r7, lr}
 8000452:	b088      	sub	sp, #32
 8000454:	af00      	add	r7, sp, #0
  GPIO_InitTypeDef GPIO_InitStruct = {0};
 8000456:	f107 0310 	add.w	r3, r7, #16
 800045a:	2200      	movs	r2, #0
 800045c:	601a      	str	r2, [r3, #0]
 800045e:	605a      	str	r2, [r3, #4]
 8000460:	609a      	str	r2, [r3, #8]
 8000462:	60da      	str	r2, [r3, #12]

  /* GPIO Ports Clock Enable */
  __HAL_RCC_GPIOC_CLK_ENABLE();
 8000464:	4b2d      	ldr	r3, [pc, #180]	; (800051c <MX_GPIO_Init+0xcc>)
 8000466:	699b      	ldr	r3, [r3, #24]
 8000468:	4a2c      	ldr	r2, [pc, #176]	; (800051c <MX_GPIO_Init+0xcc>)
 800046a:	f043 0310 	orr.w	r3, r3, #16
 800046e:	6193      	str	r3, [r2, #24]
 8000470:	4b2a      	ldr	r3, [pc, #168]	; (800051c <MX_GPIO_Init+0xcc>)
 8000472:	699b      	ldr	r3, [r3, #24]
 8000474:	f003 0310 	and.w	r3, r3, #16
 8000478:	60fb      	str	r3, [r7, #12]
 800047a:	68fb      	ldr	r3, [r7, #12]
  __HAL_RCC_GPIOD_CLK_ENABLE();
 800047c:	4b27      	ldr	r3, [pc, #156]	; (800051c <MX_GPIO_Init+0xcc>)
 800047e:	699b      	ldr	r3, [r3, #24]
 8000480:	4a26      	ldr	r2, [pc, #152]	; (800051c <MX_GPIO_Init+0xcc>)
 8000482:	f043 0320 	orr.w	r3, r3, #32
 8000486:	6193      	str	r3, [r2, #24]
 8000488:	4b24      	ldr	r3, [pc, #144]	; (800051c <MX_GPIO_Init+0xcc>)
 800048a:	699b      	ldr	r3, [r3, #24]
 800048c:	f003 0320 	and.w	r3, r3, #32
 8000490:	60bb      	str	r3, [r7, #8]
 8000492:	68bb      	ldr	r3, [r7, #8]
  __HAL_RCC_GPIOA_CLK_ENABLE();
 8000494:	4b21      	ldr	r3, [pc, #132]	; (800051c <MX_GPIO_Init+0xcc>)
 8000496:	699b      	ldr	r3, [r3, #24]
 8000498:	4a20      	ldr	r2, [pc, #128]	; (800051c <MX_GPIO_Init+0xcc>)
 800049a:	f043 0304 	orr.w	r3, r3, #4
 800049e:	6193      	str	r3, [r2, #24]
 80004a0:	4b1e      	ldr	r3, [pc, #120]	; (800051c <MX_GPIO_Init+0xcc>)
 80004a2:	699b      	ldr	r3, [r3, #24]
 80004a4:	f003 0304 	and.w	r3, r3, #4
 80004a8:	607b      	str	r3, [r7, #4]
 80004aa:	687b      	ldr	r3, [r7, #4]
  __HAL_RCC_GPIOB_CLK_ENABLE();
 80004ac:	4b1b      	ldr	r3, [pc, #108]	; (800051c <MX_GPIO_Init+0xcc>)
 80004ae:	699b      	ldr	r3, [r3, #24]
 80004b0:	4a1a      	ldr	r2, [pc, #104]	; (800051c <MX_GPIO_Init+0xcc>)
 80004b2:	f043 0308 	orr.w	r3, r3, #8
 80004b6:	6193      	str	r3, [r2, #24]
 80004b8:	4b18      	ldr	r3, [pc, #96]	; (800051c <MX_GPIO_Init+0xcc>)
 80004ba:	699b      	ldr	r3, [r3, #24]
 80004bc:	f003 0308 	and.w	r3, r3, #8
 80004c0:	603b      	str	r3, [r7, #0]
 80004c2:	683b      	ldr	r3, [r7, #0]

  /*Configure GPIO pin Output Level */
  HAL_GPIO_WritePin(LD2_GPIO_Port, LD2_Pin, GPIO_PIN_RESET);
 80004c4:	2200      	movs	r2, #0
 80004c6:	2120      	movs	r1, #32
 80004c8:	4815      	ldr	r0, [pc, #84]	; (8000520 <MX_GPIO_Init+0xd0>)
 80004ca:	f001 fae5 	bl	8001a98 <HAL_GPIO_WritePin>

  /*Configure GPIO pin : B1_Pin */
  GPIO_InitStruct.Pin = B1_Pin;
 80004ce:	f44f 5300 	mov.w	r3, #8192	; 0x2000
 80004d2:	613b      	str	r3, [r7, #16]
  GPIO_InitStruct.Mode = GPIO_MODE_IT_RISING;
 80004d4:	4b13      	ldr	r3, [pc, #76]	; (8000524 <MX_GPIO_Init+0xd4>)
 80004d6:	617b      	str	r3, [r7, #20]
  GPIO_InitStruct.Pull = GPIO_NOPULL;
 80004d8:	2300      	movs	r3, #0
 80004da:	61bb      	str	r3, [r7, #24]
  HAL_GPIO_Init(B1_GPIO_Port, &GPIO_InitStruct);
 80004dc:	f107 0310 	add.w	r3, r7, #16
 80004e0:	4619      	mov	r1, r3
 80004e2:	4811      	ldr	r0, [pc, #68]	; (8000528 <MX_GPIO_Init+0xd8>)
 80004e4:	f001 f954 	bl	8001790 <HAL_GPIO_Init>

  /*Configure GPIO pin : LD2_Pin */
  GPIO_InitStruct.Pin = LD2_Pin;
 80004e8:	2320      	movs	r3, #32
 80004ea:	613b      	str	r3, [r7, #16]
  GPIO_InitStruct.Mode = GPIO_MODE_OUTPUT_PP;
 80004ec:	2301      	movs	r3, #1
 80004ee:	617b      	str	r3, [r7, #20]
  GPIO_InitStruct.Pull = GPIO_NOPULL;
 80004f0:	2300      	movs	r3, #0
 80004f2:	61bb      	str	r3, [r7, #24]
  GPIO_InitStruct.Speed = GPIO_SPEED_FREQ_LOW;
 80004f4:	2302      	movs	r3, #2
 80004f6:	61fb      	str	r3, [r7, #28]
  HAL_GPIO_Init(LD2_GPIO_Port, &GPIO_InitStruct);
 80004f8:	f107 0310 	add.w	r3, r7, #16
 80004fc:	4619      	mov	r1, r3
 80004fe:	4808      	ldr	r0, [pc, #32]	; (8000520 <MX_GPIO_Init+0xd0>)
 8000500:	f001 f946 	bl	8001790 <HAL_GPIO_Init>

  /* EXTI interrupt init*/
  HAL_NVIC_SetPriority(EXTI15_10_IRQn, 0, 0);
 8000504:	2200      	movs	r2, #0
 8000506:	2100      	movs	r1, #0
 8000508:	2028      	movs	r0, #40	; 0x28
 800050a:	f000 ff1c 	bl	8001346 <HAL_NVIC_SetPriority>
  HAL_NVIC_EnableIRQ(EXTI15_10_IRQn);
 800050e:	2028      	movs	r0, #40	; 0x28
 8000510:	f000 ff35 	bl	800137e <HAL_NVIC_EnableIRQ>

}
 8000514:	bf00      	nop
 8000516:	3720      	adds	r7, #32
 8000518:	46bd      	mov	sp, r7
 800051a:	bd80      	pop	{r7, pc}
 800051c:	40021000 	.word	0x40021000
 8000520:	40010800 	.word	0x40010800
 8000524:	10110000 	.word	0x10110000
 8000528:	40011000 	.word	0x40011000

0800052c <Error_Handler>:
/**
  * @brief  This function is executed in case of error occurrence.
  * @retval None
  */
void Error_Handler(void)
{
 800052c:	b480      	push	{r7}
 800052e:	af00      	add	r7, sp, #0
  \details Disables IRQ interrupts by setting the I-bit in the CPSR.
           Can only be executed in Privileged modes.
 */
__STATIC_FORCEINLINE void __disable_irq(void)
{
  __ASM volatile ("cpsid i" : : : "memory");
 8000530:	b672      	cpsid	i
}
 8000532:	bf00      	nop
  /* USER CODE BEGIN Error_Handler_Debug */
  /* User can add his own implementation to report the HAL error return state */
  __disable_irq();
  while (1)
 8000534:	e7fe      	b.n	8000534 <Error_Handler+0x8>
	...

08000538 <HAL_MspInit>:
/* USER CODE END 0 */
/**
  * Initializes the Global MSP.
  */
void HAL_MspInit(void)
{
 8000538:	b480      	push	{r7}
 800053a:	b085      	sub	sp, #20
 800053c:	af00      	add	r7, sp, #0
  /* USER CODE BEGIN MspInit 0 */

  /* USER CODE END MspInit 0 */

  __HAL_RCC_AFIO_CLK_ENABLE();
 800053e:	4b15      	ldr	r3, [pc, #84]	; (8000594 <HAL_MspInit+0x5c>)
 8000540:	699b      	ldr	r3, [r3, #24]
 8000542:	4a14      	ldr	r2, [pc, #80]	; (8000594 <HAL_MspInit+0x5c>)
 8000544:	f043 0301 	orr.w	r3, r3, #1
 8000548:	6193      	str	r3, [r2, #24]
 800054a:	4b12      	ldr	r3, [pc, #72]	; (8000594 <HAL_MspInit+0x5c>)
 800054c:	699b      	ldr	r3, [r3, #24]
 800054e:	f003 0301 	and.w	r3, r3, #1
 8000552:	60bb      	str	r3, [r7, #8]
 8000554:	68bb      	ldr	r3, [r7, #8]
  __HAL_RCC_PWR_CLK_ENABLE();
 8000556:	4b0f      	ldr	r3, [pc, #60]	; (8000594 <HAL_MspInit+0x5c>)
 8000558:	69db      	ldr	r3, [r3, #28]
 800055a:	4a0e      	ldr	r2, [pc, #56]	; (8000594 <HAL_MspInit+0x5c>)
 800055c:	f043 5380 	orr.w	r3, r3, #268435456	; 0x10000000
 8000560:	61d3      	str	r3, [r2, #28]
 8000562:	4b0c      	ldr	r3, [pc, #48]	; (8000594 <HAL_MspInit+0x5c>)
 8000564:	69db      	ldr	r3, [r3, #28]
 8000566:	f003 5380 	and.w	r3, r3, #268435456	; 0x10000000
 800056a:	607b      	str	r3, [r7, #4]
 800056c:	687b      	ldr	r3, [r7, #4]

  /* System interrupt init*/

  /** NOJTAG: JTAG-DP Disabled and SW-DP Enabled
  */
  __HAL_AFIO_REMAP_SWJ_NOJTAG();
 800056e:	4b0a      	ldr	r3, [pc, #40]	; (8000598 <HAL_MspInit+0x60>)
 8000570:	685b      	ldr	r3, [r3, #4]
 8000572:	60fb      	str	r3, [r7, #12]
 8000574:	68fb      	ldr	r3, [r7, #12]
 8000576:	f023 63e0 	bic.w	r3, r3, #117440512	; 0x7000000
 800057a:	60fb      	str	r3, [r7, #12]
 800057c:	68fb      	ldr	r3, [r7, #12]
 800057e:	f043 7300 	orr.w	r3, r3, #33554432	; 0x2000000
 8000582:	60fb      	str	r3, [r7, #12]
 8000584:	4a04      	ldr	r2, [pc, #16]	; (8000598 <HAL_MspInit+0x60>)
 8000586:	68fb      	ldr	r3, [r7, #12]
 8000588:	6053      	str	r3, [r2, #4]

  /* USER CODE BEGIN MspInit 1 */

  /* USER CODE END MspInit 1 */
}
 800058a:	bf00      	nop
 800058c:	3714      	adds	r7, #20
 800058e:	46bd      	mov	sp, r7
 8000590:	bc80      	pop	{r7}
 8000592:	4770      	bx	lr
 8000594:	40021000 	.word	0x40021000
 8000598:	40010000 	.word	0x40010000

0800059c <HAL_ADC_MspInit>:
* This function configures the hardware resources used in this example
* @param hadc: ADC handle pointer
* @retval None
*/
void HAL_ADC_MspInit(ADC_HandleTypeDef* hadc)
{
 800059c:	b580      	push	{r7, lr}
 800059e:	b088      	sub	sp, #32
 80005a0:	af00      	add	r7, sp, #0
 80005a2:	6078      	str	r0, [r7, #4]
  GPIO_InitTypeDef GPIO_InitStruct = {0};
 80005a4:	f107 0310 	add.w	r3, r7, #16
 80005a8:	2200      	movs	r2, #0
 80005aa:	601a      	str	r2, [r3, #0]
 80005ac:	605a      	str	r2, [r3, #4]
 80005ae:	609a      	str	r2, [r3, #8]
 80005b0:	60da      	str	r2, [r3, #12]
  if(hadc->Instance==ADC1)
 80005b2:	687b      	ldr	r3, [r7, #4]
 80005b4:	681b      	ldr	r3, [r3, #0]
 80005b6:	4a28      	ldr	r2, [pc, #160]	; (8000658 <HAL_ADC_MspInit+0xbc>)
 80005b8:	4293      	cmp	r3, r2
 80005ba:	d149      	bne.n	8000650 <HAL_ADC_MspInit+0xb4>
  {
  /* USER CODE BEGIN ADC1_MspInit 0 */

  /* USER CODE END ADC1_MspInit 0 */
    /* Peripheral clock enable */
    __HAL_RCC_ADC1_CLK_ENABLE();
 80005bc:	4b27      	ldr	r3, [pc, #156]	; (800065c <HAL_ADC_MspInit+0xc0>)
 80005be:	699b      	ldr	r3, [r3, #24]
 80005c0:	4a26      	ldr	r2, [pc, #152]	; (800065c <HAL_ADC_MspInit+0xc0>)
 80005c2:	f443 7300 	orr.w	r3, r3, #512	; 0x200
 80005c6:	6193      	str	r3, [r2, #24]
 80005c8:	4b24      	ldr	r3, [pc, #144]	; (800065c <HAL_ADC_MspInit+0xc0>)
 80005ca:	699b      	ldr	r3, [r3, #24]
 80005cc:	f403 7300 	and.w	r3, r3, #512	; 0x200
 80005d0:	60fb      	str	r3, [r7, #12]
 80005d2:	68fb      	ldr	r3, [r7, #12]

    __HAL_RCC_GPIOA_CLK_ENABLE();
 80005d4:	4b21      	ldr	r3, [pc, #132]	; (800065c <HAL_ADC_MspInit+0xc0>)
 80005d6:	699b      	ldr	r3, [r3, #24]
 80005d8:	4a20      	ldr	r2, [pc, #128]	; (800065c <HAL_ADC_MspInit+0xc0>)
 80005da:	f043 0304 	orr.w	r3, r3, #4
 80005de:	6193      	str	r3, [r2, #24]
 80005e0:	4b1e      	ldr	r3, [pc, #120]	; (800065c <HAL_ADC_MspInit+0xc0>)
 80005e2:	699b      	ldr	r3, [r3, #24]
 80005e4:	f003 0304 	and.w	r3, r3, #4
 80005e8:	60bb      	str	r3, [r7, #8]
 80005ea:	68bb      	ldr	r3, [r7, #8]
    /**ADC1 GPIO Configuration
    PA0-WKUP     ------> ADC1_IN0
    PA1     ------> ADC1_IN1
    PA4     ------> ADC1_IN4
    */
    GPIO_InitStruct.Pin = GPIO_PIN_0|GPIO_PIN_1|GPIO_PIN_4;
 80005ec:	2313      	movs	r3, #19
 80005ee:	613b      	str	r3, [r7, #16]
    GPIO_InitStruct.Mode = GPIO_MODE_ANALOG;
 80005f0:	2303      	movs	r3, #3
 80005f2:	617b      	str	r3, [r7, #20]
    HAL_GPIO_Init(GPIOA, &GPIO_InitStruct);
 80005f4:	f107 0310 	add.w	r3, r7, #16
 80005f8:	4619      	mov	r1, r3
 80005fa:	4819      	ldr	r0, [pc, #100]	; (8000660 <HAL_ADC_MspInit+0xc4>)
 80005fc:	f001 f8c8 	bl	8001790 <HAL_GPIO_Init>

    /* ADC1 DMA Init */
    /* ADC1 Init */
    hdma_adc1.Instance = DMA1_Channel1;
 8000600:	4b18      	ldr	r3, [pc, #96]	; (8000664 <HAL_ADC_MspInit+0xc8>)
 8000602:	4a19      	ldr	r2, [pc, #100]	; (8000668 <HAL_ADC_MspInit+0xcc>)
 8000604:	601a      	str	r2, [r3, #0]
    hdma_adc1.Init.Direction = DMA_PERIPH_TO_MEMORY;
 8000606:	4b17      	ldr	r3, [pc, #92]	; (8000664 <HAL_ADC_MspInit+0xc8>)
 8000608:	2200      	movs	r2, #0
 800060a:	605a      	str	r2, [r3, #4]
    hdma_adc1.Init.PeriphInc = DMA_PINC_DISABLE;
 800060c:	4b15      	ldr	r3, [pc, #84]	; (8000664 <HAL_ADC_MspInit+0xc8>)
 800060e:	2200      	movs	r2, #0
 8000610:	609a      	str	r2, [r3, #8]
    hdma_adc1.Init.MemInc = DMA_MINC_ENABLE;
 8000612:	4b14      	ldr	r3, [pc, #80]	; (8000664 <HAL_ADC_MspInit+0xc8>)
 8000614:	2280      	movs	r2, #128	; 0x80
 8000616:	60da      	str	r2, [r3, #12]
    hdma_adc1.Init.PeriphDataAlignment = DMA_PDATAALIGN_WORD;
 8000618:	4b12      	ldr	r3, [pc, #72]	; (8000664 <HAL_ADC_MspInit+0xc8>)
 800061a:	f44f 7200 	mov.w	r2, #512	; 0x200
 800061e:	611a      	str	r2, [r3, #16]
    hdma_adc1.Init.MemDataAlignment = DMA_MDATAALIGN_WORD;
 8000620:	4b10      	ldr	r3, [pc, #64]	; (8000664 <HAL_ADC_MspInit+0xc8>)
 8000622:	f44f 6200 	mov.w	r2, #2048	; 0x800
 8000626:	615a      	str	r2, [r3, #20]
    hdma_adc1.Init.Mode = DMA_CIRCULAR;
 8000628:	4b0e      	ldr	r3, [pc, #56]	; (8000664 <HAL_ADC_MspInit+0xc8>)
 800062a:	2220      	movs	r2, #32
 800062c:	619a      	str	r2, [r3, #24]
    hdma_adc1.Init.Priority = DMA_PRIORITY_LOW;
 800062e:	4b0d      	ldr	r3, [pc, #52]	; (8000664 <HAL_ADC_MspInit+0xc8>)
 8000630:	2200      	movs	r2, #0
 8000632:	61da      	str	r2, [r3, #28]
    if (HAL_DMA_Init(&hdma_adc1) != HAL_OK)
 8000634:	480b      	ldr	r0, [pc, #44]	; (8000664 <HAL_ADC_MspInit+0xc8>)
 8000636:	f000 febd 	bl	80013b4 <HAL_DMA_Init>
 800063a:	4603      	mov	r3, r0
 800063c:	2b00      	cmp	r3, #0
 800063e:	d001      	beq.n	8000644 <HAL_ADC_MspInit+0xa8>
    {
      Error_Handler();
 8000640:	f7ff ff74 	bl	800052c <Error_Handler>
    }

    __HAL_LINKDMA(hadc,DMA_Handle,hdma_adc1);
 8000644:	687b      	ldr	r3, [r7, #4]
 8000646:	4a07      	ldr	r2, [pc, #28]	; (8000664 <HAL_ADC_MspInit+0xc8>)
 8000648:	621a      	str	r2, [r3, #32]
 800064a:	4a06      	ldr	r2, [pc, #24]	; (8000664 <HAL_ADC_MspInit+0xc8>)
 800064c:	687b      	ldr	r3, [r7, #4]
 800064e:	6253      	str	r3, [r2, #36]	; 0x24
  /* USER CODE BEGIN ADC1_MspInit 1 */

  /* USER CODE END ADC1_MspInit 1 */
  }

}
 8000650:	bf00      	nop
 8000652:	3720      	adds	r7, #32
 8000654:	46bd      	mov	sp, r7
 8000656:	bd80      	pop	{r7, pc}
 8000658:	40012400 	.word	0x40012400
 800065c:	40021000 	.word	0x40021000
 8000660:	40010800 	.word	0x40010800
 8000664:	200000bc 	.word	0x200000bc
 8000668:	40020008 	.word	0x40020008

0800066c <HAL_UART_MspInit>:
* This function configures the hardware resources used in this example
* @param huart: UART handle pointer
* @retval None
*/
void HAL_UART_MspInit(UART_HandleTypeDef* huart)
{
 800066c:	b580      	push	{r7, lr}
 800066e:	b088      	sub	sp, #32
 8000670:	af00      	add	r7, sp, #0
 8000672:	6078      	str	r0, [r7, #4]
  GPIO_InitTypeDef GPIO_InitStruct = {0};
 8000674:	f107 0310 	add.w	r3, r7, #16
 8000678:	2200      	movs	r2, #0
 800067a:	601a      	str	r2, [r3, #0]
 800067c:	605a      	str	r2, [r3, #4]
 800067e:	609a      	str	r2, [r3, #8]
 8000680:	60da      	str	r2, [r3, #12]
  if(huart->Instance==USART2)
 8000682:	687b      	ldr	r3, [r7, #4]
 8000684:	681b      	ldr	r3, [r3, #0]
 8000686:	4a15      	ldr	r2, [pc, #84]	; (80006dc <HAL_UART_MspInit+0x70>)
 8000688:	4293      	cmp	r3, r2
 800068a:	d123      	bne.n	80006d4 <HAL_UART_MspInit+0x68>
  {
  /* USER CODE BEGIN USART2_MspInit 0 */

  /* USER CODE END USART2_MspInit 0 */
    /* Peripheral clock enable */
    __HAL_RCC_USART2_CLK_ENABLE();
 800068c:	4b14      	ldr	r3, [pc, #80]	; (80006e0 <HAL_UART_MspInit+0x74>)
 800068e:	69db      	ldr	r3, [r3, #28]
 8000690:	4a13      	ldr	r2, [pc, #76]	; (80006e0 <HAL_UART_MspInit+0x74>)
 8000692:	f443 3300 	orr.w	r3, r3, #131072	; 0x20000
 8000696:	61d3      	str	r3, [r2, #28]
 8000698:	4b11      	ldr	r3, [pc, #68]	; (80006e0 <HAL_UART_MspInit+0x74>)
 800069a:	69db      	ldr	r3, [r3, #28]
 800069c:	f403 3300 	and.w	r3, r3, #131072	; 0x20000
 80006a0:	60fb      	str	r3, [r7, #12]
 80006a2:	68fb      	ldr	r3, [r7, #12]

    __HAL_RCC_GPIOA_CLK_ENABLE();
 80006a4:	4b0e      	ldr	r3, [pc, #56]	; (80006e0 <HAL_UART_MspInit+0x74>)
 80006a6:	699b      	ldr	r3, [r3, #24]
 80006a8:	4a0d      	ldr	r2, [pc, #52]	; (80006e0 <HAL_UART_MspInit+0x74>)
 80006aa:	f043 0304 	orr.w	r3, r3, #4
 80006ae:	6193      	str	r3, [r2, #24]
 80006b0:	4b0b      	ldr	r3, [pc, #44]	; (80006e0 <HAL_UART_MspInit+0x74>)
 80006b2:	699b      	ldr	r3, [r3, #24]
 80006b4:	f003 0304 	and.w	r3, r3, #4
 80006b8:	60bb      	str	r3, [r7, #8]
 80006ba:	68bb      	ldr	r3, [r7, #8]
    /**USART2 GPIO Configuration
    PA2     ------> USART2_TX
    PA3     ------> USART2_RX
    */
    GPIO_InitStruct.Pin = USART_TX_Pin|USART_RX_Pin;
 80006bc:	230c      	movs	r3, #12
 80006be:	613b      	str	r3, [r7, #16]
    GPIO_InitStruct.Mode = GPIO_MODE_AF_PP;
 80006c0:	2302      	movs	r3, #2
 80006c2:	617b      	str	r3, [r7, #20]
    GPIO_InitStruct.Speed = GPIO_SPEED_FREQ_LOW;
 80006c4:	2302      	movs	r3, #2
 80006c6:	61fb      	str	r3, [r7, #28]
    HAL_GPIO_Init(GPIOA, &GPIO_InitStruct);
 80006c8:	f107 0310 	add.w	r3, r7, #16
 80006cc:	4619      	mov	r1, r3
 80006ce:	4805      	ldr	r0, [pc, #20]	; (80006e4 <HAL_UART_MspInit+0x78>)
 80006d0:	f001 f85e 	bl	8001790 <HAL_GPIO_Init>
  /* USER CODE BEGIN USART2_MspInit 1 */

  /* USER CODE END USART2_MspInit 1 */
  }

}
 80006d4:	bf00      	nop
 80006d6:	3720      	adds	r7, #32
 80006d8:	46bd      	mov	sp, r7
 80006da:	bd80      	pop	{r7, pc}
 80006dc:	40004400 	.word	0x40004400
 80006e0:	40021000 	.word	0x40021000
 80006e4:	40010800 	.word	0x40010800

080006e8 <NMI_Handler>:
/******************************************************************************/
/**
  * @brief This function handles Non maskable interrupt.
  */
void NMI_Handler(void)
{
 80006e8:	b480      	push	{r7}
 80006ea:	af00      	add	r7, sp, #0
  /* USER CODE BEGIN NonMaskableInt_IRQn 0 */

  /* USER CODE END NonMaskableInt_IRQn 0 */
  /* USER CODE BEGIN NonMaskableInt_IRQn 1 */
  while (1)
 80006ec:	e7fe      	b.n	80006ec <NMI_Handler+0x4>

080006ee <HardFault_Handler>:

/**
  * @brief This function handles Hard fault interrupt.
  */
void HardFault_Handler(void)
{
 80006ee:	b480      	push	{r7}
 80006f0:	af00      	add	r7, sp, #0
  /* USER CODE BEGIN HardFault_IRQn 0 */

  /* USER CODE END HardFault_IRQn 0 */
  while (1)
 80006f2:	e7fe      	b.n	80006f2 <HardFault_Handler+0x4>

080006f4 <MemManage_Handler>:

/**
  * @brief This function handles Memory management fault.
  */
void MemManage_Handler(void)
{
 80006f4:	b480      	push	{r7}
 80006f6:	af00      	add	r7, sp, #0
  /* USER CODE BEGIN MemoryManagement_IRQn 0 */

  /* USER CODE END MemoryManagement_IRQn 0 */
  while (1)
 80006f8:	e7fe      	b.n	80006f8 <MemManage_Handler+0x4>

080006fa <BusFault_Handler>:

/**
  * @brief This function handles Prefetch fault, memory access fault.
  */
void BusFault_Handler(void)
{
 80006fa:	b480      	push	{r7}
 80006fc:	af00      	add	r7, sp, #0
  /* USER CODE BEGIN BusFault_IRQn 0 */

  /* USER CODE END BusFault_IRQn 0 */
  while (1)
 80006fe:	e7fe      	b.n	80006fe <BusFault_Handler+0x4>

08000700 <UsageFault_Handler>:

/**
  * @brief This function handles Undefined instruction or illegal state.
  */
void UsageFault_Handler(void)
{
 8000700:	b480      	push	{r7}
 8000702:	af00      	add	r7, sp, #0
  /* USER CODE BEGIN UsageFault_IRQn 0 */

  /* USER CODE END UsageFault_IRQn 0 */
  while (1)
 8000704:	e7fe      	b.n	8000704 <UsageFault_Handler+0x4>

08000706 <SVC_Handler>:

/**
  * @brief This function handles System service call via SWI instruction.
  */
void SVC_Handler(void)
{
 8000706:	b480      	push	{r7}
 8000708:	af00      	add	r7, sp, #0

  /* USER CODE END SVCall_IRQn 0 */
  /* USER CODE BEGIN SVCall_IRQn 1 */

  /* USER CODE END SVCall_IRQn 1 */
}
 800070a:	bf00      	nop
 800070c:	46bd      	mov	sp, r7
 800070e:	bc80      	pop	{r7}
 8000710:	4770      	bx	lr

08000712 <DebugMon_Handler>:

/**
  * @brief This function handles Debug monitor.
  */
void DebugMon_Handler(void)
{
 8000712:	b480      	push	{r7}
 8000714:	af00      	add	r7, sp, #0

  /* USER CODE END DebugMonitor_IRQn 0 */
  /* USER CODE BEGIN DebugMonitor_IRQn 1 */

  /* USER CODE END DebugMonitor_IRQn 1 */
}
 8000716:	bf00      	nop
 8000718:	46bd      	mov	sp, r7
 800071a:	bc80      	pop	{r7}
 800071c:	4770      	bx	lr

0800071e <PendSV_Handler>:

/**
  * @brief This function handles Pendable request for system service.
  */
void PendSV_Handler(void)
{
 800071e:	b480      	push	{r7}
 8000720:	af00      	add	r7, sp, #0

  /* USER CODE END PendSV_IRQn 0 */
  /* USER CODE BEGIN PendSV_IRQn 1 */

  /* USER CODE END PendSV_IRQn 1 */
}
 8000722:	bf00      	nop
 8000724:	46bd      	mov	sp, r7
 8000726:	bc80      	pop	{r7}
 8000728:	4770      	bx	lr

0800072a <SysTick_Handler>:

/**
  * @brief This function handles System tick timer.
  */
void SysTick_Handler(void)
{
 800072a:	b580      	push	{r7, lr}
 800072c:	af00      	add	r7, sp, #0
  /* USER CODE BEGIN SysTick_IRQn 0 */

  /* USER CODE END SysTick_IRQn 0 */
  HAL_IncTick();
 800072e:	f000 f927 	bl	8000980 <HAL_IncTick>
  /* USER CODE BEGIN SysTick_IRQn 1 */

  /* USER CODE END SysTick_IRQn 1 */
}
 8000732:	bf00      	nop
 8000734:	bd80      	pop	{r7, pc}
	...

08000738 <DMA1_Channel1_IRQHandler>:

/**
  * @brief This function handles DMA1 channel1 global interrupt.
  */
void DMA1_Channel1_IRQHandler(void)
{
 8000738:	b580      	push	{r7, lr}
 800073a:	af00      	add	r7, sp, #0
  /* USER CODE BEGIN DMA1_Channel1_IRQn 0 */

  /* USER CODE END DMA1_Channel1_IRQn 0 */
  HAL_DMA_IRQHandler(&hdma_adc1);
 800073c:	4802      	ldr	r0, [pc, #8]	; (8000748 <DMA1_Channel1_IRQHandler+0x10>)
 800073e:	f000 fef3 	bl	8001528 <HAL_DMA_IRQHandler>
  /* USER CODE BEGIN DMA1_Channel1_IRQn 1 */

  /* USER CODE END DMA1_Channel1_IRQn 1 */
}
 8000742:	bf00      	nop
 8000744:	bd80      	pop	{r7, pc}
 8000746:	bf00      	nop
 8000748:	200000bc 	.word	0x200000bc

0800074c <EXTI15_10_IRQHandler>:

/**
  * @brief This function handles EXTI line[15:10] interrupts.
  */
void EXTI15_10_IRQHandler(void)
{
 800074c:	b580      	push	{r7, lr}
 800074e:	af00      	add	r7, sp, #0
  /* USER CODE BEGIN EXTI15_10_IRQn 0 */

  /* USER CODE END EXTI15_10_IRQn 0 */
  HAL_GPIO_EXTI_IRQHandler(B1_Pin);
 8000750:	f44f 5000 	mov.w	r0, #8192	; 0x2000
 8000754:	f001 f9b8 	bl	8001ac8 <HAL_GPIO_EXTI_IRQHandler>
  /* USER CODE BEGIN EXTI15_10_IRQn 1 */

  /* USER CODE END EXTI15_10_IRQn 1 */
}
 8000758:	bf00      	nop
 800075a:	bd80      	pop	{r7, pc}

0800075c <_read>:
	_kill(status, -1);
	while (1) {}		/* Make sure we hang here */
}

__attribute__((weak)) int _read(int file, char *ptr, int len)
{
 800075c:	b580      	push	{r7, lr}
 800075e:	b086      	sub	sp, #24
 8000760:	af00      	add	r7, sp, #0
 8000762:	60f8      	str	r0, [r7, #12]
 8000764:	60b9      	str	r1, [r7, #8]
 8000766:	607a      	str	r2, [r7, #4]
	int DataIdx;

	for (DataIdx = 0; DataIdx < len; DataIdx++)
 8000768:	2300      	movs	r3, #0
 800076a:	617b      	str	r3, [r7, #20]
 800076c:	e00a      	b.n	8000784 <_read+0x28>
	{
		*ptr++ = __io_getchar();
 800076e:	f3af 8000 	nop.w
 8000772:	4601      	mov	r1, r0
 8000774:	68bb      	ldr	r3, [r7, #8]
 8000776:	1c5a      	adds	r2, r3, #1
 8000778:	60ba      	str	r2, [r7, #8]
 800077a:	b2ca      	uxtb	r2, r1
 800077c:	701a      	strb	r2, [r3, #0]
	for (DataIdx = 0; DataIdx < len; DataIdx++)
 800077e:	697b      	ldr	r3, [r7, #20]
 8000780:	3301      	adds	r3, #1
 8000782:	617b      	str	r3, [r7, #20]
 8000784:	697a      	ldr	r2, [r7, #20]
 8000786:	687b      	ldr	r3, [r7, #4]
 8000788:	429a      	cmp	r2, r3
 800078a:	dbf0      	blt.n	800076e <_read+0x12>
	}

return len;
 800078c:	687b      	ldr	r3, [r7, #4]
}
 800078e:	4618      	mov	r0, r3
 8000790:	3718      	adds	r7, #24
 8000792:	46bd      	mov	sp, r7
 8000794:	bd80      	pop	{r7, pc}

08000796 <_write>:

__attribute__((weak)) int _write(int file, char *ptr, int len)
{
 8000796:	b580      	push	{r7, lr}
 8000798:	b086      	sub	sp, #24
 800079a:	af00      	add	r7, sp, #0
 800079c:	60f8      	str	r0, [r7, #12]
 800079e:	60b9      	str	r1, [r7, #8]
 80007a0:	607a      	str	r2, [r7, #4]
	int DataIdx;

	for (DataIdx = 0; DataIdx < len; DataIdx++)
 80007a2:	2300      	movs	r3, #0
 80007a4:	617b      	str	r3, [r7, #20]
 80007a6:	e009      	b.n	80007bc <_write+0x26>
	{
		__io_putchar(*ptr++);
 80007a8:	68bb      	ldr	r3, [r7, #8]
 80007aa:	1c5a      	adds	r2, r3, #1
 80007ac:	60ba      	str	r2, [r7, #8]
 80007ae:	781b      	ldrb	r3, [r3, #0]
 80007b0:	4618      	mov	r0, r3
 80007b2:	f7ff fccb 	bl	800014c <__io_putchar>
	for (DataIdx = 0; DataIdx < len; DataIdx++)
 80007b6:	697b      	ldr	r3, [r7, #20]
 80007b8:	3301      	adds	r3, #1
 80007ba:	617b      	str	r3, [r7, #20]
 80007bc:	697a      	ldr	r2, [r7, #20]
 80007be:	687b      	ldr	r3, [r7, #4]
 80007c0:	429a      	cmp	r2, r3
 80007c2:	dbf1      	blt.n	80007a8 <_write+0x12>
	}
	return len;
 80007c4:	687b      	ldr	r3, [r7, #4]
}
 80007c6:	4618      	mov	r0, r3
 80007c8:	3718      	adds	r7, #24
 80007ca:	46bd      	mov	sp, r7
 80007cc:	bd80      	pop	{r7, pc}

080007ce <_close>:

int _close(int file)
{
 80007ce:	b480      	push	{r7}
 80007d0:	b083      	sub	sp, #12
 80007d2:	af00      	add	r7, sp, #0
 80007d4:	6078      	str	r0, [r7, #4]
	return -1;
 80007d6:	f04f 33ff 	mov.w	r3, #4294967295
}
 80007da:	4618      	mov	r0, r3
 80007dc:	370c      	adds	r7, #12
 80007de:	46bd      	mov	sp, r7
 80007e0:	bc80      	pop	{r7}
 80007e2:	4770      	bx	lr

080007e4 <_fstat>:


int _fstat(int file, struct stat *st)
{
 80007e4:	b480      	push	{r7}
 80007e6:	b083      	sub	sp, #12
 80007e8:	af00      	add	r7, sp, #0
 80007ea:	6078      	str	r0, [r7, #4]
 80007ec:	6039      	str	r1, [r7, #0]
	st->st_mode = S_IFCHR;
 80007ee:	683b      	ldr	r3, [r7, #0]
 80007f0:	f44f 5200 	mov.w	r2, #8192	; 0x2000
 80007f4:	605a      	str	r2, [r3, #4]
	return 0;
 80007f6:	2300      	movs	r3, #0
}
 80007f8:	4618      	mov	r0, r3
 80007fa:	370c      	adds	r7, #12
 80007fc:	46bd      	mov	sp, r7
 80007fe:	bc80      	pop	{r7}
 8000800:	4770      	bx	lr

08000802 <_isatty>:

int _isatty(int file)
{
 8000802:	b480      	push	{r7}
 8000804:	b083      	sub	sp, #12
 8000806:	af00      	add	r7, sp, #0
 8000808:	6078      	str	r0, [r7, #4]
	return 1;
 800080a:	2301      	movs	r3, #1
}
 800080c:	4618      	mov	r0, r3
 800080e:	370c      	adds	r7, #12
 8000810:	46bd      	mov	sp, r7
 8000812:	bc80      	pop	{r7}
 8000814:	4770      	bx	lr

08000816 <_lseek>:

int _lseek(int file, int ptr, int dir)
{
 8000816:	b480      	push	{r7}
 8000818:	b085      	sub	sp, #20
 800081a:	af00      	add	r7, sp, #0
 800081c:	60f8      	str	r0, [r7, #12]
 800081e:	60b9      	str	r1, [r7, #8]
 8000820:	607a      	str	r2, [r7, #4]
	return 0;
 8000822:	2300      	movs	r3, #0
}
 8000824:	4618      	mov	r0, r3
 8000826:	3714      	adds	r7, #20
 8000828:	46bd      	mov	sp, r7
 800082a:	bc80      	pop	{r7}
 800082c:	4770      	bx	lr
	...

08000830 <_sbrk>:
 *
 * @param incr Memory size
 * @return Pointer to allocated memory
 */
void *_sbrk(ptrdiff_t incr)
{
 8000830:	b580      	push	{r7, lr}
 8000832:	b086      	sub	sp, #24
 8000834:	af00      	add	r7, sp, #0
 8000836:	6078      	str	r0, [r7, #4]
  extern uint8_t _end; /* Symbol defined in the linker script */
  extern uint8_t _estack; /* Symbol defined in the linker script */
  extern uint32_t _Min_Stack_Size; /* Symbol defined in the linker script */
  const uint32_t stack_limit = (uint32_t)&_estack - (uint32_t)&_Min_Stack_Size;
 8000838:	4a14      	ldr	r2, [pc, #80]	; (800088c <_sbrk+0x5c>)
 800083a:	4b15      	ldr	r3, [pc, #84]	; (8000890 <_sbrk+0x60>)
 800083c:	1ad3      	subs	r3, r2, r3
 800083e:	617b      	str	r3, [r7, #20]
  const uint8_t *max_heap = (uint8_t *)stack_limit;
 8000840:	697b      	ldr	r3, [r7, #20]
 8000842:	613b      	str	r3, [r7, #16]
  uint8_t *prev_heap_end;

  /* Initialize heap end at first call */
  if (NULL == __sbrk_heap_end)
 8000844:	4b13      	ldr	r3, [pc, #76]	; (8000894 <_sbrk+0x64>)
 8000846:	681b      	ldr	r3, [r3, #0]
 8000848:	2b00      	cmp	r3, #0
 800084a:	d102      	bne.n	8000852 <_sbrk+0x22>
  {
    __sbrk_heap_end = &_end;
 800084c:	4b11      	ldr	r3, [pc, #68]	; (8000894 <_sbrk+0x64>)
 800084e:	4a12      	ldr	r2, [pc, #72]	; (8000898 <_sbrk+0x68>)
 8000850:	601a      	str	r2, [r3, #0]
  }

  /* Protect heap from growing into the reserved MSP stack */
  if (__sbrk_heap_end + incr > max_heap)
 8000852:	4b10      	ldr	r3, [pc, #64]	; (8000894 <_sbrk+0x64>)
 8000854:	681a      	ldr	r2, [r3, #0]
 8000856:	687b      	ldr	r3, [r7, #4]
 8000858:	4413      	add	r3, r2
 800085a:	693a      	ldr	r2, [r7, #16]
 800085c:	429a      	cmp	r2, r3
 800085e:	d207      	bcs.n	8000870 <_sbrk+0x40>
  {
    errno = ENOMEM;
 8000860:	f001 ffdc 	bl	800281c <__errno>
 8000864:	4603      	mov	r3, r0
 8000866:	220c      	movs	r2, #12
 8000868:	601a      	str	r2, [r3, #0]
    return (void *)-1;
 800086a:	f04f 33ff 	mov.w	r3, #4294967295
 800086e:	e009      	b.n	8000884 <_sbrk+0x54>
  }

  prev_heap_end = __sbrk_heap_end;
 8000870:	4b08      	ldr	r3, [pc, #32]	; (8000894 <_sbrk+0x64>)
 8000872:	681b      	ldr	r3, [r3, #0]
 8000874:	60fb      	str	r3, [r7, #12]
  __sbrk_heap_end += incr;
 8000876:	4b07      	ldr	r3, [pc, #28]	; (8000894 <_sbrk+0x64>)
 8000878:	681a      	ldr	r2, [r3, #0]
 800087a:	687b      	ldr	r3, [r7, #4]
 800087c:	4413      	add	r3, r2
 800087e:	4a05      	ldr	r2, [pc, #20]	; (8000894 <_sbrk+0x64>)
 8000880:	6013      	str	r3, [r2, #0]

  return (void *)prev_heap_end;
 8000882:	68fb      	ldr	r3, [r7, #12]
}
 8000884:	4618      	mov	r0, r3
 8000886:	3718      	adds	r7, #24
 8000888:	46bd      	mov	sp, r7
 800088a:	bd80      	pop	{r7, pc}
 800088c:	20005000 	.word	0x20005000
 8000890:	00000400 	.word	0x00000400
 8000894:	20000150 	.word	0x20000150
 8000898:	20000168 	.word	0x20000168

0800089c <SystemInit>:
  * @note   This function should be used only after reset.
  * @param  None
  * @retval None
  */
void SystemInit (void)
{
 800089c:	b480      	push	{r7}
 800089e:	af00      	add	r7, sp, #0

  /* Configure the Vector Table location -------------------------------------*/
#if defined(USER_VECT_TAB_ADDRESS)
  SCB->VTOR = VECT_TAB_BASE_ADDRESS | VECT_TAB_OFFSET; /* Vector Table Relocation in Internal SRAM. */
#endif /* USER_VECT_TAB_ADDRESS */
}
 80008a0:	bf00      	nop
 80008a2:	46bd      	mov	sp, r7
 80008a4:	bc80      	pop	{r7}
 80008a6:	4770      	bx	lr

080008a8 <Reset_Handler>:
  .weak Reset_Handler
  .type Reset_Handler, %function
Reset_Handler:

/* Copy the data segment initializers from flash to SRAM */
  ldr r0, =_sdata
 80008a8:	480c      	ldr	r0, [pc, #48]	; (80008dc <LoopFillZerobss+0x12>)
  ldr r1, =_edata
 80008aa:	490d      	ldr	r1, [pc, #52]	; (80008e0 <LoopFillZerobss+0x16>)
  ldr r2, =_sidata
 80008ac:	4a0d      	ldr	r2, [pc, #52]	; (80008e4 <LoopFillZerobss+0x1a>)
  movs r3, #0
 80008ae:	2300      	movs	r3, #0
  b LoopCopyDataInit
 80008b0:	e002      	b.n	80008b8 <LoopCopyDataInit>

080008b2 <CopyDataInit>:

CopyDataInit:
  ldr r4, [r2, r3]
 80008b2:	58d4      	ldr	r4, [r2, r3]
  str r4, [r0, r3]
 80008b4:	50c4      	str	r4, [r0, r3]
  adds r3, r3, #4
 80008b6:	3304      	adds	r3, #4

080008b8 <LoopCopyDataInit>:

LoopCopyDataInit:
  adds r4, r0, r3
 80008b8:	18c4      	adds	r4, r0, r3
  cmp r4, r1
 80008ba:	428c      	cmp	r4, r1
  bcc CopyDataInit
 80008bc:	d3f9      	bcc.n	80008b2 <CopyDataInit>
  
/* Zero fill the bss segment. */
  ldr r2, =_sbss
 80008be:	4a0a      	ldr	r2, [pc, #40]	; (80008e8 <LoopFillZerobss+0x1e>)
  ldr r4, =_ebss
 80008c0:	4c0a      	ldr	r4, [pc, #40]	; (80008ec <LoopFillZerobss+0x22>)
  movs r3, #0
 80008c2:	2300      	movs	r3, #0
  b LoopFillZerobss
 80008c4:	e001      	b.n	80008ca <LoopFillZerobss>

080008c6 <FillZerobss>:

FillZerobss:
  str  r3, [r2]
 80008c6:	6013      	str	r3, [r2, #0]
  adds r2, r2, #4
 80008c8:	3204      	adds	r2, #4

080008ca <LoopFillZerobss>:

LoopFillZerobss:
  cmp r2, r4
 80008ca:	42a2      	cmp	r2, r4
  bcc FillZerobss
 80008cc:	d3fb      	bcc.n	80008c6 <FillZerobss>

/* Call the clock system intitialization function.*/
    bl  SystemInit
 80008ce:	f7ff ffe5 	bl	800089c <SystemInit>
/* Call static constructors */
    bl __libc_init_array
 80008d2:	f001 ffa9 	bl	8002828 <__libc_init_array>
/* Call the application's entry point.*/
  bl main
 80008d6:	f7ff fc69 	bl	80001ac <main>
  bx lr
 80008da:	4770      	bx	lr
  ldr r0, =_sdata
 80008dc:	20000000 	.word	0x20000000
  ldr r1, =_edata
 80008e0:	20000070 	.word	0x20000070
  ldr r2, =_sidata
 80008e4:	080038b8 	.word	0x080038b8
  ldr r2, =_sbss
 80008e8:	20000070 	.word	0x20000070
  ldr r4, =_ebss
 80008ec:	20000168 	.word	0x20000168

080008f0 <ADC1_2_IRQHandler>:
 * @retval : None
*/
    .section .text.Default_Handler,"ax",%progbits
Default_Handler:
Infinite_Loop:
  b Infinite_Loop
 80008f0:	e7fe      	b.n	80008f0 <ADC1_2_IRQHandler>
	...

080008f4 <HAL_Init>:
  *         need to ensure that the SysTick time base is always set to 1 millisecond
  *         to have correct HAL operation.
  * @retval HAL status
  */
HAL_StatusTypeDef HAL_Init(void)
{
 80008f4:	b580      	push	{r7, lr}
 80008f6:	af00      	add	r7, sp, #0
    defined(STM32F102x6) || defined(STM32F102xB) || \
    defined(STM32F103x6) || defined(STM32F103xB) || defined(STM32F103xE) || defined(STM32F103xG) || \
    defined(STM32F105xC) || defined(STM32F107xC)

  /* Prefetch buffer is not available on value line devices */
  __HAL_FLASH_PREFETCH_BUFFER_ENABLE();
 80008f8:	4b08      	ldr	r3, [pc, #32]	; (800091c <HAL_Init+0x28>)
 80008fa:	681b      	ldr	r3, [r3, #0]
 80008fc:	4a07      	ldr	r2, [pc, #28]	; (800091c <HAL_Init+0x28>)
 80008fe:	f043 0310 	orr.w	r3, r3, #16
 8000902:	6013      	str	r3, [r2, #0]
#endif
#endif /* PREFETCH_ENABLE */

  /* Set Interrupt Group Priority */
  HAL_NVIC_SetPriorityGrouping(NVIC_PRIORITYGROUP_4);
 8000904:	2003      	movs	r0, #3
 8000906:	f000 fd13 	bl	8001330 <HAL_NVIC_SetPriorityGrouping>

  /* Use systick as time base source and configure 1ms tick (default clock after Reset is HSI) */
  HAL_InitTick(TICK_INT_PRIORITY);
 800090a:	2000      	movs	r0, #0
 800090c:	f000 f808 	bl	8000920 <HAL_InitTick>

  /* Init the low level hardware */
  HAL_MspInit();
 8000910:	f7ff fe12 	bl	8000538 <HAL_MspInit>

  /* Return function status */
  return HAL_OK;
 8000914:	2300      	movs	r3, #0
}
 8000916:	4618      	mov	r0, r3
 8000918:	bd80      	pop	{r7, pc}
 800091a:	bf00      	nop
 800091c:	40022000 	.word	0x40022000

08000920 <HAL_InitTick>:
  *       implementation  in user file.
  * @param TickPriority Tick interrupt priority.
  * @retval HAL status
  */
__weak HAL_StatusTypeDef HAL_InitTick(uint32_t TickPriority)
{
 8000920:	b580      	push	{r7, lr}
 8000922:	b082      	sub	sp, #8
 8000924:	af00      	add	r7, sp, #0
 8000926:	6078      	str	r0, [r7, #4]
  /* Configure the SysTick to have interrupt in 1ms time basis*/
  if (HAL_SYSTICK_Config(SystemCoreClock / (1000U / uwTickFreq)) > 0U)
 8000928:	4b12      	ldr	r3, [pc, #72]	; (8000974 <HAL_InitTick+0x54>)
 800092a:	681a      	ldr	r2, [r3, #0]
 800092c:	4b12      	ldr	r3, [pc, #72]	; (8000978 <HAL_InitTick+0x58>)
 800092e:	781b      	ldrb	r3, [r3, #0]
 8000930:	4619      	mov	r1, r3
 8000932:	f44f 737a 	mov.w	r3, #1000	; 0x3e8
 8000936:	fbb3 f3f1 	udiv	r3, r3, r1
 800093a:	fbb2 f3f3 	udiv	r3, r2, r3
 800093e:	4618      	mov	r0, r3
 8000940:	f000 fd2b 	bl	800139a <HAL_SYSTICK_Config>
 8000944:	4603      	mov	r3, r0
 8000946:	2b00      	cmp	r3, #0
 8000948:	d001      	beq.n	800094e <HAL_InitTick+0x2e>
  {
    return HAL_ERROR;
 800094a:	2301      	movs	r3, #1
 800094c:	e00e      	b.n	800096c <HAL_InitTick+0x4c>
  }

  /* Configure the SysTick IRQ priority */
  if (TickPriority < (1UL << __NVIC_PRIO_BITS))
 800094e:	687b      	ldr	r3, [r7, #4]
 8000950:	2b0f      	cmp	r3, #15
 8000952:	d80a      	bhi.n	800096a <HAL_InitTick+0x4a>
  {
    HAL_NVIC_SetPriority(SysTick_IRQn, TickPriority, 0U);
 8000954:	2200      	movs	r2, #0
 8000956:	6879      	ldr	r1, [r7, #4]
 8000958:	f04f 30ff 	mov.w	r0, #4294967295
 800095c:	f000 fcf3 	bl	8001346 <HAL_NVIC_SetPriority>
    uwTickPrio = TickPriority;
 8000960:	4a06      	ldr	r2, [pc, #24]	; (800097c <HAL_InitTick+0x5c>)
 8000962:	687b      	ldr	r3, [r7, #4]
 8000964:	6013      	str	r3, [r2, #0]
  {
    return HAL_ERROR;
  }

  /* Return function status */
  return HAL_OK;
 8000966:	2300      	movs	r3, #0
 8000968:	e000      	b.n	800096c <HAL_InitTick+0x4c>
    return HAL_ERROR;
 800096a:	2301      	movs	r3, #1
}
 800096c:	4618      	mov	r0, r3
 800096e:	3708      	adds	r7, #8
 8000970:	46bd      	mov	sp, r7
 8000972:	bd80      	pop	{r7, pc}
 8000974:	20000000 	.word	0x20000000
 8000978:	20000008 	.word	0x20000008
 800097c:	20000004 	.word	0x20000004

08000980 <HAL_IncTick>:
  * @note This function is declared as __weak to be overwritten in case of other
  *      implementations in user file.
  * @retval None
  */
__weak void HAL_IncTick(void)
{
 8000980:	b480      	push	{r7}
 8000982:	af00      	add	r7, sp, #0
  uwTick += uwTickFreq;
 8000984:	4b05      	ldr	r3, [pc, #20]	; (800099c <HAL_IncTick+0x1c>)
 8000986:	781b      	ldrb	r3, [r3, #0]
 8000988:	461a      	mov	r2, r3
 800098a:	4b05      	ldr	r3, [pc, #20]	; (80009a0 <HAL_IncTick+0x20>)
 800098c:	681b      	ldr	r3, [r3, #0]
 800098e:	4413      	add	r3, r2
 8000990:	4a03      	ldr	r2, [pc, #12]	; (80009a0 <HAL_IncTick+0x20>)
 8000992:	6013      	str	r3, [r2, #0]
}
 8000994:	bf00      	nop
 8000996:	46bd      	mov	sp, r7
 8000998:	bc80      	pop	{r7}
 800099a:	4770      	bx	lr
 800099c:	20000008 	.word	0x20000008
 80009a0:	20000154 	.word	0x20000154

080009a4 <HAL_GetTick>:
  * @note  This function is declared as __weak to be overwritten in case of other
  *       implementations in user file.
  * @retval tick value
  */
__weak uint32_t HAL_GetTick(void)
{
 80009a4:	b480      	push	{r7}
 80009a6:	af00      	add	r7, sp, #0
  return uwTick;
 80009a8:	4b02      	ldr	r3, [pc, #8]	; (80009b4 <HAL_GetTick+0x10>)
 80009aa:	681b      	ldr	r3, [r3, #0]
}
 80009ac:	4618      	mov	r0, r3
 80009ae:	46bd      	mov	sp, r7
 80009b0:	bc80      	pop	{r7}
 80009b2:	4770      	bx	lr
 80009b4:	20000154 	.word	0x20000154

080009b8 <HAL_Delay>:
  *       implementations in user file.
  * @param Delay specifies the delay time length, in milliseconds.
  * @retval None
  */
__weak void HAL_Delay(uint32_t Delay)
{
 80009b8:	b580      	push	{r7, lr}
 80009ba:	b084      	sub	sp, #16
 80009bc:	af00      	add	r7, sp, #0
 80009be:	6078      	str	r0, [r7, #4]
  uint32_t tickstart = HAL_GetTick();
 80009c0:	f7ff fff0 	bl	80009a4 <HAL_GetTick>
 80009c4:	60b8      	str	r0, [r7, #8]
  uint32_t wait = Delay;
 80009c6:	687b      	ldr	r3, [r7, #4]
 80009c8:	60fb      	str	r3, [r7, #12]

  /* Add a freq to guarantee minimum wait */
  if (wait < HAL_MAX_DELAY)
 80009ca:	68fb      	ldr	r3, [r7, #12]
 80009cc:	f1b3 3fff 	cmp.w	r3, #4294967295
 80009d0:	d005      	beq.n	80009de <HAL_Delay+0x26>
  {
    wait += (uint32_t)(uwTickFreq);
 80009d2:	4b0a      	ldr	r3, [pc, #40]	; (80009fc <HAL_Delay+0x44>)
 80009d4:	781b      	ldrb	r3, [r3, #0]
 80009d6:	461a      	mov	r2, r3
 80009d8:	68fb      	ldr	r3, [r7, #12]
 80009da:	4413      	add	r3, r2
 80009dc:	60fb      	str	r3, [r7, #12]
  }

  while ((HAL_GetTick() - tickstart) < wait)
 80009de:	bf00      	nop
 80009e0:	f7ff ffe0 	bl	80009a4 <HAL_GetTick>
 80009e4:	4602      	mov	r2, r0
 80009e6:	68bb      	ldr	r3, [r7, #8]
 80009e8:	1ad3      	subs	r3, r2, r3
 80009ea:	68fa      	ldr	r2, [r7, #12]
 80009ec:	429a      	cmp	r2, r3
 80009ee:	d8f7      	bhi.n	80009e0 <HAL_Delay+0x28>
  {
  }
}
 80009f0:	bf00      	nop
 80009f2:	bf00      	nop
 80009f4:	3710      	adds	r7, #16
 80009f6:	46bd      	mov	sp, r7
 80009f8:	bd80      	pop	{r7, pc}
 80009fa:	bf00      	nop
 80009fc:	20000008 	.word	0x20000008

08000a00 <HAL_ADC_Init>:
  *         of structure "ADC_InitTypeDef".
  * @param  hadc: ADC handle
  * @retval HAL status
  */
HAL_StatusTypeDef HAL_ADC_Init(ADC_HandleTypeDef* hadc)
{
 8000a00:	b580      	push	{r7, lr}
 8000a02:	b086      	sub	sp, #24
 8000a04:	af00      	add	r7, sp, #0
 8000a06:	6078      	str	r0, [r7, #4]
  HAL_StatusTypeDef tmp_hal_status = HAL_OK;
 8000a08:	2300      	movs	r3, #0
 8000a0a:	75fb      	strb	r3, [r7, #23]
  uint32_t tmp_cr1 = 0U;
 8000a0c:	2300      	movs	r3, #0
 8000a0e:	613b      	str	r3, [r7, #16]
  uint32_t tmp_cr2 = 0U;
 8000a10:	2300      	movs	r3, #0
 8000a12:	60bb      	str	r3, [r7, #8]
  uint32_t tmp_sqr1 = 0U;
 8000a14:	2300      	movs	r3, #0
 8000a16:	60fb      	str	r3, [r7, #12]
  
  /* Check ADC handle */
  if(hadc == NULL)
 8000a18:	687b      	ldr	r3, [r7, #4]
 8000a1a:	2b00      	cmp	r3, #0
 8000a1c:	d101      	bne.n	8000a22 <HAL_ADC_Init+0x22>
  {
    return HAL_ERROR;
 8000a1e:	2301      	movs	r3, #1
 8000a20:	e0be      	b.n	8000ba0 <HAL_ADC_Init+0x1a0>
  assert_param(IS_ADC_DATA_ALIGN(hadc->Init.DataAlign));
  assert_param(IS_ADC_SCAN_MODE(hadc->Init.ScanConvMode));
  assert_param(IS_FUNCTIONAL_STATE(hadc->Init.ContinuousConvMode));
  assert_param(IS_ADC_EXTTRIG(hadc->Init.ExternalTrigConv));
  
  if(hadc->Init.ScanConvMode != ADC_SCAN_DISABLE)
 8000a22:	687b      	ldr	r3, [r7, #4]
 8000a24:	689b      	ldr	r3, [r3, #8]
 8000a26:	2b00      	cmp	r3, #0
  /* Refer to header of this file for more details on clock enabling          */
  /* procedure.                                                               */

  /* Actions performed only if ADC is coming from state reset:                */
  /* - Initialization of ADC MSP                                              */
  if (hadc->State == HAL_ADC_STATE_RESET)
 8000a28:	687b      	ldr	r3, [r7, #4]
 8000a2a:	6a9b      	ldr	r3, [r3, #40]	; 0x28
 8000a2c:	2b00      	cmp	r3, #0
 8000a2e:	d109      	bne.n	8000a44 <HAL_ADC_Init+0x44>
  {
    /* Initialize ADC error code */
    ADC_CLEAR_ERRORCODE(hadc);
 8000a30:	687b      	ldr	r3, [r7, #4]
 8000a32:	2200      	movs	r2, #0
 8000a34:	62da      	str	r2, [r3, #44]	; 0x2c
    
    /* Allocate lock resource and initialize it */
    hadc->Lock = HAL_UNLOCKED;
 8000a36:	687b      	ldr	r3, [r7, #4]
 8000a38:	2200      	movs	r2, #0
 8000a3a:	f883 2024 	strb.w	r2, [r3, #36]	; 0x24
    
    /* Init the low level hardware */
    hadc->MspInitCallback(hadc);
#else
    /* Init the low level hardware */
    HAL_ADC_MspInit(hadc);
 8000a3e:	6878      	ldr	r0, [r7, #4]
 8000a40:	f7ff fdac 	bl	800059c <HAL_ADC_MspInit>
  /* Stop potential conversion on going, on regular and injected groups */
  /* Disable ADC peripheral */
  /* Note: In case of ADC already enabled, precaution to not launch an        */
  /*       unwanted conversion while modifying register CR2 by writing 1 to   */
  /*       bit ADON.                                                          */
  tmp_hal_status = ADC_ConversionStop_Disable(hadc);
 8000a44:	6878      	ldr	r0, [r7, #4]
 8000a46:	f000 faff 	bl	8001048 <ADC_ConversionStop_Disable>
 8000a4a:	4603      	mov	r3, r0
 8000a4c:	75fb      	strb	r3, [r7, #23]
  
  
  /* Configuration of ADC parameters if previous preliminary actions are      */ 
  /* correctly completed.                                                     */
  if (HAL_IS_BIT_CLR(hadc->State, HAL_ADC_STATE_ERROR_INTERNAL) &&
 8000a4e:	687b      	ldr	r3, [r7, #4]
 8000a50:	6a9b      	ldr	r3, [r3, #40]	; 0x28
 8000a52:	f003 0310 	and.w	r3, r3, #16
 8000a56:	2b00      	cmp	r3, #0
 8000a58:	f040 8099 	bne.w	8000b8e <HAL_ADC_Init+0x18e>
 8000a5c:	7dfb      	ldrb	r3, [r7, #23]
 8000a5e:	2b00      	cmp	r3, #0
 8000a60:	f040 8095 	bne.w	8000b8e <HAL_ADC_Init+0x18e>
      (tmp_hal_status == HAL_OK)                                  )
  {
    /* Set ADC state */
    ADC_STATE_CLR_SET(hadc->State,
 8000a64:	687b      	ldr	r3, [r7, #4]
 8000a66:	6a9b      	ldr	r3, [r3, #40]	; 0x28
 8000a68:	f423 5388 	bic.w	r3, r3, #4352	; 0x1100
 8000a6c:	f023 0302 	bic.w	r3, r3, #2
 8000a70:	f043 0202 	orr.w	r2, r3, #2
 8000a74:	687b      	ldr	r3, [r7, #4]
 8000a76:	629a      	str	r2, [r3, #40]	; 0x28
    /*  - continuous conversion mode                                          */
    /* Note: External trigger polarity (ADC_CR2_EXTTRIG) is set into          */
    /*       HAL_ADC_Start_xxx functions because if set in this function,     */
    /*       a conversion on injected group would start a conversion also on  */
    /*       regular group after ADC enabling.                                */
    tmp_cr2 |= (hadc->Init.DataAlign                                          |
 8000a78:	687b      	ldr	r3, [r7, #4]
 8000a7a:	685a      	ldr	r2, [r3, #4]
                ADC_CFGR_EXTSEL(hadc, hadc->Init.ExternalTrigConv)            |
 8000a7c:	687b      	ldr	r3, [r7, #4]
 8000a7e:	69db      	ldr	r3, [r3, #28]
    tmp_cr2 |= (hadc->Init.DataAlign                                          |
 8000a80:	431a      	orrs	r2, r3
                ADC_CR2_CONTINUOUS((uint32_t)hadc->Init.ContinuousConvMode)   );
 8000a82:	687b      	ldr	r3, [r7, #4]
 8000a84:	7b1b      	ldrb	r3, [r3, #12]
 8000a86:	005b      	lsls	r3, r3, #1
                ADC_CFGR_EXTSEL(hadc, hadc->Init.ExternalTrigConv)            |
 8000a88:	4313      	orrs	r3, r2
    tmp_cr2 |= (hadc->Init.DataAlign                                          |
 8000a8a:	68ba      	ldr	r2, [r7, #8]
 8000a8c:	4313      	orrs	r3, r2
 8000a8e:	60bb      	str	r3, [r7, #8]

    /* Configuration of ADC:                                                  */
    /*  - scan mode                                                           */
    /*  - discontinuous mode disable/enable                                   */
    /*  - discontinuous mode number of conversions                            */
    tmp_cr1 |= (ADC_CR1_SCAN_SET(hadc->Init.ScanConvMode));
 8000a90:	687b      	ldr	r3, [r7, #4]
 8000a92:	689b      	ldr	r3, [r3, #8]
 8000a94:	f5b3 7f80 	cmp.w	r3, #256	; 0x100
 8000a98:	d003      	beq.n	8000aa2 <HAL_ADC_Init+0xa2>
 8000a9a:	687b      	ldr	r3, [r7, #4]
 8000a9c:	689b      	ldr	r3, [r3, #8]
 8000a9e:	2b01      	cmp	r3, #1
 8000aa0:	d102      	bne.n	8000aa8 <HAL_ADC_Init+0xa8>
 8000aa2:	f44f 7380 	mov.w	r3, #256	; 0x100
 8000aa6:	e000      	b.n	8000aaa <HAL_ADC_Init+0xaa>
 8000aa8:	2300      	movs	r3, #0
 8000aaa:	693a      	ldr	r2, [r7, #16]
 8000aac:	4313      	orrs	r3, r2
 8000aae:	613b      	str	r3, [r7, #16]
    
    /* Enable discontinuous mode only if continuous mode is disabled */
    /* Note: If parameter "Init.ScanConvMode" is set to disable, parameter    */
    /*       discontinuous is set anyway, but will have no effect on ADC HW.  */
    if (hadc->Init.DiscontinuousConvMode == ENABLE)
 8000ab0:	687b      	ldr	r3, [r7, #4]
 8000ab2:	7d1b      	ldrb	r3, [r3, #20]
 8000ab4:	2b01      	cmp	r3, #1
 8000ab6:	d119      	bne.n	8000aec <HAL_ADC_Init+0xec>
    {
      if (hadc->Init.ContinuousConvMode == DISABLE)
 8000ab8:	687b      	ldr	r3, [r7, #4]
 8000aba:	7b1b      	ldrb	r3, [r3, #12]
 8000abc:	2b00      	cmp	r3, #0
 8000abe:	d109      	bne.n	8000ad4 <HAL_ADC_Init+0xd4>
      {
        /* Enable the selected ADC regular discontinuous mode */
        /* Set the number of channels to be converted in discontinuous mode */
        SET_BIT(tmp_cr1, ADC_CR1_DISCEN                                            |
 8000ac0:	687b      	ldr	r3, [r7, #4]
 8000ac2:	699b      	ldr	r3, [r3, #24]
 8000ac4:	3b01      	subs	r3, #1
 8000ac6:	035a      	lsls	r2, r3, #13
 8000ac8:	693b      	ldr	r3, [r7, #16]
 8000aca:	4313      	orrs	r3, r2
 8000acc:	f443 6300 	orr.w	r3, r3, #2048	; 0x800
 8000ad0:	613b      	str	r3, [r7, #16]
 8000ad2:	e00b      	b.n	8000aec <HAL_ADC_Init+0xec>
      {
        /* ADC regular group settings continuous and sequencer discontinuous*/
        /* cannot be enabled simultaneously.                                */
        
        /* Update ADC state machine to error */
        SET_BIT(hadc->State, HAL_ADC_STATE_ERROR_CONFIG);
 8000ad4:	687b      	ldr	r3, [r7, #4]
 8000ad6:	6a9b      	ldr	r3, [r3, #40]	; 0x28
 8000ad8:	f043 0220 	orr.w	r2, r3, #32
 8000adc:	687b      	ldr	r3, [r7, #4]
 8000ade:	629a      	str	r2, [r3, #40]	; 0x28
        
        /* Set ADC error code to ADC IP internal error */
        SET_BIT(hadc->ErrorCode, HAL_ADC_ERROR_INTERNAL);
 8000ae0:	687b      	ldr	r3, [r7, #4]
 8000ae2:	6adb      	ldr	r3, [r3, #44]	; 0x2c
 8000ae4:	f043 0201 	orr.w	r2, r3, #1
 8000ae8:	687b      	ldr	r3, [r7, #4]
 8000aea:	62da      	str	r2, [r3, #44]	; 0x2c
      }
    }
    
    /* Update ADC configuration register CR1 with previous settings */
      MODIFY_REG(hadc->Instance->CR1,
 8000aec:	687b      	ldr	r3, [r7, #4]
 8000aee:	681b      	ldr	r3, [r3, #0]
 8000af0:	685b      	ldr	r3, [r3, #4]
 8000af2:	f423 4169 	bic.w	r1, r3, #59648	; 0xe900
 8000af6:	687b      	ldr	r3, [r7, #4]
 8000af8:	681b      	ldr	r3, [r3, #0]
 8000afa:	693a      	ldr	r2, [r7, #16]
 8000afc:	430a      	orrs	r2, r1
 8000afe:	605a      	str	r2, [r3, #4]
                 ADC_CR1_DISCEN  |
                 ADC_CR1_DISCNUM    ,
                 tmp_cr1             );
    
    /* Update ADC configuration register CR2 with previous settings */
      MODIFY_REG(hadc->Instance->CR2,
 8000b00:	687b      	ldr	r3, [r7, #4]
 8000b02:	681b      	ldr	r3, [r3, #0]
 8000b04:	689a      	ldr	r2, [r3, #8]
 8000b06:	4b28      	ldr	r3, [pc, #160]	; (8000ba8 <HAL_ADC_Init+0x1a8>)
 8000b08:	4013      	ands	r3, r2
 8000b0a:	687a      	ldr	r2, [r7, #4]
 8000b0c:	6812      	ldr	r2, [r2, #0]
 8000b0e:	68b9      	ldr	r1, [r7, #8]
 8000b10:	430b      	orrs	r3, r1
 8000b12:	6093      	str	r3, [r2, #8]
    /*   Note: Scan mode is present by hardware on this device and, if        */
    /*   disabled, discards automatically nb of conversions. Anyway, nb of    */
    /*   conversions is forced to 0x00 for alignment over all STM32 devices.  */
    /* - if scan mode is enabled, regular channels sequence length is set to  */
    /*   parameter "NbrOfConversion"                                          */
    if (ADC_CR1_SCAN_SET(hadc->Init.ScanConvMode) == ADC_SCAN_ENABLE)
 8000b14:	687b      	ldr	r3, [r7, #4]
 8000b16:	689b      	ldr	r3, [r3, #8]
 8000b18:	f5b3 7f80 	cmp.w	r3, #256	; 0x100
 8000b1c:	d003      	beq.n	8000b26 <HAL_ADC_Init+0x126>
 8000b1e:	687b      	ldr	r3, [r7, #4]
 8000b20:	689b      	ldr	r3, [r3, #8]
 8000b22:	2b01      	cmp	r3, #1
 8000b24:	d104      	bne.n	8000b30 <HAL_ADC_Init+0x130>
    {
      tmp_sqr1 = ADC_SQR1_L_SHIFT(hadc->Init.NbrOfConversion);
 8000b26:	687b      	ldr	r3, [r7, #4]
 8000b28:	691b      	ldr	r3, [r3, #16]
 8000b2a:	3b01      	subs	r3, #1
 8000b2c:	051b      	lsls	r3, r3, #20
 8000b2e:	60fb      	str	r3, [r7, #12]
    }
      
    MODIFY_REG(hadc->Instance->SQR1,
 8000b30:	687b      	ldr	r3, [r7, #4]
 8000b32:	681b      	ldr	r3, [r3, #0]
 8000b34:	6adb      	ldr	r3, [r3, #44]	; 0x2c
 8000b36:	f423 0170 	bic.w	r1, r3, #15728640	; 0xf00000
 8000b3a:	687b      	ldr	r3, [r7, #4]
 8000b3c:	681b      	ldr	r3, [r3, #0]
 8000b3e:	68fa      	ldr	r2, [r7, #12]
 8000b40:	430a      	orrs	r2, r1
 8000b42:	62da      	str	r2, [r3, #44]	; 0x2c
    /* ensure of no potential problem of ADC core IP clocking.                */
    /* Check through register CR2 (excluding bits set in other functions:     */
    /* execution control bits (ADON, JSWSTART, SWSTART), regular group bits   */
    /* (DMA), injected group bits (JEXTTRIG and JEXTSEL), channel internal    */
    /* measurement path bit (TSVREFE).                                        */
    if (READ_BIT(hadc->Instance->CR2, ~(ADC_CR2_ADON | ADC_CR2_DMA |
 8000b44:	687b      	ldr	r3, [r7, #4]
 8000b46:	681b      	ldr	r3, [r3, #0]
 8000b48:	689a      	ldr	r2, [r3, #8]
 8000b4a:	4b18      	ldr	r3, [pc, #96]	; (8000bac <HAL_ADC_Init+0x1ac>)
 8000b4c:	4013      	ands	r3, r2
 8000b4e:	68ba      	ldr	r2, [r7, #8]
 8000b50:	429a      	cmp	r2, r3
 8000b52:	d10b      	bne.n	8000b6c <HAL_ADC_Init+0x16c>
                                        ADC_CR2_JEXTTRIG | ADC_CR2_JEXTSEL |
                                        ADC_CR2_TSVREFE                     ))
         == tmp_cr2)
    {
      /* Set ADC error code to none */
      ADC_CLEAR_ERRORCODE(hadc);
 8000b54:	687b      	ldr	r3, [r7, #4]
 8000b56:	2200      	movs	r2, #0
 8000b58:	62da      	str	r2, [r3, #44]	; 0x2c
      
      /* Set the ADC state */
      ADC_STATE_CLR_SET(hadc->State,
 8000b5a:	687b      	ldr	r3, [r7, #4]
 8000b5c:	6a9b      	ldr	r3, [r3, #40]	; 0x28
 8000b5e:	f023 0303 	bic.w	r3, r3, #3
 8000b62:	f043 0201 	orr.w	r2, r3, #1
 8000b66:	687b      	ldr	r3, [r7, #4]
 8000b68:	629a      	str	r2, [r3, #40]	; 0x28
    if (READ_BIT(hadc->Instance->CR2, ~(ADC_CR2_ADON | ADC_CR2_DMA |
 8000b6a:	e018      	b.n	8000b9e <HAL_ADC_Init+0x19e>
                        HAL_ADC_STATE_READY);
    }
    else
    {
      /* Update ADC state machine to error */
      ADC_STATE_CLR_SET(hadc->State,
 8000b6c:	687b      	ldr	r3, [r7, #4]
 8000b6e:	6a9b      	ldr	r3, [r3, #40]	; 0x28
 8000b70:	f023 0312 	bic.w	r3, r3, #18
 8000b74:	f043 0210 	orr.w	r2, r3, #16
 8000b78:	687b      	ldr	r3, [r7, #4]
 8000b7a:	629a      	str	r2, [r3, #40]	; 0x28
                        HAL_ADC_STATE_BUSY_INTERNAL,
                        HAL_ADC_STATE_ERROR_INTERNAL);
      
      /* Set ADC error code to ADC IP internal error */
      SET_BIT(hadc->ErrorCode, HAL_ADC_ERROR_INTERNAL);
 8000b7c:	687b      	ldr	r3, [r7, #4]
 8000b7e:	6adb      	ldr	r3, [r3, #44]	; 0x2c
 8000b80:	f043 0201 	orr.w	r2, r3, #1
 8000b84:	687b      	ldr	r3, [r7, #4]
 8000b86:	62da      	str	r2, [r3, #44]	; 0x2c
      
      tmp_hal_status = HAL_ERROR;
 8000b88:	2301      	movs	r3, #1
 8000b8a:	75fb      	strb	r3, [r7, #23]
    if (READ_BIT(hadc->Instance->CR2, ~(ADC_CR2_ADON | ADC_CR2_DMA |
 8000b8c:	e007      	b.n	8000b9e <HAL_ADC_Init+0x19e>
  
  }
  else
  {
    /* Update ADC state machine to error */
    SET_BIT(hadc->State, HAL_ADC_STATE_ERROR_INTERNAL);
 8000b8e:	687b      	ldr	r3, [r7, #4]
 8000b90:	6a9b      	ldr	r3, [r3, #40]	; 0x28
 8000b92:	f043 0210 	orr.w	r2, r3, #16
 8000b96:	687b      	ldr	r3, [r7, #4]
 8000b98:	629a      	str	r2, [r3, #40]	; 0x28
        
    tmp_hal_status = HAL_ERROR;
 8000b9a:	2301      	movs	r3, #1
 8000b9c:	75fb      	strb	r3, [r7, #23]
  }
  
  /* Return function status */
  return tmp_hal_status;
 8000b9e:	7dfb      	ldrb	r3, [r7, #23]
}
 8000ba0:	4618      	mov	r0, r3
 8000ba2:	3718      	adds	r7, #24
 8000ba4:	46bd      	mov	sp, r7
 8000ba6:	bd80      	pop	{r7, pc}
 8000ba8:	ffe1f7fd 	.word	0xffe1f7fd
 8000bac:	ff1f0efe 	.word	0xff1f0efe

08000bb0 <HAL_ADC_Start_DMA>:
  * @param  pData: The destination Buffer address.
  * @param  Length: The length of data to be transferred from ADC peripheral to memory.
  * @retval None
  */
HAL_StatusTypeDef HAL_ADC_Start_DMA(ADC_HandleTypeDef* hadc, uint32_t* pData, uint32_t Length)
{
 8000bb0:	b580      	push	{r7, lr}
 8000bb2:	b086      	sub	sp, #24
 8000bb4:	af00      	add	r7, sp, #0
 8000bb6:	60f8      	str	r0, [r7, #12]
 8000bb8:	60b9      	str	r1, [r7, #8]
 8000bba:	607a      	str	r2, [r7, #4]
  HAL_StatusTypeDef tmp_hal_status = HAL_OK;
 8000bbc:	2300      	movs	r3, #0
 8000bbe:	75fb      	strb	r3, [r7, #23]
  assert_param(IS_ADC_DMA_CAPABILITY_INSTANCE(hadc->Instance));
    
  /* Verification if multimode is disabled (for devices with several ADC)     */
  /* If multimode is enabled, dedicated function multimode conversion         */
  /* start DMA must be used.                                                  */
  if(ADC_MULTIMODE_IS_ENABLE(hadc) == RESET)
 8000bc0:	68fb      	ldr	r3, [r7, #12]
 8000bc2:	681b      	ldr	r3, [r3, #0]
 8000bc4:	4a64      	ldr	r2, [pc, #400]	; (8000d58 <HAL_ADC_Start_DMA+0x1a8>)
 8000bc6:	4293      	cmp	r3, r2
 8000bc8:	d004      	beq.n	8000bd4 <HAL_ADC_Start_DMA+0x24>
 8000bca:	68fb      	ldr	r3, [r7, #12]
 8000bcc:	681b      	ldr	r3, [r3, #0]
 8000bce:	4a63      	ldr	r2, [pc, #396]	; (8000d5c <HAL_ADC_Start_DMA+0x1ac>)
 8000bd0:	4293      	cmp	r3, r2
 8000bd2:	d106      	bne.n	8000be2 <HAL_ADC_Start_DMA+0x32>
 8000bd4:	4b60      	ldr	r3, [pc, #384]	; (8000d58 <HAL_ADC_Start_DMA+0x1a8>)
 8000bd6:	685b      	ldr	r3, [r3, #4]
 8000bd8:	f403 2370 	and.w	r3, r3, #983040	; 0xf0000
 8000bdc:	2b00      	cmp	r3, #0
 8000bde:	f040 80b3 	bne.w	8000d48 <HAL_ADC_Start_DMA+0x198>
  {
    /* Process locked */
    __HAL_LOCK(hadc);
 8000be2:	68fb      	ldr	r3, [r7, #12]
 8000be4:	f893 3024 	ldrb.w	r3, [r3, #36]	; 0x24
 8000be8:	2b01      	cmp	r3, #1
 8000bea:	d101      	bne.n	8000bf0 <HAL_ADC_Start_DMA+0x40>
 8000bec:	2302      	movs	r3, #2
 8000bee:	e0ae      	b.n	8000d4e <HAL_ADC_Start_DMA+0x19e>
 8000bf0:	68fb      	ldr	r3, [r7, #12]
 8000bf2:	2201      	movs	r2, #1
 8000bf4:	f883 2024 	strb.w	r2, [r3, #36]	; 0x24
    
    /* Enable the ADC peripheral */
    tmp_hal_status = ADC_Enable(hadc);
 8000bf8:	68f8      	ldr	r0, [r7, #12]
 8000bfa:	f000 f9cb 	bl	8000f94 <ADC_Enable>
 8000bfe:	4603      	mov	r3, r0
 8000c00:	75fb      	strb	r3, [r7, #23]
    
    /* Start conversion if ADC is effectively enabled */
    if (tmp_hal_status == HAL_OK)
 8000c02:	7dfb      	ldrb	r3, [r7, #23]
 8000c04:	2b00      	cmp	r3, #0
 8000c06:	f040 809a 	bne.w	8000d3e <HAL_ADC_Start_DMA+0x18e>
    {
      /* Set ADC state                                                        */
      /* - Clear state bitfield related to regular group conversion results   */
      /* - Set state bitfield related to regular operation                    */
      ADC_STATE_CLR_SET(hadc->State,
 8000c0a:	68fb      	ldr	r3, [r7, #12]
 8000c0c:	6a9b      	ldr	r3, [r3, #40]	; 0x28
 8000c0e:	f423 6370 	bic.w	r3, r3, #3840	; 0xf00
 8000c12:	f023 0301 	bic.w	r3, r3, #1
 8000c16:	f443 7280 	orr.w	r2, r3, #256	; 0x100
 8000c1a:	68fb      	ldr	r3, [r7, #12]
 8000c1c:	629a      	str	r2, [r3, #40]	; 0x28
                        HAL_ADC_STATE_REG_BUSY);
    
    /* Set group injected state (from auto-injection) and multimode state     */
    /* for all cases of multimode: independent mode, multimode ADC master     */
    /* or multimode ADC slave (for devices with several ADCs):                */
    if (ADC_NONMULTIMODE_OR_MULTIMODEMASTER(hadc))
 8000c1e:	68fb      	ldr	r3, [r7, #12]
 8000c20:	681b      	ldr	r3, [r3, #0]
 8000c22:	4a4e      	ldr	r2, [pc, #312]	; (8000d5c <HAL_ADC_Start_DMA+0x1ac>)
 8000c24:	4293      	cmp	r3, r2
 8000c26:	d105      	bne.n	8000c34 <HAL_ADC_Start_DMA+0x84>
 8000c28:	4b4b      	ldr	r3, [pc, #300]	; (8000d58 <HAL_ADC_Start_DMA+0x1a8>)
 8000c2a:	685b      	ldr	r3, [r3, #4]
 8000c2c:	f403 2370 	and.w	r3, r3, #983040	; 0xf0000
 8000c30:	2b00      	cmp	r3, #0
 8000c32:	d115      	bne.n	8000c60 <HAL_ADC_Start_DMA+0xb0>
    {
      /* Set ADC state (ADC independent or master) */
      CLEAR_BIT(hadc->State, HAL_ADC_STATE_MULTIMODE_SLAVE);
 8000c34:	68fb      	ldr	r3, [r7, #12]
 8000c36:	6a9b      	ldr	r3, [r3, #40]	; 0x28
 8000c38:	f423 1280 	bic.w	r2, r3, #1048576	; 0x100000
 8000c3c:	68fb      	ldr	r3, [r7, #12]
 8000c3e:	629a      	str	r2, [r3, #40]	; 0x28
      
      /* If conversions on group regular are also triggering group injected,  */
      /* update ADC state.                                                    */
      if (READ_BIT(hadc->Instance->CR1, ADC_CR1_JAUTO) != RESET)
 8000c40:	68fb      	ldr	r3, [r7, #12]
 8000c42:	681b      	ldr	r3, [r3, #0]
 8000c44:	685b      	ldr	r3, [r3, #4]
 8000c46:	f403 6380 	and.w	r3, r3, #1024	; 0x400
 8000c4a:	2b00      	cmp	r3, #0
 8000c4c:	d026      	beq.n	8000c9c <HAL_ADC_Start_DMA+0xec>
      {
        ADC_STATE_CLR_SET(hadc->State, HAL_ADC_STATE_INJ_EOC, HAL_ADC_STATE_INJ_BUSY);  
 8000c4e:	68fb      	ldr	r3, [r7, #12]
 8000c50:	6a9b      	ldr	r3, [r3, #40]	; 0x28
 8000c52:	f423 5340 	bic.w	r3, r3, #12288	; 0x3000
 8000c56:	f443 5280 	orr.w	r2, r3, #4096	; 0x1000
 8000c5a:	68fb      	ldr	r3, [r7, #12]
 8000c5c:	629a      	str	r2, [r3, #40]	; 0x28
      if (READ_BIT(hadc->Instance->CR1, ADC_CR1_JAUTO) != RESET)
 8000c5e:	e01d      	b.n	8000c9c <HAL_ADC_Start_DMA+0xec>
      }
    }
    else
    {
      /* Set ADC state (ADC slave) */
      SET_BIT(hadc->State, HAL_ADC_STATE_MULTIMODE_SLAVE);
 8000c60:	68fb      	ldr	r3, [r7, #12]
 8000c62:	6a9b      	ldr	r3, [r3, #40]	; 0x28
 8000c64:	f443 1280 	orr.w	r2, r3, #1048576	; 0x100000
 8000c68:	68fb      	ldr	r3, [r7, #12]
 8000c6a:	629a      	str	r2, [r3, #40]	; 0x28
      
      /* If conversions on group regular are also triggering group injected,  */
      /* update ADC state.                                                    */
      if (ADC_MULTIMODE_AUTO_INJECTED(hadc))
 8000c6c:	68fb      	ldr	r3, [r7, #12]
 8000c6e:	681b      	ldr	r3, [r3, #0]
 8000c70:	4a39      	ldr	r2, [pc, #228]	; (8000d58 <HAL_ADC_Start_DMA+0x1a8>)
 8000c72:	4293      	cmp	r3, r2
 8000c74:	d004      	beq.n	8000c80 <HAL_ADC_Start_DMA+0xd0>
 8000c76:	68fb      	ldr	r3, [r7, #12]
 8000c78:	681b      	ldr	r3, [r3, #0]
 8000c7a:	4a38      	ldr	r2, [pc, #224]	; (8000d5c <HAL_ADC_Start_DMA+0x1ac>)
 8000c7c:	4293      	cmp	r3, r2
 8000c7e:	d10d      	bne.n	8000c9c <HAL_ADC_Start_DMA+0xec>
 8000c80:	4b35      	ldr	r3, [pc, #212]	; (8000d58 <HAL_ADC_Start_DMA+0x1a8>)
 8000c82:	685b      	ldr	r3, [r3, #4]
 8000c84:	f403 6380 	and.w	r3, r3, #1024	; 0x400
 8000c88:	2b00      	cmp	r3, #0
 8000c8a:	d007      	beq.n	8000c9c <HAL_ADC_Start_DMA+0xec>
      {
        ADC_STATE_CLR_SET(hadc->State, HAL_ADC_STATE_INJ_EOC, HAL_ADC_STATE_INJ_BUSY);
 8000c8c:	68fb      	ldr	r3, [r7, #12]
 8000c8e:	6a9b      	ldr	r3, [r3, #40]	; 0x28
 8000c90:	f423 5340 	bic.w	r3, r3, #12288	; 0x3000
 8000c94:	f443 5280 	orr.w	r2, r3, #4096	; 0x1000
 8000c98:	68fb      	ldr	r3, [r7, #12]
 8000c9a:	629a      	str	r2, [r3, #40]	; 0x28
      }
    }
      
      /* State machine update: Check if an injected conversion is ongoing */
      if (HAL_IS_BIT_SET(hadc->State, HAL_ADC_STATE_INJ_BUSY))
 8000c9c:	68fb      	ldr	r3, [r7, #12]
 8000c9e:	6a9b      	ldr	r3, [r3, #40]	; 0x28
 8000ca0:	f403 5380 	and.w	r3, r3, #4096	; 0x1000
 8000ca4:	2b00      	cmp	r3, #0
 8000ca6:	d006      	beq.n	8000cb6 <HAL_ADC_Start_DMA+0x106>
      {
        /* Reset ADC error code fields related to conversions on group regular */
        CLEAR_BIT(hadc->ErrorCode, (HAL_ADC_ERROR_OVR | HAL_ADC_ERROR_DMA));         
 8000ca8:	68fb      	ldr	r3, [r7, #12]
 8000caa:	6adb      	ldr	r3, [r3, #44]	; 0x2c
 8000cac:	f023 0206 	bic.w	r2, r3, #6
 8000cb0:	68fb      	ldr	r3, [r7, #12]
 8000cb2:	62da      	str	r2, [r3, #44]	; 0x2c
 8000cb4:	e002      	b.n	8000cbc <HAL_ADC_Start_DMA+0x10c>
      }
      else
      {
        /* Reset ADC all error code fields */
        ADC_CLEAR_ERRORCODE(hadc);
 8000cb6:	68fb      	ldr	r3, [r7, #12]
 8000cb8:	2200      	movs	r2, #0
 8000cba:	62da      	str	r2, [r3, #44]	; 0x2c
      }
      
      /* Process unlocked */
      /* Unlock before starting ADC conversions: in case of potential         */
      /* interruption, to let the process to ADC IRQ Handler.                 */
      __HAL_UNLOCK(hadc);
 8000cbc:	68fb      	ldr	r3, [r7, #12]
 8000cbe:	2200      	movs	r2, #0
 8000cc0:	f883 2024 	strb.w	r2, [r3, #36]	; 0x24
      
      /* Set the DMA transfer complete callback */
      hadc->DMA_Handle->XferCpltCallback = ADC_DMAConvCplt;
 8000cc4:	68fb      	ldr	r3, [r7, #12]
 8000cc6:	6a1b      	ldr	r3, [r3, #32]
 8000cc8:	4a25      	ldr	r2, [pc, #148]	; (8000d60 <HAL_ADC_Start_DMA+0x1b0>)
 8000cca:	629a      	str	r2, [r3, #40]	; 0x28

      /* Set the DMA half transfer complete callback */
      hadc->DMA_Handle->XferHalfCpltCallback = ADC_DMAHalfConvCplt;
 8000ccc:	68fb      	ldr	r3, [r7, #12]
 8000cce:	6a1b      	ldr	r3, [r3, #32]
 8000cd0:	4a24      	ldr	r2, [pc, #144]	; (8000d64 <HAL_ADC_Start_DMA+0x1b4>)
 8000cd2:	62da      	str	r2, [r3, #44]	; 0x2c
      
      /* Set the DMA error callback */
      hadc->DMA_Handle->XferErrorCallback = ADC_DMAError;
 8000cd4:	68fb      	ldr	r3, [r7, #12]
 8000cd6:	6a1b      	ldr	r3, [r3, #32]
 8000cd8:	4a23      	ldr	r2, [pc, #140]	; (8000d68 <HAL_ADC_Start_DMA+0x1b8>)
 8000cda:	631a      	str	r2, [r3, #48]	; 0x30
      /* start (in case of SW start):                                         */
      
      /* Clear regular group conversion flag and overrun flag */
      /* (To ensure of no unknown state from potential previous ADC           */
      /* operations)                                                          */
      __HAL_ADC_CLEAR_FLAG(hadc, ADC_FLAG_EOC);
 8000cdc:	68fb      	ldr	r3, [r7, #12]
 8000cde:	681b      	ldr	r3, [r3, #0]
 8000ce0:	f06f 0202 	mvn.w	r2, #2
 8000ce4:	601a      	str	r2, [r3, #0]
      
      /* Enable ADC DMA mode */
      SET_BIT(hadc->Instance->CR2, ADC_CR2_DMA);
 8000ce6:	68fb      	ldr	r3, [r7, #12]
 8000ce8:	681b      	ldr	r3, [r3, #0]
 8000cea:	689a      	ldr	r2, [r3, #8]
 8000cec:	68fb      	ldr	r3, [r7, #12]
 8000cee:	681b      	ldr	r3, [r3, #0]
 8000cf0:	f442 7280 	orr.w	r2, r2, #256	; 0x100
 8000cf4:	609a      	str	r2, [r3, #8]
      
      /* Start the DMA channel */
      HAL_DMA_Start_IT(hadc->DMA_Handle, (uint32_t)&hadc->Instance->DR, (uint32_t)pData, Length);
 8000cf6:	68fb      	ldr	r3, [r7, #12]
 8000cf8:	6a18      	ldr	r0, [r3, #32]
 8000cfa:	68fb      	ldr	r3, [r7, #12]
 8000cfc:	681b      	ldr	r3, [r3, #0]
 8000cfe:	334c      	adds	r3, #76	; 0x4c
 8000d00:	4619      	mov	r1, r3
 8000d02:	68ba      	ldr	r2, [r7, #8]
 8000d04:	687b      	ldr	r3, [r7, #4]
 8000d06:	f000 fbaf 	bl	8001468 <HAL_DMA_Start_IT>
      
      /* Enable conversion of regular group.                                  */
      /* If software start has been selected, conversion starts immediately.  */
      /* If external trigger has been selected, conversion will start at next */
      /* trigger event.                                                       */
      if (ADC_IS_SOFTWARE_START_REGULAR(hadc))
 8000d0a:	68fb      	ldr	r3, [r7, #12]
 8000d0c:	681b      	ldr	r3, [r3, #0]
 8000d0e:	689b      	ldr	r3, [r3, #8]
 8000d10:	f403 2360 	and.w	r3, r3, #917504	; 0xe0000
 8000d14:	f5b3 2f60 	cmp.w	r3, #917504	; 0xe0000
 8000d18:	d108      	bne.n	8000d2c <HAL_ADC_Start_DMA+0x17c>
      {
        /* Start ADC conversion on regular group with SW start */
        SET_BIT(hadc->Instance->CR2, (ADC_CR2_SWSTART | ADC_CR2_EXTTRIG));
 8000d1a:	68fb      	ldr	r3, [r7, #12]
 8000d1c:	681b      	ldr	r3, [r3, #0]
 8000d1e:	689a      	ldr	r2, [r3, #8]
 8000d20:	68fb      	ldr	r3, [r7, #12]
 8000d22:	681b      	ldr	r3, [r3, #0]
 8000d24:	f442 02a0 	orr.w	r2, r2, #5242880	; 0x500000
 8000d28:	609a      	str	r2, [r3, #8]
    if (tmp_hal_status == HAL_OK)
 8000d2a:	e00f      	b.n	8000d4c <HAL_ADC_Start_DMA+0x19c>
      }
      else
      {
        /* Start ADC conversion on regular group with external trigger */
        SET_BIT(hadc->Instance->CR2, ADC_CR2_EXTTRIG);
 8000d2c:	68fb      	ldr	r3, [r7, #12]
 8000d2e:	681b      	ldr	r3, [r3, #0]
 8000d30:	689a      	ldr	r2, [r3, #8]
 8000d32:	68fb      	ldr	r3, [r7, #12]
 8000d34:	681b      	ldr	r3, [r3, #0]
 8000d36:	f442 1280 	orr.w	r2, r2, #1048576	; 0x100000
 8000d3a:	609a      	str	r2, [r3, #8]
    if (tmp_hal_status == HAL_OK)
 8000d3c:	e006      	b.n	8000d4c <HAL_ADC_Start_DMA+0x19c>
      }
    }
    else
    {
      /* Process unlocked */
      __HAL_UNLOCK(hadc);
 8000d3e:	68fb      	ldr	r3, [r7, #12]
 8000d40:	2200      	movs	r2, #0
 8000d42:	f883 2024 	strb.w	r2, [r3, #36]	; 0x24
    if (tmp_hal_status == HAL_OK)
 8000d46:	e001      	b.n	8000d4c <HAL_ADC_Start_DMA+0x19c>
    }
  }
  else
  {
    tmp_hal_status = HAL_ERROR;
 8000d48:	2301      	movs	r3, #1
 8000d4a:	75fb      	strb	r3, [r7, #23]
  }
  
  /* Return function status */
  return tmp_hal_status;
 8000d4c:	7dfb      	ldrb	r3, [r7, #23]
}
 8000d4e:	4618      	mov	r0, r3
 8000d50:	3718      	adds	r7, #24
 8000d52:	46bd      	mov	sp, r7
 8000d54:	bd80      	pop	{r7, pc}
 8000d56:	bf00      	nop
 8000d58:	40012400 	.word	0x40012400
 8000d5c:	40012800 	.word	0x40012800
 8000d60:	080010cb 	.word	0x080010cb
 8000d64:	08001147 	.word	0x08001147
 8000d68:	08001163 	.word	0x08001163

08000d6c <HAL_ADC_ConvCpltCallback>:
  * @brief  Conversion complete callback in non blocking mode 
  * @param  hadc: ADC handle
  * @retval None
  */
__weak void HAL_ADC_ConvCpltCallback(ADC_HandleTypeDef* hadc)
{
 8000d6c:	b480      	push	{r7}
 8000d6e:	b083      	sub	sp, #12
 8000d70:	af00      	add	r7, sp, #0
 8000d72:	6078      	str	r0, [r7, #4]
  /* Prevent unused argument(s) compilation warning */
  UNUSED(hadc);
  /* NOTE : This function should not be modified. When the callback is needed,
            function HAL_ADC_ConvCpltCallback must be implemented in the user file.
   */
}
 8000d74:	bf00      	nop
 8000d76:	370c      	adds	r7, #12
 8000d78:	46bd      	mov	sp, r7
 8000d7a:	bc80      	pop	{r7}
 8000d7c:	4770      	bx	lr

08000d7e <HAL_ADC_ConvHalfCpltCallback>:
  * @brief  Conversion DMA half-transfer callback in non blocking mode 
  * @param  hadc: ADC handle
  * @retval None
  */
__weak void HAL_ADC_ConvHalfCpltCallback(ADC_HandleTypeDef* hadc)
{
 8000d7e:	b480      	push	{r7}
 8000d80:	b083      	sub	sp, #12
 8000d82:	af00      	add	r7, sp, #0
 8000d84:	6078      	str	r0, [r7, #4]
  /* Prevent unused argument(s) compilation warning */
  UNUSED(hadc);
  /* NOTE : This function should not be modified. When the callback is needed,
            function HAL_ADC_ConvHalfCpltCallback must be implemented in the user file.
  */
}
 8000d86:	bf00      	nop
 8000d88:	370c      	adds	r7, #12
 8000d8a:	46bd      	mov	sp, r7
 8000d8c:	bc80      	pop	{r7}
 8000d8e:	4770      	bx	lr

08000d90 <HAL_ADC_ErrorCallback>:
  *        (ADC conversion with interruption or transfer by DMA)
  * @param  hadc: ADC handle
  * @retval None
  */
__weak void HAL_ADC_ErrorCallback(ADC_HandleTypeDef *hadc)
{
 8000d90:	b480      	push	{r7}
 8000d92:	b083      	sub	sp, #12
 8000d94:	af00      	add	r7, sp, #0
 8000d96:	6078      	str	r0, [r7, #4]
  /* Prevent unused argument(s) compilation warning */
  UNUSED(hadc);
  /* NOTE : This function should not be modified. When the callback is needed,
            function HAL_ADC_ErrorCallback must be implemented in the user file.
  */
}
 8000d98:	bf00      	nop
 8000d9a:	370c      	adds	r7, #12
 8000d9c:	46bd      	mov	sp, r7
 8000d9e:	bc80      	pop	{r7}
 8000da0:	4770      	bx	lr
	...

08000da4 <HAL_ADC_ConfigChannel>:
  * @param  hadc: ADC handle
  * @param  sConfig: Structure of ADC channel for regular group.
  * @retval HAL status
  */
HAL_StatusTypeDef HAL_ADC_ConfigChannel(ADC_HandleTypeDef* hadc, ADC_ChannelConfTypeDef* sConfig)
{ 
 8000da4:	b480      	push	{r7}
 8000da6:	b085      	sub	sp, #20
 8000da8:	af00      	add	r7, sp, #0
 8000daa:	6078      	str	r0, [r7, #4]
 8000dac:	6039      	str	r1, [r7, #0]
  HAL_StatusTypeDef tmp_hal_status = HAL_OK;
 8000dae:	2300      	movs	r3, #0
 8000db0:	73fb      	strb	r3, [r7, #15]
  __IO uint32_t wait_loop_index = 0U;
 8000db2:	2300      	movs	r3, #0
 8000db4:	60bb      	str	r3, [r7, #8]
  assert_param(IS_ADC_CHANNEL(sConfig->Channel));
  assert_param(IS_ADC_REGULAR_RANK(sConfig->Rank));
  assert_param(IS_ADC_SAMPLE_TIME(sConfig->SamplingTime));
  
  /* Process locked */
  __HAL_LOCK(hadc);
 8000db6:	687b      	ldr	r3, [r7, #4]
 8000db8:	f893 3024 	ldrb.w	r3, [r3, #36]	; 0x24
 8000dbc:	2b01      	cmp	r3, #1
 8000dbe:	d101      	bne.n	8000dc4 <HAL_ADC_ConfigChannel+0x20>
 8000dc0:	2302      	movs	r3, #2
 8000dc2:	e0dc      	b.n	8000f7e <HAL_ADC_ConfigChannel+0x1da>
 8000dc4:	687b      	ldr	r3, [r7, #4]
 8000dc6:	2201      	movs	r2, #1
 8000dc8:	f883 2024 	strb.w	r2, [r3, #36]	; 0x24
  
  
  /* Regular sequence configuration */
  /* For Rank 1 to 6 */
  if (sConfig->Rank < 7U)
 8000dcc:	683b      	ldr	r3, [r7, #0]
 8000dce:	685b      	ldr	r3, [r3, #4]
 8000dd0:	2b06      	cmp	r3, #6
 8000dd2:	d81c      	bhi.n	8000e0e <HAL_ADC_ConfigChannel+0x6a>
  {
    MODIFY_REG(hadc->Instance->SQR3                        ,
 8000dd4:	687b      	ldr	r3, [r7, #4]
 8000dd6:	681b      	ldr	r3, [r3, #0]
 8000dd8:	6b59      	ldr	r1, [r3, #52]	; 0x34
 8000dda:	683b      	ldr	r3, [r7, #0]
 8000ddc:	685a      	ldr	r2, [r3, #4]
 8000dde:	4613      	mov	r3, r2
 8000de0:	009b      	lsls	r3, r3, #2
 8000de2:	4413      	add	r3, r2
 8000de4:	3b05      	subs	r3, #5
 8000de6:	221f      	movs	r2, #31
 8000de8:	fa02 f303 	lsl.w	r3, r2, r3
 8000dec:	43db      	mvns	r3, r3
 8000dee:	4019      	ands	r1, r3
 8000df0:	683b      	ldr	r3, [r7, #0]
 8000df2:	6818      	ldr	r0, [r3, #0]
 8000df4:	683b      	ldr	r3, [r7, #0]
 8000df6:	685a      	ldr	r2, [r3, #4]
 8000df8:	4613      	mov	r3, r2
 8000dfa:	009b      	lsls	r3, r3, #2
 8000dfc:	4413      	add	r3, r2
 8000dfe:	3b05      	subs	r3, #5
 8000e00:	fa00 f203 	lsl.w	r2, r0, r3
 8000e04:	687b      	ldr	r3, [r7, #4]
 8000e06:	681b      	ldr	r3, [r3, #0]
 8000e08:	430a      	orrs	r2, r1
 8000e0a:	635a      	str	r2, [r3, #52]	; 0x34
 8000e0c:	e03c      	b.n	8000e88 <HAL_ADC_ConfigChannel+0xe4>
               ADC_SQR3_RK(ADC_SQR3_SQ1, sConfig->Rank)    ,
               ADC_SQR3_RK(sConfig->Channel, sConfig->Rank) );
  }
  /* For Rank 7 to 12 */
  else if (sConfig->Rank < 13U)
 8000e0e:	683b      	ldr	r3, [r7, #0]
 8000e10:	685b      	ldr	r3, [r3, #4]
 8000e12:	2b0c      	cmp	r3, #12
 8000e14:	d81c      	bhi.n	8000e50 <HAL_ADC_ConfigChannel+0xac>
  {
    MODIFY_REG(hadc->Instance->SQR2                        ,
 8000e16:	687b      	ldr	r3, [r7, #4]
 8000e18:	681b      	ldr	r3, [r3, #0]
 8000e1a:	6b19      	ldr	r1, [r3, #48]	; 0x30
 8000e1c:	683b      	ldr	r3, [r7, #0]
 8000e1e:	685a      	ldr	r2, [r3, #4]
 8000e20:	4613      	mov	r3, r2
 8000e22:	009b      	lsls	r3, r3, #2
 8000e24:	4413      	add	r3, r2
 8000e26:	3b23      	subs	r3, #35	; 0x23
 8000e28:	221f      	movs	r2, #31
 8000e2a:	fa02 f303 	lsl.w	r3, r2, r3
 8000e2e:	43db      	mvns	r3, r3
 8000e30:	4019      	ands	r1, r3
 8000e32:	683b      	ldr	r3, [r7, #0]
 8000e34:	6818      	ldr	r0, [r3, #0]
 8000e36:	683b      	ldr	r3, [r7, #0]
 8000e38:	685a      	ldr	r2, [r3, #4]
 8000e3a:	4613      	mov	r3, r2
 8000e3c:	009b      	lsls	r3, r3, #2
 8000e3e:	4413      	add	r3, r2
 8000e40:	3b23      	subs	r3, #35	; 0x23
 8000e42:	fa00 f203 	lsl.w	r2, r0, r3
 8000e46:	687b      	ldr	r3, [r7, #4]
 8000e48:	681b      	ldr	r3, [r3, #0]
 8000e4a:	430a      	orrs	r2, r1
 8000e4c:	631a      	str	r2, [r3, #48]	; 0x30
 8000e4e:	e01b      	b.n	8000e88 <HAL_ADC_ConfigChannel+0xe4>
               ADC_SQR2_RK(sConfig->Channel, sConfig->Rank) );
  }
  /* For Rank 13 to 16 */
  else
  {
    MODIFY_REG(hadc->Instance->SQR1                        ,
 8000e50:	687b      	ldr	r3, [r7, #4]
 8000e52:	681b      	ldr	r3, [r3, #0]
 8000e54:	6ad9      	ldr	r1, [r3, #44]	; 0x2c
 8000e56:	683b      	ldr	r3, [r7, #0]
 8000e58:	685a      	ldr	r2, [r3, #4]
 8000e5a:	4613      	mov	r3, r2
 8000e5c:	009b      	lsls	r3, r3, #2
 8000e5e:	4413      	add	r3, r2
 8000e60:	3b41      	subs	r3, #65	; 0x41
 8000e62:	221f      	movs	r2, #31
 8000e64:	fa02 f303 	lsl.w	r3, r2, r3
 8000e68:	43db      	mvns	r3, r3
 8000e6a:	4019      	ands	r1, r3
 8000e6c:	683b      	ldr	r3, [r7, #0]
 8000e6e:	6818      	ldr	r0, [r3, #0]
 8000e70:	683b      	ldr	r3, [r7, #0]
 8000e72:	685a      	ldr	r2, [r3, #4]
 8000e74:	4613      	mov	r3, r2
 8000e76:	009b      	lsls	r3, r3, #2
 8000e78:	4413      	add	r3, r2
 8000e7a:	3b41      	subs	r3, #65	; 0x41
 8000e7c:	fa00 f203 	lsl.w	r2, r0, r3
 8000e80:	687b      	ldr	r3, [r7, #4]
 8000e82:	681b      	ldr	r3, [r3, #0]
 8000e84:	430a      	orrs	r2, r1
 8000e86:	62da      	str	r2, [r3, #44]	; 0x2c
  }
  
  
  /* Channel sampling time configuration */
  /* For channels 10 to 17 */
  if (sConfig->Channel >= ADC_CHANNEL_10)
 8000e88:	683b      	ldr	r3, [r7, #0]
 8000e8a:	681b      	ldr	r3, [r3, #0]
 8000e8c:	2b09      	cmp	r3, #9
 8000e8e:	d91c      	bls.n	8000eca <HAL_ADC_ConfigChannel+0x126>
  {
    MODIFY_REG(hadc->Instance->SMPR1                             ,
 8000e90:	687b      	ldr	r3, [r7, #4]
 8000e92:	681b      	ldr	r3, [r3, #0]
 8000e94:	68d9      	ldr	r1, [r3, #12]
 8000e96:	683b      	ldr	r3, [r7, #0]
 8000e98:	681a      	ldr	r2, [r3, #0]
 8000e9a:	4613      	mov	r3, r2
 8000e9c:	005b      	lsls	r3, r3, #1
 8000e9e:	4413      	add	r3, r2
 8000ea0:	3b1e      	subs	r3, #30
 8000ea2:	2207      	movs	r2, #7
 8000ea4:	fa02 f303 	lsl.w	r3, r2, r3
 8000ea8:	43db      	mvns	r3, r3
 8000eaa:	4019      	ands	r1, r3
 8000eac:	683b      	ldr	r3, [r7, #0]
 8000eae:	6898      	ldr	r0, [r3, #8]
 8000eb0:	683b      	ldr	r3, [r7, #0]
 8000eb2:	681a      	ldr	r2, [r3, #0]
 8000eb4:	4613      	mov	r3, r2
 8000eb6:	005b      	lsls	r3, r3, #1
 8000eb8:	4413      	add	r3, r2
 8000eba:	3b1e      	subs	r3, #30
 8000ebc:	fa00 f203 	lsl.w	r2, r0, r3
 8000ec0:	687b      	ldr	r3, [r7, #4]
 8000ec2:	681b      	ldr	r3, [r3, #0]
 8000ec4:	430a      	orrs	r2, r1
 8000ec6:	60da      	str	r2, [r3, #12]
 8000ec8:	e019      	b.n	8000efe <HAL_ADC_ConfigChannel+0x15a>
               ADC_SMPR1(ADC_SMPR1_SMP10, sConfig->Channel)      ,
               ADC_SMPR1(sConfig->SamplingTime, sConfig->Channel) );
  }
  else /* For channels 0 to 9 */
  {
    MODIFY_REG(hadc->Instance->SMPR2                             ,
 8000eca:	687b      	ldr	r3, [r7, #4]
 8000ecc:	681b      	ldr	r3, [r3, #0]
 8000ece:	6919      	ldr	r1, [r3, #16]
 8000ed0:	683b      	ldr	r3, [r7, #0]
 8000ed2:	681a      	ldr	r2, [r3, #0]
 8000ed4:	4613      	mov	r3, r2
 8000ed6:	005b      	lsls	r3, r3, #1
 8000ed8:	4413      	add	r3, r2
 8000eda:	2207      	movs	r2, #7
 8000edc:	fa02 f303 	lsl.w	r3, r2, r3
 8000ee0:	43db      	mvns	r3, r3
 8000ee2:	4019      	ands	r1, r3
 8000ee4:	683b      	ldr	r3, [r7, #0]
 8000ee6:	6898      	ldr	r0, [r3, #8]
 8000ee8:	683b      	ldr	r3, [r7, #0]
 8000eea:	681a      	ldr	r2, [r3, #0]
 8000eec:	4613      	mov	r3, r2
 8000eee:	005b      	lsls	r3, r3, #1
 8000ef0:	4413      	add	r3, r2
 8000ef2:	fa00 f203 	lsl.w	r2, r0, r3
 8000ef6:	687b      	ldr	r3, [r7, #4]
 8000ef8:	681b      	ldr	r3, [r3, #0]
 8000efa:	430a      	orrs	r2, r1
 8000efc:	611a      	str	r2, [r3, #16]
               ADC_SMPR2(sConfig->SamplingTime, sConfig->Channel) );
  }
  
  /* If ADC1 Channel_16 or Channel_17 is selected, enable Temperature sensor  */
  /* and VREFINT measurement path.                                            */
  if ((sConfig->Channel == ADC_CHANNEL_TEMPSENSOR) ||
 8000efe:	683b      	ldr	r3, [r7, #0]
 8000f00:	681b      	ldr	r3, [r3, #0]
 8000f02:	2b10      	cmp	r3, #16
 8000f04:	d003      	beq.n	8000f0e <HAL_ADC_ConfigChannel+0x16a>
      (sConfig->Channel == ADC_CHANNEL_VREFINT)      )
 8000f06:	683b      	ldr	r3, [r7, #0]
 8000f08:	681b      	ldr	r3, [r3, #0]
  if ((sConfig->Channel == ADC_CHANNEL_TEMPSENSOR) ||
 8000f0a:	2b11      	cmp	r3, #17
 8000f0c:	d132      	bne.n	8000f74 <HAL_ADC_ConfigChannel+0x1d0>
  {
    /* For STM32F1 devices with several ADC: Only ADC1 can access internal    */
    /* measurement channels (VrefInt/TempSensor). If these channels are       */
    /* intended to be set on other ADC instances, an error is reported.       */
    if (hadc->Instance == ADC1)
 8000f0e:	687b      	ldr	r3, [r7, #4]
 8000f10:	681b      	ldr	r3, [r3, #0]
 8000f12:	4a1d      	ldr	r2, [pc, #116]	; (8000f88 <HAL_ADC_ConfigChannel+0x1e4>)
 8000f14:	4293      	cmp	r3, r2
 8000f16:	d125      	bne.n	8000f64 <HAL_ADC_ConfigChannel+0x1c0>
    {
      if (READ_BIT(hadc->Instance->CR2, ADC_CR2_TSVREFE) == RESET)
 8000f18:	687b      	ldr	r3, [r7, #4]
 8000f1a:	681b      	ldr	r3, [r3, #0]
 8000f1c:	689b      	ldr	r3, [r3, #8]
 8000f1e:	f403 0300 	and.w	r3, r3, #8388608	; 0x800000
 8000f22:	2b00      	cmp	r3, #0
 8000f24:	d126      	bne.n	8000f74 <HAL_ADC_ConfigChannel+0x1d0>
      {
        SET_BIT(hadc->Instance->CR2, ADC_CR2_TSVREFE);
 8000f26:	687b      	ldr	r3, [r7, #4]
 8000f28:	681b      	ldr	r3, [r3, #0]
 8000f2a:	689a      	ldr	r2, [r3, #8]
 8000f2c:	687b      	ldr	r3, [r7, #4]
 8000f2e:	681b      	ldr	r3, [r3, #0]
 8000f30:	f442 0200 	orr.w	r2, r2, #8388608	; 0x800000
 8000f34:	609a      	str	r2, [r3, #8]
        
        if (sConfig->Channel == ADC_CHANNEL_TEMPSENSOR)
 8000f36:	683b      	ldr	r3, [r7, #0]
 8000f38:	681b      	ldr	r3, [r3, #0]
 8000f3a:	2b10      	cmp	r3, #16
 8000f3c:	d11a      	bne.n	8000f74 <HAL_ADC_ConfigChannel+0x1d0>
        {
          /* Delay for temperature sensor stabilization time */
          /* Compute number of CPU cycles to wait for */
          wait_loop_index = (ADC_TEMPSENSOR_DELAY_US * (SystemCoreClock / 1000000U));
 8000f3e:	4b13      	ldr	r3, [pc, #76]	; (8000f8c <HAL_ADC_ConfigChannel+0x1e8>)
 8000f40:	681b      	ldr	r3, [r3, #0]
 8000f42:	4a13      	ldr	r2, [pc, #76]	; (8000f90 <HAL_ADC_ConfigChannel+0x1ec>)
 8000f44:	fba2 2303 	umull	r2, r3, r2, r3
 8000f48:	0c9a      	lsrs	r2, r3, #18
 8000f4a:	4613      	mov	r3, r2
 8000f4c:	009b      	lsls	r3, r3, #2
 8000f4e:	4413      	add	r3, r2
 8000f50:	005b      	lsls	r3, r3, #1
 8000f52:	60bb      	str	r3, [r7, #8]
          while(wait_loop_index != 0U)
 8000f54:	e002      	b.n	8000f5c <HAL_ADC_ConfigChannel+0x1b8>
          {
            wait_loop_index--;
 8000f56:	68bb      	ldr	r3, [r7, #8]
 8000f58:	3b01      	subs	r3, #1
 8000f5a:	60bb      	str	r3, [r7, #8]
          while(wait_loop_index != 0U)
 8000f5c:	68bb      	ldr	r3, [r7, #8]
 8000f5e:	2b00      	cmp	r3, #0
 8000f60:	d1f9      	bne.n	8000f56 <HAL_ADC_ConfigChannel+0x1b2>
 8000f62:	e007      	b.n	8000f74 <HAL_ADC_ConfigChannel+0x1d0>
      }
    }
    else
    {
      /* Update ADC state machine to error */
      SET_BIT(hadc->State, HAL_ADC_STATE_ERROR_CONFIG);
 8000f64:	687b      	ldr	r3, [r7, #4]
 8000f66:	6a9b      	ldr	r3, [r3, #40]	; 0x28
 8000f68:	f043 0220 	orr.w	r2, r3, #32
 8000f6c:	687b      	ldr	r3, [r7, #4]
 8000f6e:	629a      	str	r2, [r3, #40]	; 0x28
      
      tmp_hal_status = HAL_ERROR;
 8000f70:	2301      	movs	r3, #1
 8000f72:	73fb      	strb	r3, [r7, #15]
    }
  }
  
  /* Process unlocked */
  __HAL_UNLOCK(hadc);
 8000f74:	687b      	ldr	r3, [r7, #4]
 8000f76:	2200      	movs	r2, #0
 8000f78:	f883 2024 	strb.w	r2, [r3, #36]	; 0x24
  
  /* Return function status */
  return tmp_hal_status;
 8000f7c:	7bfb      	ldrb	r3, [r7, #15]
}
 8000f7e:	4618      	mov	r0, r3
 8000f80:	3714      	adds	r7, #20
 8000f82:	46bd      	mov	sp, r7
 8000f84:	bc80      	pop	{r7}
 8000f86:	4770      	bx	lr
 8000f88:	40012400 	.word	0x40012400
 8000f8c:	20000000 	.word	0x20000000
 8000f90:	431bde83 	.word	0x431bde83

08000f94 <ADC_Enable>:
  *         and voltage regulator must be enabled (done into HAL_ADC_Init()).
  * @param  hadc: ADC handle
  * @retval HAL status.
  */
HAL_StatusTypeDef ADC_Enable(ADC_HandleTypeDef* hadc)
{
 8000f94:	b580      	push	{r7, lr}
 8000f96:	b084      	sub	sp, #16
 8000f98:	af00      	add	r7, sp, #0
 8000f9a:	6078      	str	r0, [r7, #4]
  uint32_t tickstart = 0U;
 8000f9c:	2300      	movs	r3, #0
 8000f9e:	60fb      	str	r3, [r7, #12]
  __IO uint32_t wait_loop_index = 0U;
 8000fa0:	2300      	movs	r3, #0
 8000fa2:	60bb      	str	r3, [r7, #8]
  
  /* ADC enable and wait for ADC ready (in case of ADC is disabled or         */
  /* enabling phase not yet completed: flag ADC ready not yet set).           */
  /* Timeout implemented to not be stuck if ADC cannot be enabled (possible   */
  /* causes: ADC clock not running, ...).                                     */
  if (ADC_IS_ENABLE(hadc) == RESET)
 8000fa4:	687b      	ldr	r3, [r7, #4]
 8000fa6:	681b      	ldr	r3, [r3, #0]
 8000fa8:	689b      	ldr	r3, [r3, #8]
 8000faa:	f003 0301 	and.w	r3, r3, #1
 8000fae:	2b01      	cmp	r3, #1
 8000fb0:	d040      	beq.n	8001034 <ADC_Enable+0xa0>
  {
    /* Enable the Peripheral */
    __HAL_ADC_ENABLE(hadc);
 8000fb2:	687b      	ldr	r3, [r7, #4]
 8000fb4:	681b      	ldr	r3, [r3, #0]
 8000fb6:	689a      	ldr	r2, [r3, #8]
 8000fb8:	687b      	ldr	r3, [r7, #4]
 8000fba:	681b      	ldr	r3, [r3, #0]
 8000fbc:	f042 0201 	orr.w	r2, r2, #1
 8000fc0:	609a      	str	r2, [r3, #8]
    
    /* Delay for ADC stabilization time */
    /* Compute number of CPU cycles to wait for */
    wait_loop_index = (ADC_STAB_DELAY_US * (SystemCoreClock / 1000000U));
 8000fc2:	4b1f      	ldr	r3, [pc, #124]	; (8001040 <ADC_Enable+0xac>)
 8000fc4:	681b      	ldr	r3, [r3, #0]
 8000fc6:	4a1f      	ldr	r2, [pc, #124]	; (8001044 <ADC_Enable+0xb0>)
 8000fc8:	fba2 2303 	umull	r2, r3, r2, r3
 8000fcc:	0c9b      	lsrs	r3, r3, #18
 8000fce:	60bb      	str	r3, [r7, #8]
    while(wait_loop_index != 0U)
 8000fd0:	e002      	b.n	8000fd8 <ADC_Enable+0x44>
    {
      wait_loop_index--;
 8000fd2:	68bb      	ldr	r3, [r7, #8]
 8000fd4:	3b01      	subs	r3, #1
 8000fd6:	60bb      	str	r3, [r7, #8]
    while(wait_loop_index != 0U)
 8000fd8:	68bb      	ldr	r3, [r7, #8]
 8000fda:	2b00      	cmp	r3, #0
 8000fdc:	d1f9      	bne.n	8000fd2 <ADC_Enable+0x3e>
    }
    
    /* Get tick count */
    tickstart = HAL_GetTick();
 8000fde:	f7ff fce1 	bl	80009a4 <HAL_GetTick>
 8000fe2:	60f8      	str	r0, [r7, #12]

    /* Wait for ADC effectively enabled */
    while(ADC_IS_ENABLE(hadc) == RESET)
 8000fe4:	e01f      	b.n	8001026 <ADC_Enable+0x92>
    {
      if((HAL_GetTick() - tickstart) > ADC_ENABLE_TIMEOUT)
 8000fe6:	f7ff fcdd 	bl	80009a4 <HAL_GetTick>
 8000fea:	4602      	mov	r2, r0
 8000fec:	68fb      	ldr	r3, [r7, #12]
 8000fee:	1ad3      	subs	r3, r2, r3
 8000ff0:	2b02      	cmp	r3, #2
 8000ff2:	d918      	bls.n	8001026 <ADC_Enable+0x92>
      {
        /* New check to avoid false timeout detection in case of preemption */
        if(ADC_IS_ENABLE(hadc) == RESET)
 8000ff4:	687b      	ldr	r3, [r7, #4]
 8000ff6:	681b      	ldr	r3, [r3, #0]
 8000ff8:	689b      	ldr	r3, [r3, #8]
 8000ffa:	f003 0301 	and.w	r3, r3, #1
 8000ffe:	2b01      	cmp	r3, #1
 8001000:	d011      	beq.n	8001026 <ADC_Enable+0x92>
        {
          /* Update ADC state machine to error */
          SET_BIT(hadc->State, HAL_ADC_STATE_ERROR_INTERNAL);
 8001002:	687b      	ldr	r3, [r7, #4]
 8001004:	6a9b      	ldr	r3, [r3, #40]	; 0x28
 8001006:	f043 0210 	orr.w	r2, r3, #16
 800100a:	687b      	ldr	r3, [r7, #4]
 800100c:	629a      	str	r2, [r3, #40]	; 0x28

          /* Set ADC error code to ADC IP internal error */
          SET_BIT(hadc->ErrorCode, HAL_ADC_ERROR_INTERNAL);
 800100e:	687b      	ldr	r3, [r7, #4]
 8001010:	6adb      	ldr	r3, [r3, #44]	; 0x2c
 8001012:	f043 0201 	orr.w	r2, r3, #1
 8001016:	687b      	ldr	r3, [r7, #4]
 8001018:	62da      	str	r2, [r3, #44]	; 0x2c

          /* Process unlocked */
          __HAL_UNLOCK(hadc);
 800101a:	687b      	ldr	r3, [r7, #4]
 800101c:	2200      	movs	r2, #0
 800101e:	f883 2024 	strb.w	r2, [r3, #36]	; 0x24

          return HAL_ERROR;
 8001022:	2301      	movs	r3, #1
 8001024:	e007      	b.n	8001036 <ADC_Enable+0xa2>
    while(ADC_IS_ENABLE(hadc) == RESET)
 8001026:	687b      	ldr	r3, [r7, #4]
 8001028:	681b      	ldr	r3, [r3, #0]
 800102a:	689b      	ldr	r3, [r3, #8]
 800102c:	f003 0301 	and.w	r3, r3, #1
 8001030:	2b01      	cmp	r3, #1
 8001032:	d1d8      	bne.n	8000fe6 <ADC_Enable+0x52>
      }
    }
  }
   
  /* Return HAL status */
  return HAL_OK;
 8001034:	2300      	movs	r3, #0
}
 8001036:	4618      	mov	r0, r3
 8001038:	3710      	adds	r7, #16
 800103a:	46bd      	mov	sp, r7
 800103c:	bd80      	pop	{r7, pc}
 800103e:	bf00      	nop
 8001040:	20000000 	.word	0x20000000
 8001044:	431bde83 	.word	0x431bde83

08001048 <ADC_ConversionStop_Disable>:
  *         stopped to disable the ADC.
  * @param  hadc: ADC handle
  * @retval HAL status.
  */
HAL_StatusTypeDef ADC_ConversionStop_Disable(ADC_HandleTypeDef* hadc)
{
 8001048:	b580      	push	{r7, lr}
 800104a:	b084      	sub	sp, #16
 800104c:	af00      	add	r7, sp, #0
 800104e:	6078      	str	r0, [r7, #4]
  uint32_t tickstart = 0U;
 8001050:	2300      	movs	r3, #0
 8001052:	60fb      	str	r3, [r7, #12]
  
  /* Verification if ADC is not already disabled */
  if (ADC_IS_ENABLE(hadc) != RESET)
 8001054:	687b      	ldr	r3, [r7, #4]
 8001056:	681b      	ldr	r3, [r3, #0]
 8001058:	689b      	ldr	r3, [r3, #8]
 800105a:	f003 0301 	and.w	r3, r3, #1
 800105e:	2b01      	cmp	r3, #1
 8001060:	d12e      	bne.n	80010c0 <ADC_ConversionStop_Disable+0x78>
  {
    /* Disable the ADC peripheral */
    __HAL_ADC_DISABLE(hadc);
 8001062:	687b      	ldr	r3, [r7, #4]
 8001064:	681b      	ldr	r3, [r3, #0]
 8001066:	689a      	ldr	r2, [r3, #8]
 8001068:	687b      	ldr	r3, [r7, #4]
 800106a:	681b      	ldr	r3, [r3, #0]
 800106c:	f022 0201 	bic.w	r2, r2, #1
 8001070:	609a      	str	r2, [r3, #8]
     
    /* Get tick count */
    tickstart = HAL_GetTick();
 8001072:	f7ff fc97 	bl	80009a4 <HAL_GetTick>
 8001076:	60f8      	str	r0, [r7, #12]
    
    /* Wait for ADC effectively disabled */
    while(ADC_IS_ENABLE(hadc) != RESET)
 8001078:	e01b      	b.n	80010b2 <ADC_ConversionStop_Disable+0x6a>
    {
      if((HAL_GetTick() - tickstart) > ADC_DISABLE_TIMEOUT)
 800107a:	f7ff fc93 	bl	80009a4 <HAL_GetTick>
 800107e:	4602      	mov	r2, r0
 8001080:	68fb      	ldr	r3, [r7, #12]
 8001082:	1ad3      	subs	r3, r2, r3
 8001084:	2b02      	cmp	r3, #2
 8001086:	d914      	bls.n	80010b2 <ADC_ConversionStop_Disable+0x6a>
      {
        /* New check to avoid false timeout detection in case of preemption */
        if(ADC_IS_ENABLE(hadc) != RESET)
 8001088:	687b      	ldr	r3, [r7, #4]
 800108a:	681b      	ldr	r3, [r3, #0]
 800108c:	689b      	ldr	r3, [r3, #8]
 800108e:	f003 0301 	and.w	r3, r3, #1
 8001092:	2b01      	cmp	r3, #1
 8001094:	d10d      	bne.n	80010b2 <ADC_ConversionStop_Disable+0x6a>
        {
          /* Update ADC state machine to error */
          SET_BIT(hadc->State, HAL_ADC_STATE_ERROR_INTERNAL);
 8001096:	687b      	ldr	r3, [r7, #4]
 8001098:	6a9b      	ldr	r3, [r3, #40]	; 0x28
 800109a:	f043 0210 	orr.w	r2, r3, #16
 800109e:	687b      	ldr	r3, [r7, #4]
 80010a0:	629a      	str	r2, [r3, #40]	; 0x28

          /* Set ADC error code to ADC IP internal error */
          SET_BIT(hadc->ErrorCode, HAL_ADC_ERROR_INTERNAL);
 80010a2:	687b      	ldr	r3, [r7, #4]
 80010a4:	6adb      	ldr	r3, [r3, #44]	; 0x2c
 80010a6:	f043 0201 	orr.w	r2, r3, #1
 80010aa:	687b      	ldr	r3, [r7, #4]
 80010ac:	62da      	str	r2, [r3, #44]	; 0x2c

          return HAL_ERROR;
 80010ae:	2301      	movs	r3, #1
 80010b0:	e007      	b.n	80010c2 <ADC_ConversionStop_Disable+0x7a>
    while(ADC_IS_ENABLE(hadc) != RESET)
 80010b2:	687b      	ldr	r3, [r7, #4]
 80010b4:	681b      	ldr	r3, [r3, #0]
 80010b6:	689b      	ldr	r3, [r3, #8]
 80010b8:	f003 0301 	and.w	r3, r3, #1
 80010bc:	2b01      	cmp	r3, #1
 80010be:	d0dc      	beq.n	800107a <ADC_ConversionStop_Disable+0x32>
      }
    }
  }
  
  /* Return HAL status */
  return HAL_OK;
 80010c0:	2300      	movs	r3, #0
}
 80010c2:	4618      	mov	r0, r3
 80010c4:	3710      	adds	r7, #16
 80010c6:	46bd      	mov	sp, r7
 80010c8:	bd80      	pop	{r7, pc}

080010ca <ADC_DMAConvCplt>:
  * @brief  DMA transfer complete callback. 
  * @param  hdma: pointer to DMA handle.
  * @retval None
  */
void ADC_DMAConvCplt(DMA_HandleTypeDef *hdma)
{
 80010ca:	b580      	push	{r7, lr}
 80010cc:	b084      	sub	sp, #16
 80010ce:	af00      	add	r7, sp, #0
 80010d0:	6078      	str	r0, [r7, #4]
  /* Retrieve ADC handle corresponding to current DMA handle */
  ADC_HandleTypeDef* hadc = ( ADC_HandleTypeDef* )((DMA_HandleTypeDef* )hdma)->Parent;
 80010d2:	687b      	ldr	r3, [r7, #4]
 80010d4:	6a5b      	ldr	r3, [r3, #36]	; 0x24
 80010d6:	60fb      	str	r3, [r7, #12]
 
  /* Update state machine on conversion status if not in error state */
  if (HAL_IS_BIT_CLR(hadc->State, HAL_ADC_STATE_ERROR_INTERNAL | HAL_ADC_STATE_ERROR_DMA))
 80010d8:	68fb      	ldr	r3, [r7, #12]
 80010da:	6a9b      	ldr	r3, [r3, #40]	; 0x28
 80010dc:	f003 0350 	and.w	r3, r3, #80	; 0x50
 80010e0:	2b00      	cmp	r3, #0
 80010e2:	d127      	bne.n	8001134 <ADC_DMAConvCplt+0x6a>
  {
    /* Update ADC state machine */
    SET_BIT(hadc->State, HAL_ADC_STATE_REG_EOC);
 80010e4:	68fb      	ldr	r3, [r7, #12]
 80010e6:	6a9b      	ldr	r3, [r3, #40]	; 0x28
 80010e8:	f443 7200 	orr.w	r2, r3, #512	; 0x200
 80010ec:	68fb      	ldr	r3, [r7, #12]
 80010ee:	629a      	str	r2, [r3, #40]	; 0x28
    /* Determine whether any further conversion upcoming on group regular     */
    /* by external trigger, continuous mode or scan sequence on going.        */
    /* Note: On STM32F1 devices, in case of sequencer enabled                 */
    /*       (several ranks selected), end of conversion flag is raised       */
    /*       at the end of the sequence.                                      */
    if(ADC_IS_SOFTWARE_START_REGULAR(hadc)        && 
 80010f0:	68fb      	ldr	r3, [r7, #12]
 80010f2:	681b      	ldr	r3, [r3, #0]
 80010f4:	689b      	ldr	r3, [r3, #8]
 80010f6:	f403 2360 	and.w	r3, r3, #917504	; 0xe0000
 80010fa:	f5b3 2f60 	cmp.w	r3, #917504	; 0xe0000
 80010fe:	d115      	bne.n	800112c <ADC_DMAConvCplt+0x62>
       (hadc->Init.ContinuousConvMode == DISABLE)   )
 8001100:	68fb      	ldr	r3, [r7, #12]
 8001102:	7b1b      	ldrb	r3, [r3, #12]
    if(ADC_IS_SOFTWARE_START_REGULAR(hadc)        && 
 8001104:	2b00      	cmp	r3, #0
 8001106:	d111      	bne.n	800112c <ADC_DMAConvCplt+0x62>
    {
      /* Set ADC state */
      CLEAR_BIT(hadc->State, HAL_ADC_STATE_REG_BUSY);   
 8001108:	68fb      	ldr	r3, [r7, #12]
 800110a:	6a9b      	ldr	r3, [r3, #40]	; 0x28
 800110c:	f423 7280 	bic.w	r2, r3, #256	; 0x100
 8001110:	68fb      	ldr	r3, [r7, #12]
 8001112:	629a      	str	r2, [r3, #40]	; 0x28
      
      if (HAL_IS_BIT_CLR(hadc->State, HAL_ADC_STATE_INJ_BUSY))
 8001114:	68fb      	ldr	r3, [r7, #12]
 8001116:	6a9b      	ldr	r3, [r3, #40]	; 0x28
 8001118:	f403 5380 	and.w	r3, r3, #4096	; 0x1000
 800111c:	2b00      	cmp	r3, #0
 800111e:	d105      	bne.n	800112c <ADC_DMAConvCplt+0x62>
      {
        SET_BIT(hadc->State, HAL_ADC_STATE_READY);
 8001120:	68fb      	ldr	r3, [r7, #12]
 8001122:	6a9b      	ldr	r3, [r3, #40]	; 0x28
 8001124:	f043 0201 	orr.w	r2, r3, #1
 8001128:	68fb      	ldr	r3, [r7, #12]
 800112a:	629a      	str	r2, [r3, #40]	; 0x28
    
    /* Conversion complete callback */
#if (USE_HAL_ADC_REGISTER_CALLBACKS == 1)
    hadc->ConvCpltCallback(hadc);
#else
    HAL_ADC_ConvCpltCallback(hadc);
 800112c:	68f8      	ldr	r0, [r7, #12]
 800112e:	f7ff fe1d 	bl	8000d6c <HAL_ADC_ConvCpltCallback>
  else
  {
    /* Call DMA error callback */
    hadc->DMA_Handle->XferErrorCallback(hdma);
  }
}
 8001132:	e004      	b.n	800113e <ADC_DMAConvCplt+0x74>
    hadc->DMA_Handle->XferErrorCallback(hdma);
 8001134:	68fb      	ldr	r3, [r7, #12]
 8001136:	6a1b      	ldr	r3, [r3, #32]
 8001138:	6b1b      	ldr	r3, [r3, #48]	; 0x30
 800113a:	6878      	ldr	r0, [r7, #4]
 800113c:	4798      	blx	r3
}
 800113e:	bf00      	nop
 8001140:	3710      	adds	r7, #16
 8001142:	46bd      	mov	sp, r7
 8001144:	bd80      	pop	{r7, pc}

08001146 <ADC_DMAHalfConvCplt>:
  * @brief  DMA half transfer complete callback. 
  * @param  hdma: pointer to DMA handle.
  * @retval None
  */
void ADC_DMAHalfConvCplt(DMA_HandleTypeDef *hdma)   
{
 8001146:	b580      	push	{r7, lr}
 8001148:	b084      	sub	sp, #16
 800114a:	af00      	add	r7, sp, #0
 800114c:	6078      	str	r0, [r7, #4]
  /* Retrieve ADC handle corresponding to current DMA handle */
  ADC_HandleTypeDef* hadc = ( ADC_HandleTypeDef* )((DMA_HandleTypeDef* )hdma)->Parent;
 800114e:	687b      	ldr	r3, [r7, #4]
 8001150:	6a5b      	ldr	r3, [r3, #36]	; 0x24
 8001152:	60fb      	str	r3, [r7, #12]
  
  /* Half conversion callback */
#if (USE_HAL_ADC_REGISTER_CALLBACKS == 1)
    hadc->ConvHalfCpltCallback(hadc);
#else
  HAL_ADC_ConvHalfCpltCallback(hadc);
 8001154:	68f8      	ldr	r0, [r7, #12]
 8001156:	f7ff fe12 	bl	8000d7e <HAL_ADC_ConvHalfCpltCallback>
#endif /* USE_HAL_ADC_REGISTER_CALLBACKS */
}
 800115a:	bf00      	nop
 800115c:	3710      	adds	r7, #16
 800115e:	46bd      	mov	sp, r7
 8001160:	bd80      	pop	{r7, pc}

08001162 <ADC_DMAError>:
  * @brief  DMA error callback 
  * @param  hdma: pointer to DMA handle.
  * @retval None
  */
void ADC_DMAError(DMA_HandleTypeDef *hdma)   
{
 8001162:	b580      	push	{r7, lr}
 8001164:	b084      	sub	sp, #16
 8001166:	af00      	add	r7, sp, #0
 8001168:	6078      	str	r0, [r7, #4]
  /* Retrieve ADC handle corresponding to current DMA handle */
  ADC_HandleTypeDef* hadc = ( ADC_HandleTypeDef* )((DMA_HandleTypeDef* )hdma)->Parent;
 800116a:	687b      	ldr	r3, [r7, #4]
 800116c:	6a5b      	ldr	r3, [r3, #36]	; 0x24
 800116e:	60fb      	str	r3, [r7, #12]
  
  /* Set ADC state */
  SET_BIT(hadc->State, HAL_ADC_STATE_ERROR_DMA);
 8001170:	68fb      	ldr	r3, [r7, #12]
 8001172:	6a9b      	ldr	r3, [r3, #40]	; 0x28
 8001174:	f043 0240 	orr.w	r2, r3, #64	; 0x40
 8001178:	68fb      	ldr	r3, [r7, #12]
 800117a:	629a      	str	r2, [r3, #40]	; 0x28
  
  /* Set ADC error code to DMA error */
  SET_BIT(hadc->ErrorCode, HAL_ADC_ERROR_DMA);
 800117c:	68fb      	ldr	r3, [r7, #12]
 800117e:	6adb      	ldr	r3, [r3, #44]	; 0x2c
 8001180:	f043 0204 	orr.w	r2, r3, #4
 8001184:	68fb      	ldr	r3, [r7, #12]
 8001186:	62da      	str	r2, [r3, #44]	; 0x2c
  
  /* Error callback */
#if (USE_HAL_ADC_REGISTER_CALLBACKS == 1)
  hadc->ErrorCallback(hadc);
#else
  HAL_ADC_ErrorCallback(hadc);
 8001188:	68f8      	ldr	r0, [r7, #12]
 800118a:	f7ff fe01 	bl	8000d90 <HAL_ADC_ErrorCallback>
#endif /* USE_HAL_ADC_REGISTER_CALLBACKS */
}
 800118e:	bf00      	nop
 8001190:	3710      	adds	r7, #16
 8001192:	46bd      	mov	sp, r7
 8001194:	bd80      	pop	{r7, pc}
	...

08001198 <__NVIC_SetPriorityGrouping>:
           In case of a conflict between priority grouping and available
           priority bits (__NVIC_PRIO_BITS), the smallest possible priority group is set.
  \param [in]      PriorityGroup  Priority grouping field.
 */
__STATIC_INLINE void __NVIC_SetPriorityGrouping(uint32_t PriorityGroup)
{
 8001198:	b480      	push	{r7}
 800119a:	b085      	sub	sp, #20
 800119c:	af00      	add	r7, sp, #0
 800119e:	6078      	str	r0, [r7, #4]
  uint32_t reg_value;
  uint32_t PriorityGroupTmp = (PriorityGroup & (uint32_t)0x07UL);             /* only values 0..7 are used          */
 80011a0:	687b      	ldr	r3, [r7, #4]
 80011a2:	f003 0307 	and.w	r3, r3, #7
 80011a6:	60fb      	str	r3, [r7, #12]

  reg_value  =  SCB->AIRCR;                                                   /* read old register configuration    */
 80011a8:	4b0c      	ldr	r3, [pc, #48]	; (80011dc <__NVIC_SetPriorityGrouping+0x44>)
 80011aa:	68db      	ldr	r3, [r3, #12]
 80011ac:	60bb      	str	r3, [r7, #8]
  reg_value &= ~((uint32_t)(SCB_AIRCR_VECTKEY_Msk | SCB_AIRCR_PRIGROUP_Msk)); /* clear bits to change               */
 80011ae:	68ba      	ldr	r2, [r7, #8]
 80011b0:	f64f 03ff 	movw	r3, #63743	; 0xf8ff
 80011b4:	4013      	ands	r3, r2
 80011b6:	60bb      	str	r3, [r7, #8]
  reg_value  =  (reg_value                                   |
                ((uint32_t)0x5FAUL << SCB_AIRCR_VECTKEY_Pos) |
                (PriorityGroupTmp << SCB_AIRCR_PRIGROUP_Pos) );               /* Insert write key and priority group */
 80011b8:	68fb      	ldr	r3, [r7, #12]
 80011ba:	021a      	lsls	r2, r3, #8
                ((uint32_t)0x5FAUL << SCB_AIRCR_VECTKEY_Pos) |
 80011bc:	68bb      	ldr	r3, [r7, #8]
 80011be:	4313      	orrs	r3, r2
  reg_value  =  (reg_value                                   |
 80011c0:	f043 63bf 	orr.w	r3, r3, #100139008	; 0x5f80000
 80011c4:	f443 3300 	orr.w	r3, r3, #131072	; 0x20000
 80011c8:	60bb      	str	r3, [r7, #8]
  SCB->AIRCR =  reg_value;
 80011ca:	4a04      	ldr	r2, [pc, #16]	; (80011dc <__NVIC_SetPriorityGrouping+0x44>)
 80011cc:	68bb      	ldr	r3, [r7, #8]
 80011ce:	60d3      	str	r3, [r2, #12]
}
 80011d0:	bf00      	nop
 80011d2:	3714      	adds	r7, #20
 80011d4:	46bd      	mov	sp, r7
 80011d6:	bc80      	pop	{r7}
 80011d8:	4770      	bx	lr
 80011da:	bf00      	nop
 80011dc:	e000ed00 	.word	0xe000ed00

080011e0 <__NVIC_GetPriorityGrouping>:
  \brief   Get Priority Grouping
  \details Reads the priority grouping field from the NVIC Interrupt Controller.
  \return                Priority grouping field (SCB->AIRCR [10:8] PRIGROUP field).
 */
__STATIC_INLINE uint32_t __NVIC_GetPriorityGrouping(void)
{
 80011e0:	b480      	push	{r7}
 80011e2:	af00      	add	r7, sp, #0
  return ((uint32_t)((SCB->AIRCR & SCB_AIRCR_PRIGROUP_Msk) >> SCB_AIRCR_PRIGROUP_Pos));
 80011e4:	4b04      	ldr	r3, [pc, #16]	; (80011f8 <__NVIC_GetPriorityGrouping+0x18>)
 80011e6:	68db      	ldr	r3, [r3, #12]
 80011e8:	0a1b      	lsrs	r3, r3, #8
 80011ea:	f003 0307 	and.w	r3, r3, #7
}
 80011ee:	4618      	mov	r0, r3
 80011f0:	46bd      	mov	sp, r7
 80011f2:	bc80      	pop	{r7}
 80011f4:	4770      	bx	lr
 80011f6:	bf00      	nop
 80011f8:	e000ed00 	.word	0xe000ed00

080011fc <__NVIC_EnableIRQ>:
  \details Enables a device specific interrupt in the NVIC interrupt controller.
  \param [in]      IRQn  Device specific interrupt number.
  \note    IRQn must not be negative.
 */
__STATIC_INLINE void __NVIC_EnableIRQ(IRQn_Type IRQn)
{
 80011fc:	b480      	push	{r7}
 80011fe:	b083      	sub	sp, #12
 8001200:	af00      	add	r7, sp, #0
 8001202:	4603      	mov	r3, r0
 8001204:	71fb      	strb	r3, [r7, #7]
  if ((int32_t)(IRQn) >= 0)
 8001206:	f997 3007 	ldrsb.w	r3, [r7, #7]
 800120a:	2b00      	cmp	r3, #0
 800120c:	db0b      	blt.n	8001226 <__NVIC_EnableIRQ+0x2a>
  {
    NVIC->ISER[(((uint32_t)IRQn) >> 5UL)] = (uint32_t)(1UL << (((uint32_t)IRQn) & 0x1FUL));
 800120e:	79fb      	ldrb	r3, [r7, #7]
 8001210:	f003 021f 	and.w	r2, r3, #31
 8001214:	4906      	ldr	r1, [pc, #24]	; (8001230 <__NVIC_EnableIRQ+0x34>)
 8001216:	f997 3007 	ldrsb.w	r3, [r7, #7]
 800121a:	095b      	lsrs	r3, r3, #5
 800121c:	2001      	movs	r0, #1
 800121e:	fa00 f202 	lsl.w	r2, r0, r2
 8001222:	f841 2023 	str.w	r2, [r1, r3, lsl #2]
  }
}
 8001226:	bf00      	nop
 8001228:	370c      	adds	r7, #12
 800122a:	46bd      	mov	sp, r7
 800122c:	bc80      	pop	{r7}
 800122e:	4770      	bx	lr
 8001230:	e000e100 	.word	0xe000e100

08001234 <__NVIC_SetPriority>:
  \param [in]      IRQn  Interrupt number.
  \param [in]  priority  Priority to set.
  \note    The priority cannot be set for every processor exception.
 */
__STATIC_INLINE void __NVIC_SetPriority(IRQn_Type IRQn, uint32_t priority)
{
 8001234:	b480      	push	{r7}
 8001236:	b083      	sub	sp, #12
 8001238:	af00      	add	r7, sp, #0
 800123a:	4603      	mov	r3, r0
 800123c:	6039      	str	r1, [r7, #0]
 800123e:	71fb      	strb	r3, [r7, #7]
  if ((int32_t)(IRQn) >= 0)
 8001240:	f997 3007 	ldrsb.w	r3, [r7, #7]
 8001244:	2b00      	cmp	r3, #0
 8001246:	db0a      	blt.n	800125e <__NVIC_SetPriority+0x2a>
  {
    NVIC->IP[((uint32_t)IRQn)]               = (uint8_t)((priority << (8U - __NVIC_PRIO_BITS)) & (uint32_t)0xFFUL);
 8001248:	683b      	ldr	r3, [r7, #0]
 800124a:	b2da      	uxtb	r2, r3
 800124c:	490c      	ldr	r1, [pc, #48]	; (8001280 <__NVIC_SetPriority+0x4c>)
 800124e:	f997 3007 	ldrsb.w	r3, [r7, #7]
 8001252:	0112      	lsls	r2, r2, #4
 8001254:	b2d2      	uxtb	r2, r2
 8001256:	440b      	add	r3, r1
 8001258:	f883 2300 	strb.w	r2, [r3, #768]	; 0x300
  }
  else
  {
    SCB->SHP[(((uint32_t)IRQn) & 0xFUL)-4UL] = (uint8_t)((priority << (8U - __NVIC_PRIO_BITS)) & (uint32_t)0xFFUL);
  }
}
 800125c:	e00a      	b.n	8001274 <__NVIC_SetPriority+0x40>
    SCB->SHP[(((uint32_t)IRQn) & 0xFUL)-4UL] = (uint8_t)((priority << (8U - __NVIC_PRIO_BITS)) & (uint32_t)0xFFUL);
 800125e:	683b      	ldr	r3, [r7, #0]
 8001260:	b2da      	uxtb	r2, r3
 8001262:	4908      	ldr	r1, [pc, #32]	; (8001284 <__NVIC_SetPriority+0x50>)
 8001264:	79fb      	ldrb	r3, [r7, #7]
 8001266:	f003 030f 	and.w	r3, r3, #15
 800126a:	3b04      	subs	r3, #4
 800126c:	0112      	lsls	r2, r2, #4
 800126e:	b2d2      	uxtb	r2, r2
 8001270:	440b      	add	r3, r1
 8001272:	761a      	strb	r2, [r3, #24]
}
 8001274:	bf00      	nop
 8001276:	370c      	adds	r7, #12
 8001278:	46bd      	mov	sp, r7
 800127a:	bc80      	pop	{r7}
 800127c:	4770      	bx	lr
 800127e:	bf00      	nop
 8001280:	e000e100 	.word	0xe000e100
 8001284:	e000ed00 	.word	0xe000ed00

08001288 <NVIC_EncodePriority>:
  \param [in]   PreemptPriority  Preemptive priority value (starting from 0).
  \param [in]       SubPriority  Subpriority value (starting from 0).
  \return                        Encoded priority. Value can be used in the function \ref NVIC_SetPriority().
 */
__STATIC_INLINE uint32_t NVIC_EncodePriority (uint32_t PriorityGroup, uint32_t PreemptPriority, uint32_t SubPriority)
{
 8001288:	b480      	push	{r7}
 800128a:	b089      	sub	sp, #36	; 0x24
 800128c:	af00      	add	r7, sp, #0
 800128e:	60f8      	str	r0, [r7, #12]
 8001290:	60b9      	str	r1, [r7, #8]
 8001292:	607a      	str	r2, [r7, #4]
  uint32_t PriorityGroupTmp = (PriorityGroup & (uint32_t)0x07UL);   /* only values 0..7 are used          */
 8001294:	68fb      	ldr	r3, [r7, #12]
 8001296:	f003 0307 	and.w	r3, r3, #7
 800129a:	61fb      	str	r3, [r7, #28]
  uint32_t PreemptPriorityBits;
  uint32_t SubPriorityBits;

  PreemptPriorityBits = ((7UL - PriorityGroupTmp) > (uint32_t)(__NVIC_PRIO_BITS)) ? (uint32_t)(__NVIC_PRIO_BITS) : (uint32_t)(7UL - PriorityGroupTmp);
 800129c:	69fb      	ldr	r3, [r7, #28]
 800129e:	f1c3 0307 	rsb	r3, r3, #7
 80012a2:	2b04      	cmp	r3, #4
 80012a4:	bf28      	it	cs
 80012a6:	2304      	movcs	r3, #4
 80012a8:	61bb      	str	r3, [r7, #24]
  SubPriorityBits     = ((PriorityGroupTmp + (uint32_t)(__NVIC_PRIO_BITS)) < (uint32_t)7UL) ? (uint32_t)0UL : (uint32_t)((PriorityGroupTmp - 7UL) + (uint32_t)(__NVIC_PRIO_BITS));
 80012aa:	69fb      	ldr	r3, [r7, #28]
 80012ac:	3304      	adds	r3, #4
 80012ae:	2b06      	cmp	r3, #6
 80012b0:	d902      	bls.n	80012b8 <NVIC_EncodePriority+0x30>
 80012b2:	69fb      	ldr	r3, [r7, #28]
 80012b4:	3b03      	subs	r3, #3
 80012b6:	e000      	b.n	80012ba <NVIC_EncodePriority+0x32>
 80012b8:	2300      	movs	r3, #0
 80012ba:	617b      	str	r3, [r7, #20]

  return (
           ((PreemptPriority & (uint32_t)((1UL << (PreemptPriorityBits)) - 1UL)) << SubPriorityBits) |
 80012bc:	f04f 32ff 	mov.w	r2, #4294967295
 80012c0:	69bb      	ldr	r3, [r7, #24]
 80012c2:	fa02 f303 	lsl.w	r3, r2, r3
 80012c6:	43da      	mvns	r2, r3
 80012c8:	68bb      	ldr	r3, [r7, #8]
 80012ca:	401a      	ands	r2, r3
 80012cc:	697b      	ldr	r3, [r7, #20]
 80012ce:	409a      	lsls	r2, r3
           ((SubPriority     & (uint32_t)((1UL << (SubPriorityBits    )) - 1UL)))
 80012d0:	f04f 31ff 	mov.w	r1, #4294967295
 80012d4:	697b      	ldr	r3, [r7, #20]
 80012d6:	fa01 f303 	lsl.w	r3, r1, r3
 80012da:	43d9      	mvns	r1, r3
 80012dc:	687b      	ldr	r3, [r7, #4]
 80012de:	400b      	ands	r3, r1
           ((PreemptPriority & (uint32_t)((1UL << (PreemptPriorityBits)) - 1UL)) << SubPriorityBits) |
 80012e0:	4313      	orrs	r3, r2
         );
}
 80012e2:	4618      	mov	r0, r3
 80012e4:	3724      	adds	r7, #36	; 0x24
 80012e6:	46bd      	mov	sp, r7
 80012e8:	bc80      	pop	{r7}
 80012ea:	4770      	bx	lr

080012ec <SysTick_Config>:
  \note    When the variable <b>__Vendor_SysTickConfig</b> is set to 1, then the
           function <b>SysTick_Config</b> is not included. In this case, the file <b><i>device</i>.h</b>
           must contain a vendor-specific implementation of this function.
 */
__STATIC_INLINE uint32_t SysTick_Config(uint32_t ticks)
{
 80012ec:	b580      	push	{r7, lr}
 80012ee:	b082      	sub	sp, #8
 80012f0:	af00      	add	r7, sp, #0
 80012f2:	6078      	str	r0, [r7, #4]
  if ((ticks - 1UL) > SysTick_LOAD_RELOAD_Msk)
 80012f4:	687b      	ldr	r3, [r7, #4]
 80012f6:	3b01      	subs	r3, #1
 80012f8:	f1b3 7f80 	cmp.w	r3, #16777216	; 0x1000000
 80012fc:	d301      	bcc.n	8001302 <SysTick_Config+0x16>
  {
    return (1UL);                                                   /* Reload value impossible */
 80012fe:	2301      	movs	r3, #1
 8001300:	e00f      	b.n	8001322 <SysTick_Config+0x36>
  }

  SysTick->LOAD  = (uint32_t)(ticks - 1UL);                         /* set reload register */
 8001302:	4a0a      	ldr	r2, [pc, #40]	; (800132c <SysTick_Config+0x40>)
 8001304:	687b      	ldr	r3, [r7, #4]
 8001306:	3b01      	subs	r3, #1
 8001308:	6053      	str	r3, [r2, #4]
  NVIC_SetPriority (SysTick_IRQn, (1UL << __NVIC_PRIO_BITS) - 1UL); /* set Priority for Systick Interrupt */
 800130a:	210f      	movs	r1, #15
 800130c:	f04f 30ff 	mov.w	r0, #4294967295
 8001310:	f7ff ff90 	bl	8001234 <__NVIC_SetPriority>
  SysTick->VAL   = 0UL;                                             /* Load the SysTick Counter Value */
 8001314:	4b05      	ldr	r3, [pc, #20]	; (800132c <SysTick_Config+0x40>)
 8001316:	2200      	movs	r2, #0
 8001318:	609a      	str	r2, [r3, #8]
  SysTick->CTRL  = SysTick_CTRL_CLKSOURCE_Msk |
 800131a:	4b04      	ldr	r3, [pc, #16]	; (800132c <SysTick_Config+0x40>)
 800131c:	2207      	movs	r2, #7
 800131e:	601a      	str	r2, [r3, #0]
                   SysTick_CTRL_TICKINT_Msk   |
                   SysTick_CTRL_ENABLE_Msk;                         /* Enable SysTick IRQ and SysTick Timer */
  return (0UL);                                                     /* Function successful */
 8001320:	2300      	movs	r3, #0
}
 8001322:	4618      	mov	r0, r3
 8001324:	3708      	adds	r7, #8
 8001326:	46bd      	mov	sp, r7
 8001328:	bd80      	pop	{r7, pc}
 800132a:	bf00      	nop
 800132c:	e000e010 	.word	0xe000e010

08001330 <HAL_NVIC_SetPriorityGrouping>:
  * @note   When the NVIC_PriorityGroup_0 is selected, IRQ preemption is no more possible. 
  *         The pending IRQ priority will be managed only by the subpriority. 
  * @retval None
  */
void HAL_NVIC_SetPriorityGrouping(uint32_t PriorityGroup)
{
 8001330:	b580      	push	{r7, lr}
 8001332:	b082      	sub	sp, #8
 8001334:	af00      	add	r7, sp, #0
 8001336:	6078      	str	r0, [r7, #4]
  /* Check the parameters */
  assert_param(IS_NVIC_PRIORITY_GROUP(PriorityGroup));
  
  /* Set the PRIGROUP[10:8] bits according to the PriorityGroup parameter value */
  NVIC_SetPriorityGrouping(PriorityGroup);
 8001338:	6878      	ldr	r0, [r7, #4]
 800133a:	f7ff ff2d 	bl	8001198 <__NVIC_SetPriorityGrouping>
}
 800133e:	bf00      	nop
 8001340:	3708      	adds	r7, #8
 8001342:	46bd      	mov	sp, r7
 8001344:	bd80      	pop	{r7, pc}

08001346 <HAL_NVIC_SetPriority>:
  *         This parameter can be a value between 0 and 15
  *         A lower priority value indicates a higher priority.          
  * @retval None
  */
void HAL_NVIC_SetPriority(IRQn_Type IRQn, uint32_t PreemptPriority, uint32_t SubPriority)
{ 
 8001346:	b580      	push	{r7, lr}
 8001348:	b086      	sub	sp, #24
 800134a:	af00      	add	r7, sp, #0
 800134c:	4603      	mov	r3, r0
 800134e:	60b9      	str	r1, [r7, #8]
 8001350:	607a      	str	r2, [r7, #4]
 8001352:	73fb      	strb	r3, [r7, #15]
  uint32_t prioritygroup = 0x00U;
 8001354:	2300      	movs	r3, #0
 8001356:	617b      	str	r3, [r7, #20]
  
  /* Check the parameters */
  assert_param(IS_NVIC_SUB_PRIORITY(SubPriority));
  assert_param(IS_NVIC_PREEMPTION_PRIORITY(PreemptPriority));
  
  prioritygroup = NVIC_GetPriorityGrouping();
 8001358:	f7ff ff42 	bl	80011e0 <__NVIC_GetPriorityGrouping>
 800135c:	6178      	str	r0, [r7, #20]
  
  NVIC_SetPriority(IRQn, NVIC_EncodePriority(prioritygroup, PreemptPriority, SubPriority));
 800135e:	687a      	ldr	r2, [r7, #4]
 8001360:	68b9      	ldr	r1, [r7, #8]
 8001362:	6978      	ldr	r0, [r7, #20]
 8001364:	f7ff ff90 	bl	8001288 <NVIC_EncodePriority>
 8001368:	4602      	mov	r2, r0
 800136a:	f997 300f 	ldrsb.w	r3, [r7, #15]
 800136e:	4611      	mov	r1, r2
 8001370:	4618      	mov	r0, r3
 8001372:	f7ff ff5f 	bl	8001234 <__NVIC_SetPriority>
}
 8001376:	bf00      	nop
 8001378:	3718      	adds	r7, #24
 800137a:	46bd      	mov	sp, r7
 800137c:	bd80      	pop	{r7, pc}

0800137e <HAL_NVIC_EnableIRQ>:
  *         This parameter can be an enumerator of IRQn_Type enumeration
  *         (For the complete STM32 Devices IRQ Channels list, please refer to the appropriate CMSIS device file (stm32f10xxx.h))
  * @retval None
  */
void HAL_NVIC_EnableIRQ(IRQn_Type IRQn)
{
 800137e:	b580      	push	{r7, lr}
 8001380:	b082      	sub	sp, #8
 8001382:	af00      	add	r7, sp, #0
 8001384:	4603      	mov	r3, r0
 8001386:	71fb      	strb	r3, [r7, #7]
  /* Check the parameters */
  assert_param(IS_NVIC_DEVICE_IRQ(IRQn));

  /* Enable interrupt */
  NVIC_EnableIRQ(IRQn);
 8001388:	f997 3007 	ldrsb.w	r3, [r7, #7]
 800138c:	4618      	mov	r0, r3
 800138e:	f7ff ff35 	bl	80011fc <__NVIC_EnableIRQ>
}
 8001392:	bf00      	nop
 8001394:	3708      	adds	r7, #8
 8001396:	46bd      	mov	sp, r7
 8001398:	bd80      	pop	{r7, pc}

0800139a <HAL_SYSTICK_Config>:
  * @param  TicksNumb: Specifies the ticks Number of ticks between two interrupts.
  * @retval status:  - 0  Function succeeded.
  *                  - 1  Function failed.
  */
uint32_t HAL_SYSTICK_Config(uint32_t TicksNumb)
{
 800139a:	b580      	push	{r7, lr}
 800139c:	b082      	sub	sp, #8
 800139e:	af00      	add	r7, sp, #0
 80013a0:	6078      	str	r0, [r7, #4]
   return SysTick_Config(TicksNumb);
 80013a2:	6878      	ldr	r0, [r7, #4]
 80013a4:	f7ff ffa2 	bl	80012ec <SysTick_Config>
 80013a8:	4603      	mov	r3, r0
}
 80013aa:	4618      	mov	r0, r3
 80013ac:	3708      	adds	r7, #8
 80013ae:	46bd      	mov	sp, r7
 80013b0:	bd80      	pop	{r7, pc}
	...

080013b4 <HAL_DMA_Init>:
  * @param  hdma: Pointer to a DMA_HandleTypeDef structure that contains
  *               the configuration information for the specified DMA Channel.
  * @retval HAL status
  */
HAL_StatusTypeDef HAL_DMA_Init(DMA_HandleTypeDef *hdma)
{
 80013b4:	b480      	push	{r7}
 80013b6:	b085      	sub	sp, #20
 80013b8:	af00      	add	r7, sp, #0
 80013ba:	6078      	str	r0, [r7, #4]
  uint32_t tmp = 0U;
 80013bc:	2300      	movs	r3, #0
 80013be:	60fb      	str	r3, [r7, #12]

  /* Check the DMA handle allocation */
  if(hdma == NULL)
 80013c0:	687b      	ldr	r3, [r7, #4]
 80013c2:	2b00      	cmp	r3, #0
 80013c4:	d101      	bne.n	80013ca <HAL_DMA_Init+0x16>
  {
    return HAL_ERROR;
 80013c6:	2301      	movs	r3, #1
 80013c8:	e043      	b.n	8001452 <HAL_DMA_Init+0x9e>
    hdma->ChannelIndex = (((uint32_t)hdma->Instance - (uint32_t)DMA2_Channel1) / ((uint32_t)DMA2_Channel2 - (uint32_t)DMA2_Channel1)) << 2;
    hdma->DmaBaseAddress = DMA2;
  }
#else
  /* DMA1 */
  hdma->ChannelIndex = (((uint32_t)hdma->Instance - (uint32_t)DMA1_Channel1) / ((uint32_t)DMA1_Channel2 - (uint32_t)DMA1_Channel1)) << 2;
 80013ca:	687b      	ldr	r3, [r7, #4]
 80013cc:	681b      	ldr	r3, [r3, #0]
 80013ce:	461a      	mov	r2, r3
 80013d0:	4b22      	ldr	r3, [pc, #136]	; (800145c <HAL_DMA_Init+0xa8>)
 80013d2:	4413      	add	r3, r2
 80013d4:	4a22      	ldr	r2, [pc, #136]	; (8001460 <HAL_DMA_Init+0xac>)
 80013d6:	fba2 2303 	umull	r2, r3, r2, r3
 80013da:	091b      	lsrs	r3, r3, #4
 80013dc:	009a      	lsls	r2, r3, #2
 80013de:	687b      	ldr	r3, [r7, #4]
 80013e0:	641a      	str	r2, [r3, #64]	; 0x40
  hdma->DmaBaseAddress = DMA1;
 80013e2:	687b      	ldr	r3, [r7, #4]
 80013e4:	4a1f      	ldr	r2, [pc, #124]	; (8001464 <HAL_DMA_Init+0xb0>)
 80013e6:	63da      	str	r2, [r3, #60]	; 0x3c
#endif /* DMA2 */

  /* Change DMA peripheral state */
  hdma->State = HAL_DMA_STATE_BUSY;
 80013e8:	687b      	ldr	r3, [r7, #4]
 80013ea:	2202      	movs	r2, #2
 80013ec:	f883 2021 	strb.w	r2, [r3, #33]	; 0x21

  /* Get the CR register value */
  tmp = hdma->Instance->CCR;
 80013f0:	687b      	ldr	r3, [r7, #4]
 80013f2:	681b      	ldr	r3, [r3, #0]
 80013f4:	681b      	ldr	r3, [r3, #0]
 80013f6:	60fb      	str	r3, [r7, #12]

  /* Clear PL, MSIZE, PSIZE, MINC, PINC, CIRC and DIR bits */
  tmp &= ((uint32_t)~(DMA_CCR_PL    | DMA_CCR_MSIZE  | DMA_CCR_PSIZE  | \
 80013f8:	68fb      	ldr	r3, [r7, #12]
 80013fa:	f423 537f 	bic.w	r3, r3, #16320	; 0x3fc0
 80013fe:	f023 0330 	bic.w	r3, r3, #48	; 0x30
 8001402:	60fb      	str	r3, [r7, #12]
                      DMA_CCR_MINC  | DMA_CCR_PINC   | DMA_CCR_CIRC   | \
                      DMA_CCR_DIR));

  /* Prepare the DMA Channel configuration */
  tmp |=  hdma->Init.Direction        |
 8001404:	687b      	ldr	r3, [r7, #4]
 8001406:	685a      	ldr	r2, [r3, #4]
          hdma->Init.PeriphInc           | hdma->Init.MemInc           |
 8001408:	687b      	ldr	r3, [r7, #4]
 800140a:	689b      	ldr	r3, [r3, #8]
  tmp |=  hdma->Init.Direction        |
 800140c:	431a      	orrs	r2, r3
          hdma->Init.PeriphInc           | hdma->Init.MemInc           |
 800140e:	687b      	ldr	r3, [r7, #4]
 8001410:	68db      	ldr	r3, [r3, #12]
 8001412:	431a      	orrs	r2, r3
          hdma->Init.PeriphDataAlignment | hdma->Init.MemDataAlignment |
 8001414:	687b      	ldr	r3, [r7, #4]
 8001416:	691b      	ldr	r3, [r3, #16]
          hdma->Init.PeriphInc           | hdma->Init.MemInc           |
 8001418:	431a      	orrs	r2, r3
          hdma->Init.PeriphDataAlignment | hdma->Init.MemDataAlignment |
 800141a:	687b      	ldr	r3, [r7, #4]
 800141c:	695b      	ldr	r3, [r3, #20]
 800141e:	431a      	orrs	r2, r3
          hdma->Init.Mode                | hdma->Init.Priority;
 8001420:	687b      	ldr	r3, [r7, #4]
 8001422:	699b      	ldr	r3, [r3, #24]
          hdma->Init.PeriphDataAlignment | hdma->Init.MemDataAlignment |
 8001424:	431a      	orrs	r2, r3
          hdma->Init.Mode                | hdma->Init.Priority;
 8001426:	687b      	ldr	r3, [r7, #4]
 8001428:	69db      	ldr	r3, [r3, #28]
 800142a:	4313      	orrs	r3, r2
  tmp |=  hdma->Init.Direction        |
 800142c:	68fa      	ldr	r2, [r7, #12]
 800142e:	4313      	orrs	r3, r2
 8001430:	60fb      	str	r3, [r7, #12]

  /* Write to DMA Channel CR register */
  hdma->Instance->CCR = tmp;
 8001432:	687b      	ldr	r3, [r7, #4]
 8001434:	681b      	ldr	r3, [r3, #0]
 8001436:	68fa      	ldr	r2, [r7, #12]
 8001438:	601a      	str	r2, [r3, #0]

  /* Initialise the error code */
  hdma->ErrorCode = HAL_DMA_ERROR_NONE;
 800143a:	687b      	ldr	r3, [r7, #4]
 800143c:	2200      	movs	r2, #0
 800143e:	639a      	str	r2, [r3, #56]	; 0x38

  /* Initialize the DMA state*/
  hdma->State = HAL_DMA_STATE_READY;
 8001440:	687b      	ldr	r3, [r7, #4]
 8001442:	2201      	movs	r2, #1
 8001444:	f883 2021 	strb.w	r2, [r3, #33]	; 0x21
  /* Allocate lock resource and initialize it */
  hdma->Lock = HAL_UNLOCKED;
 8001448:	687b      	ldr	r3, [r7, #4]
 800144a:	2200      	movs	r2, #0
 800144c:	f883 2020 	strb.w	r2, [r3, #32]

  return HAL_OK;
 8001450:	2300      	movs	r3, #0
}
 8001452:	4618      	mov	r0, r3
 8001454:	3714      	adds	r7, #20
 8001456:	46bd      	mov	sp, r7
 8001458:	bc80      	pop	{r7}
 800145a:	4770      	bx	lr
 800145c:	bffdfff8 	.word	0xbffdfff8
 8001460:	cccccccd 	.word	0xcccccccd
 8001464:	40020000 	.word	0x40020000

08001468 <HAL_DMA_Start_IT>:
  * @param  DstAddress: The destination memory Buffer address
  * @param  DataLength: The length of data to be transferred from source to destination
  * @retval HAL status
  */
HAL_StatusTypeDef HAL_DMA_Start_IT(DMA_HandleTypeDef *hdma, uint32_t SrcAddress, uint32_t DstAddress, uint32_t DataLength)
{
 8001468:	b580      	push	{r7, lr}
 800146a:	b086      	sub	sp, #24
 800146c:	af00      	add	r7, sp, #0
 800146e:	60f8      	str	r0, [r7, #12]
 8001470:	60b9      	str	r1, [r7, #8]
 8001472:	607a      	str	r2, [r7, #4]
 8001474:	603b      	str	r3, [r7, #0]
  HAL_StatusTypeDef status = HAL_OK;
 8001476:	2300      	movs	r3, #0
 8001478:	75fb      	strb	r3, [r7, #23]

  /* Check the parameters */
  assert_param(IS_DMA_BUFFER_SIZE(DataLength));

  /* Process locked */
  __HAL_LOCK(hdma);
 800147a:	68fb      	ldr	r3, [r7, #12]
 800147c:	f893 3020 	ldrb.w	r3, [r3, #32]
 8001480:	2b01      	cmp	r3, #1
 8001482:	d101      	bne.n	8001488 <HAL_DMA_Start_IT+0x20>
 8001484:	2302      	movs	r3, #2
 8001486:	e04a      	b.n	800151e <HAL_DMA_Start_IT+0xb6>
 8001488:	68fb      	ldr	r3, [r7, #12]
 800148a:	2201      	movs	r2, #1
 800148c:	f883 2020 	strb.w	r2, [r3, #32]
  
  if(HAL_DMA_STATE_READY == hdma->State)
 8001490:	68fb      	ldr	r3, [r7, #12]
 8001492:	f893 3021 	ldrb.w	r3, [r3, #33]	; 0x21
 8001496:	2b01      	cmp	r3, #1
 8001498:	d13a      	bne.n	8001510 <HAL_DMA_Start_IT+0xa8>
  {
    /* Change DMA peripheral state */
    hdma->State = HAL_DMA_STATE_BUSY;
 800149a:	68fb      	ldr	r3, [r7, #12]
 800149c:	2202      	movs	r2, #2
 800149e:	f883 2021 	strb.w	r2, [r3, #33]	; 0x21
    hdma->ErrorCode = HAL_DMA_ERROR_NONE;
 80014a2:	68fb      	ldr	r3, [r7, #12]
 80014a4:	2200      	movs	r2, #0
 80014a6:	639a      	str	r2, [r3, #56]	; 0x38
    
    /* Disable the peripheral */
    __HAL_DMA_DISABLE(hdma);
 80014a8:	68fb      	ldr	r3, [r7, #12]
 80014aa:	681b      	ldr	r3, [r3, #0]
 80014ac:	681a      	ldr	r2, [r3, #0]
 80014ae:	68fb      	ldr	r3, [r7, #12]
 80014b0:	681b      	ldr	r3, [r3, #0]
 80014b2:	f022 0201 	bic.w	r2, r2, #1
 80014b6:	601a      	str	r2, [r3, #0]
    
    /* Configure the source, destination address and the data length & clear flags*/
    DMA_SetConfig(hdma, SrcAddress, DstAddress, DataLength);
 80014b8:	683b      	ldr	r3, [r7, #0]
 80014ba:	687a      	ldr	r2, [r7, #4]
 80014bc:	68b9      	ldr	r1, [r7, #8]
 80014be:	68f8      	ldr	r0, [r7, #12]
 80014c0:	f000 f938 	bl	8001734 <DMA_SetConfig>
    
    /* Enable the transfer complete interrupt */
    /* Enable the transfer Error interrupt */
    if(NULL != hdma->XferHalfCpltCallback)
 80014c4:	68fb      	ldr	r3, [r7, #12]
 80014c6:	6adb      	ldr	r3, [r3, #44]	; 0x2c
 80014c8:	2b00      	cmp	r3, #0
 80014ca:	d008      	beq.n	80014de <HAL_DMA_Start_IT+0x76>
    {
      /* Enable the Half transfer complete interrupt as well */
      __HAL_DMA_ENABLE_IT(hdma, (DMA_IT_TC | DMA_IT_HT | DMA_IT_TE));
 80014cc:	68fb      	ldr	r3, [r7, #12]
 80014ce:	681b      	ldr	r3, [r3, #0]
 80014d0:	681a      	ldr	r2, [r3, #0]
 80014d2:	68fb      	ldr	r3, [r7, #12]
 80014d4:	681b      	ldr	r3, [r3, #0]
 80014d6:	f042 020e 	orr.w	r2, r2, #14
 80014da:	601a      	str	r2, [r3, #0]
 80014dc:	e00f      	b.n	80014fe <HAL_DMA_Start_IT+0x96>
    }
    else
    {
      __HAL_DMA_DISABLE_IT(hdma, DMA_IT_HT);
 80014de:	68fb      	ldr	r3, [r7, #12]
 80014e0:	681b      	ldr	r3, [r3, #0]
 80014e2:	681a      	ldr	r2, [r3, #0]
 80014e4:	68fb      	ldr	r3, [r7, #12]
 80014e6:	681b      	ldr	r3, [r3, #0]
 80014e8:	f022 0204 	bic.w	r2, r2, #4
 80014ec:	601a      	str	r2, [r3, #0]
      __HAL_DMA_ENABLE_IT(hdma, (DMA_IT_TC | DMA_IT_TE));
 80014ee:	68fb      	ldr	r3, [r7, #12]
 80014f0:	681b      	ldr	r3, [r3, #0]
 80014f2:	681a      	ldr	r2, [r3, #0]
 80014f4:	68fb      	ldr	r3, [r7, #12]
 80014f6:	681b      	ldr	r3, [r3, #0]
 80014f8:	f042 020a 	orr.w	r2, r2, #10
 80014fc:	601a      	str	r2, [r3, #0]
    }
    /* Enable the Peripheral */
    __HAL_DMA_ENABLE(hdma);
 80014fe:	68fb      	ldr	r3, [r7, #12]
 8001500:	681b      	ldr	r3, [r3, #0]
 8001502:	681a      	ldr	r2, [r3, #0]
 8001504:	68fb      	ldr	r3, [r7, #12]
 8001506:	681b      	ldr	r3, [r3, #0]
 8001508:	f042 0201 	orr.w	r2, r2, #1
 800150c:	601a      	str	r2, [r3, #0]
 800150e:	e005      	b.n	800151c <HAL_DMA_Start_IT+0xb4>
  }
  else
  {      
    /* Process Unlocked */
    __HAL_UNLOCK(hdma); 
 8001510:	68fb      	ldr	r3, [r7, #12]
 8001512:	2200      	movs	r2, #0
 8001514:	f883 2020 	strb.w	r2, [r3, #32]

    /* Remain BUSY */
    status = HAL_BUSY;
 8001518:	2302      	movs	r3, #2
 800151a:	75fb      	strb	r3, [r7, #23]
  }    
  return status;
 800151c:	7dfb      	ldrb	r3, [r7, #23]
}
 800151e:	4618      	mov	r0, r3
 8001520:	3718      	adds	r7, #24
 8001522:	46bd      	mov	sp, r7
 8001524:	bd80      	pop	{r7, pc}
	...

08001528 <HAL_DMA_IRQHandler>:
  * @param  hdma: pointer to a DMA_HandleTypeDef structure that contains
  *               the configuration information for the specified DMA Channel.  
  * @retval None
  */
void HAL_DMA_IRQHandler(DMA_HandleTypeDef *hdma)
{
 8001528:	b580      	push	{r7, lr}
 800152a:	b084      	sub	sp, #16
 800152c:	af00      	add	r7, sp, #0
 800152e:	6078      	str	r0, [r7, #4]
  uint32_t flag_it = hdma->DmaBaseAddress->ISR;
 8001530:	687b      	ldr	r3, [r7, #4]
 8001532:	6bdb      	ldr	r3, [r3, #60]	; 0x3c
 8001534:	681b      	ldr	r3, [r3, #0]
 8001536:	60fb      	str	r3, [r7, #12]
  uint32_t source_it = hdma->Instance->CCR;
 8001538:	687b      	ldr	r3, [r7, #4]
 800153a:	681b      	ldr	r3, [r3, #0]
 800153c:	681b      	ldr	r3, [r3, #0]
 800153e:	60bb      	str	r3, [r7, #8]
  
  /* Half Transfer Complete Interrupt management ******************************/
  if (((flag_it & (DMA_FLAG_HT1 << hdma->ChannelIndex)) != RESET) && ((source_it & DMA_IT_HT) != RESET))
 8001540:	687b      	ldr	r3, [r7, #4]
 8001542:	6c1b      	ldr	r3, [r3, #64]	; 0x40
 8001544:	2204      	movs	r2, #4
 8001546:	409a      	lsls	r2, r3
 8001548:	68fb      	ldr	r3, [r7, #12]
 800154a:	4013      	ands	r3, r2
 800154c:	2b00      	cmp	r3, #0
 800154e:	d04f      	beq.n	80015f0 <HAL_DMA_IRQHandler+0xc8>
 8001550:	68bb      	ldr	r3, [r7, #8]
 8001552:	f003 0304 	and.w	r3, r3, #4
 8001556:	2b00      	cmp	r3, #0
 8001558:	d04a      	beq.n	80015f0 <HAL_DMA_IRQHandler+0xc8>
  {
    /* Disable the half transfer interrupt if the DMA mode is not CIRCULAR */
    if((hdma->Instance->CCR & DMA_CCR_CIRC) == 0U)
 800155a:	687b      	ldr	r3, [r7, #4]
 800155c:	681b      	ldr	r3, [r3, #0]
 800155e:	681b      	ldr	r3, [r3, #0]
 8001560:	f003 0320 	and.w	r3, r3, #32
 8001564:	2b00      	cmp	r3, #0
 8001566:	d107      	bne.n	8001578 <HAL_DMA_IRQHandler+0x50>
    {
      /* Disable the half transfer interrupt */
      __HAL_DMA_DISABLE_IT(hdma, DMA_IT_HT);
 8001568:	687b      	ldr	r3, [r7, #4]
 800156a:	681b      	ldr	r3, [r3, #0]
 800156c:	681a      	ldr	r2, [r3, #0]
 800156e:	687b      	ldr	r3, [r7, #4]
 8001570:	681b      	ldr	r3, [r3, #0]
 8001572:	f022 0204 	bic.w	r2, r2, #4
 8001576:	601a      	str	r2, [r3, #0]
    }
    /* Clear the half transfer complete flag */
    __HAL_DMA_CLEAR_FLAG(hdma, __HAL_DMA_GET_HT_FLAG_INDEX(hdma));
 8001578:	687b      	ldr	r3, [r7, #4]
 800157a:	681b      	ldr	r3, [r3, #0]
 800157c:	4a66      	ldr	r2, [pc, #408]	; (8001718 <HAL_DMA_IRQHandler+0x1f0>)
 800157e:	4293      	cmp	r3, r2
 8001580:	d029      	beq.n	80015d6 <HAL_DMA_IRQHandler+0xae>
 8001582:	687b      	ldr	r3, [r7, #4]
 8001584:	681b      	ldr	r3, [r3, #0]
 8001586:	4a65      	ldr	r2, [pc, #404]	; (800171c <HAL_DMA_IRQHandler+0x1f4>)
 8001588:	4293      	cmp	r3, r2
 800158a:	d022      	beq.n	80015d2 <HAL_DMA_IRQHandler+0xaa>
 800158c:	687b      	ldr	r3, [r7, #4]
 800158e:	681b      	ldr	r3, [r3, #0]
 8001590:	4a63      	ldr	r2, [pc, #396]	; (8001720 <HAL_DMA_IRQHandler+0x1f8>)
 8001592:	4293      	cmp	r3, r2
 8001594:	d01a      	beq.n	80015cc <HAL_DMA_IRQHandler+0xa4>
 8001596:	687b      	ldr	r3, [r7, #4]
 8001598:	681b      	ldr	r3, [r3, #0]
 800159a:	4a62      	ldr	r2, [pc, #392]	; (8001724 <HAL_DMA_IRQHandler+0x1fc>)
 800159c:	4293      	cmp	r3, r2
 800159e:	d012      	beq.n	80015c6 <HAL_DMA_IRQHandler+0x9e>
 80015a0:	687b      	ldr	r3, [r7, #4]
 80015a2:	681b      	ldr	r3, [r3, #0]
 80015a4:	4a60      	ldr	r2, [pc, #384]	; (8001728 <HAL_DMA_IRQHandler+0x200>)
 80015a6:	4293      	cmp	r3, r2
 80015a8:	d00a      	beq.n	80015c0 <HAL_DMA_IRQHandler+0x98>
 80015aa:	687b      	ldr	r3, [r7, #4]
 80015ac:	681b      	ldr	r3, [r3, #0]
 80015ae:	4a5f      	ldr	r2, [pc, #380]	; (800172c <HAL_DMA_IRQHandler+0x204>)
 80015b0:	4293      	cmp	r3, r2
 80015b2:	d102      	bne.n	80015ba <HAL_DMA_IRQHandler+0x92>
 80015b4:	f44f 0380 	mov.w	r3, #4194304	; 0x400000
 80015b8:	e00e      	b.n	80015d8 <HAL_DMA_IRQHandler+0xb0>
 80015ba:	f04f 6380 	mov.w	r3, #67108864	; 0x4000000
 80015be:	e00b      	b.n	80015d8 <HAL_DMA_IRQHandler+0xb0>
 80015c0:	f44f 2380 	mov.w	r3, #262144	; 0x40000
 80015c4:	e008      	b.n	80015d8 <HAL_DMA_IRQHandler+0xb0>
 80015c6:	f44f 4380 	mov.w	r3, #16384	; 0x4000
 80015ca:	e005      	b.n	80015d8 <HAL_DMA_IRQHandler+0xb0>
 80015cc:	f44f 6380 	mov.w	r3, #1024	; 0x400
 80015d0:	e002      	b.n	80015d8 <HAL_DMA_IRQHandler+0xb0>
 80015d2:	2340      	movs	r3, #64	; 0x40
 80015d4:	e000      	b.n	80015d8 <HAL_DMA_IRQHandler+0xb0>
 80015d6:	2304      	movs	r3, #4
 80015d8:	4a55      	ldr	r2, [pc, #340]	; (8001730 <HAL_DMA_IRQHandler+0x208>)
 80015da:	6053      	str	r3, [r2, #4]

    /* DMA peripheral state is not updated in Half Transfer */
    /* but in Transfer Complete case */

    if(hdma->XferHalfCpltCallback != NULL)
 80015dc:	687b      	ldr	r3, [r7, #4]
 80015de:	6adb      	ldr	r3, [r3, #44]	; 0x2c
 80015e0:	2b00      	cmp	r3, #0
 80015e2:	f000 8094 	beq.w	800170e <HAL_DMA_IRQHandler+0x1e6>
    {
      /* Half transfer callback */
      hdma->XferHalfCpltCallback(hdma);
 80015e6:	687b      	ldr	r3, [r7, #4]
 80015e8:	6adb      	ldr	r3, [r3, #44]	; 0x2c
 80015ea:	6878      	ldr	r0, [r7, #4]
 80015ec:	4798      	blx	r3
    if(hdma->XferHalfCpltCallback != NULL)
 80015ee:	e08e      	b.n	800170e <HAL_DMA_IRQHandler+0x1e6>
    }
  }

  /* Transfer Complete Interrupt management ***********************************/
  else if (((flag_it & (DMA_FLAG_TC1 << hdma->ChannelIndex)) != RESET) && ((source_it & DMA_IT_TC) != RESET))
 80015f0:	687b      	ldr	r3, [r7, #4]
 80015f2:	6c1b      	ldr	r3, [r3, #64]	; 0x40
 80015f4:	2202      	movs	r2, #2
 80015f6:	409a      	lsls	r2, r3
 80015f8:	68fb      	ldr	r3, [r7, #12]
 80015fa:	4013      	ands	r3, r2
 80015fc:	2b00      	cmp	r3, #0
 80015fe:	d056      	beq.n	80016ae <HAL_DMA_IRQHandler+0x186>
 8001600:	68bb      	ldr	r3, [r7, #8]
 8001602:	f003 0302 	and.w	r3, r3, #2
 8001606:	2b00      	cmp	r3, #0
 8001608:	d051      	beq.n	80016ae <HAL_DMA_IRQHandler+0x186>
  {
    if((hdma->Instance->CCR & DMA_CCR_CIRC) == 0U)
 800160a:	687b      	ldr	r3, [r7, #4]
 800160c:	681b      	ldr	r3, [r3, #0]
 800160e:	681b      	ldr	r3, [r3, #0]
 8001610:	f003 0320 	and.w	r3, r3, #32
 8001614:	2b00      	cmp	r3, #0
 8001616:	d10b      	bne.n	8001630 <HAL_DMA_IRQHandler+0x108>
    {
      /* Disable the transfer complete and error interrupt */
      __HAL_DMA_DISABLE_IT(hdma, DMA_IT_TE | DMA_IT_TC);  
 8001618:	687b      	ldr	r3, [r7, #4]
 800161a:	681b      	ldr	r3, [r3, #0]
 800161c:	681a      	ldr	r2, [r3, #0]
 800161e:	687b      	ldr	r3, [r7, #4]
 8001620:	681b      	ldr	r3, [r3, #0]
 8001622:	f022 020a 	bic.w	r2, r2, #10
 8001626:	601a      	str	r2, [r3, #0]

      /* Change the DMA state */
      hdma->State = HAL_DMA_STATE_READY;
 8001628:	687b      	ldr	r3, [r7, #4]
 800162a:	2201      	movs	r2, #1
 800162c:	f883 2021 	strb.w	r2, [r3, #33]	; 0x21
    }
    /* Clear the transfer complete flag */
      __HAL_DMA_CLEAR_FLAG(hdma, __HAL_DMA_GET_TC_FLAG_INDEX(hdma));
 8001630:	687b      	ldr	r3, [r7, #4]
 8001632:	681b      	ldr	r3, [r3, #0]
 8001634:	4a38      	ldr	r2, [pc, #224]	; (8001718 <HAL_DMA_IRQHandler+0x1f0>)
 8001636:	4293      	cmp	r3, r2
 8001638:	d029      	beq.n	800168e <HAL_DMA_IRQHandler+0x166>
 800163a:	687b      	ldr	r3, [r7, #4]
 800163c:	681b      	ldr	r3, [r3, #0]
 800163e:	4a37      	ldr	r2, [pc, #220]	; (800171c <HAL_DMA_IRQHandler+0x1f4>)
 8001640:	4293      	cmp	r3, r2
 8001642:	d022      	beq.n	800168a <HAL_DMA_IRQHandler+0x162>
 8001644:	687b      	ldr	r3, [r7, #4]
 8001646:	681b      	ldr	r3, [r3, #0]
 8001648:	4a35      	ldr	r2, [pc, #212]	; (8001720 <HAL_DMA_IRQHandler+0x1f8>)
 800164a:	4293      	cmp	r3, r2
 800164c:	d01a      	beq.n	8001684 <HAL_DMA_IRQHandler+0x15c>
 800164e:	687b      	ldr	r3, [r7, #4]
 8001650:	681b      	ldr	r3, [r3, #0]
 8001652:	4a34      	ldr	r2, [pc, #208]	; (8001724 <HAL_DMA_IRQHandler+0x1fc>)
 8001654:	4293      	cmp	r3, r2
 8001656:	d012      	beq.n	800167e <HAL_DMA_IRQHandler+0x156>
 8001658:	687b      	ldr	r3, [r7, #4]
 800165a:	681b      	ldr	r3, [r3, #0]
 800165c:	4a32      	ldr	r2, [pc, #200]	; (8001728 <HAL_DMA_IRQHandler+0x200>)
 800165e:	4293      	cmp	r3, r2
 8001660:	d00a      	beq.n	8001678 <HAL_DMA_IRQHandler+0x150>
 8001662:	687b      	ldr	r3, [r7, #4]
 8001664:	681b      	ldr	r3, [r3, #0]
 8001666:	4a31      	ldr	r2, [pc, #196]	; (800172c <HAL_DMA_IRQHandler+0x204>)
 8001668:	4293      	cmp	r3, r2
 800166a:	d102      	bne.n	8001672 <HAL_DMA_IRQHandler+0x14a>
 800166c:	f44f 1300 	mov.w	r3, #2097152	; 0x200000
 8001670:	e00e      	b.n	8001690 <HAL_DMA_IRQHandler+0x168>
 8001672:	f04f 7300 	mov.w	r3, #33554432	; 0x2000000
 8001676:	e00b      	b.n	8001690 <HAL_DMA_IRQHandler+0x168>
 8001678:	f44f 3300 	mov.w	r3, #131072	; 0x20000
 800167c:	e008      	b.n	8001690 <HAL_DMA_IRQHandler+0x168>
 800167e:	f44f 5300 	mov.w	r3, #8192	; 0x2000
 8001682:	e005      	b.n	8001690 <HAL_DMA_IRQHandler+0x168>
 8001684:	f44f 7300 	mov.w	r3, #512	; 0x200
 8001688:	e002      	b.n	8001690 <HAL_DMA_IRQHandler+0x168>
 800168a:	2320      	movs	r3, #32
 800168c:	e000      	b.n	8001690 <HAL_DMA_IRQHandler+0x168>
 800168e:	2302      	movs	r3, #2
 8001690:	4a27      	ldr	r2, [pc, #156]	; (8001730 <HAL_DMA_IRQHandler+0x208>)
 8001692:	6053      	str	r3, [r2, #4]

    /* Process Unlocked */
    __HAL_UNLOCK(hdma);
 8001694:	687b      	ldr	r3, [r7, #4]
 8001696:	2200      	movs	r2, #0
 8001698:	f883 2020 	strb.w	r2, [r3, #32]

    if(hdma->XferCpltCallback != NULL)
 800169c:	687b      	ldr	r3, [r7, #4]
 800169e:	6a9b      	ldr	r3, [r3, #40]	; 0x28
 80016a0:	2b00      	cmp	r3, #0
 80016a2:	d034      	beq.n	800170e <HAL_DMA_IRQHandler+0x1e6>
    {
      /* Transfer complete callback */
      hdma->XferCpltCallback(hdma);
 80016a4:	687b      	ldr	r3, [r7, #4]
 80016a6:	6a9b      	ldr	r3, [r3, #40]	; 0x28
 80016a8:	6878      	ldr	r0, [r7, #4]
 80016aa:	4798      	blx	r3
    if(hdma->XferCpltCallback != NULL)
 80016ac:	e02f      	b.n	800170e <HAL_DMA_IRQHandler+0x1e6>
    }
  }

  /* Transfer Error Interrupt management **************************************/
  else if (( RESET != (flag_it & (DMA_FLAG_TE1 << hdma->ChannelIndex))) && (RESET != (source_it & DMA_IT_TE)))
 80016ae:	687b      	ldr	r3, [r7, #4]
 80016b0:	6c1b      	ldr	r3, [r3, #64]	; 0x40
 80016b2:	2208      	movs	r2, #8
 80016b4:	409a      	lsls	r2, r3
 80016b6:	68fb      	ldr	r3, [r7, #12]
 80016b8:	4013      	ands	r3, r2
 80016ba:	2b00      	cmp	r3, #0
 80016bc:	d028      	beq.n	8001710 <HAL_DMA_IRQHandler+0x1e8>
 80016be:	68bb      	ldr	r3, [r7, #8]
 80016c0:	f003 0308 	and.w	r3, r3, #8
 80016c4:	2b00      	cmp	r3, #0
 80016c6:	d023      	beq.n	8001710 <HAL_DMA_IRQHandler+0x1e8>
  {
    /* When a DMA transfer error occurs */
    /* A hardware clear of its EN bits is performed */
    /* Disable ALL DMA IT */
    __HAL_DMA_DISABLE_IT(hdma, (DMA_IT_TC | DMA_IT_HT | DMA_IT_TE));
 80016c8:	687b      	ldr	r3, [r7, #4]
 80016ca:	681b      	ldr	r3, [r3, #0]
 80016cc:	681a      	ldr	r2, [r3, #0]
 80016ce:	687b      	ldr	r3, [r7, #4]
 80016d0:	681b      	ldr	r3, [r3, #0]
 80016d2:	f022 020e 	bic.w	r2, r2, #14
 80016d6:	601a      	str	r2, [r3, #0]

    /* Clear all flags */
    hdma->DmaBaseAddress->IFCR = (DMA_ISR_GIF1 << hdma->ChannelIndex);
 80016d8:	687b      	ldr	r3, [r7, #4]
 80016da:	6c1a      	ldr	r2, [r3, #64]	; 0x40
 80016dc:	687b      	ldr	r3, [r7, #4]
 80016de:	6bdb      	ldr	r3, [r3, #60]	; 0x3c
 80016e0:	2101      	movs	r1, #1
 80016e2:	fa01 f202 	lsl.w	r2, r1, r2
 80016e6:	605a      	str	r2, [r3, #4]

    /* Update error code */
    hdma->ErrorCode = HAL_DMA_ERROR_TE;
 80016e8:	687b      	ldr	r3, [r7, #4]
 80016ea:	2201      	movs	r2, #1
 80016ec:	639a      	str	r2, [r3, #56]	; 0x38

    /* Change the DMA state */
    hdma->State = HAL_DMA_STATE_READY;
 80016ee:	687b      	ldr	r3, [r7, #4]
 80016f0:	2201      	movs	r2, #1
 80016f2:	f883 2021 	strb.w	r2, [r3, #33]	; 0x21

    /* Process Unlocked */
    __HAL_UNLOCK(hdma);
 80016f6:	687b      	ldr	r3, [r7, #4]
 80016f8:	2200      	movs	r2, #0
 80016fa:	f883 2020 	strb.w	r2, [r3, #32]

    if (hdma->XferErrorCallback != NULL)
 80016fe:	687b      	ldr	r3, [r7, #4]
 8001700:	6b1b      	ldr	r3, [r3, #48]	; 0x30
 8001702:	2b00      	cmp	r3, #0
 8001704:	d004      	beq.n	8001710 <HAL_DMA_IRQHandler+0x1e8>
    {
      /* Transfer error callback */
      hdma->XferErrorCallback(hdma);
 8001706:	687b      	ldr	r3, [r7, #4]
 8001708:	6b1b      	ldr	r3, [r3, #48]	; 0x30
 800170a:	6878      	ldr	r0, [r7, #4]
 800170c:	4798      	blx	r3
    }
  }
  return;
 800170e:	bf00      	nop
 8001710:	bf00      	nop
}
 8001712:	3710      	adds	r7, #16
 8001714:	46bd      	mov	sp, r7
 8001716:	bd80      	pop	{r7, pc}
 8001718:	40020008 	.word	0x40020008
 800171c:	4002001c 	.word	0x4002001c
 8001720:	40020030 	.word	0x40020030
 8001724:	40020044 	.word	0x40020044
 8001728:	40020058 	.word	0x40020058
 800172c:	4002006c 	.word	0x4002006c
 8001730:	40020000 	.word	0x40020000

08001734 <DMA_SetConfig>:
  * @param  DstAddress: The destination memory Buffer address
  * @param  DataLength: The length of data to be transferred from source to destination
  * @retval HAL status
  */
static void DMA_SetConfig(DMA_HandleTypeDef *hdma, uint32_t SrcAddress, uint32_t DstAddress, uint32_t DataLength)
{
 8001734:	b480      	push	{r7}
 8001736:	b085      	sub	sp, #20
 8001738:	af00      	add	r7, sp, #0
 800173a:	60f8      	str	r0, [r7, #12]
 800173c:	60b9      	str	r1, [r7, #8]
 800173e:	607a      	str	r2, [r7, #4]
 8001740:	603b      	str	r3, [r7, #0]
  /* Clear all flags */
  hdma->DmaBaseAddress->IFCR = (DMA_ISR_GIF1 << hdma->ChannelIndex);
 8001742:	68fb      	ldr	r3, [r7, #12]
 8001744:	6c1a      	ldr	r2, [r3, #64]	; 0x40
 8001746:	68fb      	ldr	r3, [r7, #12]
 8001748:	6bdb      	ldr	r3, [r3, #60]	; 0x3c
 800174a:	2101      	movs	r1, #1
 800174c:	fa01 f202 	lsl.w	r2, r1, r2
 8001750:	605a      	str	r2, [r3, #4]

  /* Configure DMA Channel data length */
  hdma->Instance->CNDTR = DataLength;
 8001752:	68fb      	ldr	r3, [r7, #12]
 8001754:	681b      	ldr	r3, [r3, #0]
 8001756:	683a      	ldr	r2, [r7, #0]
 8001758:	605a      	str	r2, [r3, #4]

  /* Memory to Peripheral */
  if((hdma->Init.Direction) == DMA_MEMORY_TO_PERIPH)
 800175a:	68fb      	ldr	r3, [r7, #12]
 800175c:	685b      	ldr	r3, [r3, #4]
 800175e:	2b10      	cmp	r3, #16
 8001760:	d108      	bne.n	8001774 <DMA_SetConfig+0x40>
  {
    /* Configure DMA Channel destination address */
    hdma->Instance->CPAR = DstAddress;
 8001762:	68fb      	ldr	r3, [r7, #12]
 8001764:	681b      	ldr	r3, [r3, #0]
 8001766:	687a      	ldr	r2, [r7, #4]
 8001768:	609a      	str	r2, [r3, #8]

    /* Configure DMA Channel source address */
    hdma->Instance->CMAR = SrcAddress;
 800176a:	68fb      	ldr	r3, [r7, #12]
 800176c:	681b      	ldr	r3, [r3, #0]
 800176e:	68ba      	ldr	r2, [r7, #8]
 8001770:	60da      	str	r2, [r3, #12]
    hdma->Instance->CPAR = SrcAddress;

    /* Configure DMA Channel destination address */
    hdma->Instance->CMAR = DstAddress;
  }
}
 8001772:	e007      	b.n	8001784 <DMA_SetConfig+0x50>
    hdma->Instance->CPAR = SrcAddress;
 8001774:	68fb      	ldr	r3, [r7, #12]
 8001776:	681b      	ldr	r3, [r3, #0]
 8001778:	68ba      	ldr	r2, [r7, #8]
 800177a:	609a      	str	r2, [r3, #8]
    hdma->Instance->CMAR = DstAddress;
 800177c:	68fb      	ldr	r3, [r7, #12]
 800177e:	681b      	ldr	r3, [r3, #0]
 8001780:	687a      	ldr	r2, [r7, #4]
 8001782:	60da      	str	r2, [r3, #12]
}
 8001784:	bf00      	nop
 8001786:	3714      	adds	r7, #20
 8001788:	46bd      	mov	sp, r7
 800178a:	bc80      	pop	{r7}
 800178c:	4770      	bx	lr
	...

08001790 <HAL_GPIO_Init>:
  * @param  GPIO_Init: pointer to a GPIO_InitTypeDef structure that contains
  *         the configuration information for the specified GPIO peripheral.
  * @retval None
  */
void HAL_GPIO_Init(GPIO_TypeDef  *GPIOx, GPIO_InitTypeDef *GPIO_Init)
{
 8001790:	b480      	push	{r7}
 8001792:	b08b      	sub	sp, #44	; 0x2c
 8001794:	af00      	add	r7, sp, #0
 8001796:	6078      	str	r0, [r7, #4]
 8001798:	6039      	str	r1, [r7, #0]
  uint32_t position = 0x00u;
 800179a:	2300      	movs	r3, #0
 800179c:	627b      	str	r3, [r7, #36]	; 0x24
  uint32_t ioposition;
  uint32_t iocurrent;
  uint32_t temp;
  uint32_t config = 0x00u;
 800179e:	2300      	movs	r3, #0
 80017a0:	623b      	str	r3, [r7, #32]
  assert_param(IS_GPIO_ALL_INSTANCE(GPIOx));
  assert_param(IS_GPIO_PIN(GPIO_Init->Pin));
  assert_param(IS_GPIO_MODE(GPIO_Init->Mode));

  /* Configure the port pins */
  while (((GPIO_Init->Pin) >> position) != 0x00u)
 80017a2:	e169      	b.n	8001a78 <HAL_GPIO_Init+0x2e8>
  {
    /* Get the IO position */
    ioposition = (0x01uL << position);
 80017a4:	2201      	movs	r2, #1
 80017a6:	6a7b      	ldr	r3, [r7, #36]	; 0x24
 80017a8:	fa02 f303 	lsl.w	r3, r2, r3
 80017ac:	61fb      	str	r3, [r7, #28]

    /* Get the current IO position */
    iocurrent = (uint32_t)(GPIO_Init->Pin) & ioposition;
 80017ae:	683b      	ldr	r3, [r7, #0]
 80017b0:	681b      	ldr	r3, [r3, #0]
 80017b2:	69fa      	ldr	r2, [r7, #28]
 80017b4:	4013      	ands	r3, r2
 80017b6:	61bb      	str	r3, [r7, #24]

    if (iocurrent == ioposition)
 80017b8:	69ba      	ldr	r2, [r7, #24]
 80017ba:	69fb      	ldr	r3, [r7, #28]
 80017bc:	429a      	cmp	r2, r3
 80017be:	f040 8158 	bne.w	8001a72 <HAL_GPIO_Init+0x2e2>
    {
      /* Check the Alternate function parameters */
      assert_param(IS_GPIO_AF_INSTANCE(GPIOx));

      /* Based on the required mode, filling config variable with MODEy[1:0] and CNFy[3:2] corresponding bits */
      switch (GPIO_Init->Mode)
 80017c2:	683b      	ldr	r3, [r7, #0]
 80017c4:	685b      	ldr	r3, [r3, #4]
 80017c6:	4a9a      	ldr	r2, [pc, #616]	; (8001a30 <HAL_GPIO_Init+0x2a0>)
 80017c8:	4293      	cmp	r3, r2
 80017ca:	d05e      	beq.n	800188a <HAL_GPIO_Init+0xfa>
 80017cc:	4a98      	ldr	r2, [pc, #608]	; (8001a30 <HAL_GPIO_Init+0x2a0>)
 80017ce:	4293      	cmp	r3, r2
 80017d0:	d875      	bhi.n	80018be <HAL_GPIO_Init+0x12e>
 80017d2:	4a98      	ldr	r2, [pc, #608]	; (8001a34 <HAL_GPIO_Init+0x2a4>)
 80017d4:	4293      	cmp	r3, r2
 80017d6:	d058      	beq.n	800188a <HAL_GPIO_Init+0xfa>
 80017d8:	4a96      	ldr	r2, [pc, #600]	; (8001a34 <HAL_GPIO_Init+0x2a4>)
 80017da:	4293      	cmp	r3, r2
 80017dc:	d86f      	bhi.n	80018be <HAL_GPIO_Init+0x12e>
 80017de:	4a96      	ldr	r2, [pc, #600]	; (8001a38 <HAL_GPIO_Init+0x2a8>)
 80017e0:	4293      	cmp	r3, r2
 80017e2:	d052      	beq.n	800188a <HAL_GPIO_Init+0xfa>
 80017e4:	4a94      	ldr	r2, [pc, #592]	; (8001a38 <HAL_GPIO_Init+0x2a8>)
 80017e6:	4293      	cmp	r3, r2
 80017e8:	d869      	bhi.n	80018be <HAL_GPIO_Init+0x12e>
 80017ea:	4a94      	ldr	r2, [pc, #592]	; (8001a3c <HAL_GPIO_Init+0x2ac>)
 80017ec:	4293      	cmp	r3, r2
 80017ee:	d04c      	beq.n	800188a <HAL_GPIO_Init+0xfa>
 80017f0:	4a92      	ldr	r2, [pc, #584]	; (8001a3c <HAL_GPIO_Init+0x2ac>)
 80017f2:	4293      	cmp	r3, r2
 80017f4:	d863      	bhi.n	80018be <HAL_GPIO_Init+0x12e>
 80017f6:	4a92      	ldr	r2, [pc, #584]	; (8001a40 <HAL_GPIO_Init+0x2b0>)
 80017f8:	4293      	cmp	r3, r2
 80017fa:	d046      	beq.n	800188a <HAL_GPIO_Init+0xfa>
 80017fc:	4a90      	ldr	r2, [pc, #576]	; (8001a40 <HAL_GPIO_Init+0x2b0>)
 80017fe:	4293      	cmp	r3, r2
 8001800:	d85d      	bhi.n	80018be <HAL_GPIO_Init+0x12e>
 8001802:	2b12      	cmp	r3, #18
 8001804:	d82a      	bhi.n	800185c <HAL_GPIO_Init+0xcc>
 8001806:	2b12      	cmp	r3, #18
 8001808:	d859      	bhi.n	80018be <HAL_GPIO_Init+0x12e>
 800180a:	a201      	add	r2, pc, #4	; (adr r2, 8001810 <HAL_GPIO_Init+0x80>)
 800180c:	f852 f023 	ldr.w	pc, [r2, r3, lsl #2]
 8001810:	0800188b 	.word	0x0800188b
 8001814:	08001865 	.word	0x08001865
 8001818:	08001877 	.word	0x08001877
 800181c:	080018b9 	.word	0x080018b9
 8001820:	080018bf 	.word	0x080018bf
 8001824:	080018bf 	.word	0x080018bf
 8001828:	080018bf 	.word	0x080018bf
 800182c:	080018bf 	.word	0x080018bf
 8001830:	080018bf 	.word	0x080018bf
 8001834:	080018bf 	.word	0x080018bf
 8001838:	080018bf 	.word	0x080018bf
 800183c:	080018bf 	.word	0x080018bf
 8001840:	080018bf 	.word	0x080018bf
 8001844:	080018bf 	.word	0x080018bf
 8001848:	080018bf 	.word	0x080018bf
 800184c:	080018bf 	.word	0x080018bf
 8001850:	080018bf 	.word	0x080018bf
 8001854:	0800186d 	.word	0x0800186d
 8001858:	08001881 	.word	0x08001881
 800185c:	4a79      	ldr	r2, [pc, #484]	; (8001a44 <HAL_GPIO_Init+0x2b4>)
 800185e:	4293      	cmp	r3, r2
 8001860:	d013      	beq.n	800188a <HAL_GPIO_Init+0xfa>
          config = GPIO_CR_MODE_INPUT + GPIO_CR_CNF_ANALOG;
          break;

        /* Parameters are checked with assert_param */
        default:
          break;
 8001862:	e02c      	b.n	80018be <HAL_GPIO_Init+0x12e>
          config = GPIO_Init->Speed + GPIO_CR_CNF_GP_OUTPUT_PP;
 8001864:	683b      	ldr	r3, [r7, #0]
 8001866:	68db      	ldr	r3, [r3, #12]
 8001868:	623b      	str	r3, [r7, #32]
          break;
 800186a:	e029      	b.n	80018c0 <HAL_GPIO_Init+0x130>
          config = GPIO_Init->Speed + GPIO_CR_CNF_GP_OUTPUT_OD;
 800186c:	683b      	ldr	r3, [r7, #0]
 800186e:	68db      	ldr	r3, [r3, #12]
 8001870:	3304      	adds	r3, #4
 8001872:	623b      	str	r3, [r7, #32]
          break;
 8001874:	e024      	b.n	80018c0 <HAL_GPIO_Init+0x130>
          config = GPIO_Init->Speed + GPIO_CR_CNF_AF_OUTPUT_PP;
 8001876:	683b      	ldr	r3, [r7, #0]
 8001878:	68db      	ldr	r3, [r3, #12]
 800187a:	3308      	adds	r3, #8
 800187c:	623b      	str	r3, [r7, #32]
          break;
 800187e:	e01f      	b.n	80018c0 <HAL_GPIO_Init+0x130>
          config = GPIO_Init->Speed + GPIO_CR_CNF_AF_OUTPUT_OD;
 8001880:	683b      	ldr	r3, [r7, #0]
 8001882:	68db      	ldr	r3, [r3, #12]
 8001884:	330c      	adds	r3, #12
 8001886:	623b      	str	r3, [r7, #32]
          break;
 8001888:	e01a      	b.n	80018c0 <HAL_GPIO_Init+0x130>
          if (GPIO_Init->Pull == GPIO_NOPULL)
 800188a:	683b      	ldr	r3, [r7, #0]
 800188c:	689b      	ldr	r3, [r3, #8]
 800188e:	2b00      	cmp	r3, #0
 8001890:	d102      	bne.n	8001898 <HAL_GPIO_Init+0x108>
            config = GPIO_CR_MODE_INPUT + GPIO_CR_CNF_INPUT_FLOATING;
 8001892:	2304      	movs	r3, #4
 8001894:	623b      	str	r3, [r7, #32]
          break;
 8001896:	e013      	b.n	80018c0 <HAL_GPIO_Init+0x130>
          else if (GPIO_Init->Pull == GPIO_PULLUP)
 8001898:	683b      	ldr	r3, [r7, #0]
 800189a:	689b      	ldr	r3, [r3, #8]
 800189c:	2b01      	cmp	r3, #1
 800189e:	d105      	bne.n	80018ac <HAL_GPIO_Init+0x11c>
            config = GPIO_CR_MODE_INPUT + GPIO_CR_CNF_INPUT_PU_PD;
 80018a0:	2308      	movs	r3, #8
 80018a2:	623b      	str	r3, [r7, #32]
            GPIOx->BSRR = ioposition;
 80018a4:	687b      	ldr	r3, [r7, #4]
 80018a6:	69fa      	ldr	r2, [r7, #28]
 80018a8:	611a      	str	r2, [r3, #16]
          break;
 80018aa:	e009      	b.n	80018c0 <HAL_GPIO_Init+0x130>
            config = GPIO_CR_MODE_INPUT + GPIO_CR_CNF_INPUT_PU_PD;
 80018ac:	2308      	movs	r3, #8
 80018ae:	623b      	str	r3, [r7, #32]
            GPIOx->BRR = ioposition;
 80018b0:	687b      	ldr	r3, [r7, #4]
 80018b2:	69fa      	ldr	r2, [r7, #28]
 80018b4:	615a      	str	r2, [r3, #20]
          break;
 80018b6:	e003      	b.n	80018c0 <HAL_GPIO_Init+0x130>
          config = GPIO_CR_MODE_INPUT + GPIO_CR_CNF_ANALOG;
 80018b8:	2300      	movs	r3, #0
 80018ba:	623b      	str	r3, [r7, #32]
          break;
 80018bc:	e000      	b.n	80018c0 <HAL_GPIO_Init+0x130>
          break;
 80018be:	bf00      	nop
      }

      /* Check if the current bit belongs to first half or last half of the pin count number
       in order to address CRH or CRL register*/
      configregister = (iocurrent < GPIO_PIN_8) ? &GPIOx->CRL     : &GPIOx->CRH;
 80018c0:	69bb      	ldr	r3, [r7, #24]
 80018c2:	2bff      	cmp	r3, #255	; 0xff
 80018c4:	d801      	bhi.n	80018ca <HAL_GPIO_Init+0x13a>
 80018c6:	687b      	ldr	r3, [r7, #4]
 80018c8:	e001      	b.n	80018ce <HAL_GPIO_Init+0x13e>
 80018ca:	687b      	ldr	r3, [r7, #4]
 80018cc:	3304      	adds	r3, #4
 80018ce:	617b      	str	r3, [r7, #20]
      registeroffset = (iocurrent < GPIO_PIN_8) ? (position << 2u) : ((position - 8u) << 2u);
 80018d0:	69bb      	ldr	r3, [r7, #24]
 80018d2:	2bff      	cmp	r3, #255	; 0xff
 80018d4:	d802      	bhi.n	80018dc <HAL_GPIO_Init+0x14c>
 80018d6:	6a7b      	ldr	r3, [r7, #36]	; 0x24
 80018d8:	009b      	lsls	r3, r3, #2
 80018da:	e002      	b.n	80018e2 <HAL_GPIO_Init+0x152>
 80018dc:	6a7b      	ldr	r3, [r7, #36]	; 0x24
 80018de:	3b08      	subs	r3, #8
 80018e0:	009b      	lsls	r3, r3, #2
 80018e2:	613b      	str	r3, [r7, #16]

      /* Apply the new configuration of the pin to the register */
      MODIFY_REG((*configregister), ((GPIO_CRL_MODE0 | GPIO_CRL_CNF0) << registeroffset), (config << registeroffset));
 80018e4:	697b      	ldr	r3, [r7, #20]
 80018e6:	681a      	ldr	r2, [r3, #0]
 80018e8:	210f      	movs	r1, #15
 80018ea:	693b      	ldr	r3, [r7, #16]
 80018ec:	fa01 f303 	lsl.w	r3, r1, r3
 80018f0:	43db      	mvns	r3, r3
 80018f2:	401a      	ands	r2, r3
 80018f4:	6a39      	ldr	r1, [r7, #32]
 80018f6:	693b      	ldr	r3, [r7, #16]
 80018f8:	fa01 f303 	lsl.w	r3, r1, r3
 80018fc:	431a      	orrs	r2, r3
 80018fe:	697b      	ldr	r3, [r7, #20]
 8001900:	601a      	str	r2, [r3, #0]

      /*--------------------- EXTI Mode Configuration ------------------------*/
      /* Configure the External Interrupt or event for the current IO */
      if ((GPIO_Init->Mode & EXTI_MODE) == EXTI_MODE)
 8001902:	683b      	ldr	r3, [r7, #0]
 8001904:	685b      	ldr	r3, [r3, #4]
 8001906:	f003 5380 	and.w	r3, r3, #268435456	; 0x10000000
 800190a:	2b00      	cmp	r3, #0
 800190c:	f000 80b1 	beq.w	8001a72 <HAL_GPIO_Init+0x2e2>
      {
        /* Enable AFIO Clock */
        __HAL_RCC_AFIO_CLK_ENABLE();
 8001910:	4b4d      	ldr	r3, [pc, #308]	; (8001a48 <HAL_GPIO_Init+0x2b8>)
 8001912:	699b      	ldr	r3, [r3, #24]
 8001914:	4a4c      	ldr	r2, [pc, #304]	; (8001a48 <HAL_GPIO_Init+0x2b8>)
 8001916:	f043 0301 	orr.w	r3, r3, #1
 800191a:	6193      	str	r3, [r2, #24]
 800191c:	4b4a      	ldr	r3, [pc, #296]	; (8001a48 <HAL_GPIO_Init+0x2b8>)
 800191e:	699b      	ldr	r3, [r3, #24]
 8001920:	f003 0301 	and.w	r3, r3, #1
 8001924:	60bb      	str	r3, [r7, #8]
 8001926:	68bb      	ldr	r3, [r7, #8]
        temp = AFIO->EXTICR[position >> 2u];
 8001928:	4a48      	ldr	r2, [pc, #288]	; (8001a4c <HAL_GPIO_Init+0x2bc>)
 800192a:	6a7b      	ldr	r3, [r7, #36]	; 0x24
 800192c:	089b      	lsrs	r3, r3, #2
 800192e:	3302      	adds	r3, #2
 8001930:	f852 3023 	ldr.w	r3, [r2, r3, lsl #2]
 8001934:	60fb      	str	r3, [r7, #12]
        CLEAR_BIT(temp, (0x0Fu) << (4u * (position & 0x03u)));
 8001936:	6a7b      	ldr	r3, [r7, #36]	; 0x24
 8001938:	f003 0303 	and.w	r3, r3, #3
 800193c:	009b      	lsls	r3, r3, #2
 800193e:	220f      	movs	r2, #15
 8001940:	fa02 f303 	lsl.w	r3, r2, r3
 8001944:	43db      	mvns	r3, r3
 8001946:	68fa      	ldr	r2, [r7, #12]
 8001948:	4013      	ands	r3, r2
 800194a:	60fb      	str	r3, [r7, #12]
        SET_BIT(temp, (GPIO_GET_INDEX(GPIOx)) << (4u * (position & 0x03u)));
 800194c:	687b      	ldr	r3, [r7, #4]
 800194e:	4a40      	ldr	r2, [pc, #256]	; (8001a50 <HAL_GPIO_Init+0x2c0>)
 8001950:	4293      	cmp	r3, r2
 8001952:	d013      	beq.n	800197c <HAL_GPIO_Init+0x1ec>
 8001954:	687b      	ldr	r3, [r7, #4]
 8001956:	4a3f      	ldr	r2, [pc, #252]	; (8001a54 <HAL_GPIO_Init+0x2c4>)
 8001958:	4293      	cmp	r3, r2
 800195a:	d00d      	beq.n	8001978 <HAL_GPIO_Init+0x1e8>
 800195c:	687b      	ldr	r3, [r7, #4]
 800195e:	4a3e      	ldr	r2, [pc, #248]	; (8001a58 <HAL_GPIO_Init+0x2c8>)
 8001960:	4293      	cmp	r3, r2
 8001962:	d007      	beq.n	8001974 <HAL_GPIO_Init+0x1e4>
 8001964:	687b      	ldr	r3, [r7, #4]
 8001966:	4a3d      	ldr	r2, [pc, #244]	; (8001a5c <HAL_GPIO_Init+0x2cc>)
 8001968:	4293      	cmp	r3, r2
 800196a:	d101      	bne.n	8001970 <HAL_GPIO_Init+0x1e0>
 800196c:	2303      	movs	r3, #3
 800196e:	e006      	b.n	800197e <HAL_GPIO_Init+0x1ee>
 8001970:	2304      	movs	r3, #4
 8001972:	e004      	b.n	800197e <HAL_GPIO_Init+0x1ee>
 8001974:	2302      	movs	r3, #2
 8001976:	e002      	b.n	800197e <HAL_GPIO_Init+0x1ee>
 8001978:	2301      	movs	r3, #1
 800197a:	e000      	b.n	800197e <HAL_GPIO_Init+0x1ee>
 800197c:	2300      	movs	r3, #0
 800197e:	6a7a      	ldr	r2, [r7, #36]	; 0x24
 8001980:	f002 0203 	and.w	r2, r2, #3
 8001984:	0092      	lsls	r2, r2, #2
 8001986:	4093      	lsls	r3, r2
 8001988:	68fa      	ldr	r2, [r7, #12]
 800198a:	4313      	orrs	r3, r2
 800198c:	60fb      	str	r3, [r7, #12]
        AFIO->EXTICR[position >> 2u] = temp;
 800198e:	492f      	ldr	r1, [pc, #188]	; (8001a4c <HAL_GPIO_Init+0x2bc>)
 8001990:	6a7b      	ldr	r3, [r7, #36]	; 0x24
 8001992:	089b      	lsrs	r3, r3, #2
 8001994:	3302      	adds	r3, #2
 8001996:	68fa      	ldr	r2, [r7, #12]
 8001998:	f841 2023 	str.w	r2, [r1, r3, lsl #2]


        /* Configure the interrupt mask */
        if ((GPIO_Init->Mode & GPIO_MODE_IT) == GPIO_MODE_IT)
 800199c:	683b      	ldr	r3, [r7, #0]
 800199e:	685b      	ldr	r3, [r3, #4]
 80019a0:	f403 3380 	and.w	r3, r3, #65536	; 0x10000
 80019a4:	2b00      	cmp	r3, #0
 80019a6:	d006      	beq.n	80019b6 <HAL_GPIO_Init+0x226>
        {
          SET_BIT(EXTI->IMR, iocurrent);
 80019a8:	4b2d      	ldr	r3, [pc, #180]	; (8001a60 <HAL_GPIO_Init+0x2d0>)
 80019aa:	681a      	ldr	r2, [r3, #0]
 80019ac:	492c      	ldr	r1, [pc, #176]	; (8001a60 <HAL_GPIO_Init+0x2d0>)
 80019ae:	69bb      	ldr	r3, [r7, #24]
 80019b0:	4313      	orrs	r3, r2
 80019b2:	600b      	str	r3, [r1, #0]
 80019b4:	e006      	b.n	80019c4 <HAL_GPIO_Init+0x234>
        }
        else
        {
          CLEAR_BIT(EXTI->IMR, iocurrent);
 80019b6:	4b2a      	ldr	r3, [pc, #168]	; (8001a60 <HAL_GPIO_Init+0x2d0>)
 80019b8:	681a      	ldr	r2, [r3, #0]
 80019ba:	69bb      	ldr	r3, [r7, #24]
 80019bc:	43db      	mvns	r3, r3
 80019be:	4928      	ldr	r1, [pc, #160]	; (8001a60 <HAL_GPIO_Init+0x2d0>)
 80019c0:	4013      	ands	r3, r2
 80019c2:	600b      	str	r3, [r1, #0]
        }

        /* Configure the event mask */
        if ((GPIO_Init->Mode & GPIO_MODE_EVT) == GPIO_MODE_EVT)
 80019c4:	683b      	ldr	r3, [r7, #0]
 80019c6:	685b      	ldr	r3, [r3, #4]
 80019c8:	f403 3300 	and.w	r3, r3, #131072	; 0x20000
 80019cc:	2b00      	cmp	r3, #0
 80019ce:	d006      	beq.n	80019de <HAL_GPIO_Init+0x24e>
        {
          SET_BIT(EXTI->EMR, iocurrent);
 80019d0:	4b23      	ldr	r3, [pc, #140]	; (8001a60 <HAL_GPIO_Init+0x2d0>)
 80019d2:	685a      	ldr	r2, [r3, #4]
 80019d4:	4922      	ldr	r1, [pc, #136]	; (8001a60 <HAL_GPIO_Init+0x2d0>)
 80019d6:	69bb      	ldr	r3, [r7, #24]
 80019d8:	4313      	orrs	r3, r2
 80019da:	604b      	str	r3, [r1, #4]
 80019dc:	e006      	b.n	80019ec <HAL_GPIO_Init+0x25c>
        }
        else
        {
          CLEAR_BIT(EXTI->EMR, iocurrent);
 80019de:	4b20      	ldr	r3, [pc, #128]	; (8001a60 <HAL_GPIO_Init+0x2d0>)
 80019e0:	685a      	ldr	r2, [r3, #4]
 80019e2:	69bb      	ldr	r3, [r7, #24]
 80019e4:	43db      	mvns	r3, r3
 80019e6:	491e      	ldr	r1, [pc, #120]	; (8001a60 <HAL_GPIO_Init+0x2d0>)
 80019e8:	4013      	ands	r3, r2
 80019ea:	604b      	str	r3, [r1, #4]
        }

        /* Enable or disable the rising trigger */
        if ((GPIO_Init->Mode & RISING_EDGE) == RISING_EDGE)
 80019ec:	683b      	ldr	r3, [r7, #0]
 80019ee:	685b      	ldr	r3, [r3, #4]
 80019f0:	f403 1380 	and.w	r3, r3, #1048576	; 0x100000
 80019f4:	2b00      	cmp	r3, #0
 80019f6:	d006      	beq.n	8001a06 <HAL_GPIO_Init+0x276>
        {
          SET_BIT(EXTI->RTSR, iocurrent);
 80019f8:	4b19      	ldr	r3, [pc, #100]	; (8001a60 <HAL_GPIO_Init+0x2d0>)
 80019fa:	689a      	ldr	r2, [r3, #8]
 80019fc:	4918      	ldr	r1, [pc, #96]	; (8001a60 <HAL_GPIO_Init+0x2d0>)
 80019fe:	69bb      	ldr	r3, [r7, #24]
 8001a00:	4313      	orrs	r3, r2
 8001a02:	608b      	str	r3, [r1, #8]
 8001a04:	e006      	b.n	8001a14 <HAL_GPIO_Init+0x284>
        }
        else
        {
          CLEAR_BIT(EXTI->RTSR, iocurrent);
 8001a06:	4b16      	ldr	r3, [pc, #88]	; (8001a60 <HAL_GPIO_Init+0x2d0>)
 8001a08:	689a      	ldr	r2, [r3, #8]
 8001a0a:	69bb      	ldr	r3, [r7, #24]
 8001a0c:	43db      	mvns	r3, r3
 8001a0e:	4914      	ldr	r1, [pc, #80]	; (8001a60 <HAL_GPIO_Init+0x2d0>)
 8001a10:	4013      	ands	r3, r2
 8001a12:	608b      	str	r3, [r1, #8]
        }

        /* Enable or disable the falling trigger */
        if ((GPIO_Init->Mode & FALLING_EDGE) == FALLING_EDGE)
 8001a14:	683b      	ldr	r3, [r7, #0]
 8001a16:	685b      	ldr	r3, [r3, #4]
 8001a18:	f403 1300 	and.w	r3, r3, #2097152	; 0x200000
 8001a1c:	2b00      	cmp	r3, #0
 8001a1e:	d021      	beq.n	8001a64 <HAL_GPIO_Init+0x2d4>
        {
          SET_BIT(EXTI->FTSR, iocurrent);
 8001a20:	4b0f      	ldr	r3, [pc, #60]	; (8001a60 <HAL_GPIO_Init+0x2d0>)
 8001a22:	68da      	ldr	r2, [r3, #12]
 8001a24:	490e      	ldr	r1, [pc, #56]	; (8001a60 <HAL_GPIO_Init+0x2d0>)
 8001a26:	69bb      	ldr	r3, [r7, #24]
 8001a28:	4313      	orrs	r3, r2
 8001a2a:	60cb      	str	r3, [r1, #12]
 8001a2c:	e021      	b.n	8001a72 <HAL_GPIO_Init+0x2e2>
 8001a2e:	bf00      	nop
 8001a30:	10320000 	.word	0x10320000
 8001a34:	10310000 	.word	0x10310000
 8001a38:	10220000 	.word	0x10220000
 8001a3c:	10210000 	.word	0x10210000
 8001a40:	10120000 	.word	0x10120000
 8001a44:	10110000 	.word	0x10110000
 8001a48:	40021000 	.word	0x40021000
 8001a4c:	40010000 	.word	0x40010000
 8001a50:	40010800 	.word	0x40010800
 8001a54:	40010c00 	.word	0x40010c00
 8001a58:	40011000 	.word	0x40011000
 8001a5c:	40011400 	.word	0x40011400
 8001a60:	40010400 	.word	0x40010400
        }
        else
        {
          CLEAR_BIT(EXTI->FTSR, iocurrent);
 8001a64:	4b0b      	ldr	r3, [pc, #44]	; (8001a94 <HAL_GPIO_Init+0x304>)
 8001a66:	68da      	ldr	r2, [r3, #12]
 8001a68:	69bb      	ldr	r3, [r7, #24]
 8001a6a:	43db      	mvns	r3, r3
 8001a6c:	4909      	ldr	r1, [pc, #36]	; (8001a94 <HAL_GPIO_Init+0x304>)
 8001a6e:	4013      	ands	r3, r2
 8001a70:	60cb      	str	r3, [r1, #12]
        }
      }
    }

	position++;
 8001a72:	6a7b      	ldr	r3, [r7, #36]	; 0x24
 8001a74:	3301      	adds	r3, #1
 8001a76:	627b      	str	r3, [r7, #36]	; 0x24
  while (((GPIO_Init->Pin) >> position) != 0x00u)
 8001a78:	683b      	ldr	r3, [r7, #0]
 8001a7a:	681a      	ldr	r2, [r3, #0]
 8001a7c:	6a7b      	ldr	r3, [r7, #36]	; 0x24
 8001a7e:	fa22 f303 	lsr.w	r3, r2, r3
 8001a82:	2b00      	cmp	r3, #0
 8001a84:	f47f ae8e 	bne.w	80017a4 <HAL_GPIO_Init+0x14>
  }
}
 8001a88:	bf00      	nop
 8001a8a:	bf00      	nop
 8001a8c:	372c      	adds	r7, #44	; 0x2c
 8001a8e:	46bd      	mov	sp, r7
 8001a90:	bc80      	pop	{r7}
 8001a92:	4770      	bx	lr
 8001a94:	40010400 	.word	0x40010400

08001a98 <HAL_GPIO_WritePin>:
  *            @arg GPIO_PIN_RESET: to clear the port pin
  *            @arg GPIO_PIN_SET: to set the port pin
  * @retval None
  */
void HAL_GPIO_WritePin(GPIO_TypeDef *GPIOx, uint16_t GPIO_Pin, GPIO_PinState PinState)
{
 8001a98:	b480      	push	{r7}
 8001a9a:	b083      	sub	sp, #12
 8001a9c:	af00      	add	r7, sp, #0
 8001a9e:	6078      	str	r0, [r7, #4]
 8001aa0:	460b      	mov	r3, r1
 8001aa2:	807b      	strh	r3, [r7, #2]
 8001aa4:	4613      	mov	r3, r2
 8001aa6:	707b      	strb	r3, [r7, #1]
  /* Check the parameters */
  assert_param(IS_GPIO_PIN(GPIO_Pin));
  assert_param(IS_GPIO_PIN_ACTION(PinState));

  if (PinState != GPIO_PIN_RESET)
 8001aa8:	787b      	ldrb	r3, [r7, #1]
 8001aaa:	2b00      	cmp	r3, #0
 8001aac:	d003      	beq.n	8001ab6 <HAL_GPIO_WritePin+0x1e>
  {
    GPIOx->BSRR = GPIO_Pin;
 8001aae:	887a      	ldrh	r2, [r7, #2]
 8001ab0:	687b      	ldr	r3, [r7, #4]
 8001ab2:	611a      	str	r2, [r3, #16]
  }
  else
  {
    GPIOx->BSRR = (uint32_t)GPIO_Pin << 16u;
  }
}
 8001ab4:	e003      	b.n	8001abe <HAL_GPIO_WritePin+0x26>
    GPIOx->BSRR = (uint32_t)GPIO_Pin << 16u;
 8001ab6:	887b      	ldrh	r3, [r7, #2]
 8001ab8:	041a      	lsls	r2, r3, #16
 8001aba:	687b      	ldr	r3, [r7, #4]
 8001abc:	611a      	str	r2, [r3, #16]
}
 8001abe:	bf00      	nop
 8001ac0:	370c      	adds	r7, #12
 8001ac2:	46bd      	mov	sp, r7
 8001ac4:	bc80      	pop	{r7}
 8001ac6:	4770      	bx	lr

08001ac8 <HAL_GPIO_EXTI_IRQHandler>:
  * @brief  This function handles EXTI interrupt request.
  * @param  GPIO_Pin: Specifies the pins connected EXTI line
  * @retval None
  */
void HAL_GPIO_EXTI_IRQHandler(uint16_t GPIO_Pin)
{
 8001ac8:	b580      	push	{r7, lr}
 8001aca:	b082      	sub	sp, #8
 8001acc:	af00      	add	r7, sp, #0
 8001ace:	4603      	mov	r3, r0
 8001ad0:	80fb      	strh	r3, [r7, #6]
  /* EXTI line interrupt detected */
  if (__HAL_GPIO_EXTI_GET_IT(GPIO_Pin) != 0x00u)
 8001ad2:	4b08      	ldr	r3, [pc, #32]	; (8001af4 <HAL_GPIO_EXTI_IRQHandler+0x2c>)
 8001ad4:	695a      	ldr	r2, [r3, #20]
 8001ad6:	88fb      	ldrh	r3, [r7, #6]
 8001ad8:	4013      	ands	r3, r2
 8001ada:	2b00      	cmp	r3, #0
 8001adc:	d006      	beq.n	8001aec <HAL_GPIO_EXTI_IRQHandler+0x24>
  {
    __HAL_GPIO_EXTI_CLEAR_IT(GPIO_Pin);
 8001ade:	4a05      	ldr	r2, [pc, #20]	; (8001af4 <HAL_GPIO_EXTI_IRQHandler+0x2c>)
 8001ae0:	88fb      	ldrh	r3, [r7, #6]
 8001ae2:	6153      	str	r3, [r2, #20]
    HAL_GPIO_EXTI_Callback(GPIO_Pin);
 8001ae4:	88fb      	ldrh	r3, [r7, #6]
 8001ae6:	4618      	mov	r0, r3
 8001ae8:	f000 f806 	bl	8001af8 <HAL_GPIO_EXTI_Callback>
  }
}
 8001aec:	bf00      	nop
 8001aee:	3708      	adds	r7, #8
 8001af0:	46bd      	mov	sp, r7
 8001af2:	bd80      	pop	{r7, pc}
 8001af4:	40010400 	.word	0x40010400

08001af8 <HAL_GPIO_EXTI_Callback>:
  * @brief  EXTI line detection callbacks.
  * @param  GPIO_Pin: Specifies the pins connected EXTI line
  * @retval None
  */
__weak void HAL_GPIO_EXTI_Callback(uint16_t GPIO_Pin)
{
 8001af8:	b480      	push	{r7}
 8001afa:	b083      	sub	sp, #12
 8001afc:	af00      	add	r7, sp, #0
 8001afe:	4603      	mov	r3, r0
 8001b00:	80fb      	strh	r3, [r7, #6]
  /* Prevent unused argument(s) compilation warning */
  UNUSED(GPIO_Pin);
  /* NOTE: This function Should not be modified, when the callback is needed,
           the HAL_GPIO_EXTI_Callback could be implemented in the user file
   */
}
 8001b02:	bf00      	nop
 8001b04:	370c      	adds	r7, #12
 8001b06:	46bd      	mov	sp, r7
 8001b08:	bc80      	pop	{r7}
 8001b0a:	4770      	bx	lr

08001b0c <HAL_RCC_OscConfig>:
  *         supported by this macro. User should request a transition to HSE Off
  *         first and then HSE On or HSE Bypass.
  * @retval HAL status
  */
HAL_StatusTypeDef HAL_RCC_OscConfig(RCC_OscInitTypeDef  *RCC_OscInitStruct)
{
 8001b0c:	b580      	push	{r7, lr}
 8001b0e:	b086      	sub	sp, #24
 8001b10:	af00      	add	r7, sp, #0
 8001b12:	6078      	str	r0, [r7, #4]
  uint32_t tickstart;
  uint32_t pll_config;

  /* Check Null pointer */
  if (RCC_OscInitStruct == NULL)
 8001b14:	687b      	ldr	r3, [r7, #4]
 8001b16:	2b00      	cmp	r3, #0
 8001b18:	d101      	bne.n	8001b1e <HAL_RCC_OscConfig+0x12>
  {
    return HAL_ERROR;
 8001b1a:	2301      	movs	r3, #1
 8001b1c:	e272      	b.n	8002004 <HAL_RCC_OscConfig+0x4f8>

  /* Check the parameters */
  assert_param(IS_RCC_OSCILLATORTYPE(RCC_OscInitStruct->OscillatorType));

  /*------------------------------- HSE Configuration ------------------------*/
  if (((RCC_OscInitStruct->OscillatorType) & RCC_OSCILLATORTYPE_HSE) == RCC_OSCILLATORTYPE_HSE)
 8001b1e:	687b      	ldr	r3, [r7, #4]
 8001b20:	681b      	ldr	r3, [r3, #0]
 8001b22:	f003 0301 	and.w	r3, r3, #1
 8001b26:	2b00      	cmp	r3, #0
 8001b28:	f000 8087 	beq.w	8001c3a <HAL_RCC_OscConfig+0x12e>
  {
    /* Check the parameters */
    assert_param(IS_RCC_HSE(RCC_OscInitStruct->HSEState));

    /* When the HSE is used as system clock or clock source for PLL in these cases it is not allowed to be disabled */
    if ((__HAL_RCC_GET_SYSCLK_SOURCE() == RCC_SYSCLKSOURCE_STATUS_HSE)
 8001b2c:	4b92      	ldr	r3, [pc, #584]	; (8001d78 <HAL_RCC_OscConfig+0x26c>)
 8001b2e:	685b      	ldr	r3, [r3, #4]
 8001b30:	f003 030c 	and.w	r3, r3, #12
 8001b34:	2b04      	cmp	r3, #4
 8001b36:	d00c      	beq.n	8001b52 <HAL_RCC_OscConfig+0x46>
        || ((__HAL_RCC_GET_SYSCLK_SOURCE() == RCC_SYSCLKSOURCE_STATUS_PLLCLK) && (__HAL_RCC_GET_PLL_OSCSOURCE() == RCC_PLLSOURCE_HSE)))
 8001b38:	4b8f      	ldr	r3, [pc, #572]	; (8001d78 <HAL_RCC_OscConfig+0x26c>)
 8001b3a:	685b      	ldr	r3, [r3, #4]
 8001b3c:	f003 030c 	and.w	r3, r3, #12
 8001b40:	2b08      	cmp	r3, #8
 8001b42:	d112      	bne.n	8001b6a <HAL_RCC_OscConfig+0x5e>
 8001b44:	4b8c      	ldr	r3, [pc, #560]	; (8001d78 <HAL_RCC_OscConfig+0x26c>)
 8001b46:	685b      	ldr	r3, [r3, #4]
 8001b48:	f403 3380 	and.w	r3, r3, #65536	; 0x10000
 8001b4c:	f5b3 3f80 	cmp.w	r3, #65536	; 0x10000
 8001b50:	d10b      	bne.n	8001b6a <HAL_RCC_OscConfig+0x5e>
    {
      if ((__HAL_RCC_GET_FLAG(RCC_FLAG_HSERDY) != RESET) && (RCC_OscInitStruct->HSEState == RCC_HSE_OFF))
 8001b52:	4b89      	ldr	r3, [pc, #548]	; (8001d78 <HAL_RCC_OscConfig+0x26c>)
 8001b54:	681b      	ldr	r3, [r3, #0]
 8001b56:	f403 3300 	and.w	r3, r3, #131072	; 0x20000
 8001b5a:	2b00      	cmp	r3, #0
 8001b5c:	d06c      	beq.n	8001c38 <HAL_RCC_OscConfig+0x12c>
 8001b5e:	687b      	ldr	r3, [r7, #4]
 8001b60:	685b      	ldr	r3, [r3, #4]
 8001b62:	2b00      	cmp	r3, #0
 8001b64:	d168      	bne.n	8001c38 <HAL_RCC_OscConfig+0x12c>
      {
        return HAL_ERROR;
 8001b66:	2301      	movs	r3, #1
 8001b68:	e24c      	b.n	8002004 <HAL_RCC_OscConfig+0x4f8>
      }
    }
    else
    {
      /* Set the new HSE configuration ---------------------------------------*/
      __HAL_RCC_HSE_CONFIG(RCC_OscInitStruct->HSEState);
 8001b6a:	687b      	ldr	r3, [r7, #4]
 8001b6c:	685b      	ldr	r3, [r3, #4]
 8001b6e:	f5b3 3f80 	cmp.w	r3, #65536	; 0x10000
 8001b72:	d106      	bne.n	8001b82 <HAL_RCC_OscConfig+0x76>
 8001b74:	4b80      	ldr	r3, [pc, #512]	; (8001d78 <HAL_RCC_OscConfig+0x26c>)
 8001b76:	681b      	ldr	r3, [r3, #0]
 8001b78:	4a7f      	ldr	r2, [pc, #508]	; (8001d78 <HAL_RCC_OscConfig+0x26c>)
 8001b7a:	f443 3380 	orr.w	r3, r3, #65536	; 0x10000
 8001b7e:	6013      	str	r3, [r2, #0]
 8001b80:	e02e      	b.n	8001be0 <HAL_RCC_OscConfig+0xd4>
 8001b82:	687b      	ldr	r3, [r7, #4]
 8001b84:	685b      	ldr	r3, [r3, #4]
 8001b86:	2b00      	cmp	r3, #0
 8001b88:	d10c      	bne.n	8001ba4 <HAL_RCC_OscConfig+0x98>
 8001b8a:	4b7b      	ldr	r3, [pc, #492]	; (8001d78 <HAL_RCC_OscConfig+0x26c>)
 8001b8c:	681b      	ldr	r3, [r3, #0]
 8001b8e:	4a7a      	ldr	r2, [pc, #488]	; (8001d78 <HAL_RCC_OscConfig+0x26c>)
 8001b90:	f423 3380 	bic.w	r3, r3, #65536	; 0x10000
 8001b94:	6013      	str	r3, [r2, #0]
 8001b96:	4b78      	ldr	r3, [pc, #480]	; (8001d78 <HAL_RCC_OscConfig+0x26c>)
 8001b98:	681b      	ldr	r3, [r3, #0]
 8001b9a:	4a77      	ldr	r2, [pc, #476]	; (8001d78 <HAL_RCC_OscConfig+0x26c>)
 8001b9c:	f423 2380 	bic.w	r3, r3, #262144	; 0x40000
 8001ba0:	6013      	str	r3, [r2, #0]
 8001ba2:	e01d      	b.n	8001be0 <HAL_RCC_OscConfig+0xd4>
 8001ba4:	687b      	ldr	r3, [r7, #4]
 8001ba6:	685b      	ldr	r3, [r3, #4]
 8001ba8:	f5b3 2fa0 	cmp.w	r3, #327680	; 0x50000
 8001bac:	d10c      	bne.n	8001bc8 <HAL_RCC_OscConfig+0xbc>
 8001bae:	4b72      	ldr	r3, [pc, #456]	; (8001d78 <HAL_RCC_OscConfig+0x26c>)
 8001bb0:	681b      	ldr	r3, [r3, #0]
 8001bb2:	4a71      	ldr	r2, [pc, #452]	; (8001d78 <HAL_RCC_OscConfig+0x26c>)
 8001bb4:	f443 2380 	orr.w	r3, r3, #262144	; 0x40000
 8001bb8:	6013      	str	r3, [r2, #0]
 8001bba:	4b6f      	ldr	r3, [pc, #444]	; (8001d78 <HAL_RCC_OscConfig+0x26c>)
 8001bbc:	681b      	ldr	r3, [r3, #0]
 8001bbe:	4a6e      	ldr	r2, [pc, #440]	; (8001d78 <HAL_RCC_OscConfig+0x26c>)
 8001bc0:	f443 3380 	orr.w	r3, r3, #65536	; 0x10000
 8001bc4:	6013      	str	r3, [r2, #0]
 8001bc6:	e00b      	b.n	8001be0 <HAL_RCC_OscConfig+0xd4>
 8001bc8:	4b6b      	ldr	r3, [pc, #428]	; (8001d78 <HAL_RCC_OscConfig+0x26c>)
 8001bca:	681b      	ldr	r3, [r3, #0]
 8001bcc:	4a6a      	ldr	r2, [pc, #424]	; (8001d78 <HAL_RCC_OscConfig+0x26c>)
 8001bce:	f423 3380 	bic.w	r3, r3, #65536	; 0x10000
 8001bd2:	6013      	str	r3, [r2, #0]
 8001bd4:	4b68      	ldr	r3, [pc, #416]	; (8001d78 <HAL_RCC_OscConfig+0x26c>)
 8001bd6:	681b      	ldr	r3, [r3, #0]
 8001bd8:	4a67      	ldr	r2, [pc, #412]	; (8001d78 <HAL_RCC_OscConfig+0x26c>)
 8001bda:	f423 2380 	bic.w	r3, r3, #262144	; 0x40000
 8001bde:	6013      	str	r3, [r2, #0]


      /* Check the HSE State */
      if (RCC_OscInitStruct->HSEState != RCC_HSE_OFF)
 8001be0:	687b      	ldr	r3, [r7, #4]
 8001be2:	685b      	ldr	r3, [r3, #4]
 8001be4:	2b00      	cmp	r3, #0
 8001be6:	d013      	beq.n	8001c10 <HAL_RCC_OscConfig+0x104>
      {
        /* Get Start Tick */
        tickstart = HAL_GetTick();
 8001be8:	f7fe fedc 	bl	80009a4 <HAL_GetTick>
 8001bec:	6138      	str	r0, [r7, #16]

        /* Wait till HSE is ready */
        while (__HAL_RCC_GET_FLAG(RCC_FLAG_HSERDY) == RESET)
 8001bee:	e008      	b.n	8001c02 <HAL_RCC_OscConfig+0xf6>
        {
          if ((HAL_GetTick() - tickstart) > HSE_TIMEOUT_VALUE)
 8001bf0:	f7fe fed8 	bl	80009a4 <HAL_GetTick>
 8001bf4:	4602      	mov	r2, r0
 8001bf6:	693b      	ldr	r3, [r7, #16]
 8001bf8:	1ad3      	subs	r3, r2, r3
 8001bfa:	2b64      	cmp	r3, #100	; 0x64
 8001bfc:	d901      	bls.n	8001c02 <HAL_RCC_OscConfig+0xf6>
          {
            return HAL_TIMEOUT;
 8001bfe:	2303      	movs	r3, #3
 8001c00:	e200      	b.n	8002004 <HAL_RCC_OscConfig+0x4f8>
        while (__HAL_RCC_GET_FLAG(RCC_FLAG_HSERDY) == RESET)
 8001c02:	4b5d      	ldr	r3, [pc, #372]	; (8001d78 <HAL_RCC_OscConfig+0x26c>)
 8001c04:	681b      	ldr	r3, [r3, #0]
 8001c06:	f403 3300 	and.w	r3, r3, #131072	; 0x20000
 8001c0a:	2b00      	cmp	r3, #0
 8001c0c:	d0f0      	beq.n	8001bf0 <HAL_RCC_OscConfig+0xe4>
 8001c0e:	e014      	b.n	8001c3a <HAL_RCC_OscConfig+0x12e>
        }
      }
      else
      {
        /* Get Start Tick */
        tickstart = HAL_GetTick();
 8001c10:	f7fe fec8 	bl	80009a4 <HAL_GetTick>
 8001c14:	6138      	str	r0, [r7, #16]

        /* Wait till HSE is disabled */
        while (__HAL_RCC_GET_FLAG(RCC_FLAG_HSERDY) != RESET)
 8001c16:	e008      	b.n	8001c2a <HAL_RCC_OscConfig+0x11e>
        {
          if ((HAL_GetTick() - tickstart) > HSE_TIMEOUT_VALUE)
 8001c18:	f7fe fec4 	bl	80009a4 <HAL_GetTick>
 8001c1c:	4602      	mov	r2, r0
 8001c1e:	693b      	ldr	r3, [r7, #16]
 8001c20:	1ad3      	subs	r3, r2, r3
 8001c22:	2b64      	cmp	r3, #100	; 0x64
 8001c24:	d901      	bls.n	8001c2a <HAL_RCC_OscConfig+0x11e>
          {
            return HAL_TIMEOUT;
 8001c26:	2303      	movs	r3, #3
 8001c28:	e1ec      	b.n	8002004 <HAL_RCC_OscConfig+0x4f8>
        while (__HAL_RCC_GET_FLAG(RCC_FLAG_HSERDY) != RESET)
 8001c2a:	4b53      	ldr	r3, [pc, #332]	; (8001d78 <HAL_RCC_OscConfig+0x26c>)
 8001c2c:	681b      	ldr	r3, [r3, #0]
 8001c2e:	f403 3300 	and.w	r3, r3, #131072	; 0x20000
 8001c32:	2b00      	cmp	r3, #0
 8001c34:	d1f0      	bne.n	8001c18 <HAL_RCC_OscConfig+0x10c>
 8001c36:	e000      	b.n	8001c3a <HAL_RCC_OscConfig+0x12e>
      if ((__HAL_RCC_GET_FLAG(RCC_FLAG_HSERDY) != RESET) && (RCC_OscInitStruct->HSEState == RCC_HSE_OFF))
 8001c38:	bf00      	nop
        }
      }
    }
  }
  /*----------------------------- HSI Configuration --------------------------*/
  if (((RCC_OscInitStruct->OscillatorType) & RCC_OSCILLATORTYPE_HSI) == RCC_OSCILLATORTYPE_HSI)
 8001c3a:	687b      	ldr	r3, [r7, #4]
 8001c3c:	681b      	ldr	r3, [r3, #0]
 8001c3e:	f003 0302 	and.w	r3, r3, #2
 8001c42:	2b00      	cmp	r3, #0
 8001c44:	d063      	beq.n	8001d0e <HAL_RCC_OscConfig+0x202>
    /* Check the parameters */
    assert_param(IS_RCC_HSI(RCC_OscInitStruct->HSIState));
    assert_param(IS_RCC_CALIBRATION_VALUE(RCC_OscInitStruct->HSICalibrationValue));

    /* Check if HSI is used as system clock or as PLL source when PLL is selected as system clock */
    if ((__HAL_RCC_GET_SYSCLK_SOURCE() == RCC_SYSCLKSOURCE_STATUS_HSI)
 8001c46:	4b4c      	ldr	r3, [pc, #304]	; (8001d78 <HAL_RCC_OscConfig+0x26c>)
 8001c48:	685b      	ldr	r3, [r3, #4]
 8001c4a:	f003 030c 	and.w	r3, r3, #12
 8001c4e:	2b00      	cmp	r3, #0
 8001c50:	d00b      	beq.n	8001c6a <HAL_RCC_OscConfig+0x15e>
        || ((__HAL_RCC_GET_SYSCLK_SOURCE() == RCC_SYSCLKSOURCE_STATUS_PLLCLK) && (__HAL_RCC_GET_PLL_OSCSOURCE() == RCC_PLLSOURCE_HSI_DIV2)))
 8001c52:	4b49      	ldr	r3, [pc, #292]	; (8001d78 <HAL_RCC_OscConfig+0x26c>)
 8001c54:	685b      	ldr	r3, [r3, #4]
 8001c56:	f003 030c 	and.w	r3, r3, #12
 8001c5a:	2b08      	cmp	r3, #8
 8001c5c:	d11c      	bne.n	8001c98 <HAL_RCC_OscConfig+0x18c>
 8001c5e:	4b46      	ldr	r3, [pc, #280]	; (8001d78 <HAL_RCC_OscConfig+0x26c>)
 8001c60:	685b      	ldr	r3, [r3, #4]
 8001c62:	f403 3380 	and.w	r3, r3, #65536	; 0x10000
 8001c66:	2b00      	cmp	r3, #0
 8001c68:	d116      	bne.n	8001c98 <HAL_RCC_OscConfig+0x18c>
    {
      /* When HSI is used as system clock it will not disabled */
      if ((__HAL_RCC_GET_FLAG(RCC_FLAG_HSIRDY) != RESET) && (RCC_OscInitStruct->HSIState != RCC_HSI_ON))
 8001c6a:	4b43      	ldr	r3, [pc, #268]	; (8001d78 <HAL_RCC_OscConfig+0x26c>)
 8001c6c:	681b      	ldr	r3, [r3, #0]
 8001c6e:	f003 0302 	and.w	r3, r3, #2
 8001c72:	2b00      	cmp	r3, #0
 8001c74:	d005      	beq.n	8001c82 <HAL_RCC_OscConfig+0x176>
 8001c76:	687b      	ldr	r3, [r7, #4]
 8001c78:	691b      	ldr	r3, [r3, #16]
 8001c7a:	2b01      	cmp	r3, #1
 8001c7c:	d001      	beq.n	8001c82 <HAL_RCC_OscConfig+0x176>
      {
        return HAL_ERROR;
 8001c7e:	2301      	movs	r3, #1
 8001c80:	e1c0      	b.n	8002004 <HAL_RCC_OscConfig+0x4f8>
      }
      /* Otherwise, just the calibration is allowed */
      else
      {
        /* Adjusts the Internal High Speed oscillator (HSI) calibration value.*/
        __HAL_RCC_HSI_CALIBRATIONVALUE_ADJUST(RCC_OscInitStruct->HSICalibrationValue);
 8001c82:	4b3d      	ldr	r3, [pc, #244]	; (8001d78 <HAL_RCC_OscConfig+0x26c>)
 8001c84:	681b      	ldr	r3, [r3, #0]
 8001c86:	f023 02f8 	bic.w	r2, r3, #248	; 0xf8
 8001c8a:	687b      	ldr	r3, [r7, #4]
 8001c8c:	695b      	ldr	r3, [r3, #20]
 8001c8e:	00db      	lsls	r3, r3, #3
 8001c90:	4939      	ldr	r1, [pc, #228]	; (8001d78 <HAL_RCC_OscConfig+0x26c>)
 8001c92:	4313      	orrs	r3, r2
 8001c94:	600b      	str	r3, [r1, #0]
      if ((__HAL_RCC_GET_FLAG(RCC_FLAG_HSIRDY) != RESET) && (RCC_OscInitStruct->HSIState != RCC_HSI_ON))
 8001c96:	e03a      	b.n	8001d0e <HAL_RCC_OscConfig+0x202>
      }
    }
    else
    {
      /* Check the HSI State */
      if (RCC_OscInitStruct->HSIState != RCC_HSI_OFF)
 8001c98:	687b      	ldr	r3, [r7, #4]
 8001c9a:	691b      	ldr	r3, [r3, #16]
 8001c9c:	2b00      	cmp	r3, #0
 8001c9e:	d020      	beq.n	8001ce2 <HAL_RCC_OscConfig+0x1d6>
      {
        /* Enable the Internal High Speed oscillator (HSI). */
        __HAL_RCC_HSI_ENABLE();
 8001ca0:	4b36      	ldr	r3, [pc, #216]	; (8001d7c <HAL_RCC_OscConfig+0x270>)
 8001ca2:	2201      	movs	r2, #1
 8001ca4:	601a      	str	r2, [r3, #0]

        /* Get Start Tick */
        tickstart = HAL_GetTick();
 8001ca6:	f7fe fe7d 	bl	80009a4 <HAL_GetTick>
 8001caa:	6138      	str	r0, [r7, #16]

        /* Wait till HSI is ready */
        while (__HAL_RCC_GET_FLAG(RCC_FLAG_HSIRDY) == RESET)
 8001cac:	e008      	b.n	8001cc0 <HAL_RCC_OscConfig+0x1b4>
        {
          if ((HAL_GetTick() - tickstart) > HSI_TIMEOUT_VALUE)
 8001cae:	f7fe fe79 	bl	80009a4 <HAL_GetTick>
 8001cb2:	4602      	mov	r2, r0
 8001cb4:	693b      	ldr	r3, [r7, #16]
 8001cb6:	1ad3      	subs	r3, r2, r3
 8001cb8:	2b02      	cmp	r3, #2
 8001cba:	d901      	bls.n	8001cc0 <HAL_RCC_OscConfig+0x1b4>
          {
            return HAL_TIMEOUT;
 8001cbc:	2303      	movs	r3, #3
 8001cbe:	e1a1      	b.n	8002004 <HAL_RCC_OscConfig+0x4f8>
        while (__HAL_RCC_GET_FLAG(RCC_FLAG_HSIRDY) == RESET)
 8001cc0:	4b2d      	ldr	r3, [pc, #180]	; (8001d78 <HAL_RCC_OscConfig+0x26c>)
 8001cc2:	681b      	ldr	r3, [r3, #0]
 8001cc4:	f003 0302 	and.w	r3, r3, #2
 8001cc8:	2b00      	cmp	r3, #0
 8001cca:	d0f0      	beq.n	8001cae <HAL_RCC_OscConfig+0x1a2>
          }
        }

        /* Adjusts the Internal High Speed oscillator (HSI) calibration value.*/
        __HAL_RCC_HSI_CALIBRATIONVALUE_ADJUST(RCC_OscInitStruct->HSICalibrationValue);
 8001ccc:	4b2a      	ldr	r3, [pc, #168]	; (8001d78 <HAL_RCC_OscConfig+0x26c>)
 8001cce:	681b      	ldr	r3, [r3, #0]
 8001cd0:	f023 02f8 	bic.w	r2, r3, #248	; 0xf8
 8001cd4:	687b      	ldr	r3, [r7, #4]
 8001cd6:	695b      	ldr	r3, [r3, #20]
 8001cd8:	00db      	lsls	r3, r3, #3
 8001cda:	4927      	ldr	r1, [pc, #156]	; (8001d78 <HAL_RCC_OscConfig+0x26c>)
 8001cdc:	4313      	orrs	r3, r2
 8001cde:	600b      	str	r3, [r1, #0]
 8001ce0:	e015      	b.n	8001d0e <HAL_RCC_OscConfig+0x202>
      }
      else
      {
        /* Disable the Internal High Speed oscillator (HSI). */
        __HAL_RCC_HSI_DISABLE();
 8001ce2:	4b26      	ldr	r3, [pc, #152]	; (8001d7c <HAL_RCC_OscConfig+0x270>)
 8001ce4:	2200      	movs	r2, #0
 8001ce6:	601a      	str	r2, [r3, #0]

        /* Get Start Tick */
        tickstart = HAL_GetTick();
 8001ce8:	f7fe fe5c 	bl	80009a4 <HAL_GetTick>
 8001cec:	6138      	str	r0, [r7, #16]

        /* Wait till HSI is disabled */
        while (__HAL_RCC_GET_FLAG(RCC_FLAG_HSIRDY) != RESET)
 8001cee:	e008      	b.n	8001d02 <HAL_RCC_OscConfig+0x1f6>
        {
          if ((HAL_GetTick() - tickstart) > HSI_TIMEOUT_VALUE)
 8001cf0:	f7fe fe58 	bl	80009a4 <HAL_GetTick>
 8001cf4:	4602      	mov	r2, r0
 8001cf6:	693b      	ldr	r3, [r7, #16]
 8001cf8:	1ad3      	subs	r3, r2, r3
 8001cfa:	2b02      	cmp	r3, #2
 8001cfc:	d901      	bls.n	8001d02 <HAL_RCC_OscConfig+0x1f6>
          {
            return HAL_TIMEOUT;
 8001cfe:	2303      	movs	r3, #3
 8001d00:	e180      	b.n	8002004 <HAL_RCC_OscConfig+0x4f8>
        while (__HAL_RCC_GET_FLAG(RCC_FLAG_HSIRDY) != RESET)
 8001d02:	4b1d      	ldr	r3, [pc, #116]	; (8001d78 <HAL_RCC_OscConfig+0x26c>)
 8001d04:	681b      	ldr	r3, [r3, #0]
 8001d06:	f003 0302 	and.w	r3, r3, #2
 8001d0a:	2b00      	cmp	r3, #0
 8001d0c:	d1f0      	bne.n	8001cf0 <HAL_RCC_OscConfig+0x1e4>
        }
      }
    }
  }
  /*------------------------------ LSI Configuration -------------------------*/
  if (((RCC_OscInitStruct->OscillatorType) & RCC_OSCILLATORTYPE_LSI) == RCC_OSCILLATORTYPE_LSI)
 8001d0e:	687b      	ldr	r3, [r7, #4]
 8001d10:	681b      	ldr	r3, [r3, #0]
 8001d12:	f003 0308 	and.w	r3, r3, #8
 8001d16:	2b00      	cmp	r3, #0
 8001d18:	d03a      	beq.n	8001d90 <HAL_RCC_OscConfig+0x284>
  {
    /* Check the parameters */
    assert_param(IS_RCC_LSI(RCC_OscInitStruct->LSIState));

    /* Check the LSI State */
    if (RCC_OscInitStruct->LSIState != RCC_LSI_OFF)
 8001d1a:	687b      	ldr	r3, [r7, #4]
 8001d1c:	699b      	ldr	r3, [r3, #24]
 8001d1e:	2b00      	cmp	r3, #0
 8001d20:	d019      	beq.n	8001d56 <HAL_RCC_OscConfig+0x24a>
    {
      /* Enable the Internal Low Speed oscillator (LSI). */
      __HAL_RCC_LSI_ENABLE();
 8001d22:	4b17      	ldr	r3, [pc, #92]	; (8001d80 <HAL_RCC_OscConfig+0x274>)
 8001d24:	2201      	movs	r2, #1
 8001d26:	601a      	str	r2, [r3, #0]

      /* Get Start Tick */
      tickstart = HAL_GetTick();
 8001d28:	f7fe fe3c 	bl	80009a4 <HAL_GetTick>
 8001d2c:	6138      	str	r0, [r7, #16]

      /* Wait till LSI is ready */
      while (__HAL_RCC_GET_FLAG(RCC_FLAG_LSIRDY) == RESET)
 8001d2e:	e008      	b.n	8001d42 <HAL_RCC_OscConfig+0x236>
      {
        if ((HAL_GetTick() - tickstart) > LSI_TIMEOUT_VALUE)
 8001d30:	f7fe fe38 	bl	80009a4 <HAL_GetTick>
 8001d34:	4602      	mov	r2, r0
 8001d36:	693b      	ldr	r3, [r7, #16]
 8001d38:	1ad3      	subs	r3, r2, r3
 8001d3a:	2b02      	cmp	r3, #2
 8001d3c:	d901      	bls.n	8001d42 <HAL_RCC_OscConfig+0x236>
        {
          return HAL_TIMEOUT;
 8001d3e:	2303      	movs	r3, #3
 8001d40:	e160      	b.n	8002004 <HAL_RCC_OscConfig+0x4f8>
      while (__HAL_RCC_GET_FLAG(RCC_FLAG_LSIRDY) == RESET)
 8001d42:	4b0d      	ldr	r3, [pc, #52]	; (8001d78 <HAL_RCC_OscConfig+0x26c>)
 8001d44:	6a5b      	ldr	r3, [r3, #36]	; 0x24
 8001d46:	f003 0302 	and.w	r3, r3, #2
 8001d4a:	2b00      	cmp	r3, #0
 8001d4c:	d0f0      	beq.n	8001d30 <HAL_RCC_OscConfig+0x224>
        }
      }
      /*  To have a fully stabilized clock in the specified range, a software delay of 1ms
          should be added.*/
      RCC_Delay(1);
 8001d4e:	2001      	movs	r0, #1
 8001d50:	f000 fad8 	bl	8002304 <RCC_Delay>
 8001d54:	e01c      	b.n	8001d90 <HAL_RCC_OscConfig+0x284>
    }
    else
    {
      /* Disable the Internal Low Speed oscillator (LSI). */
      __HAL_RCC_LSI_DISABLE();
 8001d56:	4b0a      	ldr	r3, [pc, #40]	; (8001d80 <HAL_RCC_OscConfig+0x274>)
 8001d58:	2200      	movs	r2, #0
 8001d5a:	601a      	str	r2, [r3, #0]

      /* Get Start Tick */
      tickstart = HAL_GetTick();
 8001d5c:	f7fe fe22 	bl	80009a4 <HAL_GetTick>
 8001d60:	6138      	str	r0, [r7, #16]

      /* Wait till LSI is disabled */
      while (__HAL_RCC_GET_FLAG(RCC_FLAG_LSIRDY) != RESET)
 8001d62:	e00f      	b.n	8001d84 <HAL_RCC_OscConfig+0x278>
      {
        if ((HAL_GetTick() - tickstart) > LSI_TIMEOUT_VALUE)
 8001d64:	f7fe fe1e 	bl	80009a4 <HAL_GetTick>
 8001d68:	4602      	mov	r2, r0
 8001d6a:	693b      	ldr	r3, [r7, #16]
 8001d6c:	1ad3      	subs	r3, r2, r3
 8001d6e:	2b02      	cmp	r3, #2
 8001d70:	d908      	bls.n	8001d84 <HAL_RCC_OscConfig+0x278>
        {
          return HAL_TIMEOUT;
 8001d72:	2303      	movs	r3, #3
 8001d74:	e146      	b.n	8002004 <HAL_RCC_OscConfig+0x4f8>
 8001d76:	bf00      	nop
 8001d78:	40021000 	.word	0x40021000
 8001d7c:	42420000 	.word	0x42420000
 8001d80:	42420480 	.word	0x42420480
      while (__HAL_RCC_GET_FLAG(RCC_FLAG_LSIRDY) != RESET)
 8001d84:	4b92      	ldr	r3, [pc, #584]	; (8001fd0 <HAL_RCC_OscConfig+0x4c4>)
 8001d86:	6a5b      	ldr	r3, [r3, #36]	; 0x24
 8001d88:	f003 0302 	and.w	r3, r3, #2
 8001d8c:	2b00      	cmp	r3, #0
 8001d8e:	d1e9      	bne.n	8001d64 <HAL_RCC_OscConfig+0x258>
        }
      }
    }
  }
  /*------------------------------ LSE Configuration -------------------------*/
  if (((RCC_OscInitStruct->OscillatorType) & RCC_OSCILLATORTYPE_LSE) == RCC_OSCILLATORTYPE_LSE)
 8001d90:	687b      	ldr	r3, [r7, #4]
 8001d92:	681b      	ldr	r3, [r3, #0]
 8001d94:	f003 0304 	and.w	r3, r3, #4
 8001d98:	2b00      	cmp	r3, #0
 8001d9a:	f000 80a6 	beq.w	8001eea <HAL_RCC_OscConfig+0x3de>
  {
    FlagStatus       pwrclkchanged = RESET;
 8001d9e:	2300      	movs	r3, #0
 8001da0:	75fb      	strb	r3, [r7, #23]
    /* Check the parameters */
    assert_param(IS_RCC_LSE(RCC_OscInitStruct->LSEState));

    /* Update LSE configuration in Backup Domain control register    */
    /* Requires to enable write access to Backup Domain of necessary */
    if (__HAL_RCC_PWR_IS_CLK_DISABLED())
 8001da2:	4b8b      	ldr	r3, [pc, #556]	; (8001fd0 <HAL_RCC_OscConfig+0x4c4>)
 8001da4:	69db      	ldr	r3, [r3, #28]
 8001da6:	f003 5380 	and.w	r3, r3, #268435456	; 0x10000000
 8001daa:	2b00      	cmp	r3, #0
 8001dac:	d10d      	bne.n	8001dca <HAL_RCC_OscConfig+0x2be>
    {
      __HAL_RCC_PWR_CLK_ENABLE();
 8001dae:	4b88      	ldr	r3, [pc, #544]	; (8001fd0 <HAL_RCC_OscConfig+0x4c4>)
 8001db0:	69db      	ldr	r3, [r3, #28]
 8001db2:	4a87      	ldr	r2, [pc, #540]	; (8001fd0 <HAL_RCC_OscConfig+0x4c4>)
 8001db4:	f043 5380 	orr.w	r3, r3, #268435456	; 0x10000000
 8001db8:	61d3      	str	r3, [r2, #28]
 8001dba:	4b85      	ldr	r3, [pc, #532]	; (8001fd0 <HAL_RCC_OscConfig+0x4c4>)
 8001dbc:	69db      	ldr	r3, [r3, #28]
 8001dbe:	f003 5380 	and.w	r3, r3, #268435456	; 0x10000000
 8001dc2:	60bb      	str	r3, [r7, #8]
 8001dc4:	68bb      	ldr	r3, [r7, #8]
      pwrclkchanged = SET;
 8001dc6:	2301      	movs	r3, #1
 8001dc8:	75fb      	strb	r3, [r7, #23]
    }

    if (HAL_IS_BIT_CLR(PWR->CR, PWR_CR_DBP))
 8001dca:	4b82      	ldr	r3, [pc, #520]	; (8001fd4 <HAL_RCC_OscConfig+0x4c8>)
 8001dcc:	681b      	ldr	r3, [r3, #0]
 8001dce:	f403 7380 	and.w	r3, r3, #256	; 0x100
 8001dd2:	2b00      	cmp	r3, #0
 8001dd4:	d118      	bne.n	8001e08 <HAL_RCC_OscConfig+0x2fc>
    {
      /* Enable write access to Backup domain */
      SET_BIT(PWR->CR, PWR_CR_DBP);
 8001dd6:	4b7f      	ldr	r3, [pc, #508]	; (8001fd4 <HAL_RCC_OscConfig+0x4c8>)
 8001dd8:	681b      	ldr	r3, [r3, #0]
 8001dda:	4a7e      	ldr	r2, [pc, #504]	; (8001fd4 <HAL_RCC_OscConfig+0x4c8>)
 8001ddc:	f443 7380 	orr.w	r3, r3, #256	; 0x100
 8001de0:	6013      	str	r3, [r2, #0]

      /* Wait for Backup domain Write protection disable */
      tickstart = HAL_GetTick();
 8001de2:	f7fe fddf 	bl	80009a4 <HAL_GetTick>
 8001de6:	6138      	str	r0, [r7, #16]

      while (HAL_IS_BIT_CLR(PWR->CR, PWR_CR_DBP))
 8001de8:	e008      	b.n	8001dfc <HAL_RCC_OscConfig+0x2f0>
      {
        if ((HAL_GetTick() - tickstart) > RCC_DBP_TIMEOUT_VALUE)
 8001dea:	f7fe fddb 	bl	80009a4 <HAL_GetTick>
 8001dee:	4602      	mov	r2, r0
 8001df0:	693b      	ldr	r3, [r7, #16]
 8001df2:	1ad3      	subs	r3, r2, r3
 8001df4:	2b64      	cmp	r3, #100	; 0x64
 8001df6:	d901      	bls.n	8001dfc <HAL_RCC_OscConfig+0x2f0>
        {
          return HAL_TIMEOUT;
 8001df8:	2303      	movs	r3, #3
 8001dfa:	e103      	b.n	8002004 <HAL_RCC_OscConfig+0x4f8>
      while (HAL_IS_BIT_CLR(PWR->CR, PWR_CR_DBP))
 8001dfc:	4b75      	ldr	r3, [pc, #468]	; (8001fd4 <HAL_RCC_OscConfig+0x4c8>)
 8001dfe:	681b      	ldr	r3, [r3, #0]
 8001e00:	f403 7380 	and.w	r3, r3, #256	; 0x100
 8001e04:	2b00      	cmp	r3, #0
 8001e06:	d0f0      	beq.n	8001dea <HAL_RCC_OscConfig+0x2de>
        }
      }
    }

    /* Set the new LSE configuration -----------------------------------------*/
    __HAL_RCC_LSE_CONFIG(RCC_OscInitStruct->LSEState);
 8001e08:	687b      	ldr	r3, [r7, #4]
 8001e0a:	68db      	ldr	r3, [r3, #12]
 8001e0c:	2b01      	cmp	r3, #1
 8001e0e:	d106      	bne.n	8001e1e <HAL_RCC_OscConfig+0x312>
 8001e10:	4b6f      	ldr	r3, [pc, #444]	; (8001fd0 <HAL_RCC_OscConfig+0x4c4>)
 8001e12:	6a1b      	ldr	r3, [r3, #32]
 8001e14:	4a6e      	ldr	r2, [pc, #440]	; (8001fd0 <HAL_RCC_OscConfig+0x4c4>)
 8001e16:	f043 0301 	orr.w	r3, r3, #1
 8001e1a:	6213      	str	r3, [r2, #32]
 8001e1c:	e02d      	b.n	8001e7a <HAL_RCC_OscConfig+0x36e>
 8001e1e:	687b      	ldr	r3, [r7, #4]
 8001e20:	68db      	ldr	r3, [r3, #12]
 8001e22:	2b00      	cmp	r3, #0
 8001e24:	d10c      	bne.n	8001e40 <HAL_RCC_OscConfig+0x334>
 8001e26:	4b6a      	ldr	r3, [pc, #424]	; (8001fd0 <HAL_RCC_OscConfig+0x4c4>)
 8001e28:	6a1b      	ldr	r3, [r3, #32]
 8001e2a:	4a69      	ldr	r2, [pc, #420]	; (8001fd0 <HAL_RCC_OscConfig+0x4c4>)
 8001e2c:	f023 0301 	bic.w	r3, r3, #1
 8001e30:	6213      	str	r3, [r2, #32]
 8001e32:	4b67      	ldr	r3, [pc, #412]	; (8001fd0 <HAL_RCC_OscConfig+0x4c4>)
 8001e34:	6a1b      	ldr	r3, [r3, #32]
 8001e36:	4a66      	ldr	r2, [pc, #408]	; (8001fd0 <HAL_RCC_OscConfig+0x4c4>)
 8001e38:	f023 0304 	bic.w	r3, r3, #4
 8001e3c:	6213      	str	r3, [r2, #32]
 8001e3e:	e01c      	b.n	8001e7a <HAL_RCC_OscConfig+0x36e>
 8001e40:	687b      	ldr	r3, [r7, #4]
 8001e42:	68db      	ldr	r3, [r3, #12]
 8001e44:	2b05      	cmp	r3, #5
 8001e46:	d10c      	bne.n	8001e62 <HAL_RCC_OscConfig+0x356>
 8001e48:	4b61      	ldr	r3, [pc, #388]	; (8001fd0 <HAL_RCC_OscConfig+0x4c4>)
 8001e4a:	6a1b      	ldr	r3, [r3, #32]
 8001e4c:	4a60      	ldr	r2, [pc, #384]	; (8001fd0 <HAL_RCC_OscConfig+0x4c4>)
 8001e4e:	f043 0304 	orr.w	r3, r3, #4
 8001e52:	6213      	str	r3, [r2, #32]
 8001e54:	4b5e      	ldr	r3, [pc, #376]	; (8001fd0 <HAL_RCC_OscConfig+0x4c4>)
 8001e56:	6a1b      	ldr	r3, [r3, #32]
 8001e58:	4a5d      	ldr	r2, [pc, #372]	; (8001fd0 <HAL_RCC_OscConfig+0x4c4>)
 8001e5a:	f043 0301 	orr.w	r3, r3, #1
 8001e5e:	6213      	str	r3, [r2, #32]
 8001e60:	e00b      	b.n	8001e7a <HAL_RCC_OscConfig+0x36e>
 8001e62:	4b5b      	ldr	r3, [pc, #364]	; (8001fd0 <HAL_RCC_OscConfig+0x4c4>)
 8001e64:	6a1b      	ldr	r3, [r3, #32]
 8001e66:	4a5a      	ldr	r2, [pc, #360]	; (8001fd0 <HAL_RCC_OscConfig+0x4c4>)
 8001e68:	f023 0301 	bic.w	r3, r3, #1
 8001e6c:	6213      	str	r3, [r2, #32]
 8001e6e:	4b58      	ldr	r3, [pc, #352]	; (8001fd0 <HAL_RCC_OscConfig+0x4c4>)
 8001e70:	6a1b      	ldr	r3, [r3, #32]
 8001e72:	4a57      	ldr	r2, [pc, #348]	; (8001fd0 <HAL_RCC_OscConfig+0x4c4>)
 8001e74:	f023 0304 	bic.w	r3, r3, #4
 8001e78:	6213      	str	r3, [r2, #32]
    /* Check the LSE State */
    if (RCC_OscInitStruct->LSEState != RCC_LSE_OFF)
 8001e7a:	687b      	ldr	r3, [r7, #4]
 8001e7c:	68db      	ldr	r3, [r3, #12]
 8001e7e:	2b00      	cmp	r3, #0
 8001e80:	d015      	beq.n	8001eae <HAL_RCC_OscConfig+0x3a2>
    {
      /* Get Start Tick */
      tickstart = HAL_GetTick();
 8001e82:	f7fe fd8f 	bl	80009a4 <HAL_GetTick>
 8001e86:	6138      	str	r0, [r7, #16]

      /* Wait till LSE is ready */
      while (__HAL_RCC_GET_FLAG(RCC_FLAG_LSERDY) == RESET)
 8001e88:	e00a      	b.n	8001ea0 <HAL_RCC_OscConfig+0x394>
      {
        if ((HAL_GetTick() - tickstart) > RCC_LSE_TIMEOUT_VALUE)
 8001e8a:	f7fe fd8b 	bl	80009a4 <HAL_GetTick>
 8001e8e:	4602      	mov	r2, r0
 8001e90:	693b      	ldr	r3, [r7, #16]
 8001e92:	1ad3      	subs	r3, r2, r3
 8001e94:	f241 3288 	movw	r2, #5000	; 0x1388
 8001e98:	4293      	cmp	r3, r2
 8001e9a:	d901      	bls.n	8001ea0 <HAL_RCC_OscConfig+0x394>
        {
          return HAL_TIMEOUT;
 8001e9c:	2303      	movs	r3, #3
 8001e9e:	e0b1      	b.n	8002004 <HAL_RCC_OscConfig+0x4f8>
      while (__HAL_RCC_GET_FLAG(RCC_FLAG_LSERDY) == RESET)
 8001ea0:	4b4b      	ldr	r3, [pc, #300]	; (8001fd0 <HAL_RCC_OscConfig+0x4c4>)
 8001ea2:	6a1b      	ldr	r3, [r3, #32]
 8001ea4:	f003 0302 	and.w	r3, r3, #2
 8001ea8:	2b00      	cmp	r3, #0
 8001eaa:	d0ee      	beq.n	8001e8a <HAL_RCC_OscConfig+0x37e>
 8001eac:	e014      	b.n	8001ed8 <HAL_RCC_OscConfig+0x3cc>
      }
    }
    else
    {
      /* Get Start Tick */
      tickstart = HAL_GetTick();
 8001eae:	f7fe fd79 	bl	80009a4 <HAL_GetTick>
 8001eb2:	6138      	str	r0, [r7, #16]

      /* Wait till LSE is disabled */
      while (__HAL_RCC_GET_FLAG(RCC_FLAG_LSERDY) != RESET)
 8001eb4:	e00a      	b.n	8001ecc <HAL_RCC_OscConfig+0x3c0>
      {
        if ((HAL_GetTick() - tickstart) > RCC_LSE_TIMEOUT_VALUE)
 8001eb6:	f7fe fd75 	bl	80009a4 <HAL_GetTick>
 8001eba:	4602      	mov	r2, r0
 8001ebc:	693b      	ldr	r3, [r7, #16]
 8001ebe:	1ad3      	subs	r3, r2, r3
 8001ec0:	f241 3288 	movw	r2, #5000	; 0x1388
 8001ec4:	4293      	cmp	r3, r2
 8001ec6:	d901      	bls.n	8001ecc <HAL_RCC_OscConfig+0x3c0>
        {
          return HAL_TIMEOUT;
 8001ec8:	2303      	movs	r3, #3
 8001eca:	e09b      	b.n	8002004 <HAL_RCC_OscConfig+0x4f8>
      while (__HAL_RCC_GET_FLAG(RCC_FLAG_LSERDY) != RESET)
 8001ecc:	4b40      	ldr	r3, [pc, #256]	; (8001fd0 <HAL_RCC_OscConfig+0x4c4>)
 8001ece:	6a1b      	ldr	r3, [r3, #32]
 8001ed0:	f003 0302 	and.w	r3, r3, #2
 8001ed4:	2b00      	cmp	r3, #0
 8001ed6:	d1ee      	bne.n	8001eb6 <HAL_RCC_OscConfig+0x3aa>
        }
      }
    }

    /* Require to disable power clock if necessary */
    if (pwrclkchanged == SET)
 8001ed8:	7dfb      	ldrb	r3, [r7, #23]
 8001eda:	2b01      	cmp	r3, #1
 8001edc:	d105      	bne.n	8001eea <HAL_RCC_OscConfig+0x3de>
    {
      __HAL_RCC_PWR_CLK_DISABLE();
 8001ede:	4b3c      	ldr	r3, [pc, #240]	; (8001fd0 <HAL_RCC_OscConfig+0x4c4>)
 8001ee0:	69db      	ldr	r3, [r3, #28]
 8001ee2:	4a3b      	ldr	r2, [pc, #236]	; (8001fd0 <HAL_RCC_OscConfig+0x4c4>)
 8001ee4:	f023 5380 	bic.w	r3, r3, #268435456	; 0x10000000
 8001ee8:	61d3      	str	r3, [r2, #28]

#endif /* RCC_CR_PLL2ON */
  /*-------------------------------- PLL Configuration -----------------------*/
  /* Check the parameters */
  assert_param(IS_RCC_PLL(RCC_OscInitStruct->PLL.PLLState));
  if ((RCC_OscInitStruct->PLL.PLLState) != RCC_PLL_NONE)
 8001eea:	687b      	ldr	r3, [r7, #4]
 8001eec:	69db      	ldr	r3, [r3, #28]
 8001eee:	2b00      	cmp	r3, #0
 8001ef0:	f000 8087 	beq.w	8002002 <HAL_RCC_OscConfig+0x4f6>
  {
    /* Check if the PLL is used as system clock or not */
    if (__HAL_RCC_GET_SYSCLK_SOURCE() != RCC_SYSCLKSOURCE_STATUS_PLLCLK)
 8001ef4:	4b36      	ldr	r3, [pc, #216]	; (8001fd0 <HAL_RCC_OscConfig+0x4c4>)
 8001ef6:	685b      	ldr	r3, [r3, #4]
 8001ef8:	f003 030c 	and.w	r3, r3, #12
 8001efc:	2b08      	cmp	r3, #8
 8001efe:	d061      	beq.n	8001fc4 <HAL_RCC_OscConfig+0x4b8>
    {
      if ((RCC_OscInitStruct->PLL.PLLState) == RCC_PLL_ON)
 8001f00:	687b      	ldr	r3, [r7, #4]
 8001f02:	69db      	ldr	r3, [r3, #28]
 8001f04:	2b02      	cmp	r3, #2
 8001f06:	d146      	bne.n	8001f96 <HAL_RCC_OscConfig+0x48a>
        /* Check the parameters */
        assert_param(IS_RCC_PLLSOURCE(RCC_OscInitStruct->PLL.PLLSource));
        assert_param(IS_RCC_PLL_MUL(RCC_OscInitStruct->PLL.PLLMUL));

        /* Disable the main PLL. */
        __HAL_RCC_PLL_DISABLE();
 8001f08:	4b33      	ldr	r3, [pc, #204]	; (8001fd8 <HAL_RCC_OscConfig+0x4cc>)
 8001f0a:	2200      	movs	r2, #0
 8001f0c:	601a      	str	r2, [r3, #0]

        /* Get Start Tick */
        tickstart = HAL_GetTick();
 8001f0e:	f7fe fd49 	bl	80009a4 <HAL_GetTick>
 8001f12:	6138      	str	r0, [r7, #16]

        /* Wait till PLL is disabled */
        while (__HAL_RCC_GET_FLAG(RCC_FLAG_PLLRDY)  != RESET)
 8001f14:	e008      	b.n	8001f28 <HAL_RCC_OscConfig+0x41c>
        {
          if ((HAL_GetTick() - tickstart) > PLL_TIMEOUT_VALUE)
 8001f16:	f7fe fd45 	bl	80009a4 <HAL_GetTick>
 8001f1a:	4602      	mov	r2, r0
 8001f1c:	693b      	ldr	r3, [r7, #16]
 8001f1e:	1ad3      	subs	r3, r2, r3
 8001f20:	2b02      	cmp	r3, #2
 8001f22:	d901      	bls.n	8001f28 <HAL_RCC_OscConfig+0x41c>
          {
            return HAL_TIMEOUT;
 8001f24:	2303      	movs	r3, #3
 8001f26:	e06d      	b.n	8002004 <HAL_RCC_OscConfig+0x4f8>
        while (__HAL_RCC_GET_FLAG(RCC_FLAG_PLLRDY)  != RESET)
 8001f28:	4b29      	ldr	r3, [pc, #164]	; (8001fd0 <HAL_RCC_OscConfig+0x4c4>)
 8001f2a:	681b      	ldr	r3, [r3, #0]
 8001f2c:	f003 7300 	and.w	r3, r3, #33554432	; 0x2000000
 8001f30:	2b00      	cmp	r3, #0
 8001f32:	d1f0      	bne.n	8001f16 <HAL_RCC_OscConfig+0x40a>
          }
        }

        /* Configure the HSE prediv factor --------------------------------*/
        /* It can be written only when the PLL is disabled. Not used in PLL source is different than HSE */
        if (RCC_OscInitStruct->PLL.PLLSource == RCC_PLLSOURCE_HSE)
 8001f34:	687b      	ldr	r3, [r7, #4]
 8001f36:	6a1b      	ldr	r3, [r3, #32]
 8001f38:	f5b3 3f80 	cmp.w	r3, #65536	; 0x10000
 8001f3c:	d108      	bne.n	8001f50 <HAL_RCC_OscConfig+0x444>
          /* Set PREDIV1 source */
          SET_BIT(RCC->CFGR2, RCC_OscInitStruct->Prediv1Source);
#endif /* RCC_CFGR2_PREDIV1SRC */

          /* Set PREDIV1 Value */
          __HAL_RCC_HSE_PREDIV_CONFIG(RCC_OscInitStruct->HSEPredivValue);
 8001f3e:	4b24      	ldr	r3, [pc, #144]	; (8001fd0 <HAL_RCC_OscConfig+0x4c4>)
 8001f40:	685b      	ldr	r3, [r3, #4]
 8001f42:	f423 3200 	bic.w	r2, r3, #131072	; 0x20000
 8001f46:	687b      	ldr	r3, [r7, #4]
 8001f48:	689b      	ldr	r3, [r3, #8]
 8001f4a:	4921      	ldr	r1, [pc, #132]	; (8001fd0 <HAL_RCC_OscConfig+0x4c4>)
 8001f4c:	4313      	orrs	r3, r2
 8001f4e:	604b      	str	r3, [r1, #4]
        }

        /* Configure the main PLL clock source and multiplication factors. */
        __HAL_RCC_PLL_CONFIG(RCC_OscInitStruct->PLL.PLLSource,
 8001f50:	4b1f      	ldr	r3, [pc, #124]	; (8001fd0 <HAL_RCC_OscConfig+0x4c4>)
 8001f52:	685b      	ldr	r3, [r3, #4]
 8001f54:	f423 1274 	bic.w	r2, r3, #3997696	; 0x3d0000
 8001f58:	687b      	ldr	r3, [r7, #4]
 8001f5a:	6a19      	ldr	r1, [r3, #32]
 8001f5c:	687b      	ldr	r3, [r7, #4]
 8001f5e:	6a5b      	ldr	r3, [r3, #36]	; 0x24
 8001f60:	430b      	orrs	r3, r1
 8001f62:	491b      	ldr	r1, [pc, #108]	; (8001fd0 <HAL_RCC_OscConfig+0x4c4>)
 8001f64:	4313      	orrs	r3, r2
 8001f66:	604b      	str	r3, [r1, #4]
                             RCC_OscInitStruct->PLL.PLLMUL);
        /* Enable the main PLL. */
        __HAL_RCC_PLL_ENABLE();
 8001f68:	4b1b      	ldr	r3, [pc, #108]	; (8001fd8 <HAL_RCC_OscConfig+0x4cc>)
 8001f6a:	2201      	movs	r2, #1
 8001f6c:	601a      	str	r2, [r3, #0]

        /* Get Start Tick */
        tickstart = HAL_GetTick();
 8001f6e:	f7fe fd19 	bl	80009a4 <HAL_GetTick>
 8001f72:	6138      	str	r0, [r7, #16]

        /* Wait till PLL is ready */
        while (__HAL_RCC_GET_FLAG(RCC_FLAG_PLLRDY)  == RESET)
 8001f74:	e008      	b.n	8001f88 <HAL_RCC_OscConfig+0x47c>
        {
          if ((HAL_GetTick() - tickstart) > PLL_TIMEOUT_VALUE)
 8001f76:	f7fe fd15 	bl	80009a4 <HAL_GetTick>
 8001f7a:	4602      	mov	r2, r0
 8001f7c:	693b      	ldr	r3, [r7, #16]
 8001f7e:	1ad3      	subs	r3, r2, r3
 8001f80:	2b02      	cmp	r3, #2
 8001f82:	d901      	bls.n	8001f88 <HAL_RCC_OscConfig+0x47c>
          {
            return HAL_TIMEOUT;
 8001f84:	2303      	movs	r3, #3
 8001f86:	e03d      	b.n	8002004 <HAL_RCC_OscConfig+0x4f8>
        while (__HAL_RCC_GET_FLAG(RCC_FLAG_PLLRDY)  == RESET)
 8001f88:	4b11      	ldr	r3, [pc, #68]	; (8001fd0 <HAL_RCC_OscConfig+0x4c4>)
 8001f8a:	681b      	ldr	r3, [r3, #0]
 8001f8c:	f003 7300 	and.w	r3, r3, #33554432	; 0x2000000
 8001f90:	2b00      	cmp	r3, #0
 8001f92:	d0f0      	beq.n	8001f76 <HAL_RCC_OscConfig+0x46a>
 8001f94:	e035      	b.n	8002002 <HAL_RCC_OscConfig+0x4f6>
        }
      }
      else
      {
        /* Disable the main PLL. */
        __HAL_RCC_PLL_DISABLE();
 8001f96:	4b10      	ldr	r3, [pc, #64]	; (8001fd8 <HAL_RCC_OscConfig+0x4cc>)
 8001f98:	2200      	movs	r2, #0
 8001f9a:	601a      	str	r2, [r3, #0]

        /* Get Start Tick */
        tickstart = HAL_GetTick();
 8001f9c:	f7fe fd02 	bl	80009a4 <HAL_GetTick>
 8001fa0:	6138      	str	r0, [r7, #16]

        /* Wait till PLL is disabled */
        while (__HAL_RCC_GET_FLAG(RCC_FLAG_PLLRDY)  != RESET)
 8001fa2:	e008      	b.n	8001fb6 <HAL_RCC_OscConfig+0x4aa>
        {
          if ((HAL_GetTick() - tickstart) > PLL_TIMEOUT_VALUE)
 8001fa4:	f7fe fcfe 	bl	80009a4 <HAL_GetTick>
 8001fa8:	4602      	mov	r2, r0
 8001faa:	693b      	ldr	r3, [r7, #16]
 8001fac:	1ad3      	subs	r3, r2, r3
 8001fae:	2b02      	cmp	r3, #2
 8001fb0:	d901      	bls.n	8001fb6 <HAL_RCC_OscConfig+0x4aa>
          {
            return HAL_TIMEOUT;
 8001fb2:	2303      	movs	r3, #3
 8001fb4:	e026      	b.n	8002004 <HAL_RCC_OscConfig+0x4f8>
        while (__HAL_RCC_GET_FLAG(RCC_FLAG_PLLRDY)  != RESET)
 8001fb6:	4b06      	ldr	r3, [pc, #24]	; (8001fd0 <HAL_RCC_OscConfig+0x4c4>)
 8001fb8:	681b      	ldr	r3, [r3, #0]
 8001fba:	f003 7300 	and.w	r3, r3, #33554432	; 0x2000000
 8001fbe:	2b00      	cmp	r3, #0
 8001fc0:	d1f0      	bne.n	8001fa4 <HAL_RCC_OscConfig+0x498>
 8001fc2:	e01e      	b.n	8002002 <HAL_RCC_OscConfig+0x4f6>
      }
    }
    else
    {
      /* Check if there is a request to disable the PLL used as System clock source */
      if ((RCC_OscInitStruct->PLL.PLLState) == RCC_PLL_OFF)
 8001fc4:	687b      	ldr	r3, [r7, #4]
 8001fc6:	69db      	ldr	r3, [r3, #28]
 8001fc8:	2b01      	cmp	r3, #1
 8001fca:	d107      	bne.n	8001fdc <HAL_RCC_OscConfig+0x4d0>
      {
        return HAL_ERROR;
 8001fcc:	2301      	movs	r3, #1
 8001fce:	e019      	b.n	8002004 <HAL_RCC_OscConfig+0x4f8>
 8001fd0:	40021000 	.word	0x40021000
 8001fd4:	40007000 	.word	0x40007000
 8001fd8:	42420060 	.word	0x42420060
      }
      else
      {
        /* Do not return HAL_ERROR if request repeats the current configuration */
        pll_config = RCC->CFGR;
 8001fdc:	4b0b      	ldr	r3, [pc, #44]	; (800200c <HAL_RCC_OscConfig+0x500>)
 8001fde:	685b      	ldr	r3, [r3, #4]
 8001fe0:	60fb      	str	r3, [r7, #12]
        if ((READ_BIT(pll_config, RCC_CFGR_PLLSRC) != RCC_OscInitStruct->PLL.PLLSource) ||
 8001fe2:	68fb      	ldr	r3, [r7, #12]
 8001fe4:	f403 3280 	and.w	r2, r3, #65536	; 0x10000
 8001fe8:	687b      	ldr	r3, [r7, #4]
 8001fea:	6a1b      	ldr	r3, [r3, #32]
 8001fec:	429a      	cmp	r2, r3
 8001fee:	d106      	bne.n	8001ffe <HAL_RCC_OscConfig+0x4f2>
            (READ_BIT(pll_config, RCC_CFGR_PLLMULL) != RCC_OscInitStruct->PLL.PLLMUL))
 8001ff0:	68fb      	ldr	r3, [r7, #12]
 8001ff2:	f403 1270 	and.w	r2, r3, #3932160	; 0x3c0000
 8001ff6:	687b      	ldr	r3, [r7, #4]
 8001ff8:	6a5b      	ldr	r3, [r3, #36]	; 0x24
        if ((READ_BIT(pll_config, RCC_CFGR_PLLSRC) != RCC_OscInitStruct->PLL.PLLSource) ||
 8001ffa:	429a      	cmp	r2, r3
 8001ffc:	d001      	beq.n	8002002 <HAL_RCC_OscConfig+0x4f6>
        {
          return HAL_ERROR;
 8001ffe:	2301      	movs	r3, #1
 8002000:	e000      	b.n	8002004 <HAL_RCC_OscConfig+0x4f8>
        }
      }
    }
  }

  return HAL_OK;
 8002002:	2300      	movs	r3, #0
}
 8002004:	4618      	mov	r0, r3
 8002006:	3718      	adds	r7, #24
 8002008:	46bd      	mov	sp, r7
 800200a:	bd80      	pop	{r7, pc}
 800200c:	40021000 	.word	0x40021000

08002010 <HAL_RCC_ClockConfig>:
  *         You can use @ref HAL_RCC_GetClockConfig() function to know which clock is
  *         currently used as system clock source.
  * @retval HAL status
  */
HAL_StatusTypeDef HAL_RCC_ClockConfig(RCC_ClkInitTypeDef  *RCC_ClkInitStruct, uint32_t FLatency)
{
 8002010:	b580      	push	{r7, lr}
 8002012:	b084      	sub	sp, #16
 8002014:	af00      	add	r7, sp, #0
 8002016:	6078      	str	r0, [r7, #4]
 8002018:	6039      	str	r1, [r7, #0]
  uint32_t tickstart;

  /* Check Null pointer */
  if (RCC_ClkInitStruct == NULL)
 800201a:	687b      	ldr	r3, [r7, #4]
 800201c:	2b00      	cmp	r3, #0
 800201e:	d101      	bne.n	8002024 <HAL_RCC_ClockConfig+0x14>
  {
    return HAL_ERROR;
 8002020:	2301      	movs	r3, #1
 8002022:	e0d0      	b.n	80021c6 <HAL_RCC_ClockConfig+0x1b6>
  must be correctly programmed according to the frequency of the CPU clock
    (HCLK) of the device. */

#if defined(FLASH_ACR_LATENCY)
  /* Increasing the number of wait states because of higher CPU frequency */
  if (FLatency > __HAL_FLASH_GET_LATENCY())
 8002024:	4b6a      	ldr	r3, [pc, #424]	; (80021d0 <HAL_RCC_ClockConfig+0x1c0>)
 8002026:	681b      	ldr	r3, [r3, #0]
 8002028:	f003 0307 	and.w	r3, r3, #7
 800202c:	683a      	ldr	r2, [r7, #0]
 800202e:	429a      	cmp	r2, r3
 8002030:	d910      	bls.n	8002054 <HAL_RCC_ClockConfig+0x44>
  {
    /* Program the new number of wait states to the LATENCY bits in the FLASH_ACR register */
    __HAL_FLASH_SET_LATENCY(FLatency);
 8002032:	4b67      	ldr	r3, [pc, #412]	; (80021d0 <HAL_RCC_ClockConfig+0x1c0>)
 8002034:	681b      	ldr	r3, [r3, #0]
 8002036:	f023 0207 	bic.w	r2, r3, #7
 800203a:	4965      	ldr	r1, [pc, #404]	; (80021d0 <HAL_RCC_ClockConfig+0x1c0>)
 800203c:	683b      	ldr	r3, [r7, #0]
 800203e:	4313      	orrs	r3, r2
 8002040:	600b      	str	r3, [r1, #0]

    /* Check that the new number of wait states is taken into account to access the Flash
    memory by reading the FLASH_ACR register */
    if (__HAL_FLASH_GET_LATENCY() != FLatency)
 8002042:	4b63      	ldr	r3, [pc, #396]	; (80021d0 <HAL_RCC_ClockConfig+0x1c0>)
 8002044:	681b      	ldr	r3, [r3, #0]
 8002046:	f003 0307 	and.w	r3, r3, #7
 800204a:	683a      	ldr	r2, [r7, #0]
 800204c:	429a      	cmp	r2, r3
 800204e:	d001      	beq.n	8002054 <HAL_RCC_ClockConfig+0x44>
  {
    return HAL_ERROR;
 8002050:	2301      	movs	r3, #1
 8002052:	e0b8      	b.n	80021c6 <HAL_RCC_ClockConfig+0x1b6>
  }
}

#endif /* FLASH_ACR_LATENCY */
/*-------------------------- HCLK Configuration --------------------------*/
if (((RCC_ClkInitStruct->ClockType) & RCC_CLOCKTYPE_HCLK) == RCC_CLOCKTYPE_HCLK)
 8002054:	687b      	ldr	r3, [r7, #4]
 8002056:	681b      	ldr	r3, [r3, #0]
 8002058:	f003 0302 	and.w	r3, r3, #2
 800205c:	2b00      	cmp	r3, #0
 800205e:	d020      	beq.n	80020a2 <HAL_RCC_ClockConfig+0x92>
  {
    /* Set the highest APBx dividers in order to ensure that we do not go through
    a non-spec phase whatever we decrease or increase HCLK. */
    if (((RCC_ClkInitStruct->ClockType) & RCC_CLOCKTYPE_PCLK1) == RCC_CLOCKTYPE_PCLK1)
 8002060:	687b      	ldr	r3, [r7, #4]
 8002062:	681b      	ldr	r3, [r3, #0]
 8002064:	f003 0304 	and.w	r3, r3, #4
 8002068:	2b00      	cmp	r3, #0
 800206a:	d005      	beq.n	8002078 <HAL_RCC_ClockConfig+0x68>
    {
      MODIFY_REG(RCC->CFGR, RCC_CFGR_PPRE1, RCC_HCLK_DIV16);
 800206c:	4b59      	ldr	r3, [pc, #356]	; (80021d4 <HAL_RCC_ClockConfig+0x1c4>)
 800206e:	685b      	ldr	r3, [r3, #4]
 8002070:	4a58      	ldr	r2, [pc, #352]	; (80021d4 <HAL_RCC_ClockConfig+0x1c4>)
 8002072:	f443 63e0 	orr.w	r3, r3, #1792	; 0x700
 8002076:	6053      	str	r3, [r2, #4]
    }

    if (((RCC_ClkInitStruct->ClockType) & RCC_CLOCKTYPE_PCLK2) == RCC_CLOCKTYPE_PCLK2)
 8002078:	687b      	ldr	r3, [r7, #4]
 800207a:	681b      	ldr	r3, [r3, #0]
 800207c:	f003 0308 	and.w	r3, r3, #8
 8002080:	2b00      	cmp	r3, #0
 8002082:	d005      	beq.n	8002090 <HAL_RCC_ClockConfig+0x80>
    {
      MODIFY_REG(RCC->CFGR, RCC_CFGR_PPRE2, (RCC_HCLK_DIV16 << 3));
 8002084:	4b53      	ldr	r3, [pc, #332]	; (80021d4 <HAL_RCC_ClockConfig+0x1c4>)
 8002086:	685b      	ldr	r3, [r3, #4]
 8002088:	4a52      	ldr	r2, [pc, #328]	; (80021d4 <HAL_RCC_ClockConfig+0x1c4>)
 800208a:	f443 5360 	orr.w	r3, r3, #14336	; 0x3800
 800208e:	6053      	str	r3, [r2, #4]
    }

    /* Set the new HCLK clock divider */
    assert_param(IS_RCC_HCLK(RCC_ClkInitStruct->AHBCLKDivider));
    MODIFY_REG(RCC->CFGR, RCC_CFGR_HPRE, RCC_ClkInitStruct->AHBCLKDivider);
 8002090:	4b50      	ldr	r3, [pc, #320]	; (80021d4 <HAL_RCC_ClockConfig+0x1c4>)
 8002092:	685b      	ldr	r3, [r3, #4]
 8002094:	f023 02f0 	bic.w	r2, r3, #240	; 0xf0
 8002098:	687b      	ldr	r3, [r7, #4]
 800209a:	689b      	ldr	r3, [r3, #8]
 800209c:	494d      	ldr	r1, [pc, #308]	; (80021d4 <HAL_RCC_ClockConfig+0x1c4>)
 800209e:	4313      	orrs	r3, r2
 80020a0:	604b      	str	r3, [r1, #4]
  }

  /*------------------------- SYSCLK Configuration ---------------------------*/
  if (((RCC_ClkInitStruct->ClockType) & RCC_CLOCKTYPE_SYSCLK) == RCC_CLOCKTYPE_SYSCLK)
 80020a2:	687b      	ldr	r3, [r7, #4]
 80020a4:	681b      	ldr	r3, [r3, #0]
 80020a6:	f003 0301 	and.w	r3, r3, #1
 80020aa:	2b00      	cmp	r3, #0
 80020ac:	d040      	beq.n	8002130 <HAL_RCC_ClockConfig+0x120>
  {
    assert_param(IS_RCC_SYSCLKSOURCE(RCC_ClkInitStruct->SYSCLKSource));

    /* HSE is selected as System Clock Source */
    if (RCC_ClkInitStruct->SYSCLKSource == RCC_SYSCLKSOURCE_HSE)
 80020ae:	687b      	ldr	r3, [r7, #4]
 80020b0:	685b      	ldr	r3, [r3, #4]
 80020b2:	2b01      	cmp	r3, #1
 80020b4:	d107      	bne.n	80020c6 <HAL_RCC_ClockConfig+0xb6>
    {
      /* Check the HSE ready flag */
      if (__HAL_RCC_GET_FLAG(RCC_FLAG_HSERDY) == RESET)
 80020b6:	4b47      	ldr	r3, [pc, #284]	; (80021d4 <HAL_RCC_ClockConfig+0x1c4>)
 80020b8:	681b      	ldr	r3, [r3, #0]
 80020ba:	f403 3300 	and.w	r3, r3, #131072	; 0x20000
 80020be:	2b00      	cmp	r3, #0
 80020c0:	d115      	bne.n	80020ee <HAL_RCC_ClockConfig+0xde>
      {
        return HAL_ERROR;
 80020c2:	2301      	movs	r3, #1
 80020c4:	e07f      	b.n	80021c6 <HAL_RCC_ClockConfig+0x1b6>
      }
    }
    /* PLL is selected as System Clock Source */
    else if (RCC_ClkInitStruct->SYSCLKSource == RCC_SYSCLKSOURCE_PLLCLK)
 80020c6:	687b      	ldr	r3, [r7, #4]
 80020c8:	685b      	ldr	r3, [r3, #4]
 80020ca:	2b02      	cmp	r3, #2
 80020cc:	d107      	bne.n	80020de <HAL_RCC_ClockConfig+0xce>
    {
      /* Check the PLL ready flag */
      if (__HAL_RCC_GET_FLAG(RCC_FLAG_PLLRDY) == RESET)
 80020ce:	4b41      	ldr	r3, [pc, #260]	; (80021d4 <HAL_RCC_ClockConfig+0x1c4>)
 80020d0:	681b      	ldr	r3, [r3, #0]
 80020d2:	f003 7300 	and.w	r3, r3, #33554432	; 0x2000000
 80020d6:	2b00      	cmp	r3, #0
 80020d8:	d109      	bne.n	80020ee <HAL_RCC_ClockConfig+0xde>
      {
        return HAL_ERROR;
 80020da:	2301      	movs	r3, #1
 80020dc:	e073      	b.n	80021c6 <HAL_RCC_ClockConfig+0x1b6>
    }
    /* HSI is selected as System Clock Source */
    else
    {
      /* Check the HSI ready flag */
      if (__HAL_RCC_GET_FLAG(RCC_FLAG_HSIRDY) == RESET)
 80020de:	4b3d      	ldr	r3, [pc, #244]	; (80021d4 <HAL_RCC_ClockConfig+0x1c4>)
 80020e0:	681b      	ldr	r3, [r3, #0]
 80020e2:	f003 0302 	and.w	r3, r3, #2
 80020e6:	2b00      	cmp	r3, #0
 80020e8:	d101      	bne.n	80020ee <HAL_RCC_ClockConfig+0xde>
      {
        return HAL_ERROR;
 80020ea:	2301      	movs	r3, #1
 80020ec:	e06b      	b.n	80021c6 <HAL_RCC_ClockConfig+0x1b6>
      }
    }
    __HAL_RCC_SYSCLK_CONFIG(RCC_ClkInitStruct->SYSCLKSource);
 80020ee:	4b39      	ldr	r3, [pc, #228]	; (80021d4 <HAL_RCC_ClockConfig+0x1c4>)
 80020f0:	685b      	ldr	r3, [r3, #4]
 80020f2:	f023 0203 	bic.w	r2, r3, #3
 80020f6:	687b      	ldr	r3, [r7, #4]
 80020f8:	685b      	ldr	r3, [r3, #4]
 80020fa:	4936      	ldr	r1, [pc, #216]	; (80021d4 <HAL_RCC_ClockConfig+0x1c4>)
 80020fc:	4313      	orrs	r3, r2
 80020fe:	604b      	str	r3, [r1, #4]

    /* Get Start Tick */
    tickstart = HAL_GetTick();
 8002100:	f7fe fc50 	bl	80009a4 <HAL_GetTick>
 8002104:	60f8      	str	r0, [r7, #12]

    while (__HAL_RCC_GET_SYSCLK_SOURCE() != (RCC_ClkInitStruct->SYSCLKSource << RCC_CFGR_SWS_Pos))
 8002106:	e00a      	b.n	800211e <HAL_RCC_ClockConfig+0x10e>
    {
      if ((HAL_GetTick() - tickstart) > CLOCKSWITCH_TIMEOUT_VALUE)
 8002108:	f7fe fc4c 	bl	80009a4 <HAL_GetTick>
 800210c:	4602      	mov	r2, r0
 800210e:	68fb      	ldr	r3, [r7, #12]
 8002110:	1ad3      	subs	r3, r2, r3
 8002112:	f241 3288 	movw	r2, #5000	; 0x1388
 8002116:	4293      	cmp	r3, r2
 8002118:	d901      	bls.n	800211e <HAL_RCC_ClockConfig+0x10e>
      {
        return HAL_TIMEOUT;
 800211a:	2303      	movs	r3, #3
 800211c:	e053      	b.n	80021c6 <HAL_RCC_ClockConfig+0x1b6>
    while (__HAL_RCC_GET_SYSCLK_SOURCE() != (RCC_ClkInitStruct->SYSCLKSource << RCC_CFGR_SWS_Pos))
 800211e:	4b2d      	ldr	r3, [pc, #180]	; (80021d4 <HAL_RCC_ClockConfig+0x1c4>)
 8002120:	685b      	ldr	r3, [r3, #4]
 8002122:	f003 020c 	and.w	r2, r3, #12
 8002126:	687b      	ldr	r3, [r7, #4]
 8002128:	685b      	ldr	r3, [r3, #4]
 800212a:	009b      	lsls	r3, r3, #2
 800212c:	429a      	cmp	r2, r3
 800212e:	d1eb      	bne.n	8002108 <HAL_RCC_ClockConfig+0xf8>
    }
  }

#if defined(FLASH_ACR_LATENCY)
  /* Decreasing the number of wait states because of lower CPU frequency */
  if (FLatency < __HAL_FLASH_GET_LATENCY())
 8002130:	4b27      	ldr	r3, [pc, #156]	; (80021d0 <HAL_RCC_ClockConfig+0x1c0>)
 8002132:	681b      	ldr	r3, [r3, #0]
 8002134:	f003 0307 	and.w	r3, r3, #7
 8002138:	683a      	ldr	r2, [r7, #0]
 800213a:	429a      	cmp	r2, r3
 800213c:	d210      	bcs.n	8002160 <HAL_RCC_ClockConfig+0x150>
  {
    /* Program the new number of wait states to the LATENCY bits in the FLASH_ACR register */
    __HAL_FLASH_SET_LATENCY(FLatency);
 800213e:	4b24      	ldr	r3, [pc, #144]	; (80021d0 <HAL_RCC_ClockConfig+0x1c0>)
 8002140:	681b      	ldr	r3, [r3, #0]
 8002142:	f023 0207 	bic.w	r2, r3, #7
 8002146:	4922      	ldr	r1, [pc, #136]	; (80021d0 <HAL_RCC_ClockConfig+0x1c0>)
 8002148:	683b      	ldr	r3, [r7, #0]
 800214a:	4313      	orrs	r3, r2
 800214c:	600b      	str	r3, [r1, #0]

    /* Check that the new number of wait states is taken into account to access the Flash
    memory by reading the FLASH_ACR register */
    if (__HAL_FLASH_GET_LATENCY() != FLatency)
 800214e:	4b20      	ldr	r3, [pc, #128]	; (80021d0 <HAL_RCC_ClockConfig+0x1c0>)
 8002150:	681b      	ldr	r3, [r3, #0]
 8002152:	f003 0307 	and.w	r3, r3, #7
 8002156:	683a      	ldr	r2, [r7, #0]
 8002158:	429a      	cmp	r2, r3
 800215a:	d001      	beq.n	8002160 <HAL_RCC_ClockConfig+0x150>
  {
    return HAL_ERROR;
 800215c:	2301      	movs	r3, #1
 800215e:	e032      	b.n	80021c6 <HAL_RCC_ClockConfig+0x1b6>
  }
}
#endif /* FLASH_ACR_LATENCY */

/*-------------------------- PCLK1 Configuration ---------------------------*/
if (((RCC_ClkInitStruct->ClockType) & RCC_CLOCKTYPE_PCLK1) == RCC_CLOCKTYPE_PCLK1)
 8002160:	687b      	ldr	r3, [r7, #4]
 8002162:	681b      	ldr	r3, [r3, #0]
 8002164:	f003 0304 	and.w	r3, r3, #4
 8002168:	2b00      	cmp	r3, #0
 800216a:	d008      	beq.n	800217e <HAL_RCC_ClockConfig+0x16e>
  {
    assert_param(IS_RCC_PCLK(RCC_ClkInitStruct->APB1CLKDivider));
    MODIFY_REG(RCC->CFGR, RCC_CFGR_PPRE1, RCC_ClkInitStruct->APB1CLKDivider);
 800216c:	4b19      	ldr	r3, [pc, #100]	; (80021d4 <HAL_RCC_ClockConfig+0x1c4>)
 800216e:	685b      	ldr	r3, [r3, #4]
 8002170:	f423 62e0 	bic.w	r2, r3, #1792	; 0x700
 8002174:	687b      	ldr	r3, [r7, #4]
 8002176:	68db      	ldr	r3, [r3, #12]
 8002178:	4916      	ldr	r1, [pc, #88]	; (80021d4 <HAL_RCC_ClockConfig+0x1c4>)
 800217a:	4313      	orrs	r3, r2
 800217c:	604b      	str	r3, [r1, #4]
  }

  /*-------------------------- PCLK2 Configuration ---------------------------*/
  if (((RCC_ClkInitStruct->ClockType) & RCC_CLOCKTYPE_PCLK2) == RCC_CLOCKTYPE_PCLK2)
 800217e:	687b      	ldr	r3, [r7, #4]
 8002180:	681b      	ldr	r3, [r3, #0]
 8002182:	f003 0308 	and.w	r3, r3, #8
 8002186:	2b00      	cmp	r3, #0
 8002188:	d009      	beq.n	800219e <HAL_RCC_ClockConfig+0x18e>
  {
    assert_param(IS_RCC_PCLK(RCC_ClkInitStruct->APB2CLKDivider));
    MODIFY_REG(RCC->CFGR, RCC_CFGR_PPRE2, ((RCC_ClkInitStruct->APB2CLKDivider) << 3));
 800218a:	4b12      	ldr	r3, [pc, #72]	; (80021d4 <HAL_RCC_ClockConfig+0x1c4>)
 800218c:	685b      	ldr	r3, [r3, #4]
 800218e:	f423 5260 	bic.w	r2, r3, #14336	; 0x3800
 8002192:	687b      	ldr	r3, [r7, #4]
 8002194:	691b      	ldr	r3, [r3, #16]
 8002196:	00db      	lsls	r3, r3, #3
 8002198:	490e      	ldr	r1, [pc, #56]	; (80021d4 <HAL_RCC_ClockConfig+0x1c4>)
 800219a:	4313      	orrs	r3, r2
 800219c:	604b      	str	r3, [r1, #4]
  }

  /* Update the SystemCoreClock global variable */
  SystemCoreClock = HAL_RCC_GetSysClockFreq() >> AHBPrescTable[(RCC->CFGR & RCC_CFGR_HPRE) >> RCC_CFGR_HPRE_Pos];
 800219e:	f000 f821 	bl	80021e4 <HAL_RCC_GetSysClockFreq>
 80021a2:	4602      	mov	r2, r0
 80021a4:	4b0b      	ldr	r3, [pc, #44]	; (80021d4 <HAL_RCC_ClockConfig+0x1c4>)
 80021a6:	685b      	ldr	r3, [r3, #4]
 80021a8:	091b      	lsrs	r3, r3, #4
 80021aa:	f003 030f 	and.w	r3, r3, #15
 80021ae:	490a      	ldr	r1, [pc, #40]	; (80021d8 <HAL_RCC_ClockConfig+0x1c8>)
 80021b0:	5ccb      	ldrb	r3, [r1, r3]
 80021b2:	fa22 f303 	lsr.w	r3, r2, r3
 80021b6:	4a09      	ldr	r2, [pc, #36]	; (80021dc <HAL_RCC_ClockConfig+0x1cc>)
 80021b8:	6013      	str	r3, [r2, #0]

  /* Configure the source of time base considering new system clocks settings*/
  HAL_InitTick(uwTickPrio);
 80021ba:	4b09      	ldr	r3, [pc, #36]	; (80021e0 <HAL_RCC_ClockConfig+0x1d0>)
 80021bc:	681b      	ldr	r3, [r3, #0]
 80021be:	4618      	mov	r0, r3
 80021c0:	f7fe fbae 	bl	8000920 <HAL_InitTick>

  return HAL_OK;
 80021c4:	2300      	movs	r3, #0
}
 80021c6:	4618      	mov	r0, r3
 80021c8:	3710      	adds	r7, #16
 80021ca:	46bd      	mov	sp, r7
 80021cc:	bd80      	pop	{r7, pc}
 80021ce:	bf00      	nop
 80021d0:	40022000 	.word	0x40022000
 80021d4:	40021000 	.word	0x40021000
 80021d8:	08003800 	.word	0x08003800
 80021dc:	20000000 	.word	0x20000000
 80021e0:	20000004 	.word	0x20000004

080021e4 <HAL_RCC_GetSysClockFreq>:
  *         right SYSCLK value. Otherwise, any configuration based on this function will be incorrect.
  *
  * @retval SYSCLK frequency
  */
uint32_t HAL_RCC_GetSysClockFreq(void)
{
 80021e4:	b490      	push	{r4, r7}
 80021e6:	b08a      	sub	sp, #40	; 0x28
 80021e8:	af00      	add	r7, sp, #0
#if defined(RCC_CFGR2_PREDIV1SRC)
  const uint8_t aPLLMULFactorTable[14] = {0, 0, 4, 5, 6, 7, 8, 9, 0, 0, 0, 0, 0, 13};
  const uint8_t aPredivFactorTable[16] = {1, 2, 3, 4, 5, 6, 7, 8, 9, 10, 11, 12, 13, 14, 15, 16};
#else
  const uint8_t aPLLMULFactorTable[16] = {2, 3, 4, 5, 6, 7, 8, 9, 10, 11, 12, 13, 14, 15, 16, 16};
 80021ea:	4b29      	ldr	r3, [pc, #164]	; (8002290 <HAL_RCC_GetSysClockFreq+0xac>)
 80021ec:	1d3c      	adds	r4, r7, #4
 80021ee:	cb0f      	ldmia	r3, {r0, r1, r2, r3}
 80021f0:	e884 000f 	stmia.w	r4, {r0, r1, r2, r3}
#if defined(RCC_CFGR2_PREDIV1)
  const uint8_t aPredivFactorTable[16] = {1, 2, 3, 4, 5, 6, 7, 8, 9, 10, 11, 12, 13, 14, 15, 16};
#else
  const uint8_t aPredivFactorTable[2] = {1, 2};
 80021f4:	f240 2301 	movw	r3, #513	; 0x201
 80021f8:	803b      	strh	r3, [r7, #0]
#endif /*RCC_CFGR2_PREDIV1*/

#endif
  uint32_t tmpreg = 0U, prediv = 0U, pllclk = 0U, pllmul = 0U;
 80021fa:	2300      	movs	r3, #0
 80021fc:	61fb      	str	r3, [r7, #28]
 80021fe:	2300      	movs	r3, #0
 8002200:	61bb      	str	r3, [r7, #24]
 8002202:	2300      	movs	r3, #0
 8002204:	627b      	str	r3, [r7, #36]	; 0x24
 8002206:	2300      	movs	r3, #0
 8002208:	617b      	str	r3, [r7, #20]
  uint32_t sysclockfreq = 0U;
 800220a:	2300      	movs	r3, #0
 800220c:	623b      	str	r3, [r7, #32]
#if defined(RCC_CFGR2_PREDIV1SRC)
  uint32_t prediv2 = 0U, pll2mul = 0U;
#endif /*RCC_CFGR2_PREDIV1SRC*/

  tmpreg = RCC->CFGR;
 800220e:	4b21      	ldr	r3, [pc, #132]	; (8002294 <HAL_RCC_GetSysClockFreq+0xb0>)
 8002210:	685b      	ldr	r3, [r3, #4]
 8002212:	61fb      	str	r3, [r7, #28]

  /* Get SYSCLK source -------------------------------------------------------*/
  switch (tmpreg & RCC_CFGR_SWS)
 8002214:	69fb      	ldr	r3, [r7, #28]
 8002216:	f003 030c 	and.w	r3, r3, #12
 800221a:	2b04      	cmp	r3, #4
 800221c:	d002      	beq.n	8002224 <HAL_RCC_GetSysClockFreq+0x40>
 800221e:	2b08      	cmp	r3, #8
 8002220:	d003      	beq.n	800222a <HAL_RCC_GetSysClockFreq+0x46>
 8002222:	e02b      	b.n	800227c <HAL_RCC_GetSysClockFreq+0x98>
  {
    case RCC_SYSCLKSOURCE_STATUS_HSE:  /* HSE used as system clock */
    {
      sysclockfreq = HSE_VALUE;
 8002224:	4b1c      	ldr	r3, [pc, #112]	; (8002298 <HAL_RCC_GetSysClockFreq+0xb4>)
 8002226:	623b      	str	r3, [r7, #32]
      break;
 8002228:	e02b      	b.n	8002282 <HAL_RCC_GetSysClockFreq+0x9e>
    }
    case RCC_SYSCLKSOURCE_STATUS_PLLCLK:  /* PLL used as system clock */
    {
      pllmul = aPLLMULFactorTable[(uint32_t)(tmpreg & RCC_CFGR_PLLMULL) >> RCC_CFGR_PLLMULL_Pos];
 800222a:	69fb      	ldr	r3, [r7, #28]
 800222c:	0c9b      	lsrs	r3, r3, #18
 800222e:	f003 030f 	and.w	r3, r3, #15
 8002232:	3328      	adds	r3, #40	; 0x28
 8002234:	443b      	add	r3, r7
 8002236:	f813 3c24 	ldrb.w	r3, [r3, #-36]
 800223a:	617b      	str	r3, [r7, #20]
      if ((tmpreg & RCC_CFGR_PLLSRC) != RCC_PLLSOURCE_HSI_DIV2)
 800223c:	69fb      	ldr	r3, [r7, #28]
 800223e:	f403 3380 	and.w	r3, r3, #65536	; 0x10000
 8002242:	2b00      	cmp	r3, #0
 8002244:	d012      	beq.n	800226c <HAL_RCC_GetSysClockFreq+0x88>
      {
#if defined(RCC_CFGR2_PREDIV1)
        prediv = aPredivFactorTable[(uint32_t)(RCC->CFGR2 & RCC_CFGR2_PREDIV1) >> RCC_CFGR2_PREDIV1_Pos];
#else
        prediv = aPredivFactorTable[(uint32_t)(RCC->CFGR & RCC_CFGR_PLLXTPRE) >> RCC_CFGR_PLLXTPRE_Pos];
 8002246:	4b13      	ldr	r3, [pc, #76]	; (8002294 <HAL_RCC_GetSysClockFreq+0xb0>)
 8002248:	685b      	ldr	r3, [r3, #4]
 800224a:	0c5b      	lsrs	r3, r3, #17
 800224c:	f003 0301 	and.w	r3, r3, #1
 8002250:	3328      	adds	r3, #40	; 0x28
 8002252:	443b      	add	r3, r7
 8002254:	f813 3c28 	ldrb.w	r3, [r3, #-40]
 8002258:	61bb      	str	r3, [r7, #24]
        {
          pllclk = pllclk / 2;
        }
#else
        /* HSE used as PLL clock source : PLLCLK = HSE/PREDIV1 * PLLMUL */
        pllclk = (uint32_t)((HSE_VALUE  * pllmul) / prediv);
 800225a:	697b      	ldr	r3, [r7, #20]
 800225c:	4a0e      	ldr	r2, [pc, #56]	; (8002298 <HAL_RCC_GetSysClockFreq+0xb4>)
 800225e:	fb03 f202 	mul.w	r2, r3, r2
 8002262:	69bb      	ldr	r3, [r7, #24]
 8002264:	fbb2 f3f3 	udiv	r3, r2, r3
 8002268:	627b      	str	r3, [r7, #36]	; 0x24
 800226a:	e004      	b.n	8002276 <HAL_RCC_GetSysClockFreq+0x92>
#endif /*RCC_CFGR2_PREDIV1SRC*/
      }
      else
      {
        /* HSI used as PLL clock source : PLLCLK = HSI/2 * PLLMUL */
        pllclk = (uint32_t)((HSI_VALUE >> 1) * pllmul);
 800226c:	697b      	ldr	r3, [r7, #20]
 800226e:	4a0b      	ldr	r2, [pc, #44]	; (800229c <HAL_RCC_GetSysClockFreq+0xb8>)
 8002270:	fb02 f303 	mul.w	r3, r2, r3
 8002274:	627b      	str	r3, [r7, #36]	; 0x24
      }
      sysclockfreq = pllclk;
 8002276:	6a7b      	ldr	r3, [r7, #36]	; 0x24
 8002278:	623b      	str	r3, [r7, #32]
      break;
 800227a:	e002      	b.n	8002282 <HAL_RCC_GetSysClockFreq+0x9e>
    }
    case RCC_SYSCLKSOURCE_STATUS_HSI:  /* HSI used as system clock source */
    default: /* HSI used as system clock */
    {
      sysclockfreq = HSI_VALUE;
 800227c:	4b06      	ldr	r3, [pc, #24]	; (8002298 <HAL_RCC_GetSysClockFreq+0xb4>)
 800227e:	623b      	str	r3, [r7, #32]
      break;
 8002280:	bf00      	nop
    }
  }
  return sysclockfreq;
 8002282:	6a3b      	ldr	r3, [r7, #32]
}
 8002284:	4618      	mov	r0, r3
 8002286:	3728      	adds	r7, #40	; 0x28
 8002288:	46bd      	mov	sp, r7
 800228a:	bc90      	pop	{r4, r7}
 800228c:	4770      	bx	lr
 800228e:	bf00      	nop
 8002290:	080037f0 	.word	0x080037f0
 8002294:	40021000 	.word	0x40021000
 8002298:	007a1200 	.word	0x007a1200
 800229c:	003d0900 	.word	0x003d0900

080022a0 <HAL_RCC_GetHCLKFreq>:
  * @note   The SystemCoreClock CMSIS variable is used to store System Clock Frequency
  *         and updated within this function
  * @retval HCLK frequency
  */
uint32_t HAL_RCC_GetHCLKFreq(void)
{
 80022a0:	b480      	push	{r7}
 80022a2:	af00      	add	r7, sp, #0
  return SystemCoreClock;
 80022a4:	4b02      	ldr	r3, [pc, #8]	; (80022b0 <HAL_RCC_GetHCLKFreq+0x10>)
 80022a6:	681b      	ldr	r3, [r3, #0]
}
 80022a8:	4618      	mov	r0, r3
 80022aa:	46bd      	mov	sp, r7
 80022ac:	bc80      	pop	{r7}
 80022ae:	4770      	bx	lr
 80022b0:	20000000 	.word	0x20000000

080022b4 <HAL_RCC_GetPCLK1Freq>:
  * @note   Each time PCLK1 changes, this function must be called to update the
  *         right PCLK1 value. Otherwise, any configuration based on this function will be incorrect.
  * @retval PCLK1 frequency
  */
uint32_t HAL_RCC_GetPCLK1Freq(void)
{
 80022b4:	b580      	push	{r7, lr}
 80022b6:	af00      	add	r7, sp, #0
  /* Get HCLK source and Compute PCLK1 frequency ---------------------------*/
  return (HAL_RCC_GetHCLKFreq() >> APBPrescTable[(RCC->CFGR & RCC_CFGR_PPRE1) >> RCC_CFGR_PPRE1_Pos]);
 80022b8:	f7ff fff2 	bl	80022a0 <HAL_RCC_GetHCLKFreq>
 80022bc:	4602      	mov	r2, r0
 80022be:	4b05      	ldr	r3, [pc, #20]	; (80022d4 <HAL_RCC_GetPCLK1Freq+0x20>)
 80022c0:	685b      	ldr	r3, [r3, #4]
 80022c2:	0a1b      	lsrs	r3, r3, #8
 80022c4:	f003 0307 	and.w	r3, r3, #7
 80022c8:	4903      	ldr	r1, [pc, #12]	; (80022d8 <HAL_RCC_GetPCLK1Freq+0x24>)
 80022ca:	5ccb      	ldrb	r3, [r1, r3]
 80022cc:	fa22 f303 	lsr.w	r3, r2, r3
}
 80022d0:	4618      	mov	r0, r3
 80022d2:	bd80      	pop	{r7, pc}
 80022d4:	40021000 	.word	0x40021000
 80022d8:	08003810 	.word	0x08003810

080022dc <HAL_RCC_GetPCLK2Freq>:
  * @note   Each time PCLK2 changes, this function must be called to update the
  *         right PCLK2 value. Otherwise, any configuration based on this function will be incorrect.
  * @retval PCLK2 frequency
  */
uint32_t HAL_RCC_GetPCLK2Freq(void)
{
 80022dc:	b580      	push	{r7, lr}
 80022de:	af00      	add	r7, sp, #0
  /* Get HCLK source and Compute PCLK2 frequency ---------------------------*/
  return (HAL_RCC_GetHCLKFreq() >> APBPrescTable[(RCC->CFGR & RCC_CFGR_PPRE2) >> RCC_CFGR_PPRE2_Pos]);
 80022e0:	f7ff ffde 	bl	80022a0 <HAL_RCC_GetHCLKFreq>
 80022e4:	4602      	mov	r2, r0
 80022e6:	4b05      	ldr	r3, [pc, #20]	; (80022fc <HAL_RCC_GetPCLK2Freq+0x20>)
 80022e8:	685b      	ldr	r3, [r3, #4]
 80022ea:	0adb      	lsrs	r3, r3, #11
 80022ec:	f003 0307 	and.w	r3, r3, #7
 80022f0:	4903      	ldr	r1, [pc, #12]	; (8002300 <HAL_RCC_GetPCLK2Freq+0x24>)
 80022f2:	5ccb      	ldrb	r3, [r1, r3]
 80022f4:	fa22 f303 	lsr.w	r3, r2, r3
}
 80022f8:	4618      	mov	r0, r3
 80022fa:	bd80      	pop	{r7, pc}
 80022fc:	40021000 	.word	0x40021000
 8002300:	08003810 	.word	0x08003810

08002304 <RCC_Delay>:
  * @brief  This function provides delay (in milliseconds) based on CPU cycles method.
  * @param  mdelay: specifies the delay time length, in milliseconds.
  * @retval None
  */
static void RCC_Delay(uint32_t mdelay)
{
 8002304:	b480      	push	{r7}
 8002306:	b085      	sub	sp, #20
 8002308:	af00      	add	r7, sp, #0
 800230a:	6078      	str	r0, [r7, #4]
  __IO uint32_t Delay = mdelay * (SystemCoreClock / 8U / 1000U);
 800230c:	4b0a      	ldr	r3, [pc, #40]	; (8002338 <RCC_Delay+0x34>)
 800230e:	681b      	ldr	r3, [r3, #0]
 8002310:	4a0a      	ldr	r2, [pc, #40]	; (800233c <RCC_Delay+0x38>)
 8002312:	fba2 2303 	umull	r2, r3, r2, r3
 8002316:	0a5b      	lsrs	r3, r3, #9
 8002318:	687a      	ldr	r2, [r7, #4]
 800231a:	fb02 f303 	mul.w	r3, r2, r3
 800231e:	60fb      	str	r3, [r7, #12]
  do
  {
    __NOP();
 8002320:	bf00      	nop
  }
  while (Delay --);
 8002322:	68fb      	ldr	r3, [r7, #12]
 8002324:	1e5a      	subs	r2, r3, #1
 8002326:	60fa      	str	r2, [r7, #12]
 8002328:	2b00      	cmp	r3, #0
 800232a:	d1f9      	bne.n	8002320 <RCC_Delay+0x1c>
}
 800232c:	bf00      	nop
 800232e:	bf00      	nop
 8002330:	3714      	adds	r7, #20
 8002332:	46bd      	mov	sp, r7
 8002334:	bc80      	pop	{r7}
 8002336:	4770      	bx	lr
 8002338:	20000000 	.word	0x20000000
 800233c:	10624dd3 	.word	0x10624dd3

08002340 <HAL_RCCEx_PeriphCLKConfig>:
  *         manually disable it.
  *
  * @retval HAL status
  */
HAL_StatusTypeDef HAL_RCCEx_PeriphCLKConfig(RCC_PeriphCLKInitTypeDef  *PeriphClkInit)
{
 8002340:	b580      	push	{r7, lr}
 8002342:	b086      	sub	sp, #24
 8002344:	af00      	add	r7, sp, #0
 8002346:	6078      	str	r0, [r7, #4]
  uint32_t tickstart = 0U, temp_reg = 0U;
 8002348:	2300      	movs	r3, #0
 800234a:	613b      	str	r3, [r7, #16]
 800234c:	2300      	movs	r3, #0
 800234e:	60fb      	str	r3, [r7, #12]

  /* Check the parameters */
  assert_param(IS_RCC_PERIPHCLOCK(PeriphClkInit->PeriphClockSelection));

  /*------------------------------- RTC/LCD Configuration ------------------------*/
  if ((((PeriphClkInit->PeriphClockSelection) & RCC_PERIPHCLK_RTC) == RCC_PERIPHCLK_RTC))
 8002350:	687b      	ldr	r3, [r7, #4]
 8002352:	681b      	ldr	r3, [r3, #0]
 8002354:	f003 0301 	and.w	r3, r3, #1
 8002358:	2b00      	cmp	r3, #0
 800235a:	d07d      	beq.n	8002458 <HAL_RCCEx_PeriphCLKConfig+0x118>
  {
    FlagStatus pwrclkchanged = RESET;
 800235c:	2300      	movs	r3, #0
 800235e:	75fb      	strb	r3, [r7, #23]
    assert_param(IS_RCC_RTCCLKSOURCE(PeriphClkInit->RTCClockSelection));

    /* As soon as function is called to change RTC clock source, activation of the
       power domain is done. */
    /* Requires to enable write access to Backup Domain of necessary */
    if (__HAL_RCC_PWR_IS_CLK_DISABLED())
 8002360:	4b4f      	ldr	r3, [pc, #316]	; (80024a0 <HAL_RCCEx_PeriphCLKConfig+0x160>)
 8002362:	69db      	ldr	r3, [r3, #28]
 8002364:	f003 5380 	and.w	r3, r3, #268435456	; 0x10000000
 8002368:	2b00      	cmp	r3, #0
 800236a:	d10d      	bne.n	8002388 <HAL_RCCEx_PeriphCLKConfig+0x48>
    {
      __HAL_RCC_PWR_CLK_ENABLE();
 800236c:	4b4c      	ldr	r3, [pc, #304]	; (80024a0 <HAL_RCCEx_PeriphCLKConfig+0x160>)
 800236e:	69db      	ldr	r3, [r3, #28]
 8002370:	4a4b      	ldr	r2, [pc, #300]	; (80024a0 <HAL_RCCEx_PeriphCLKConfig+0x160>)
 8002372:	f043 5380 	orr.w	r3, r3, #268435456	; 0x10000000
 8002376:	61d3      	str	r3, [r2, #28]
 8002378:	4b49      	ldr	r3, [pc, #292]	; (80024a0 <HAL_RCCEx_PeriphCLKConfig+0x160>)
 800237a:	69db      	ldr	r3, [r3, #28]
 800237c:	f003 5380 	and.w	r3, r3, #268435456	; 0x10000000
 8002380:	60bb      	str	r3, [r7, #8]
 8002382:	68bb      	ldr	r3, [r7, #8]
      pwrclkchanged = SET;
 8002384:	2301      	movs	r3, #1
 8002386:	75fb      	strb	r3, [r7, #23]
    }

    if (HAL_IS_BIT_CLR(PWR->CR, PWR_CR_DBP))
 8002388:	4b46      	ldr	r3, [pc, #280]	; (80024a4 <HAL_RCCEx_PeriphCLKConfig+0x164>)
 800238a:	681b      	ldr	r3, [r3, #0]
 800238c:	f403 7380 	and.w	r3, r3, #256	; 0x100
 8002390:	2b00      	cmp	r3, #0
 8002392:	d118      	bne.n	80023c6 <HAL_RCCEx_PeriphCLKConfig+0x86>
    {
      /* Enable write access to Backup domain */
      SET_BIT(PWR->CR, PWR_CR_DBP);
 8002394:	4b43      	ldr	r3, [pc, #268]	; (80024a4 <HAL_RCCEx_PeriphCLKConfig+0x164>)
 8002396:	681b      	ldr	r3, [r3, #0]
 8002398:	4a42      	ldr	r2, [pc, #264]	; (80024a4 <HAL_RCCEx_PeriphCLKConfig+0x164>)
 800239a:	f443 7380 	orr.w	r3, r3, #256	; 0x100
 800239e:	6013      	str	r3, [r2, #0]

      /* Wait for Backup domain Write protection disable */
      tickstart = HAL_GetTick();
 80023a0:	f7fe fb00 	bl	80009a4 <HAL_GetTick>
 80023a4:	6138      	str	r0, [r7, #16]

      while (HAL_IS_BIT_CLR(PWR->CR, PWR_CR_DBP))
 80023a6:	e008      	b.n	80023ba <HAL_RCCEx_PeriphCLKConfig+0x7a>
      {
        if ((HAL_GetTick() - tickstart) > RCC_DBP_TIMEOUT_VALUE)
 80023a8:	f7fe fafc 	bl	80009a4 <HAL_GetTick>
 80023ac:	4602      	mov	r2, r0
 80023ae:	693b      	ldr	r3, [r7, #16]
 80023b0:	1ad3      	subs	r3, r2, r3
 80023b2:	2b64      	cmp	r3, #100	; 0x64
 80023b4:	d901      	bls.n	80023ba <HAL_RCCEx_PeriphCLKConfig+0x7a>
        {
          return HAL_TIMEOUT;
 80023b6:	2303      	movs	r3, #3
 80023b8:	e06d      	b.n	8002496 <HAL_RCCEx_PeriphCLKConfig+0x156>
      while (HAL_IS_BIT_CLR(PWR->CR, PWR_CR_DBP))
 80023ba:	4b3a      	ldr	r3, [pc, #232]	; (80024a4 <HAL_RCCEx_PeriphCLKConfig+0x164>)
 80023bc:	681b      	ldr	r3, [r3, #0]
 80023be:	f403 7380 	and.w	r3, r3, #256	; 0x100
 80023c2:	2b00      	cmp	r3, #0
 80023c4:	d0f0      	beq.n	80023a8 <HAL_RCCEx_PeriphCLKConfig+0x68>
        }
      }
    }

    /* Reset the Backup domain only if the RTC Clock source selection is modified from reset value */
    temp_reg = (RCC->BDCR & RCC_BDCR_RTCSEL);
 80023c6:	4b36      	ldr	r3, [pc, #216]	; (80024a0 <HAL_RCCEx_PeriphCLKConfig+0x160>)
 80023c8:	6a1b      	ldr	r3, [r3, #32]
 80023ca:	f403 7340 	and.w	r3, r3, #768	; 0x300
 80023ce:	60fb      	str	r3, [r7, #12]
    if ((temp_reg != 0x00000000U) && (temp_reg != (PeriphClkInit->RTCClockSelection & RCC_BDCR_RTCSEL)))
 80023d0:	68fb      	ldr	r3, [r7, #12]
 80023d2:	2b00      	cmp	r3, #0
 80023d4:	d02e      	beq.n	8002434 <HAL_RCCEx_PeriphCLKConfig+0xf4>
 80023d6:	687b      	ldr	r3, [r7, #4]
 80023d8:	685b      	ldr	r3, [r3, #4]
 80023da:	f403 7340 	and.w	r3, r3, #768	; 0x300
 80023de:	68fa      	ldr	r2, [r7, #12]
 80023e0:	429a      	cmp	r2, r3
 80023e2:	d027      	beq.n	8002434 <HAL_RCCEx_PeriphCLKConfig+0xf4>
    {
      /* Store the content of BDCR register before the reset of Backup Domain */
      temp_reg = (RCC->BDCR & ~(RCC_BDCR_RTCSEL));
 80023e4:	4b2e      	ldr	r3, [pc, #184]	; (80024a0 <HAL_RCCEx_PeriphCLKConfig+0x160>)
 80023e6:	6a1b      	ldr	r3, [r3, #32]
 80023e8:	f423 7340 	bic.w	r3, r3, #768	; 0x300
 80023ec:	60fb      	str	r3, [r7, #12]
      /* RTC Clock selection can be changed only if the Backup Domain is reset */
      __HAL_RCC_BACKUPRESET_FORCE();
 80023ee:	4b2e      	ldr	r3, [pc, #184]	; (80024a8 <HAL_RCCEx_PeriphCLKConfig+0x168>)
 80023f0:	2201      	movs	r2, #1
 80023f2:	601a      	str	r2, [r3, #0]
      __HAL_RCC_BACKUPRESET_RELEASE();
 80023f4:	4b2c      	ldr	r3, [pc, #176]	; (80024a8 <HAL_RCCEx_PeriphCLKConfig+0x168>)
 80023f6:	2200      	movs	r2, #0
 80023f8:	601a      	str	r2, [r3, #0]
      /* Restore the Content of BDCR register */
      RCC->BDCR = temp_reg;
 80023fa:	4a29      	ldr	r2, [pc, #164]	; (80024a0 <HAL_RCCEx_PeriphCLKConfig+0x160>)
 80023fc:	68fb      	ldr	r3, [r7, #12]
 80023fe:	6213      	str	r3, [r2, #32]

      /* Wait for LSERDY if LSE was enabled */
      if (HAL_IS_BIT_SET(temp_reg, RCC_BDCR_LSEON))
 8002400:	68fb      	ldr	r3, [r7, #12]
 8002402:	f003 0301 	and.w	r3, r3, #1
 8002406:	2b00      	cmp	r3, #0
 8002408:	d014      	beq.n	8002434 <HAL_RCCEx_PeriphCLKConfig+0xf4>
      {
        /* Get Start Tick */
        tickstart = HAL_GetTick();
 800240a:	f7fe facb 	bl	80009a4 <HAL_GetTick>
 800240e:	6138      	str	r0, [r7, #16]

        /* Wait till LSE is ready */
        while (__HAL_RCC_GET_FLAG(RCC_FLAG_LSERDY) == RESET)
 8002410:	e00a      	b.n	8002428 <HAL_RCCEx_PeriphCLKConfig+0xe8>
        {
          if ((HAL_GetTick() - tickstart) > RCC_LSE_TIMEOUT_VALUE)
 8002412:	f7fe fac7 	bl	80009a4 <HAL_GetTick>
 8002416:	4602      	mov	r2, r0
 8002418:	693b      	ldr	r3, [r7, #16]
 800241a:	1ad3      	subs	r3, r2, r3
 800241c:	f241 3288 	movw	r2, #5000	; 0x1388
 8002420:	4293      	cmp	r3, r2
 8002422:	d901      	bls.n	8002428 <HAL_RCCEx_PeriphCLKConfig+0xe8>
          {
            return HAL_TIMEOUT;
 8002424:	2303      	movs	r3, #3
 8002426:	e036      	b.n	8002496 <HAL_RCCEx_PeriphCLKConfig+0x156>
        while (__HAL_RCC_GET_FLAG(RCC_FLAG_LSERDY) == RESET)
 8002428:	4b1d      	ldr	r3, [pc, #116]	; (80024a0 <HAL_RCCEx_PeriphCLKConfig+0x160>)
 800242a:	6a1b      	ldr	r3, [r3, #32]
 800242c:	f003 0302 	and.w	r3, r3, #2
 8002430:	2b00      	cmp	r3, #0
 8002432:	d0ee      	beq.n	8002412 <HAL_RCCEx_PeriphCLKConfig+0xd2>
          }
        }
      }
    }
    __HAL_RCC_RTC_CONFIG(PeriphClkInit->RTCClockSelection);
 8002434:	4b1a      	ldr	r3, [pc, #104]	; (80024a0 <HAL_RCCEx_PeriphCLKConfig+0x160>)
 8002436:	6a1b      	ldr	r3, [r3, #32]
 8002438:	f423 7240 	bic.w	r2, r3, #768	; 0x300
 800243c:	687b      	ldr	r3, [r7, #4]
 800243e:	685b      	ldr	r3, [r3, #4]
 8002440:	4917      	ldr	r1, [pc, #92]	; (80024a0 <HAL_RCCEx_PeriphCLKConfig+0x160>)
 8002442:	4313      	orrs	r3, r2
 8002444:	620b      	str	r3, [r1, #32]

    /* Require to disable power clock if necessary */
    if (pwrclkchanged == SET)
 8002446:	7dfb      	ldrb	r3, [r7, #23]
 8002448:	2b01      	cmp	r3, #1
 800244a:	d105      	bne.n	8002458 <HAL_RCCEx_PeriphCLKConfig+0x118>
    {
      __HAL_RCC_PWR_CLK_DISABLE();
 800244c:	4b14      	ldr	r3, [pc, #80]	; (80024a0 <HAL_RCCEx_PeriphCLKConfig+0x160>)
 800244e:	69db      	ldr	r3, [r3, #28]
 8002450:	4a13      	ldr	r2, [pc, #76]	; (80024a0 <HAL_RCCEx_PeriphCLKConfig+0x160>)
 8002452:	f023 5380 	bic.w	r3, r3, #268435456	; 0x10000000
 8002456:	61d3      	str	r3, [r2, #28]
    }
  }

  /*------------------------------ ADC clock Configuration ------------------*/
  if (((PeriphClkInit->PeriphClockSelection) & RCC_PERIPHCLK_ADC) == RCC_PERIPHCLK_ADC)
 8002458:	687b      	ldr	r3, [r7, #4]
 800245a:	681b      	ldr	r3, [r3, #0]
 800245c:	f003 0302 	and.w	r3, r3, #2
 8002460:	2b00      	cmp	r3, #0
 8002462:	d008      	beq.n	8002476 <HAL_RCCEx_PeriphCLKConfig+0x136>
  {
    /* Check the parameters */
    assert_param(IS_RCC_ADCPLLCLK_DIV(PeriphClkInit->AdcClockSelection));

    /* Configure the ADC clock source */
    __HAL_RCC_ADC_CONFIG(PeriphClkInit->AdcClockSelection);
 8002464:	4b0e      	ldr	r3, [pc, #56]	; (80024a0 <HAL_RCCEx_PeriphCLKConfig+0x160>)
 8002466:	685b      	ldr	r3, [r3, #4]
 8002468:	f423 4240 	bic.w	r2, r3, #49152	; 0xc000
 800246c:	687b      	ldr	r3, [r7, #4]
 800246e:	689b      	ldr	r3, [r3, #8]
 8002470:	490b      	ldr	r1, [pc, #44]	; (80024a0 <HAL_RCCEx_PeriphCLKConfig+0x160>)
 8002472:	4313      	orrs	r3, r2
 8002474:	604b      	str	r3, [r1, #4]

#if defined(STM32F102x6) || defined(STM32F102xB) || defined(STM32F103x6)\
 || defined(STM32F103xB) || defined(STM32F103xE) || defined(STM32F103xG)\
 || defined(STM32F105xC) || defined(STM32F107xC)
  /*------------------------------ USB clock Configuration ------------------*/
  if (((PeriphClkInit->PeriphClockSelection) & RCC_PERIPHCLK_USB) == RCC_PERIPHCLK_USB)
 8002476:	687b      	ldr	r3, [r7, #4]
 8002478:	681b      	ldr	r3, [r3, #0]
 800247a:	f003 0310 	and.w	r3, r3, #16
 800247e:	2b00      	cmp	r3, #0
 8002480:	d008      	beq.n	8002494 <HAL_RCCEx_PeriphCLKConfig+0x154>
  {
    /* Check the parameters */
    assert_param(IS_RCC_USBPLLCLK_DIV(PeriphClkInit->UsbClockSelection));

    /* Configure the USB clock source */
    __HAL_RCC_USB_CONFIG(PeriphClkInit->UsbClockSelection);
 8002482:	4b07      	ldr	r3, [pc, #28]	; (80024a0 <HAL_RCCEx_PeriphCLKConfig+0x160>)
 8002484:	685b      	ldr	r3, [r3, #4]
 8002486:	f423 0280 	bic.w	r2, r3, #4194304	; 0x400000
 800248a:	687b      	ldr	r3, [r7, #4]
 800248c:	68db      	ldr	r3, [r3, #12]
 800248e:	4904      	ldr	r1, [pc, #16]	; (80024a0 <HAL_RCCEx_PeriphCLKConfig+0x160>)
 8002490:	4313      	orrs	r3, r2
 8002492:	604b      	str	r3, [r1, #4]
  }
#endif /* STM32F102x6 || STM32F102xB || STM32F103x6 || STM32F103xB || STM32F103xE || STM32F103xG || STM32F105xC || STM32F107xC */

  return HAL_OK;
 8002494:	2300      	movs	r3, #0
}
 8002496:	4618      	mov	r0, r3
 8002498:	3718      	adds	r7, #24
 800249a:	46bd      	mov	sp, r7
 800249c:	bd80      	pop	{r7, pc}
 800249e:	bf00      	nop
 80024a0:	40021000 	.word	0x40021000
 80024a4:	40007000 	.word	0x40007000
 80024a8:	42420440 	.word	0x42420440

080024ac <HAL_UART_Init>:
  * @param  huart  Pointer to a UART_HandleTypeDef structure that contains
  *                the configuration information for the specified UART module.
  * @retval HAL status
  */
HAL_StatusTypeDef HAL_UART_Init(UART_HandleTypeDef *huart)
{
 80024ac:	b580      	push	{r7, lr}
 80024ae:	b082      	sub	sp, #8
 80024b0:	af00      	add	r7, sp, #0
 80024b2:	6078      	str	r0, [r7, #4]
  /* Check the UART handle allocation */
  if (huart == NULL)
 80024b4:	687b      	ldr	r3, [r7, #4]
 80024b6:	2b00      	cmp	r3, #0
 80024b8:	d101      	bne.n	80024be <HAL_UART_Init+0x12>
  {
    return HAL_ERROR;
 80024ba:	2301      	movs	r3, #1
 80024bc:	e03f      	b.n	800253e <HAL_UART_Init+0x92>
  assert_param(IS_UART_WORD_LENGTH(huart->Init.WordLength));
#if defined(USART_CR1_OVER8)
  assert_param(IS_UART_OVERSAMPLING(huart->Init.OverSampling));
#endif /* USART_CR1_OVER8 */

  if (huart->gState == HAL_UART_STATE_RESET)
 80024be:	687b      	ldr	r3, [r7, #4]
 80024c0:	f893 303d 	ldrb.w	r3, [r3, #61]	; 0x3d
 80024c4:	b2db      	uxtb	r3, r3
 80024c6:	2b00      	cmp	r3, #0
 80024c8:	d106      	bne.n	80024d8 <HAL_UART_Init+0x2c>
  {
    /* Allocate lock resource and initialize it */
    huart->Lock = HAL_UNLOCKED;
 80024ca:	687b      	ldr	r3, [r7, #4]
 80024cc:	2200      	movs	r2, #0
 80024ce:	f883 203c 	strb.w	r2, [r3, #60]	; 0x3c

    /* Init the low level hardware */
    huart->MspInitCallback(huart);
#else
    /* Init the low level hardware : GPIO, CLOCK */
    HAL_UART_MspInit(huart);
 80024d2:	6878      	ldr	r0, [r7, #4]
 80024d4:	f7fe f8ca 	bl	800066c <HAL_UART_MspInit>
#endif /* (USE_HAL_UART_REGISTER_CALLBACKS) */
  }

  huart->gState = HAL_UART_STATE_BUSY;
 80024d8:	687b      	ldr	r3, [r7, #4]
 80024da:	2224      	movs	r2, #36	; 0x24
 80024dc:	f883 203d 	strb.w	r2, [r3, #61]	; 0x3d

  /* Disable the peripheral */
  __HAL_UART_DISABLE(huart);
 80024e0:	687b      	ldr	r3, [r7, #4]
 80024e2:	681b      	ldr	r3, [r3, #0]
 80024e4:	68da      	ldr	r2, [r3, #12]
 80024e6:	687b      	ldr	r3, [r7, #4]
 80024e8:	681b      	ldr	r3, [r3, #0]
 80024ea:	f422 5200 	bic.w	r2, r2, #8192	; 0x2000
 80024ee:	60da      	str	r2, [r3, #12]

  /* Set the UART Communication parameters */
  UART_SetConfig(huart);
 80024f0:	6878      	ldr	r0, [r7, #4]
 80024f2:	f000 f905 	bl	8002700 <UART_SetConfig>

  /* In asynchronous mode, the following bits must be kept cleared:
     - LINEN and CLKEN bits in the USART_CR2 register,
     - SCEN, HDSEL and IREN  bits in the USART_CR3 register.*/
  CLEAR_BIT(huart->Instance->CR2, (USART_CR2_LINEN | USART_CR2_CLKEN));
 80024f6:	687b      	ldr	r3, [r7, #4]
 80024f8:	681b      	ldr	r3, [r3, #0]
 80024fa:	691a      	ldr	r2, [r3, #16]
 80024fc:	687b      	ldr	r3, [r7, #4]
 80024fe:	681b      	ldr	r3, [r3, #0]
 8002500:	f422 4290 	bic.w	r2, r2, #18432	; 0x4800
 8002504:	611a      	str	r2, [r3, #16]
  CLEAR_BIT(huart->Instance->CR3, (USART_CR3_SCEN | USART_CR3_HDSEL | USART_CR3_IREN));
 8002506:	687b      	ldr	r3, [r7, #4]
 8002508:	681b      	ldr	r3, [r3, #0]
 800250a:	695a      	ldr	r2, [r3, #20]
 800250c:	687b      	ldr	r3, [r7, #4]
 800250e:	681b      	ldr	r3, [r3, #0]
 8002510:	f022 022a 	bic.w	r2, r2, #42	; 0x2a
 8002514:	615a      	str	r2, [r3, #20]

  /* Enable the peripheral */
  __HAL_UART_ENABLE(huart);
 8002516:	687b      	ldr	r3, [r7, #4]
 8002518:	681b      	ldr	r3, [r3, #0]
 800251a:	68da      	ldr	r2, [r3, #12]
 800251c:	687b      	ldr	r3, [r7, #4]
 800251e:	681b      	ldr	r3, [r3, #0]
 8002520:	f442 5200 	orr.w	r2, r2, #8192	; 0x2000
 8002524:	60da      	str	r2, [r3, #12]

  /* Initialize the UART state */
  huart->ErrorCode = HAL_UART_ERROR_NONE;
 8002526:	687b      	ldr	r3, [r7, #4]
 8002528:	2200      	movs	r2, #0
 800252a:	641a      	str	r2, [r3, #64]	; 0x40
  huart->gState = HAL_UART_STATE_READY;
 800252c:	687b      	ldr	r3, [r7, #4]
 800252e:	2220      	movs	r2, #32
 8002530:	f883 203d 	strb.w	r2, [r3, #61]	; 0x3d
  huart->RxState = HAL_UART_STATE_READY;
 8002534:	687b      	ldr	r3, [r7, #4]
 8002536:	2220      	movs	r2, #32
 8002538:	f883 203e 	strb.w	r2, [r3, #62]	; 0x3e

  return HAL_OK;
 800253c:	2300      	movs	r3, #0
}
 800253e:	4618      	mov	r0, r3
 8002540:	3708      	adds	r7, #8
 8002542:	46bd      	mov	sp, r7
 8002544:	bd80      	pop	{r7, pc}

08002546 <HAL_UART_Transmit>:
  * @param  Size  Amount of data elements (u8 or u16) to be sent
  * @param  Timeout Timeout duration
  * @retval HAL status
  */
HAL_StatusTypeDef HAL_UART_Transmit(UART_HandleTypeDef *huart, uint8_t *pData, uint16_t Size, uint32_t Timeout)
{
 8002546:	b580      	push	{r7, lr}
 8002548:	b08a      	sub	sp, #40	; 0x28
 800254a:	af02      	add	r7, sp, #8
 800254c:	60f8      	str	r0, [r7, #12]
 800254e:	60b9      	str	r1, [r7, #8]
 8002550:	603b      	str	r3, [r7, #0]
 8002552:	4613      	mov	r3, r2
 8002554:	80fb      	strh	r3, [r7, #6]
  uint8_t  *pdata8bits;
  uint16_t *pdata16bits;
  uint32_t tickstart = 0U;
 8002556:	2300      	movs	r3, #0
 8002558:	617b      	str	r3, [r7, #20]

  /* Check that a Tx process is not already ongoing */
  if (huart->gState == HAL_UART_STATE_READY)
 800255a:	68fb      	ldr	r3, [r7, #12]
 800255c:	f893 303d 	ldrb.w	r3, [r3, #61]	; 0x3d
 8002560:	b2db      	uxtb	r3, r3
 8002562:	2b20      	cmp	r3, #32
 8002564:	d17c      	bne.n	8002660 <HAL_UART_Transmit+0x11a>
  {
    if ((pData == NULL) || (Size == 0U))
 8002566:	68bb      	ldr	r3, [r7, #8]
 8002568:	2b00      	cmp	r3, #0
 800256a:	d002      	beq.n	8002572 <HAL_UART_Transmit+0x2c>
 800256c:	88fb      	ldrh	r3, [r7, #6]
 800256e:	2b00      	cmp	r3, #0
 8002570:	d101      	bne.n	8002576 <HAL_UART_Transmit+0x30>
    {
      return  HAL_ERROR;
 8002572:	2301      	movs	r3, #1
 8002574:	e075      	b.n	8002662 <HAL_UART_Transmit+0x11c>
    }

    /* Process Locked */
    __HAL_LOCK(huart);
 8002576:	68fb      	ldr	r3, [r7, #12]
 8002578:	f893 303c 	ldrb.w	r3, [r3, #60]	; 0x3c
 800257c:	2b01      	cmp	r3, #1
 800257e:	d101      	bne.n	8002584 <HAL_UART_Transmit+0x3e>
 8002580:	2302      	movs	r3, #2
 8002582:	e06e      	b.n	8002662 <HAL_UART_Transmit+0x11c>
 8002584:	68fb      	ldr	r3, [r7, #12]
 8002586:	2201      	movs	r2, #1
 8002588:	f883 203c 	strb.w	r2, [r3, #60]	; 0x3c

    huart->ErrorCode = HAL_UART_ERROR_NONE;
 800258c:	68fb      	ldr	r3, [r7, #12]
 800258e:	2200      	movs	r2, #0
 8002590:	641a      	str	r2, [r3, #64]	; 0x40
    huart->gState = HAL_UART_STATE_BUSY_TX;
 8002592:	68fb      	ldr	r3, [r7, #12]
 8002594:	2221      	movs	r2, #33	; 0x21
 8002596:	f883 203d 	strb.w	r2, [r3, #61]	; 0x3d

    /* Init tickstart for timeout management */
    tickstart = HAL_GetTick();
 800259a:	f7fe fa03 	bl	80009a4 <HAL_GetTick>
 800259e:	6178      	str	r0, [r7, #20]

    huart->TxXferSize = Size;
 80025a0:	68fb      	ldr	r3, [r7, #12]
 80025a2:	88fa      	ldrh	r2, [r7, #6]
 80025a4:	849a      	strh	r2, [r3, #36]	; 0x24
    huart->TxXferCount = Size;
 80025a6:	68fb      	ldr	r3, [r7, #12]
 80025a8:	88fa      	ldrh	r2, [r7, #6]
 80025aa:	84da      	strh	r2, [r3, #38]	; 0x26

    /* In case of 9bits/No Parity transfer, pData needs to be handled as a uint16_t pointer */
    if ((huart->Init.WordLength == UART_WORDLENGTH_9B) && (huart->Init.Parity == UART_PARITY_NONE))
 80025ac:	68fb      	ldr	r3, [r7, #12]
 80025ae:	689b      	ldr	r3, [r3, #8]
 80025b0:	f5b3 5f80 	cmp.w	r3, #4096	; 0x1000
 80025b4:	d108      	bne.n	80025c8 <HAL_UART_Transmit+0x82>
 80025b6:	68fb      	ldr	r3, [r7, #12]
 80025b8:	691b      	ldr	r3, [r3, #16]
 80025ba:	2b00      	cmp	r3, #0
 80025bc:	d104      	bne.n	80025c8 <HAL_UART_Transmit+0x82>
    {
      pdata8bits  = NULL;
 80025be:	2300      	movs	r3, #0
 80025c0:	61fb      	str	r3, [r7, #28]
      pdata16bits = (uint16_t *) pData;
 80025c2:	68bb      	ldr	r3, [r7, #8]
 80025c4:	61bb      	str	r3, [r7, #24]
 80025c6:	e003      	b.n	80025d0 <HAL_UART_Transmit+0x8a>
    }
    else
    {
      pdata8bits  = pData;
 80025c8:	68bb      	ldr	r3, [r7, #8]
 80025ca:	61fb      	str	r3, [r7, #28]
      pdata16bits = NULL;
 80025cc:	2300      	movs	r3, #0
 80025ce:	61bb      	str	r3, [r7, #24]
    }

    /* Process Unlocked */
    __HAL_UNLOCK(huart);
 80025d0:	68fb      	ldr	r3, [r7, #12]
 80025d2:	2200      	movs	r2, #0
 80025d4:	f883 203c 	strb.w	r2, [r3, #60]	; 0x3c

    while (huart->TxXferCount > 0U)
 80025d8:	e02a      	b.n	8002630 <HAL_UART_Transmit+0xea>
    {
      if (UART_WaitOnFlagUntilTimeout(huart, UART_FLAG_TXE, RESET, tickstart, Timeout) != HAL_OK)
 80025da:	683b      	ldr	r3, [r7, #0]
 80025dc:	9300      	str	r3, [sp, #0]
 80025de:	697b      	ldr	r3, [r7, #20]
 80025e0:	2200      	movs	r2, #0
 80025e2:	2180      	movs	r1, #128	; 0x80
 80025e4:	68f8      	ldr	r0, [r7, #12]
 80025e6:	f000 f840 	bl	800266a <UART_WaitOnFlagUntilTimeout>
 80025ea:	4603      	mov	r3, r0
 80025ec:	2b00      	cmp	r3, #0
 80025ee:	d001      	beq.n	80025f4 <HAL_UART_Transmit+0xae>
      {
        return HAL_TIMEOUT;
 80025f0:	2303      	movs	r3, #3
 80025f2:	e036      	b.n	8002662 <HAL_UART_Transmit+0x11c>
      }
      if (pdata8bits == NULL)
 80025f4:	69fb      	ldr	r3, [r7, #28]
 80025f6:	2b00      	cmp	r3, #0
 80025f8:	d10b      	bne.n	8002612 <HAL_UART_Transmit+0xcc>
      {
        huart->Instance->DR = (uint16_t)(*pdata16bits & 0x01FFU);
 80025fa:	69bb      	ldr	r3, [r7, #24]
 80025fc:	881b      	ldrh	r3, [r3, #0]
 80025fe:	461a      	mov	r2, r3
 8002600:	68fb      	ldr	r3, [r7, #12]
 8002602:	681b      	ldr	r3, [r3, #0]
 8002604:	f3c2 0208 	ubfx	r2, r2, #0, #9
 8002608:	605a      	str	r2, [r3, #4]
        pdata16bits++;
 800260a:	69bb      	ldr	r3, [r7, #24]
 800260c:	3302      	adds	r3, #2
 800260e:	61bb      	str	r3, [r7, #24]
 8002610:	e007      	b.n	8002622 <HAL_UART_Transmit+0xdc>
      }
      else
      {
        huart->Instance->DR = (uint8_t)(*pdata8bits & 0xFFU);
 8002612:	69fb      	ldr	r3, [r7, #28]
 8002614:	781a      	ldrb	r2, [r3, #0]
 8002616:	68fb      	ldr	r3, [r7, #12]
 8002618:	681b      	ldr	r3, [r3, #0]
 800261a:	605a      	str	r2, [r3, #4]
        pdata8bits++;
 800261c:	69fb      	ldr	r3, [r7, #28]
 800261e:	3301      	adds	r3, #1
 8002620:	61fb      	str	r3, [r7, #28]
      }
      huart->TxXferCount--;
 8002622:	68fb      	ldr	r3, [r7, #12]
 8002624:	8cdb      	ldrh	r3, [r3, #38]	; 0x26
 8002626:	b29b      	uxth	r3, r3
 8002628:	3b01      	subs	r3, #1
 800262a:	b29a      	uxth	r2, r3
 800262c:	68fb      	ldr	r3, [r7, #12]
 800262e:	84da      	strh	r2, [r3, #38]	; 0x26
    while (huart->TxXferCount > 0U)
 8002630:	68fb      	ldr	r3, [r7, #12]
 8002632:	8cdb      	ldrh	r3, [r3, #38]	; 0x26
 8002634:	b29b      	uxth	r3, r3
 8002636:	2b00      	cmp	r3, #0
 8002638:	d1cf      	bne.n	80025da <HAL_UART_Transmit+0x94>
    }

    if (UART_WaitOnFlagUntilTimeout(huart, UART_FLAG_TC, RESET, tickstart, Timeout) != HAL_OK)
 800263a:	683b      	ldr	r3, [r7, #0]
 800263c:	9300      	str	r3, [sp, #0]
 800263e:	697b      	ldr	r3, [r7, #20]
 8002640:	2200      	movs	r2, #0
 8002642:	2140      	movs	r1, #64	; 0x40
 8002644:	68f8      	ldr	r0, [r7, #12]
 8002646:	f000 f810 	bl	800266a <UART_WaitOnFlagUntilTimeout>
 800264a:	4603      	mov	r3, r0
 800264c:	2b00      	cmp	r3, #0
 800264e:	d001      	beq.n	8002654 <HAL_UART_Transmit+0x10e>
    {
      return HAL_TIMEOUT;
 8002650:	2303      	movs	r3, #3
 8002652:	e006      	b.n	8002662 <HAL_UART_Transmit+0x11c>
    }

    /* At end of Tx process, restore huart->gState to Ready */
    huart->gState = HAL_UART_STATE_READY;
 8002654:	68fb      	ldr	r3, [r7, #12]
 8002656:	2220      	movs	r2, #32
 8002658:	f883 203d 	strb.w	r2, [r3, #61]	; 0x3d

    return HAL_OK;
 800265c:	2300      	movs	r3, #0
 800265e:	e000      	b.n	8002662 <HAL_UART_Transmit+0x11c>
  }
  else
  {
    return HAL_BUSY;
 8002660:	2302      	movs	r3, #2
  }
}
 8002662:	4618      	mov	r0, r3
 8002664:	3720      	adds	r7, #32
 8002666:	46bd      	mov	sp, r7
 8002668:	bd80      	pop	{r7, pc}

0800266a <UART_WaitOnFlagUntilTimeout>:
  * @param  Tickstart Tick start value
  * @param  Timeout Timeout duration
  * @retval HAL status
  */
static HAL_StatusTypeDef UART_WaitOnFlagUntilTimeout(UART_HandleTypeDef *huart, uint32_t Flag, FlagStatus Status, uint32_t Tickstart, uint32_t Timeout)
{
 800266a:	b580      	push	{r7, lr}
 800266c:	b084      	sub	sp, #16
 800266e:	af00      	add	r7, sp, #0
 8002670:	60f8      	str	r0, [r7, #12]
 8002672:	60b9      	str	r1, [r7, #8]
 8002674:	603b      	str	r3, [r7, #0]
 8002676:	4613      	mov	r3, r2
 8002678:	71fb      	strb	r3, [r7, #7]
  /* Wait until flag is set */
  while ((__HAL_UART_GET_FLAG(huart, Flag) ? SET : RESET) == Status)
 800267a:	e02c      	b.n	80026d6 <UART_WaitOnFlagUntilTimeout+0x6c>
  {
    /* Check for the Timeout */
    if (Timeout != HAL_MAX_DELAY)
 800267c:	69bb      	ldr	r3, [r7, #24]
 800267e:	f1b3 3fff 	cmp.w	r3, #4294967295
 8002682:	d028      	beq.n	80026d6 <UART_WaitOnFlagUntilTimeout+0x6c>
    {
      if ((Timeout == 0U) || ((HAL_GetTick() - Tickstart) > Timeout))
 8002684:	69bb      	ldr	r3, [r7, #24]
 8002686:	2b00      	cmp	r3, #0
 8002688:	d007      	beq.n	800269a <UART_WaitOnFlagUntilTimeout+0x30>
 800268a:	f7fe f98b 	bl	80009a4 <HAL_GetTick>
 800268e:	4602      	mov	r2, r0
 8002690:	683b      	ldr	r3, [r7, #0]
 8002692:	1ad3      	subs	r3, r2, r3
 8002694:	69ba      	ldr	r2, [r7, #24]
 8002696:	429a      	cmp	r2, r3
 8002698:	d21d      	bcs.n	80026d6 <UART_WaitOnFlagUntilTimeout+0x6c>
      {
        /* Disable TXE, RXNE, PE and ERR (Frame error, noise error, overrun error) interrupts for the interrupt process */
        CLEAR_BIT(huart->Instance->CR1, (USART_CR1_RXNEIE | USART_CR1_PEIE | USART_CR1_TXEIE));
 800269a:	68fb      	ldr	r3, [r7, #12]
 800269c:	681b      	ldr	r3, [r3, #0]
 800269e:	68da      	ldr	r2, [r3, #12]
 80026a0:	68fb      	ldr	r3, [r7, #12]
 80026a2:	681b      	ldr	r3, [r3, #0]
 80026a4:	f422 72d0 	bic.w	r2, r2, #416	; 0x1a0
 80026a8:	60da      	str	r2, [r3, #12]
        CLEAR_BIT(huart->Instance->CR3, USART_CR3_EIE);
 80026aa:	68fb      	ldr	r3, [r7, #12]
 80026ac:	681b      	ldr	r3, [r3, #0]
 80026ae:	695a      	ldr	r2, [r3, #20]
 80026b0:	68fb      	ldr	r3, [r7, #12]
 80026b2:	681b      	ldr	r3, [r3, #0]
 80026b4:	f022 0201 	bic.w	r2, r2, #1
 80026b8:	615a      	str	r2, [r3, #20]

        huart->gState  = HAL_UART_STATE_READY;
 80026ba:	68fb      	ldr	r3, [r7, #12]
 80026bc:	2220      	movs	r2, #32
 80026be:	f883 203d 	strb.w	r2, [r3, #61]	; 0x3d
        huart->RxState = HAL_UART_STATE_READY;
 80026c2:	68fb      	ldr	r3, [r7, #12]
 80026c4:	2220      	movs	r2, #32
 80026c6:	f883 203e 	strb.w	r2, [r3, #62]	; 0x3e

        /* Process Unlocked */
        __HAL_UNLOCK(huart);
 80026ca:	68fb      	ldr	r3, [r7, #12]
 80026cc:	2200      	movs	r2, #0
 80026ce:	f883 203c 	strb.w	r2, [r3, #60]	; 0x3c

        return HAL_TIMEOUT;
 80026d2:	2303      	movs	r3, #3
 80026d4:	e00f      	b.n	80026f6 <UART_WaitOnFlagUntilTimeout+0x8c>
  while ((__HAL_UART_GET_FLAG(huart, Flag) ? SET : RESET) == Status)
 80026d6:	68fb      	ldr	r3, [r7, #12]
 80026d8:	681b      	ldr	r3, [r3, #0]
 80026da:	681a      	ldr	r2, [r3, #0]
 80026dc:	68bb      	ldr	r3, [r7, #8]
 80026de:	4013      	ands	r3, r2
 80026e0:	68ba      	ldr	r2, [r7, #8]
 80026e2:	429a      	cmp	r2, r3
 80026e4:	bf0c      	ite	eq
 80026e6:	2301      	moveq	r3, #1
 80026e8:	2300      	movne	r3, #0
 80026ea:	b2db      	uxtb	r3, r3
 80026ec:	461a      	mov	r2, r3
 80026ee:	79fb      	ldrb	r3, [r7, #7]
 80026f0:	429a      	cmp	r2, r3
 80026f2:	d0c3      	beq.n	800267c <UART_WaitOnFlagUntilTimeout+0x12>
      }
    }
  }
  return HAL_OK;
 80026f4:	2300      	movs	r3, #0
}
 80026f6:	4618      	mov	r0, r3
 80026f8:	3710      	adds	r7, #16
 80026fa:	46bd      	mov	sp, r7
 80026fc:	bd80      	pop	{r7, pc}
	...

08002700 <UART_SetConfig>:
  * @param  huart  Pointer to a UART_HandleTypeDef structure that contains
  *                the configuration information for the specified UART module.
  * @retval None
  */
static void UART_SetConfig(UART_HandleTypeDef *huart)
{
 8002700:	b580      	push	{r7, lr}
 8002702:	b084      	sub	sp, #16
 8002704:	af00      	add	r7, sp, #0
 8002706:	6078      	str	r0, [r7, #4]
  assert_param(IS_UART_MODE(huart->Init.Mode));

  /*-------------------------- USART CR2 Configuration -----------------------*/
  /* Configure the UART Stop Bits: Set STOP[13:12] bits
     according to huart->Init.StopBits value */
  MODIFY_REG(huart->Instance->CR2, USART_CR2_STOP, huart->Init.StopBits);
 8002708:	687b      	ldr	r3, [r7, #4]
 800270a:	681b      	ldr	r3, [r3, #0]
 800270c:	691b      	ldr	r3, [r3, #16]
 800270e:	f423 5140 	bic.w	r1, r3, #12288	; 0x3000
 8002712:	687b      	ldr	r3, [r7, #4]
 8002714:	68da      	ldr	r2, [r3, #12]
 8002716:	687b      	ldr	r3, [r7, #4]
 8002718:	681b      	ldr	r3, [r3, #0]
 800271a:	430a      	orrs	r2, r1
 800271c:	611a      	str	r2, [r3, #16]
  tmpreg = (uint32_t)huart->Init.WordLength | huart->Init.Parity | huart->Init.Mode | huart->Init.OverSampling;
  MODIFY_REG(huart->Instance->CR1,
             (uint32_t)(USART_CR1_M | USART_CR1_PCE | USART_CR1_PS | USART_CR1_TE | USART_CR1_RE | USART_CR1_OVER8),
             tmpreg);
#else
  tmpreg = (uint32_t)huart->Init.WordLength | huart->Init.Parity | huart->Init.Mode;
 800271e:	687b      	ldr	r3, [r7, #4]
 8002720:	689a      	ldr	r2, [r3, #8]
 8002722:	687b      	ldr	r3, [r7, #4]
 8002724:	691b      	ldr	r3, [r3, #16]
 8002726:	431a      	orrs	r2, r3
 8002728:	687b      	ldr	r3, [r7, #4]
 800272a:	695b      	ldr	r3, [r3, #20]
 800272c:	4313      	orrs	r3, r2
 800272e:	60bb      	str	r3, [r7, #8]
  MODIFY_REG(huart->Instance->CR1,
 8002730:	687b      	ldr	r3, [r7, #4]
 8002732:	681b      	ldr	r3, [r3, #0]
 8002734:	68db      	ldr	r3, [r3, #12]
 8002736:	f423 53b0 	bic.w	r3, r3, #5632	; 0x1600
 800273a:	f023 030c 	bic.w	r3, r3, #12
 800273e:	687a      	ldr	r2, [r7, #4]
 8002740:	6812      	ldr	r2, [r2, #0]
 8002742:	68b9      	ldr	r1, [r7, #8]
 8002744:	430b      	orrs	r3, r1
 8002746:	60d3      	str	r3, [r2, #12]
             tmpreg);
#endif /* USART_CR1_OVER8 */

  /*-------------------------- USART CR3 Configuration -----------------------*/
  /* Configure the UART HFC: Set CTSE and RTSE bits according to huart->Init.HwFlowCtl value */
  MODIFY_REG(huart->Instance->CR3, (USART_CR3_RTSE | USART_CR3_CTSE), huart->Init.HwFlowCtl);
 8002748:	687b      	ldr	r3, [r7, #4]
 800274a:	681b      	ldr	r3, [r3, #0]
 800274c:	695b      	ldr	r3, [r3, #20]
 800274e:	f423 7140 	bic.w	r1, r3, #768	; 0x300
 8002752:	687b      	ldr	r3, [r7, #4]
 8002754:	699a      	ldr	r2, [r3, #24]
 8002756:	687b      	ldr	r3, [r7, #4]
 8002758:	681b      	ldr	r3, [r3, #0]
 800275a:	430a      	orrs	r2, r1
 800275c:	615a      	str	r2, [r3, #20]


  if(huart->Instance == USART1)
 800275e:	687b      	ldr	r3, [r7, #4]
 8002760:	681b      	ldr	r3, [r3, #0]
 8002762:	4a2c      	ldr	r2, [pc, #176]	; (8002814 <UART_SetConfig+0x114>)
 8002764:	4293      	cmp	r3, r2
 8002766:	d103      	bne.n	8002770 <UART_SetConfig+0x70>
  {
    pclk = HAL_RCC_GetPCLK2Freq();
 8002768:	f7ff fdb8 	bl	80022dc <HAL_RCC_GetPCLK2Freq>
 800276c:	60f8      	str	r0, [r7, #12]
 800276e:	e002      	b.n	8002776 <UART_SetConfig+0x76>
  }
  else
  {
    pclk = HAL_RCC_GetPCLK1Freq();
 8002770:	f7ff fda0 	bl	80022b4 <HAL_RCC_GetPCLK1Freq>
 8002774:	60f8      	str	r0, [r7, #12]
  else
  {
    huart->Instance->BRR = UART_BRR_SAMPLING16(pclk, huart->Init.BaudRate);
  }
#else
  huart->Instance->BRR = UART_BRR_SAMPLING16(pclk, huart->Init.BaudRate);
 8002776:	68fa      	ldr	r2, [r7, #12]
 8002778:	4613      	mov	r3, r2
 800277a:	009b      	lsls	r3, r3, #2
 800277c:	4413      	add	r3, r2
 800277e:	009a      	lsls	r2, r3, #2
 8002780:	441a      	add	r2, r3
 8002782:	687b      	ldr	r3, [r7, #4]
 8002784:	685b      	ldr	r3, [r3, #4]
 8002786:	009b      	lsls	r3, r3, #2
 8002788:	fbb2 f3f3 	udiv	r3, r2, r3
 800278c:	4a22      	ldr	r2, [pc, #136]	; (8002818 <UART_SetConfig+0x118>)
 800278e:	fba2 2303 	umull	r2, r3, r2, r3
 8002792:	095b      	lsrs	r3, r3, #5
 8002794:	0119      	lsls	r1, r3, #4
 8002796:	68fa      	ldr	r2, [r7, #12]
 8002798:	4613      	mov	r3, r2
 800279a:	009b      	lsls	r3, r3, #2
 800279c:	4413      	add	r3, r2
 800279e:	009a      	lsls	r2, r3, #2
 80027a0:	441a      	add	r2, r3
 80027a2:	687b      	ldr	r3, [r7, #4]
 80027a4:	685b      	ldr	r3, [r3, #4]
 80027a6:	009b      	lsls	r3, r3, #2
 80027a8:	fbb2 f2f3 	udiv	r2, r2, r3
 80027ac:	4b1a      	ldr	r3, [pc, #104]	; (8002818 <UART_SetConfig+0x118>)
 80027ae:	fba3 0302 	umull	r0, r3, r3, r2
 80027b2:	095b      	lsrs	r3, r3, #5
 80027b4:	2064      	movs	r0, #100	; 0x64
 80027b6:	fb00 f303 	mul.w	r3, r0, r3
 80027ba:	1ad3      	subs	r3, r2, r3
 80027bc:	011b      	lsls	r3, r3, #4
 80027be:	3332      	adds	r3, #50	; 0x32
 80027c0:	4a15      	ldr	r2, [pc, #84]	; (8002818 <UART_SetConfig+0x118>)
 80027c2:	fba2 2303 	umull	r2, r3, r2, r3
 80027c6:	095b      	lsrs	r3, r3, #5
 80027c8:	f003 03f0 	and.w	r3, r3, #240	; 0xf0
 80027cc:	4419      	add	r1, r3
 80027ce:	68fa      	ldr	r2, [r7, #12]
 80027d0:	4613      	mov	r3, r2
 80027d2:	009b      	lsls	r3, r3, #2
 80027d4:	4413      	add	r3, r2
 80027d6:	009a      	lsls	r2, r3, #2
 80027d8:	441a      	add	r2, r3
 80027da:	687b      	ldr	r3, [r7, #4]
 80027dc:	685b      	ldr	r3, [r3, #4]
 80027de:	009b      	lsls	r3, r3, #2
 80027e0:	fbb2 f2f3 	udiv	r2, r2, r3
 80027e4:	4b0c      	ldr	r3, [pc, #48]	; (8002818 <UART_SetConfig+0x118>)
 80027e6:	fba3 0302 	umull	r0, r3, r3, r2
 80027ea:	095b      	lsrs	r3, r3, #5
 80027ec:	2064      	movs	r0, #100	; 0x64
 80027ee:	fb00 f303 	mul.w	r3, r0, r3
 80027f2:	1ad3      	subs	r3, r2, r3
 80027f4:	011b      	lsls	r3, r3, #4
 80027f6:	3332      	adds	r3, #50	; 0x32
 80027f8:	4a07      	ldr	r2, [pc, #28]	; (8002818 <UART_SetConfig+0x118>)
 80027fa:	fba2 2303 	umull	r2, r3, r2, r3
 80027fe:	095b      	lsrs	r3, r3, #5
 8002800:	f003 020f 	and.w	r2, r3, #15
 8002804:	687b      	ldr	r3, [r7, #4]
 8002806:	681b      	ldr	r3, [r3, #0]
 8002808:	440a      	add	r2, r1
 800280a:	609a      	str	r2, [r3, #8]
#endif /* USART_CR1_OVER8 */
}
 800280c:	bf00      	nop
 800280e:	3710      	adds	r7, #16
 8002810:	46bd      	mov	sp, r7
 8002812:	bd80      	pop	{r7, pc}
 8002814:	40013800 	.word	0x40013800
 8002818:	51eb851f 	.word	0x51eb851f

0800281c <__errno>:
 800281c:	4b01      	ldr	r3, [pc, #4]	; (8002824 <__errno+0x8>)
 800281e:	6818      	ldr	r0, [r3, #0]
 8002820:	4770      	bx	lr
 8002822:	bf00      	nop
 8002824:	2000000c 	.word	0x2000000c

08002828 <__libc_init_array>:
 8002828:	b570      	push	{r4, r5, r6, lr}
 800282a:	2600      	movs	r6, #0
 800282c:	4d0c      	ldr	r5, [pc, #48]	; (8002860 <__libc_init_array+0x38>)
 800282e:	4c0d      	ldr	r4, [pc, #52]	; (8002864 <__libc_init_array+0x3c>)
 8002830:	1b64      	subs	r4, r4, r5
 8002832:	10a4      	asrs	r4, r4, #2
 8002834:	42a6      	cmp	r6, r4
 8002836:	d109      	bne.n	800284c <__libc_init_array+0x24>
 8002838:	f000 ffb6 	bl	80037a8 <_init>
 800283c:	2600      	movs	r6, #0
 800283e:	4d0a      	ldr	r5, [pc, #40]	; (8002868 <__libc_init_array+0x40>)
 8002840:	4c0a      	ldr	r4, [pc, #40]	; (800286c <__libc_init_array+0x44>)
 8002842:	1b64      	subs	r4, r4, r5
 8002844:	10a4      	asrs	r4, r4, #2
 8002846:	42a6      	cmp	r6, r4
 8002848:	d105      	bne.n	8002856 <__libc_init_array+0x2e>
 800284a:	bd70      	pop	{r4, r5, r6, pc}
 800284c:	f855 3b04 	ldr.w	r3, [r5], #4
 8002850:	4798      	blx	r3
 8002852:	3601      	adds	r6, #1
 8002854:	e7ee      	b.n	8002834 <__libc_init_array+0xc>
 8002856:	f855 3b04 	ldr.w	r3, [r5], #4
 800285a:	4798      	blx	r3
 800285c:	3601      	adds	r6, #1
 800285e:	e7f2      	b.n	8002846 <__libc_init_array+0x1e>
 8002860:	080038b0 	.word	0x080038b0
 8002864:	080038b0 	.word	0x080038b0
 8002868:	080038b0 	.word	0x080038b0
 800286c:	080038b4 	.word	0x080038b4

08002870 <memset>:
 8002870:	4603      	mov	r3, r0
 8002872:	4402      	add	r2, r0
 8002874:	4293      	cmp	r3, r2
 8002876:	d100      	bne.n	800287a <memset+0xa>
 8002878:	4770      	bx	lr
 800287a:	f803 1b01 	strb.w	r1, [r3], #1
 800287e:	e7f9      	b.n	8002874 <memset+0x4>

08002880 <iprintf>:
 8002880:	b40f      	push	{r0, r1, r2, r3}
 8002882:	4b0a      	ldr	r3, [pc, #40]	; (80028ac <iprintf+0x2c>)
 8002884:	b513      	push	{r0, r1, r4, lr}
 8002886:	681c      	ldr	r4, [r3, #0]
 8002888:	b124      	cbz	r4, 8002894 <iprintf+0x14>
 800288a:	69a3      	ldr	r3, [r4, #24]
 800288c:	b913      	cbnz	r3, 8002894 <iprintf+0x14>
 800288e:	4620      	mov	r0, r4
 8002890:	f000 f866 	bl	8002960 <__sinit>
 8002894:	ab05      	add	r3, sp, #20
 8002896:	4620      	mov	r0, r4
 8002898:	9a04      	ldr	r2, [sp, #16]
 800289a:	68a1      	ldr	r1, [r4, #8]
 800289c:	9301      	str	r3, [sp, #4]
 800289e:	f000 f9bb 	bl	8002c18 <_vfiprintf_r>
 80028a2:	b002      	add	sp, #8
 80028a4:	e8bd 4010 	ldmia.w	sp!, {r4, lr}
 80028a8:	b004      	add	sp, #16
 80028aa:	4770      	bx	lr
 80028ac:	2000000c 	.word	0x2000000c

080028b0 <std>:
 80028b0:	2300      	movs	r3, #0
 80028b2:	b510      	push	{r4, lr}
 80028b4:	4604      	mov	r4, r0
 80028b6:	e9c0 3300 	strd	r3, r3, [r0]
 80028ba:	e9c0 3304 	strd	r3, r3, [r0, #16]
 80028be:	6083      	str	r3, [r0, #8]
 80028c0:	8181      	strh	r1, [r0, #12]
 80028c2:	6643      	str	r3, [r0, #100]	; 0x64
 80028c4:	81c2      	strh	r2, [r0, #14]
 80028c6:	6183      	str	r3, [r0, #24]
 80028c8:	4619      	mov	r1, r3
 80028ca:	2208      	movs	r2, #8
 80028cc:	305c      	adds	r0, #92	; 0x5c
 80028ce:	f7ff ffcf 	bl	8002870 <memset>
 80028d2:	4b05      	ldr	r3, [pc, #20]	; (80028e8 <std+0x38>)
 80028d4:	6224      	str	r4, [r4, #32]
 80028d6:	6263      	str	r3, [r4, #36]	; 0x24
 80028d8:	4b04      	ldr	r3, [pc, #16]	; (80028ec <std+0x3c>)
 80028da:	62a3      	str	r3, [r4, #40]	; 0x28
 80028dc:	4b04      	ldr	r3, [pc, #16]	; (80028f0 <std+0x40>)
 80028de:	62e3      	str	r3, [r4, #44]	; 0x2c
 80028e0:	4b04      	ldr	r3, [pc, #16]	; (80028f4 <std+0x44>)
 80028e2:	6323      	str	r3, [r4, #48]	; 0x30
 80028e4:	bd10      	pop	{r4, pc}
 80028e6:	bf00      	nop
 80028e8:	080031c5 	.word	0x080031c5
 80028ec:	080031e7 	.word	0x080031e7
 80028f0:	0800321f 	.word	0x0800321f
 80028f4:	08003243 	.word	0x08003243

080028f8 <_cleanup_r>:
 80028f8:	4901      	ldr	r1, [pc, #4]	; (8002900 <_cleanup_r+0x8>)
 80028fa:	f000 b8af 	b.w	8002a5c <_fwalk_reent>
 80028fe:	bf00      	nop
 8002900:	08003515 	.word	0x08003515

08002904 <__sfmoreglue>:
 8002904:	2268      	movs	r2, #104	; 0x68
 8002906:	b570      	push	{r4, r5, r6, lr}
 8002908:	1e4d      	subs	r5, r1, #1
 800290a:	4355      	muls	r5, r2
 800290c:	460e      	mov	r6, r1
 800290e:	f105 0174 	add.w	r1, r5, #116	; 0x74
 8002912:	f000 f8e5 	bl	8002ae0 <_malloc_r>
 8002916:	4604      	mov	r4, r0
 8002918:	b140      	cbz	r0, 800292c <__sfmoreglue+0x28>
 800291a:	2100      	movs	r1, #0
 800291c:	e9c0 1600 	strd	r1, r6, [r0]
 8002920:	300c      	adds	r0, #12
 8002922:	60a0      	str	r0, [r4, #8]
 8002924:	f105 0268 	add.w	r2, r5, #104	; 0x68
 8002928:	f7ff ffa2 	bl	8002870 <memset>
 800292c:	4620      	mov	r0, r4
 800292e:	bd70      	pop	{r4, r5, r6, pc}

08002930 <__sfp_lock_acquire>:
 8002930:	4801      	ldr	r0, [pc, #4]	; (8002938 <__sfp_lock_acquire+0x8>)
 8002932:	f000 b8b3 	b.w	8002a9c <__retarget_lock_acquire_recursive>
 8002936:	bf00      	nop
 8002938:	20000159 	.word	0x20000159

0800293c <__sfp_lock_release>:
 800293c:	4801      	ldr	r0, [pc, #4]	; (8002944 <__sfp_lock_release+0x8>)
 800293e:	f000 b8ae 	b.w	8002a9e <__retarget_lock_release_recursive>
 8002942:	bf00      	nop
 8002944:	20000159 	.word	0x20000159

08002948 <__sinit_lock_acquire>:
 8002948:	4801      	ldr	r0, [pc, #4]	; (8002950 <__sinit_lock_acquire+0x8>)
 800294a:	f000 b8a7 	b.w	8002a9c <__retarget_lock_acquire_recursive>
 800294e:	bf00      	nop
 8002950:	2000015a 	.word	0x2000015a

08002954 <__sinit_lock_release>:
 8002954:	4801      	ldr	r0, [pc, #4]	; (800295c <__sinit_lock_release+0x8>)
 8002956:	f000 b8a2 	b.w	8002a9e <__retarget_lock_release_recursive>
 800295a:	bf00      	nop
 800295c:	2000015a 	.word	0x2000015a

08002960 <__sinit>:
 8002960:	b510      	push	{r4, lr}
 8002962:	4604      	mov	r4, r0
 8002964:	f7ff fff0 	bl	8002948 <__sinit_lock_acquire>
 8002968:	69a3      	ldr	r3, [r4, #24]
 800296a:	b11b      	cbz	r3, 8002974 <__sinit+0x14>
 800296c:	e8bd 4010 	ldmia.w	sp!, {r4, lr}
 8002970:	f7ff bff0 	b.w	8002954 <__sinit_lock_release>
 8002974:	e9c4 3312 	strd	r3, r3, [r4, #72]	; 0x48
 8002978:	6523      	str	r3, [r4, #80]	; 0x50
 800297a:	4b13      	ldr	r3, [pc, #76]	; (80029c8 <__sinit+0x68>)
 800297c:	4a13      	ldr	r2, [pc, #76]	; (80029cc <__sinit+0x6c>)
 800297e:	681b      	ldr	r3, [r3, #0]
 8002980:	62a2      	str	r2, [r4, #40]	; 0x28
 8002982:	42a3      	cmp	r3, r4
 8002984:	bf08      	it	eq
 8002986:	2301      	moveq	r3, #1
 8002988:	4620      	mov	r0, r4
 800298a:	bf08      	it	eq
 800298c:	61a3      	streq	r3, [r4, #24]
 800298e:	f000 f81f 	bl	80029d0 <__sfp>
 8002992:	6060      	str	r0, [r4, #4]
 8002994:	4620      	mov	r0, r4
 8002996:	f000 f81b 	bl	80029d0 <__sfp>
 800299a:	60a0      	str	r0, [r4, #8]
 800299c:	4620      	mov	r0, r4
 800299e:	f000 f817 	bl	80029d0 <__sfp>
 80029a2:	2200      	movs	r2, #0
 80029a4:	2104      	movs	r1, #4
 80029a6:	60e0      	str	r0, [r4, #12]
 80029a8:	6860      	ldr	r0, [r4, #4]
 80029aa:	f7ff ff81 	bl	80028b0 <std>
 80029ae:	2201      	movs	r2, #1
 80029b0:	2109      	movs	r1, #9
 80029b2:	68a0      	ldr	r0, [r4, #8]
 80029b4:	f7ff ff7c 	bl	80028b0 <std>
 80029b8:	2202      	movs	r2, #2
 80029ba:	2112      	movs	r1, #18
 80029bc:	68e0      	ldr	r0, [r4, #12]
 80029be:	f7ff ff77 	bl	80028b0 <std>
 80029c2:	2301      	movs	r3, #1
 80029c4:	61a3      	str	r3, [r4, #24]
 80029c6:	e7d1      	b.n	800296c <__sinit+0xc>
 80029c8:	08003818 	.word	0x08003818
 80029cc:	080028f9 	.word	0x080028f9

080029d0 <__sfp>:
 80029d0:	b5f8      	push	{r3, r4, r5, r6, r7, lr}
 80029d2:	4607      	mov	r7, r0
 80029d4:	f7ff ffac 	bl	8002930 <__sfp_lock_acquire>
 80029d8:	4b1e      	ldr	r3, [pc, #120]	; (8002a54 <__sfp+0x84>)
 80029da:	681e      	ldr	r6, [r3, #0]
 80029dc:	69b3      	ldr	r3, [r6, #24]
 80029de:	b913      	cbnz	r3, 80029e6 <__sfp+0x16>
 80029e0:	4630      	mov	r0, r6
 80029e2:	f7ff ffbd 	bl	8002960 <__sinit>
 80029e6:	3648      	adds	r6, #72	; 0x48
 80029e8:	e9d6 3401 	ldrd	r3, r4, [r6, #4]
 80029ec:	3b01      	subs	r3, #1
 80029ee:	d503      	bpl.n	80029f8 <__sfp+0x28>
 80029f0:	6833      	ldr	r3, [r6, #0]
 80029f2:	b30b      	cbz	r3, 8002a38 <__sfp+0x68>
 80029f4:	6836      	ldr	r6, [r6, #0]
 80029f6:	e7f7      	b.n	80029e8 <__sfp+0x18>
 80029f8:	f9b4 500c 	ldrsh.w	r5, [r4, #12]
 80029fc:	b9d5      	cbnz	r5, 8002a34 <__sfp+0x64>
 80029fe:	4b16      	ldr	r3, [pc, #88]	; (8002a58 <__sfp+0x88>)
 8002a00:	f104 0058 	add.w	r0, r4, #88	; 0x58
 8002a04:	60e3      	str	r3, [r4, #12]
 8002a06:	6665      	str	r5, [r4, #100]	; 0x64
 8002a08:	f000 f847 	bl	8002a9a <__retarget_lock_init_recursive>
 8002a0c:	f7ff ff96 	bl	800293c <__sfp_lock_release>
 8002a10:	2208      	movs	r2, #8
 8002a12:	4629      	mov	r1, r5
 8002a14:	e9c4 5501 	strd	r5, r5, [r4, #4]
 8002a18:	e9c4 5504 	strd	r5, r5, [r4, #16]
 8002a1c:	6025      	str	r5, [r4, #0]
 8002a1e:	61a5      	str	r5, [r4, #24]
 8002a20:	f104 005c 	add.w	r0, r4, #92	; 0x5c
 8002a24:	f7ff ff24 	bl	8002870 <memset>
 8002a28:	e9c4 550d 	strd	r5, r5, [r4, #52]	; 0x34
 8002a2c:	e9c4 5512 	strd	r5, r5, [r4, #72]	; 0x48
 8002a30:	4620      	mov	r0, r4
 8002a32:	bdf8      	pop	{r3, r4, r5, r6, r7, pc}
 8002a34:	3468      	adds	r4, #104	; 0x68
 8002a36:	e7d9      	b.n	80029ec <__sfp+0x1c>
 8002a38:	2104      	movs	r1, #4
 8002a3a:	4638      	mov	r0, r7
 8002a3c:	f7ff ff62 	bl	8002904 <__sfmoreglue>
 8002a40:	4604      	mov	r4, r0
 8002a42:	6030      	str	r0, [r6, #0]
 8002a44:	2800      	cmp	r0, #0
 8002a46:	d1d5      	bne.n	80029f4 <__sfp+0x24>
 8002a48:	f7ff ff78 	bl	800293c <__sfp_lock_release>
 8002a4c:	230c      	movs	r3, #12
 8002a4e:	603b      	str	r3, [r7, #0]
 8002a50:	e7ee      	b.n	8002a30 <__sfp+0x60>
 8002a52:	bf00      	nop
 8002a54:	08003818 	.word	0x08003818
 8002a58:	ffff0001 	.word	0xffff0001

08002a5c <_fwalk_reent>:
 8002a5c:	e92d 43f8 	stmdb	sp!, {r3, r4, r5, r6, r7, r8, r9, lr}
 8002a60:	4606      	mov	r6, r0
 8002a62:	4688      	mov	r8, r1
 8002a64:	2700      	movs	r7, #0
 8002a66:	f100 0448 	add.w	r4, r0, #72	; 0x48
 8002a6a:	e9d4 9501 	ldrd	r9, r5, [r4, #4]
 8002a6e:	f1b9 0901 	subs.w	r9, r9, #1
 8002a72:	d505      	bpl.n	8002a80 <_fwalk_reent+0x24>
 8002a74:	6824      	ldr	r4, [r4, #0]
 8002a76:	2c00      	cmp	r4, #0
 8002a78:	d1f7      	bne.n	8002a6a <_fwalk_reent+0xe>
 8002a7a:	4638      	mov	r0, r7
 8002a7c:	e8bd 83f8 	ldmia.w	sp!, {r3, r4, r5, r6, r7, r8, r9, pc}
 8002a80:	89ab      	ldrh	r3, [r5, #12]
 8002a82:	2b01      	cmp	r3, #1
 8002a84:	d907      	bls.n	8002a96 <_fwalk_reent+0x3a>
 8002a86:	f9b5 300e 	ldrsh.w	r3, [r5, #14]
 8002a8a:	3301      	adds	r3, #1
 8002a8c:	d003      	beq.n	8002a96 <_fwalk_reent+0x3a>
 8002a8e:	4629      	mov	r1, r5
 8002a90:	4630      	mov	r0, r6
 8002a92:	47c0      	blx	r8
 8002a94:	4307      	orrs	r7, r0
 8002a96:	3568      	adds	r5, #104	; 0x68
 8002a98:	e7e9      	b.n	8002a6e <_fwalk_reent+0x12>

08002a9a <__retarget_lock_init_recursive>:
 8002a9a:	4770      	bx	lr

08002a9c <__retarget_lock_acquire_recursive>:
 8002a9c:	4770      	bx	lr

08002a9e <__retarget_lock_release_recursive>:
 8002a9e:	4770      	bx	lr

08002aa0 <sbrk_aligned>:
 8002aa0:	b570      	push	{r4, r5, r6, lr}
 8002aa2:	4e0e      	ldr	r6, [pc, #56]	; (8002adc <sbrk_aligned+0x3c>)
 8002aa4:	460c      	mov	r4, r1
 8002aa6:	6831      	ldr	r1, [r6, #0]
 8002aa8:	4605      	mov	r5, r0
 8002aaa:	b911      	cbnz	r1, 8002ab2 <sbrk_aligned+0x12>
 8002aac:	f000 fb7a 	bl	80031a4 <_sbrk_r>
 8002ab0:	6030      	str	r0, [r6, #0]
 8002ab2:	4621      	mov	r1, r4
 8002ab4:	4628      	mov	r0, r5
 8002ab6:	f000 fb75 	bl	80031a4 <_sbrk_r>
 8002aba:	1c43      	adds	r3, r0, #1
 8002abc:	d00a      	beq.n	8002ad4 <sbrk_aligned+0x34>
 8002abe:	1cc4      	adds	r4, r0, #3
 8002ac0:	f024 0403 	bic.w	r4, r4, #3
 8002ac4:	42a0      	cmp	r0, r4
 8002ac6:	d007      	beq.n	8002ad8 <sbrk_aligned+0x38>
 8002ac8:	1a21      	subs	r1, r4, r0
 8002aca:	4628      	mov	r0, r5
 8002acc:	f000 fb6a 	bl	80031a4 <_sbrk_r>
 8002ad0:	3001      	adds	r0, #1
 8002ad2:	d101      	bne.n	8002ad8 <sbrk_aligned+0x38>
 8002ad4:	f04f 34ff 	mov.w	r4, #4294967295
 8002ad8:	4620      	mov	r0, r4
 8002ada:	bd70      	pop	{r4, r5, r6, pc}
 8002adc:	20000160 	.word	0x20000160

08002ae0 <_malloc_r>:
 8002ae0:	e92d 41f0 	stmdb	sp!, {r4, r5, r6, r7, r8, lr}
 8002ae4:	1ccd      	adds	r5, r1, #3
 8002ae6:	f025 0503 	bic.w	r5, r5, #3
 8002aea:	3508      	adds	r5, #8
 8002aec:	2d0c      	cmp	r5, #12
 8002aee:	bf38      	it	cc
 8002af0:	250c      	movcc	r5, #12
 8002af2:	2d00      	cmp	r5, #0
 8002af4:	4607      	mov	r7, r0
 8002af6:	db01      	blt.n	8002afc <_malloc_r+0x1c>
 8002af8:	42a9      	cmp	r1, r5
 8002afa:	d905      	bls.n	8002b08 <_malloc_r+0x28>
 8002afc:	230c      	movs	r3, #12
 8002afe:	2600      	movs	r6, #0
 8002b00:	603b      	str	r3, [r7, #0]
 8002b02:	4630      	mov	r0, r6
 8002b04:	e8bd 81f0 	ldmia.w	sp!, {r4, r5, r6, r7, r8, pc}
 8002b08:	4e2e      	ldr	r6, [pc, #184]	; (8002bc4 <_malloc_r+0xe4>)
 8002b0a:	f000 fdc5 	bl	8003698 <__malloc_lock>
 8002b0e:	6833      	ldr	r3, [r6, #0]
 8002b10:	461c      	mov	r4, r3
 8002b12:	bb34      	cbnz	r4, 8002b62 <_malloc_r+0x82>
 8002b14:	4629      	mov	r1, r5
 8002b16:	4638      	mov	r0, r7
 8002b18:	f7ff ffc2 	bl	8002aa0 <sbrk_aligned>
 8002b1c:	1c43      	adds	r3, r0, #1
 8002b1e:	4604      	mov	r4, r0
 8002b20:	d14d      	bne.n	8002bbe <_malloc_r+0xde>
 8002b22:	6834      	ldr	r4, [r6, #0]
 8002b24:	4626      	mov	r6, r4
 8002b26:	2e00      	cmp	r6, #0
 8002b28:	d140      	bne.n	8002bac <_malloc_r+0xcc>
 8002b2a:	6823      	ldr	r3, [r4, #0]
 8002b2c:	4631      	mov	r1, r6
 8002b2e:	4638      	mov	r0, r7
 8002b30:	eb04 0803 	add.w	r8, r4, r3
 8002b34:	f000 fb36 	bl	80031a4 <_sbrk_r>
 8002b38:	4580      	cmp	r8, r0
 8002b3a:	d13a      	bne.n	8002bb2 <_malloc_r+0xd2>
 8002b3c:	6821      	ldr	r1, [r4, #0]
 8002b3e:	3503      	adds	r5, #3
 8002b40:	1a6d      	subs	r5, r5, r1
 8002b42:	f025 0503 	bic.w	r5, r5, #3
 8002b46:	3508      	adds	r5, #8
 8002b48:	2d0c      	cmp	r5, #12
 8002b4a:	bf38      	it	cc
 8002b4c:	250c      	movcc	r5, #12
 8002b4e:	4638      	mov	r0, r7
 8002b50:	4629      	mov	r1, r5
 8002b52:	f7ff ffa5 	bl	8002aa0 <sbrk_aligned>
 8002b56:	3001      	adds	r0, #1
 8002b58:	d02b      	beq.n	8002bb2 <_malloc_r+0xd2>
 8002b5a:	6823      	ldr	r3, [r4, #0]
 8002b5c:	442b      	add	r3, r5
 8002b5e:	6023      	str	r3, [r4, #0]
 8002b60:	e00e      	b.n	8002b80 <_malloc_r+0xa0>
 8002b62:	6822      	ldr	r2, [r4, #0]
 8002b64:	1b52      	subs	r2, r2, r5
 8002b66:	d41e      	bmi.n	8002ba6 <_malloc_r+0xc6>
 8002b68:	2a0b      	cmp	r2, #11
 8002b6a:	d916      	bls.n	8002b9a <_malloc_r+0xba>
 8002b6c:	1961      	adds	r1, r4, r5
 8002b6e:	42a3      	cmp	r3, r4
 8002b70:	6025      	str	r5, [r4, #0]
 8002b72:	bf18      	it	ne
 8002b74:	6059      	strne	r1, [r3, #4]
 8002b76:	6863      	ldr	r3, [r4, #4]
 8002b78:	bf08      	it	eq
 8002b7a:	6031      	streq	r1, [r6, #0]
 8002b7c:	5162      	str	r2, [r4, r5]
 8002b7e:	604b      	str	r3, [r1, #4]
 8002b80:	4638      	mov	r0, r7
 8002b82:	f104 060b 	add.w	r6, r4, #11
 8002b86:	f000 fd8d 	bl	80036a4 <__malloc_unlock>
 8002b8a:	f026 0607 	bic.w	r6, r6, #7
 8002b8e:	1d23      	adds	r3, r4, #4
 8002b90:	1af2      	subs	r2, r6, r3
 8002b92:	d0b6      	beq.n	8002b02 <_malloc_r+0x22>
 8002b94:	1b9b      	subs	r3, r3, r6
 8002b96:	50a3      	str	r3, [r4, r2]
 8002b98:	e7b3      	b.n	8002b02 <_malloc_r+0x22>
 8002b9a:	6862      	ldr	r2, [r4, #4]
 8002b9c:	42a3      	cmp	r3, r4
 8002b9e:	bf0c      	ite	eq
 8002ba0:	6032      	streq	r2, [r6, #0]
 8002ba2:	605a      	strne	r2, [r3, #4]
 8002ba4:	e7ec      	b.n	8002b80 <_malloc_r+0xa0>
 8002ba6:	4623      	mov	r3, r4
 8002ba8:	6864      	ldr	r4, [r4, #4]
 8002baa:	e7b2      	b.n	8002b12 <_malloc_r+0x32>
 8002bac:	4634      	mov	r4, r6
 8002bae:	6876      	ldr	r6, [r6, #4]
 8002bb0:	e7b9      	b.n	8002b26 <_malloc_r+0x46>
 8002bb2:	230c      	movs	r3, #12
 8002bb4:	4638      	mov	r0, r7
 8002bb6:	603b      	str	r3, [r7, #0]
 8002bb8:	f000 fd74 	bl	80036a4 <__malloc_unlock>
 8002bbc:	e7a1      	b.n	8002b02 <_malloc_r+0x22>
 8002bbe:	6025      	str	r5, [r4, #0]
 8002bc0:	e7de      	b.n	8002b80 <_malloc_r+0xa0>
 8002bc2:	bf00      	nop
 8002bc4:	2000015c 	.word	0x2000015c

08002bc8 <__sfputc_r>:
 8002bc8:	6893      	ldr	r3, [r2, #8]
 8002bca:	b410      	push	{r4}
 8002bcc:	3b01      	subs	r3, #1
 8002bce:	2b00      	cmp	r3, #0
 8002bd0:	6093      	str	r3, [r2, #8]
 8002bd2:	da07      	bge.n	8002be4 <__sfputc_r+0x1c>
 8002bd4:	6994      	ldr	r4, [r2, #24]
 8002bd6:	42a3      	cmp	r3, r4
 8002bd8:	db01      	blt.n	8002bde <__sfputc_r+0x16>
 8002bda:	290a      	cmp	r1, #10
 8002bdc:	d102      	bne.n	8002be4 <__sfputc_r+0x1c>
 8002bde:	bc10      	pop	{r4}
 8002be0:	f000 bb34 	b.w	800324c <__swbuf_r>
 8002be4:	6813      	ldr	r3, [r2, #0]
 8002be6:	1c58      	adds	r0, r3, #1
 8002be8:	6010      	str	r0, [r2, #0]
 8002bea:	7019      	strb	r1, [r3, #0]
 8002bec:	4608      	mov	r0, r1
 8002bee:	bc10      	pop	{r4}
 8002bf0:	4770      	bx	lr

08002bf2 <__sfputs_r>:
 8002bf2:	b5f8      	push	{r3, r4, r5, r6, r7, lr}
 8002bf4:	4606      	mov	r6, r0
 8002bf6:	460f      	mov	r7, r1
 8002bf8:	4614      	mov	r4, r2
 8002bfa:	18d5      	adds	r5, r2, r3
 8002bfc:	42ac      	cmp	r4, r5
 8002bfe:	d101      	bne.n	8002c04 <__sfputs_r+0x12>
 8002c00:	2000      	movs	r0, #0
 8002c02:	e007      	b.n	8002c14 <__sfputs_r+0x22>
 8002c04:	463a      	mov	r2, r7
 8002c06:	4630      	mov	r0, r6
 8002c08:	f814 1b01 	ldrb.w	r1, [r4], #1
 8002c0c:	f7ff ffdc 	bl	8002bc8 <__sfputc_r>
 8002c10:	1c43      	adds	r3, r0, #1
 8002c12:	d1f3      	bne.n	8002bfc <__sfputs_r+0xa>
 8002c14:	bdf8      	pop	{r3, r4, r5, r6, r7, pc}
	...

08002c18 <_vfiprintf_r>:
 8002c18:	e92d 4ff0 	stmdb	sp!, {r4, r5, r6, r7, r8, r9, sl, fp, lr}
 8002c1c:	460d      	mov	r5, r1
 8002c1e:	4614      	mov	r4, r2
 8002c20:	4698      	mov	r8, r3
 8002c22:	4606      	mov	r6, r0
 8002c24:	b09d      	sub	sp, #116	; 0x74
 8002c26:	b118      	cbz	r0, 8002c30 <_vfiprintf_r+0x18>
 8002c28:	6983      	ldr	r3, [r0, #24]
 8002c2a:	b90b      	cbnz	r3, 8002c30 <_vfiprintf_r+0x18>
 8002c2c:	f7ff fe98 	bl	8002960 <__sinit>
 8002c30:	4b89      	ldr	r3, [pc, #548]	; (8002e58 <_vfiprintf_r+0x240>)
 8002c32:	429d      	cmp	r5, r3
 8002c34:	d11b      	bne.n	8002c6e <_vfiprintf_r+0x56>
 8002c36:	6875      	ldr	r5, [r6, #4]
 8002c38:	6e6b      	ldr	r3, [r5, #100]	; 0x64
 8002c3a:	07d9      	lsls	r1, r3, #31
 8002c3c:	d405      	bmi.n	8002c4a <_vfiprintf_r+0x32>
 8002c3e:	89ab      	ldrh	r3, [r5, #12]
 8002c40:	059a      	lsls	r2, r3, #22
 8002c42:	d402      	bmi.n	8002c4a <_vfiprintf_r+0x32>
 8002c44:	6da8      	ldr	r0, [r5, #88]	; 0x58
 8002c46:	f7ff ff29 	bl	8002a9c <__retarget_lock_acquire_recursive>
 8002c4a:	89ab      	ldrh	r3, [r5, #12]
 8002c4c:	071b      	lsls	r3, r3, #28
 8002c4e:	d501      	bpl.n	8002c54 <_vfiprintf_r+0x3c>
 8002c50:	692b      	ldr	r3, [r5, #16]
 8002c52:	b9eb      	cbnz	r3, 8002c90 <_vfiprintf_r+0x78>
 8002c54:	4629      	mov	r1, r5
 8002c56:	4630      	mov	r0, r6
 8002c58:	f000 fb5c 	bl	8003314 <__swsetup_r>
 8002c5c:	b1c0      	cbz	r0, 8002c90 <_vfiprintf_r+0x78>
 8002c5e:	6e6b      	ldr	r3, [r5, #100]	; 0x64
 8002c60:	07dc      	lsls	r4, r3, #31
 8002c62:	d50e      	bpl.n	8002c82 <_vfiprintf_r+0x6a>
 8002c64:	f04f 30ff 	mov.w	r0, #4294967295
 8002c68:	b01d      	add	sp, #116	; 0x74
 8002c6a:	e8bd 8ff0 	ldmia.w	sp!, {r4, r5, r6, r7, r8, r9, sl, fp, pc}
 8002c6e:	4b7b      	ldr	r3, [pc, #492]	; (8002e5c <_vfiprintf_r+0x244>)
 8002c70:	429d      	cmp	r5, r3
 8002c72:	d101      	bne.n	8002c78 <_vfiprintf_r+0x60>
 8002c74:	68b5      	ldr	r5, [r6, #8]
 8002c76:	e7df      	b.n	8002c38 <_vfiprintf_r+0x20>
 8002c78:	4b79      	ldr	r3, [pc, #484]	; (8002e60 <_vfiprintf_r+0x248>)
 8002c7a:	429d      	cmp	r5, r3
 8002c7c:	bf08      	it	eq
 8002c7e:	68f5      	ldreq	r5, [r6, #12]
 8002c80:	e7da      	b.n	8002c38 <_vfiprintf_r+0x20>
 8002c82:	89ab      	ldrh	r3, [r5, #12]
 8002c84:	0598      	lsls	r0, r3, #22
 8002c86:	d4ed      	bmi.n	8002c64 <_vfiprintf_r+0x4c>
 8002c88:	6da8      	ldr	r0, [r5, #88]	; 0x58
 8002c8a:	f7ff ff08 	bl	8002a9e <__retarget_lock_release_recursive>
 8002c8e:	e7e9      	b.n	8002c64 <_vfiprintf_r+0x4c>
 8002c90:	2300      	movs	r3, #0
 8002c92:	9309      	str	r3, [sp, #36]	; 0x24
 8002c94:	2320      	movs	r3, #32
 8002c96:	f88d 3029 	strb.w	r3, [sp, #41]	; 0x29
 8002c9a:	2330      	movs	r3, #48	; 0x30
 8002c9c:	f04f 0901 	mov.w	r9, #1
 8002ca0:	f8cd 800c 	str.w	r8, [sp, #12]
 8002ca4:	f8df 81bc 	ldr.w	r8, [pc, #444]	; 8002e64 <_vfiprintf_r+0x24c>
 8002ca8:	f88d 302a 	strb.w	r3, [sp, #42]	; 0x2a
 8002cac:	4623      	mov	r3, r4
 8002cae:	469a      	mov	sl, r3
 8002cb0:	f813 2b01 	ldrb.w	r2, [r3], #1
 8002cb4:	b10a      	cbz	r2, 8002cba <_vfiprintf_r+0xa2>
 8002cb6:	2a25      	cmp	r2, #37	; 0x25
 8002cb8:	d1f9      	bne.n	8002cae <_vfiprintf_r+0x96>
 8002cba:	ebba 0b04 	subs.w	fp, sl, r4
 8002cbe:	d00b      	beq.n	8002cd8 <_vfiprintf_r+0xc0>
 8002cc0:	465b      	mov	r3, fp
 8002cc2:	4622      	mov	r2, r4
 8002cc4:	4629      	mov	r1, r5
 8002cc6:	4630      	mov	r0, r6
 8002cc8:	f7ff ff93 	bl	8002bf2 <__sfputs_r>
 8002ccc:	3001      	adds	r0, #1
 8002cce:	f000 80aa 	beq.w	8002e26 <_vfiprintf_r+0x20e>
 8002cd2:	9a09      	ldr	r2, [sp, #36]	; 0x24
 8002cd4:	445a      	add	r2, fp
 8002cd6:	9209      	str	r2, [sp, #36]	; 0x24
 8002cd8:	f89a 3000 	ldrb.w	r3, [sl]
 8002cdc:	2b00      	cmp	r3, #0
 8002cde:	f000 80a2 	beq.w	8002e26 <_vfiprintf_r+0x20e>
 8002ce2:	2300      	movs	r3, #0
 8002ce4:	f04f 32ff 	mov.w	r2, #4294967295
 8002ce8:	e9cd 2305 	strd	r2, r3, [sp, #20]
 8002cec:	f10a 0a01 	add.w	sl, sl, #1
 8002cf0:	9304      	str	r3, [sp, #16]
 8002cf2:	9307      	str	r3, [sp, #28]
 8002cf4:	f88d 3053 	strb.w	r3, [sp, #83]	; 0x53
 8002cf8:	931a      	str	r3, [sp, #104]	; 0x68
 8002cfa:	4654      	mov	r4, sl
 8002cfc:	2205      	movs	r2, #5
 8002cfe:	f814 1b01 	ldrb.w	r1, [r4], #1
 8002d02:	4858      	ldr	r0, [pc, #352]	; (8002e64 <_vfiprintf_r+0x24c>)
 8002d04:	f000 fcba 	bl	800367c <memchr>
 8002d08:	9a04      	ldr	r2, [sp, #16]
 8002d0a:	b9d8      	cbnz	r0, 8002d44 <_vfiprintf_r+0x12c>
 8002d0c:	06d1      	lsls	r1, r2, #27
 8002d0e:	bf44      	itt	mi
 8002d10:	2320      	movmi	r3, #32
 8002d12:	f88d 3053 	strbmi.w	r3, [sp, #83]	; 0x53
 8002d16:	0713      	lsls	r3, r2, #28
 8002d18:	bf44      	itt	mi
 8002d1a:	232b      	movmi	r3, #43	; 0x2b
 8002d1c:	f88d 3053 	strbmi.w	r3, [sp, #83]	; 0x53
 8002d20:	f89a 3000 	ldrb.w	r3, [sl]
 8002d24:	2b2a      	cmp	r3, #42	; 0x2a
 8002d26:	d015      	beq.n	8002d54 <_vfiprintf_r+0x13c>
 8002d28:	4654      	mov	r4, sl
 8002d2a:	2000      	movs	r0, #0
 8002d2c:	f04f 0c0a 	mov.w	ip, #10
 8002d30:	9a07      	ldr	r2, [sp, #28]
 8002d32:	4621      	mov	r1, r4
 8002d34:	f811 3b01 	ldrb.w	r3, [r1], #1
 8002d38:	3b30      	subs	r3, #48	; 0x30
 8002d3a:	2b09      	cmp	r3, #9
 8002d3c:	d94e      	bls.n	8002ddc <_vfiprintf_r+0x1c4>
 8002d3e:	b1b0      	cbz	r0, 8002d6e <_vfiprintf_r+0x156>
 8002d40:	9207      	str	r2, [sp, #28]
 8002d42:	e014      	b.n	8002d6e <_vfiprintf_r+0x156>
 8002d44:	eba0 0308 	sub.w	r3, r0, r8
 8002d48:	fa09 f303 	lsl.w	r3, r9, r3
 8002d4c:	4313      	orrs	r3, r2
 8002d4e:	46a2      	mov	sl, r4
 8002d50:	9304      	str	r3, [sp, #16]
 8002d52:	e7d2      	b.n	8002cfa <_vfiprintf_r+0xe2>
 8002d54:	9b03      	ldr	r3, [sp, #12]
 8002d56:	1d19      	adds	r1, r3, #4
 8002d58:	681b      	ldr	r3, [r3, #0]
 8002d5a:	9103      	str	r1, [sp, #12]
 8002d5c:	2b00      	cmp	r3, #0
 8002d5e:	bfbb      	ittet	lt
 8002d60:	425b      	neglt	r3, r3
 8002d62:	f042 0202 	orrlt.w	r2, r2, #2
 8002d66:	9307      	strge	r3, [sp, #28]
 8002d68:	9307      	strlt	r3, [sp, #28]
 8002d6a:	bfb8      	it	lt
 8002d6c:	9204      	strlt	r2, [sp, #16]
 8002d6e:	7823      	ldrb	r3, [r4, #0]
 8002d70:	2b2e      	cmp	r3, #46	; 0x2e
 8002d72:	d10c      	bne.n	8002d8e <_vfiprintf_r+0x176>
 8002d74:	7863      	ldrb	r3, [r4, #1]
 8002d76:	2b2a      	cmp	r3, #42	; 0x2a
 8002d78:	d135      	bne.n	8002de6 <_vfiprintf_r+0x1ce>
 8002d7a:	9b03      	ldr	r3, [sp, #12]
 8002d7c:	3402      	adds	r4, #2
 8002d7e:	1d1a      	adds	r2, r3, #4
 8002d80:	681b      	ldr	r3, [r3, #0]
 8002d82:	9203      	str	r2, [sp, #12]
 8002d84:	2b00      	cmp	r3, #0
 8002d86:	bfb8      	it	lt
 8002d88:	f04f 33ff 	movlt.w	r3, #4294967295
 8002d8c:	9305      	str	r3, [sp, #20]
 8002d8e:	f8df a0d8 	ldr.w	sl, [pc, #216]	; 8002e68 <_vfiprintf_r+0x250>
 8002d92:	2203      	movs	r2, #3
 8002d94:	4650      	mov	r0, sl
 8002d96:	7821      	ldrb	r1, [r4, #0]
 8002d98:	f000 fc70 	bl	800367c <memchr>
 8002d9c:	b140      	cbz	r0, 8002db0 <_vfiprintf_r+0x198>
 8002d9e:	2340      	movs	r3, #64	; 0x40
 8002da0:	eba0 000a 	sub.w	r0, r0, sl
 8002da4:	fa03 f000 	lsl.w	r0, r3, r0
 8002da8:	9b04      	ldr	r3, [sp, #16]
 8002daa:	3401      	adds	r4, #1
 8002dac:	4303      	orrs	r3, r0
 8002dae:	9304      	str	r3, [sp, #16]
 8002db0:	f814 1b01 	ldrb.w	r1, [r4], #1
 8002db4:	2206      	movs	r2, #6
 8002db6:	482d      	ldr	r0, [pc, #180]	; (8002e6c <_vfiprintf_r+0x254>)
 8002db8:	f88d 1028 	strb.w	r1, [sp, #40]	; 0x28
 8002dbc:	f000 fc5e 	bl	800367c <memchr>
 8002dc0:	2800      	cmp	r0, #0
 8002dc2:	d03f      	beq.n	8002e44 <_vfiprintf_r+0x22c>
 8002dc4:	4b2a      	ldr	r3, [pc, #168]	; (8002e70 <_vfiprintf_r+0x258>)
 8002dc6:	bb1b      	cbnz	r3, 8002e10 <_vfiprintf_r+0x1f8>
 8002dc8:	9b03      	ldr	r3, [sp, #12]
 8002dca:	3307      	adds	r3, #7
 8002dcc:	f023 0307 	bic.w	r3, r3, #7
 8002dd0:	3308      	adds	r3, #8
 8002dd2:	9303      	str	r3, [sp, #12]
 8002dd4:	9b09      	ldr	r3, [sp, #36]	; 0x24
 8002dd6:	443b      	add	r3, r7
 8002dd8:	9309      	str	r3, [sp, #36]	; 0x24
 8002dda:	e767      	b.n	8002cac <_vfiprintf_r+0x94>
 8002ddc:	460c      	mov	r4, r1
 8002dde:	2001      	movs	r0, #1
 8002de0:	fb0c 3202 	mla	r2, ip, r2, r3
 8002de4:	e7a5      	b.n	8002d32 <_vfiprintf_r+0x11a>
 8002de6:	2300      	movs	r3, #0
 8002de8:	f04f 0c0a 	mov.w	ip, #10
 8002dec:	4619      	mov	r1, r3
 8002dee:	3401      	adds	r4, #1
 8002df0:	9305      	str	r3, [sp, #20]
 8002df2:	4620      	mov	r0, r4
 8002df4:	f810 2b01 	ldrb.w	r2, [r0], #1
 8002df8:	3a30      	subs	r2, #48	; 0x30
 8002dfa:	2a09      	cmp	r2, #9
 8002dfc:	d903      	bls.n	8002e06 <_vfiprintf_r+0x1ee>
 8002dfe:	2b00      	cmp	r3, #0
 8002e00:	d0c5      	beq.n	8002d8e <_vfiprintf_r+0x176>
 8002e02:	9105      	str	r1, [sp, #20]
 8002e04:	e7c3      	b.n	8002d8e <_vfiprintf_r+0x176>
 8002e06:	4604      	mov	r4, r0
 8002e08:	2301      	movs	r3, #1
 8002e0a:	fb0c 2101 	mla	r1, ip, r1, r2
 8002e0e:	e7f0      	b.n	8002df2 <_vfiprintf_r+0x1da>
 8002e10:	ab03      	add	r3, sp, #12
 8002e12:	9300      	str	r3, [sp, #0]
 8002e14:	462a      	mov	r2, r5
 8002e16:	4630      	mov	r0, r6
 8002e18:	4b16      	ldr	r3, [pc, #88]	; (8002e74 <_vfiprintf_r+0x25c>)
 8002e1a:	a904      	add	r1, sp, #16
 8002e1c:	f3af 8000 	nop.w
 8002e20:	4607      	mov	r7, r0
 8002e22:	1c78      	adds	r0, r7, #1
 8002e24:	d1d6      	bne.n	8002dd4 <_vfiprintf_r+0x1bc>
 8002e26:	6e6b      	ldr	r3, [r5, #100]	; 0x64
 8002e28:	07d9      	lsls	r1, r3, #31
 8002e2a:	d405      	bmi.n	8002e38 <_vfiprintf_r+0x220>
 8002e2c:	89ab      	ldrh	r3, [r5, #12]
 8002e2e:	059a      	lsls	r2, r3, #22
 8002e30:	d402      	bmi.n	8002e38 <_vfiprintf_r+0x220>
 8002e32:	6da8      	ldr	r0, [r5, #88]	; 0x58
 8002e34:	f7ff fe33 	bl	8002a9e <__retarget_lock_release_recursive>
 8002e38:	89ab      	ldrh	r3, [r5, #12]
 8002e3a:	065b      	lsls	r3, r3, #25
 8002e3c:	f53f af12 	bmi.w	8002c64 <_vfiprintf_r+0x4c>
 8002e40:	9809      	ldr	r0, [sp, #36]	; 0x24
 8002e42:	e711      	b.n	8002c68 <_vfiprintf_r+0x50>
 8002e44:	ab03      	add	r3, sp, #12
 8002e46:	9300      	str	r3, [sp, #0]
 8002e48:	462a      	mov	r2, r5
 8002e4a:	4630      	mov	r0, r6
 8002e4c:	4b09      	ldr	r3, [pc, #36]	; (8002e74 <_vfiprintf_r+0x25c>)
 8002e4e:	a904      	add	r1, sp, #16
 8002e50:	f000 f882 	bl	8002f58 <_printf_i>
 8002e54:	e7e4      	b.n	8002e20 <_vfiprintf_r+0x208>
 8002e56:	bf00      	nop
 8002e58:	0800383c 	.word	0x0800383c
 8002e5c:	0800385c 	.word	0x0800385c
 8002e60:	0800381c 	.word	0x0800381c
 8002e64:	0800387c 	.word	0x0800387c
 8002e68:	08003882 	.word	0x08003882
 8002e6c:	08003886 	.word	0x08003886
 8002e70:	00000000 	.word	0x00000000
 8002e74:	08002bf3 	.word	0x08002bf3

08002e78 <_printf_common>:
 8002e78:	e92d 47f0 	stmdb	sp!, {r4, r5, r6, r7, r8, r9, sl, lr}
 8002e7c:	4616      	mov	r6, r2
 8002e7e:	4699      	mov	r9, r3
 8002e80:	688a      	ldr	r2, [r1, #8]
 8002e82:	690b      	ldr	r3, [r1, #16]
 8002e84:	4607      	mov	r7, r0
 8002e86:	4293      	cmp	r3, r2
 8002e88:	bfb8      	it	lt
 8002e8a:	4613      	movlt	r3, r2
 8002e8c:	6033      	str	r3, [r6, #0]
 8002e8e:	f891 2043 	ldrb.w	r2, [r1, #67]	; 0x43
 8002e92:	460c      	mov	r4, r1
 8002e94:	f8dd 8020 	ldr.w	r8, [sp, #32]
 8002e98:	b10a      	cbz	r2, 8002e9e <_printf_common+0x26>
 8002e9a:	3301      	adds	r3, #1
 8002e9c:	6033      	str	r3, [r6, #0]
 8002e9e:	6823      	ldr	r3, [r4, #0]
 8002ea0:	0699      	lsls	r1, r3, #26
 8002ea2:	bf42      	ittt	mi
 8002ea4:	6833      	ldrmi	r3, [r6, #0]
 8002ea6:	3302      	addmi	r3, #2
 8002ea8:	6033      	strmi	r3, [r6, #0]
 8002eaa:	6825      	ldr	r5, [r4, #0]
 8002eac:	f015 0506 	ands.w	r5, r5, #6
 8002eb0:	d106      	bne.n	8002ec0 <_printf_common+0x48>
 8002eb2:	f104 0a19 	add.w	sl, r4, #25
 8002eb6:	68e3      	ldr	r3, [r4, #12]
 8002eb8:	6832      	ldr	r2, [r6, #0]
 8002eba:	1a9b      	subs	r3, r3, r2
 8002ebc:	42ab      	cmp	r3, r5
 8002ebe:	dc28      	bgt.n	8002f12 <_printf_common+0x9a>
 8002ec0:	f894 2043 	ldrb.w	r2, [r4, #67]	; 0x43
 8002ec4:	1e13      	subs	r3, r2, #0
 8002ec6:	6822      	ldr	r2, [r4, #0]
 8002ec8:	bf18      	it	ne
 8002eca:	2301      	movne	r3, #1
 8002ecc:	0692      	lsls	r2, r2, #26
 8002ece:	d42d      	bmi.n	8002f2c <_printf_common+0xb4>
 8002ed0:	4649      	mov	r1, r9
 8002ed2:	4638      	mov	r0, r7
 8002ed4:	f104 0243 	add.w	r2, r4, #67	; 0x43
 8002ed8:	47c0      	blx	r8
 8002eda:	3001      	adds	r0, #1
 8002edc:	d020      	beq.n	8002f20 <_printf_common+0xa8>
 8002ede:	6823      	ldr	r3, [r4, #0]
 8002ee0:	68e5      	ldr	r5, [r4, #12]
 8002ee2:	f003 0306 	and.w	r3, r3, #6
 8002ee6:	2b04      	cmp	r3, #4
 8002ee8:	bf18      	it	ne
 8002eea:	2500      	movne	r5, #0
 8002eec:	6832      	ldr	r2, [r6, #0]
 8002eee:	f04f 0600 	mov.w	r6, #0
 8002ef2:	68a3      	ldr	r3, [r4, #8]
 8002ef4:	bf08      	it	eq
 8002ef6:	1aad      	subeq	r5, r5, r2
 8002ef8:	6922      	ldr	r2, [r4, #16]
 8002efa:	bf08      	it	eq
 8002efc:	ea25 75e5 	biceq.w	r5, r5, r5, asr #31
 8002f00:	4293      	cmp	r3, r2
 8002f02:	bfc4      	itt	gt
 8002f04:	1a9b      	subgt	r3, r3, r2
 8002f06:	18ed      	addgt	r5, r5, r3
 8002f08:	341a      	adds	r4, #26
 8002f0a:	42b5      	cmp	r5, r6
 8002f0c:	d11a      	bne.n	8002f44 <_printf_common+0xcc>
 8002f0e:	2000      	movs	r0, #0
 8002f10:	e008      	b.n	8002f24 <_printf_common+0xac>
 8002f12:	2301      	movs	r3, #1
 8002f14:	4652      	mov	r2, sl
 8002f16:	4649      	mov	r1, r9
 8002f18:	4638      	mov	r0, r7
 8002f1a:	47c0      	blx	r8
 8002f1c:	3001      	adds	r0, #1
 8002f1e:	d103      	bne.n	8002f28 <_printf_common+0xb0>
 8002f20:	f04f 30ff 	mov.w	r0, #4294967295
 8002f24:	e8bd 87f0 	ldmia.w	sp!, {r4, r5, r6, r7, r8, r9, sl, pc}
 8002f28:	3501      	adds	r5, #1
 8002f2a:	e7c4      	b.n	8002eb6 <_printf_common+0x3e>
 8002f2c:	2030      	movs	r0, #48	; 0x30
 8002f2e:	18e1      	adds	r1, r4, r3
 8002f30:	f881 0043 	strb.w	r0, [r1, #67]	; 0x43
 8002f34:	1c5a      	adds	r2, r3, #1
 8002f36:	f894 1045 	ldrb.w	r1, [r4, #69]	; 0x45
 8002f3a:	4422      	add	r2, r4
 8002f3c:	3302      	adds	r3, #2
 8002f3e:	f882 1043 	strb.w	r1, [r2, #67]	; 0x43
 8002f42:	e7c5      	b.n	8002ed0 <_printf_common+0x58>
 8002f44:	2301      	movs	r3, #1
 8002f46:	4622      	mov	r2, r4
 8002f48:	4649      	mov	r1, r9
 8002f4a:	4638      	mov	r0, r7
 8002f4c:	47c0      	blx	r8
 8002f4e:	3001      	adds	r0, #1
 8002f50:	d0e6      	beq.n	8002f20 <_printf_common+0xa8>
 8002f52:	3601      	adds	r6, #1
 8002f54:	e7d9      	b.n	8002f0a <_printf_common+0x92>
	...

08002f58 <_printf_i>:
 8002f58:	e92d 47ff 	stmdb	sp!, {r0, r1, r2, r3, r4, r5, r6, r7, r8, r9, sl, lr}
 8002f5c:	7e0f      	ldrb	r7, [r1, #24]
 8002f5e:	4691      	mov	r9, r2
 8002f60:	2f78      	cmp	r7, #120	; 0x78
 8002f62:	4680      	mov	r8, r0
 8002f64:	460c      	mov	r4, r1
 8002f66:	469a      	mov	sl, r3
 8002f68:	9d0c      	ldr	r5, [sp, #48]	; 0x30
 8002f6a:	f101 0243 	add.w	r2, r1, #67	; 0x43
 8002f6e:	d807      	bhi.n	8002f80 <_printf_i+0x28>
 8002f70:	2f62      	cmp	r7, #98	; 0x62
 8002f72:	d80a      	bhi.n	8002f8a <_printf_i+0x32>
 8002f74:	2f00      	cmp	r7, #0
 8002f76:	f000 80d9 	beq.w	800312c <_printf_i+0x1d4>
 8002f7a:	2f58      	cmp	r7, #88	; 0x58
 8002f7c:	f000 80a4 	beq.w	80030c8 <_printf_i+0x170>
 8002f80:	f104 0542 	add.w	r5, r4, #66	; 0x42
 8002f84:	f884 7042 	strb.w	r7, [r4, #66]	; 0x42
 8002f88:	e03a      	b.n	8003000 <_printf_i+0xa8>
 8002f8a:	f1a7 0363 	sub.w	r3, r7, #99	; 0x63
 8002f8e:	2b15      	cmp	r3, #21
 8002f90:	d8f6      	bhi.n	8002f80 <_printf_i+0x28>
 8002f92:	a101      	add	r1, pc, #4	; (adr r1, 8002f98 <_printf_i+0x40>)
 8002f94:	f851 f023 	ldr.w	pc, [r1, r3, lsl #2]
 8002f98:	08002ff1 	.word	0x08002ff1
 8002f9c:	08003005 	.word	0x08003005
 8002fa0:	08002f81 	.word	0x08002f81
 8002fa4:	08002f81 	.word	0x08002f81
 8002fa8:	08002f81 	.word	0x08002f81
 8002fac:	08002f81 	.word	0x08002f81
 8002fb0:	08003005 	.word	0x08003005
 8002fb4:	08002f81 	.word	0x08002f81
 8002fb8:	08002f81 	.word	0x08002f81
 8002fbc:	08002f81 	.word	0x08002f81
 8002fc0:	08002f81 	.word	0x08002f81
 8002fc4:	08003113 	.word	0x08003113
 8002fc8:	08003035 	.word	0x08003035
 8002fcc:	080030f5 	.word	0x080030f5
 8002fd0:	08002f81 	.word	0x08002f81
 8002fd4:	08002f81 	.word	0x08002f81
 8002fd8:	08003135 	.word	0x08003135
 8002fdc:	08002f81 	.word	0x08002f81
 8002fe0:	08003035 	.word	0x08003035
 8002fe4:	08002f81 	.word	0x08002f81
 8002fe8:	08002f81 	.word	0x08002f81
 8002fec:	080030fd 	.word	0x080030fd
 8002ff0:	682b      	ldr	r3, [r5, #0]
 8002ff2:	1d1a      	adds	r2, r3, #4
 8002ff4:	681b      	ldr	r3, [r3, #0]
 8002ff6:	602a      	str	r2, [r5, #0]
 8002ff8:	f104 0542 	add.w	r5, r4, #66	; 0x42
 8002ffc:	f884 3042 	strb.w	r3, [r4, #66]	; 0x42
 8003000:	2301      	movs	r3, #1
 8003002:	e0a4      	b.n	800314e <_printf_i+0x1f6>
 8003004:	6820      	ldr	r0, [r4, #0]
 8003006:	6829      	ldr	r1, [r5, #0]
 8003008:	0606      	lsls	r6, r0, #24
 800300a:	f101 0304 	add.w	r3, r1, #4
 800300e:	d50a      	bpl.n	8003026 <_printf_i+0xce>
 8003010:	680e      	ldr	r6, [r1, #0]
 8003012:	602b      	str	r3, [r5, #0]
 8003014:	2e00      	cmp	r6, #0
 8003016:	da03      	bge.n	8003020 <_printf_i+0xc8>
 8003018:	232d      	movs	r3, #45	; 0x2d
 800301a:	4276      	negs	r6, r6
 800301c:	f884 3043 	strb.w	r3, [r4, #67]	; 0x43
 8003020:	230a      	movs	r3, #10
 8003022:	485e      	ldr	r0, [pc, #376]	; (800319c <_printf_i+0x244>)
 8003024:	e019      	b.n	800305a <_printf_i+0x102>
 8003026:	680e      	ldr	r6, [r1, #0]
 8003028:	f010 0f40 	tst.w	r0, #64	; 0x40
 800302c:	602b      	str	r3, [r5, #0]
 800302e:	bf18      	it	ne
 8003030:	b236      	sxthne	r6, r6
 8003032:	e7ef      	b.n	8003014 <_printf_i+0xbc>
 8003034:	682b      	ldr	r3, [r5, #0]
 8003036:	6820      	ldr	r0, [r4, #0]
 8003038:	1d19      	adds	r1, r3, #4
 800303a:	6029      	str	r1, [r5, #0]
 800303c:	0601      	lsls	r1, r0, #24
 800303e:	d501      	bpl.n	8003044 <_printf_i+0xec>
 8003040:	681e      	ldr	r6, [r3, #0]
 8003042:	e002      	b.n	800304a <_printf_i+0xf2>
 8003044:	0646      	lsls	r6, r0, #25
 8003046:	d5fb      	bpl.n	8003040 <_printf_i+0xe8>
 8003048:	881e      	ldrh	r6, [r3, #0]
 800304a:	2f6f      	cmp	r7, #111	; 0x6f
 800304c:	bf0c      	ite	eq
 800304e:	2308      	moveq	r3, #8
 8003050:	230a      	movne	r3, #10
 8003052:	4852      	ldr	r0, [pc, #328]	; (800319c <_printf_i+0x244>)
 8003054:	2100      	movs	r1, #0
 8003056:	f884 1043 	strb.w	r1, [r4, #67]	; 0x43
 800305a:	6865      	ldr	r5, [r4, #4]
 800305c:	2d00      	cmp	r5, #0
 800305e:	bfa8      	it	ge
 8003060:	6821      	ldrge	r1, [r4, #0]
 8003062:	60a5      	str	r5, [r4, #8]
 8003064:	bfa4      	itt	ge
 8003066:	f021 0104 	bicge.w	r1, r1, #4
 800306a:	6021      	strge	r1, [r4, #0]
 800306c:	b90e      	cbnz	r6, 8003072 <_printf_i+0x11a>
 800306e:	2d00      	cmp	r5, #0
 8003070:	d04d      	beq.n	800310e <_printf_i+0x1b6>
 8003072:	4615      	mov	r5, r2
 8003074:	fbb6 f1f3 	udiv	r1, r6, r3
 8003078:	fb03 6711 	mls	r7, r3, r1, r6
 800307c:	5dc7      	ldrb	r7, [r0, r7]
 800307e:	f805 7d01 	strb.w	r7, [r5, #-1]!
 8003082:	4637      	mov	r7, r6
 8003084:	42bb      	cmp	r3, r7
 8003086:	460e      	mov	r6, r1
 8003088:	d9f4      	bls.n	8003074 <_printf_i+0x11c>
 800308a:	2b08      	cmp	r3, #8
 800308c:	d10b      	bne.n	80030a6 <_printf_i+0x14e>
 800308e:	6823      	ldr	r3, [r4, #0]
 8003090:	07de      	lsls	r6, r3, #31
 8003092:	d508      	bpl.n	80030a6 <_printf_i+0x14e>
 8003094:	6923      	ldr	r3, [r4, #16]
 8003096:	6861      	ldr	r1, [r4, #4]
 8003098:	4299      	cmp	r1, r3
 800309a:	bfde      	ittt	le
 800309c:	2330      	movle	r3, #48	; 0x30
 800309e:	f805 3c01 	strble.w	r3, [r5, #-1]
 80030a2:	f105 35ff 	addle.w	r5, r5, #4294967295
 80030a6:	1b52      	subs	r2, r2, r5
 80030a8:	6122      	str	r2, [r4, #16]
 80030aa:	464b      	mov	r3, r9
 80030ac:	4621      	mov	r1, r4
 80030ae:	4640      	mov	r0, r8
 80030b0:	f8cd a000 	str.w	sl, [sp]
 80030b4:	aa03      	add	r2, sp, #12
 80030b6:	f7ff fedf 	bl	8002e78 <_printf_common>
 80030ba:	3001      	adds	r0, #1
 80030bc:	d14c      	bne.n	8003158 <_printf_i+0x200>
 80030be:	f04f 30ff 	mov.w	r0, #4294967295
 80030c2:	b004      	add	sp, #16
 80030c4:	e8bd 87f0 	ldmia.w	sp!, {r4, r5, r6, r7, r8, r9, sl, pc}
 80030c8:	4834      	ldr	r0, [pc, #208]	; (800319c <_printf_i+0x244>)
 80030ca:	f881 7045 	strb.w	r7, [r1, #69]	; 0x45
 80030ce:	6829      	ldr	r1, [r5, #0]
 80030d0:	6823      	ldr	r3, [r4, #0]
 80030d2:	f851 6b04 	ldr.w	r6, [r1], #4
 80030d6:	6029      	str	r1, [r5, #0]
 80030d8:	061d      	lsls	r5, r3, #24
 80030da:	d514      	bpl.n	8003106 <_printf_i+0x1ae>
 80030dc:	07df      	lsls	r7, r3, #31
 80030de:	bf44      	itt	mi
 80030e0:	f043 0320 	orrmi.w	r3, r3, #32
 80030e4:	6023      	strmi	r3, [r4, #0]
 80030e6:	b91e      	cbnz	r6, 80030f0 <_printf_i+0x198>
 80030e8:	6823      	ldr	r3, [r4, #0]
 80030ea:	f023 0320 	bic.w	r3, r3, #32
 80030ee:	6023      	str	r3, [r4, #0]
 80030f0:	2310      	movs	r3, #16
 80030f2:	e7af      	b.n	8003054 <_printf_i+0xfc>
 80030f4:	6823      	ldr	r3, [r4, #0]
 80030f6:	f043 0320 	orr.w	r3, r3, #32
 80030fa:	6023      	str	r3, [r4, #0]
 80030fc:	2378      	movs	r3, #120	; 0x78
 80030fe:	4828      	ldr	r0, [pc, #160]	; (80031a0 <_printf_i+0x248>)
 8003100:	f884 3045 	strb.w	r3, [r4, #69]	; 0x45
 8003104:	e7e3      	b.n	80030ce <_printf_i+0x176>
 8003106:	0659      	lsls	r1, r3, #25
 8003108:	bf48      	it	mi
 800310a:	b2b6      	uxthmi	r6, r6
 800310c:	e7e6      	b.n	80030dc <_printf_i+0x184>
 800310e:	4615      	mov	r5, r2
 8003110:	e7bb      	b.n	800308a <_printf_i+0x132>
 8003112:	682b      	ldr	r3, [r5, #0]
 8003114:	6826      	ldr	r6, [r4, #0]
 8003116:	1d18      	adds	r0, r3, #4
 8003118:	6961      	ldr	r1, [r4, #20]
 800311a:	6028      	str	r0, [r5, #0]
 800311c:	0635      	lsls	r5, r6, #24
 800311e:	681b      	ldr	r3, [r3, #0]
 8003120:	d501      	bpl.n	8003126 <_printf_i+0x1ce>
 8003122:	6019      	str	r1, [r3, #0]
 8003124:	e002      	b.n	800312c <_printf_i+0x1d4>
 8003126:	0670      	lsls	r0, r6, #25
 8003128:	d5fb      	bpl.n	8003122 <_printf_i+0x1ca>
 800312a:	8019      	strh	r1, [r3, #0]
 800312c:	2300      	movs	r3, #0
 800312e:	4615      	mov	r5, r2
 8003130:	6123      	str	r3, [r4, #16]
 8003132:	e7ba      	b.n	80030aa <_printf_i+0x152>
 8003134:	682b      	ldr	r3, [r5, #0]
 8003136:	2100      	movs	r1, #0
 8003138:	1d1a      	adds	r2, r3, #4
 800313a:	602a      	str	r2, [r5, #0]
 800313c:	681d      	ldr	r5, [r3, #0]
 800313e:	6862      	ldr	r2, [r4, #4]
 8003140:	4628      	mov	r0, r5
 8003142:	f000 fa9b 	bl	800367c <memchr>
 8003146:	b108      	cbz	r0, 800314c <_printf_i+0x1f4>
 8003148:	1b40      	subs	r0, r0, r5
 800314a:	6060      	str	r0, [r4, #4]
 800314c:	6863      	ldr	r3, [r4, #4]
 800314e:	6123      	str	r3, [r4, #16]
 8003150:	2300      	movs	r3, #0
 8003152:	f884 3043 	strb.w	r3, [r4, #67]	; 0x43
 8003156:	e7a8      	b.n	80030aa <_printf_i+0x152>
 8003158:	462a      	mov	r2, r5
 800315a:	4649      	mov	r1, r9
 800315c:	4640      	mov	r0, r8
 800315e:	6923      	ldr	r3, [r4, #16]
 8003160:	47d0      	blx	sl
 8003162:	3001      	adds	r0, #1
 8003164:	d0ab      	beq.n	80030be <_printf_i+0x166>
 8003166:	6823      	ldr	r3, [r4, #0]
 8003168:	079b      	lsls	r3, r3, #30
 800316a:	d413      	bmi.n	8003194 <_printf_i+0x23c>
 800316c:	68e0      	ldr	r0, [r4, #12]
 800316e:	9b03      	ldr	r3, [sp, #12]
 8003170:	4298      	cmp	r0, r3
 8003172:	bfb8      	it	lt
 8003174:	4618      	movlt	r0, r3
 8003176:	e7a4      	b.n	80030c2 <_printf_i+0x16a>
 8003178:	2301      	movs	r3, #1
 800317a:	4632      	mov	r2, r6
 800317c:	4649      	mov	r1, r9
 800317e:	4640      	mov	r0, r8
 8003180:	47d0      	blx	sl
 8003182:	3001      	adds	r0, #1
 8003184:	d09b      	beq.n	80030be <_printf_i+0x166>
 8003186:	3501      	adds	r5, #1
 8003188:	68e3      	ldr	r3, [r4, #12]
 800318a:	9903      	ldr	r1, [sp, #12]
 800318c:	1a5b      	subs	r3, r3, r1
 800318e:	42ab      	cmp	r3, r5
 8003190:	dcf2      	bgt.n	8003178 <_printf_i+0x220>
 8003192:	e7eb      	b.n	800316c <_printf_i+0x214>
 8003194:	2500      	movs	r5, #0
 8003196:	f104 0619 	add.w	r6, r4, #25
 800319a:	e7f5      	b.n	8003188 <_printf_i+0x230>
 800319c:	0800388d 	.word	0x0800388d
 80031a0:	0800389e 	.word	0x0800389e

080031a4 <_sbrk_r>:
 80031a4:	b538      	push	{r3, r4, r5, lr}
 80031a6:	2300      	movs	r3, #0
 80031a8:	4d05      	ldr	r5, [pc, #20]	; (80031c0 <_sbrk_r+0x1c>)
 80031aa:	4604      	mov	r4, r0
 80031ac:	4608      	mov	r0, r1
 80031ae:	602b      	str	r3, [r5, #0]
 80031b0:	f7fd fb3e 	bl	8000830 <_sbrk>
 80031b4:	1c43      	adds	r3, r0, #1
 80031b6:	d102      	bne.n	80031be <_sbrk_r+0x1a>
 80031b8:	682b      	ldr	r3, [r5, #0]
 80031ba:	b103      	cbz	r3, 80031be <_sbrk_r+0x1a>
 80031bc:	6023      	str	r3, [r4, #0]
 80031be:	bd38      	pop	{r3, r4, r5, pc}
 80031c0:	20000164 	.word	0x20000164

080031c4 <__sread>:
 80031c4:	b510      	push	{r4, lr}
 80031c6:	460c      	mov	r4, r1
 80031c8:	f9b1 100e 	ldrsh.w	r1, [r1, #14]
 80031cc:	f000 fab8 	bl	8003740 <_read_r>
 80031d0:	2800      	cmp	r0, #0
 80031d2:	bfab      	itete	ge
 80031d4:	6d63      	ldrge	r3, [r4, #84]	; 0x54
 80031d6:	89a3      	ldrhlt	r3, [r4, #12]
 80031d8:	181b      	addge	r3, r3, r0
 80031da:	f423 5380 	biclt.w	r3, r3, #4096	; 0x1000
 80031de:	bfac      	ite	ge
 80031e0:	6563      	strge	r3, [r4, #84]	; 0x54
 80031e2:	81a3      	strhlt	r3, [r4, #12]
 80031e4:	bd10      	pop	{r4, pc}

080031e6 <__swrite>:
 80031e6:	e92d 41f0 	stmdb	sp!, {r4, r5, r6, r7, r8, lr}
 80031ea:	461f      	mov	r7, r3
 80031ec:	898b      	ldrh	r3, [r1, #12]
 80031ee:	4605      	mov	r5, r0
 80031f0:	05db      	lsls	r3, r3, #23
 80031f2:	460c      	mov	r4, r1
 80031f4:	4616      	mov	r6, r2
 80031f6:	d505      	bpl.n	8003204 <__swrite+0x1e>
 80031f8:	2302      	movs	r3, #2
 80031fa:	2200      	movs	r2, #0
 80031fc:	f9b1 100e 	ldrsh.w	r1, [r1, #14]
 8003200:	f000 f9c4 	bl	800358c <_lseek_r>
 8003204:	89a3      	ldrh	r3, [r4, #12]
 8003206:	4632      	mov	r2, r6
 8003208:	f423 5380 	bic.w	r3, r3, #4096	; 0x1000
 800320c:	81a3      	strh	r3, [r4, #12]
 800320e:	4628      	mov	r0, r5
 8003210:	463b      	mov	r3, r7
 8003212:	f9b4 100e 	ldrsh.w	r1, [r4, #14]
 8003216:	e8bd 41f0 	ldmia.w	sp!, {r4, r5, r6, r7, r8, lr}
 800321a:	f000 b869 	b.w	80032f0 <_write_r>

0800321e <__sseek>:
 800321e:	b510      	push	{r4, lr}
 8003220:	460c      	mov	r4, r1
 8003222:	f9b1 100e 	ldrsh.w	r1, [r1, #14]
 8003226:	f000 f9b1 	bl	800358c <_lseek_r>
 800322a:	1c43      	adds	r3, r0, #1
 800322c:	89a3      	ldrh	r3, [r4, #12]
 800322e:	bf15      	itete	ne
 8003230:	6560      	strne	r0, [r4, #84]	; 0x54
 8003232:	f423 5380 	biceq.w	r3, r3, #4096	; 0x1000
 8003236:	f443 5380 	orrne.w	r3, r3, #4096	; 0x1000
 800323a:	81a3      	strheq	r3, [r4, #12]
 800323c:	bf18      	it	ne
 800323e:	81a3      	strhne	r3, [r4, #12]
 8003240:	bd10      	pop	{r4, pc}

08003242 <__sclose>:
 8003242:	f9b1 100e 	ldrsh.w	r1, [r1, #14]
 8003246:	f000 b8d3 	b.w	80033f0 <_close_r>
	...

0800324c <__swbuf_r>:
 800324c:	b5f8      	push	{r3, r4, r5, r6, r7, lr}
 800324e:	460e      	mov	r6, r1
 8003250:	4614      	mov	r4, r2
 8003252:	4605      	mov	r5, r0
 8003254:	b118      	cbz	r0, 800325e <__swbuf_r+0x12>
 8003256:	6983      	ldr	r3, [r0, #24]
 8003258:	b90b      	cbnz	r3, 800325e <__swbuf_r+0x12>
 800325a:	f7ff fb81 	bl	8002960 <__sinit>
 800325e:	4b21      	ldr	r3, [pc, #132]	; (80032e4 <__swbuf_r+0x98>)
 8003260:	429c      	cmp	r4, r3
 8003262:	d12b      	bne.n	80032bc <__swbuf_r+0x70>
 8003264:	686c      	ldr	r4, [r5, #4]
 8003266:	69a3      	ldr	r3, [r4, #24]
 8003268:	60a3      	str	r3, [r4, #8]
 800326a:	89a3      	ldrh	r3, [r4, #12]
 800326c:	071a      	lsls	r2, r3, #28
 800326e:	d52f      	bpl.n	80032d0 <__swbuf_r+0x84>
 8003270:	6923      	ldr	r3, [r4, #16]
 8003272:	b36b      	cbz	r3, 80032d0 <__swbuf_r+0x84>
 8003274:	6923      	ldr	r3, [r4, #16]
 8003276:	6820      	ldr	r0, [r4, #0]
 8003278:	b2f6      	uxtb	r6, r6
 800327a:	1ac0      	subs	r0, r0, r3
 800327c:	6963      	ldr	r3, [r4, #20]
 800327e:	4637      	mov	r7, r6
 8003280:	4283      	cmp	r3, r0
 8003282:	dc04      	bgt.n	800328e <__swbuf_r+0x42>
 8003284:	4621      	mov	r1, r4
 8003286:	4628      	mov	r0, r5
 8003288:	f000 f944 	bl	8003514 <_fflush_r>
 800328c:	bb30      	cbnz	r0, 80032dc <__swbuf_r+0x90>
 800328e:	68a3      	ldr	r3, [r4, #8]
 8003290:	3001      	adds	r0, #1
 8003292:	3b01      	subs	r3, #1
 8003294:	60a3      	str	r3, [r4, #8]
 8003296:	6823      	ldr	r3, [r4, #0]
 8003298:	1c5a      	adds	r2, r3, #1
 800329a:	6022      	str	r2, [r4, #0]
 800329c:	701e      	strb	r6, [r3, #0]
 800329e:	6963      	ldr	r3, [r4, #20]
 80032a0:	4283      	cmp	r3, r0
 80032a2:	d004      	beq.n	80032ae <__swbuf_r+0x62>
 80032a4:	89a3      	ldrh	r3, [r4, #12]
 80032a6:	07db      	lsls	r3, r3, #31
 80032a8:	d506      	bpl.n	80032b8 <__swbuf_r+0x6c>
 80032aa:	2e0a      	cmp	r6, #10
 80032ac:	d104      	bne.n	80032b8 <__swbuf_r+0x6c>
 80032ae:	4621      	mov	r1, r4
 80032b0:	4628      	mov	r0, r5
 80032b2:	f000 f92f 	bl	8003514 <_fflush_r>
 80032b6:	b988      	cbnz	r0, 80032dc <__swbuf_r+0x90>
 80032b8:	4638      	mov	r0, r7
 80032ba:	bdf8      	pop	{r3, r4, r5, r6, r7, pc}
 80032bc:	4b0a      	ldr	r3, [pc, #40]	; (80032e8 <__swbuf_r+0x9c>)
 80032be:	429c      	cmp	r4, r3
 80032c0:	d101      	bne.n	80032c6 <__swbuf_r+0x7a>
 80032c2:	68ac      	ldr	r4, [r5, #8]
 80032c4:	e7cf      	b.n	8003266 <__swbuf_r+0x1a>
 80032c6:	4b09      	ldr	r3, [pc, #36]	; (80032ec <__swbuf_r+0xa0>)
 80032c8:	429c      	cmp	r4, r3
 80032ca:	bf08      	it	eq
 80032cc:	68ec      	ldreq	r4, [r5, #12]
 80032ce:	e7ca      	b.n	8003266 <__swbuf_r+0x1a>
 80032d0:	4621      	mov	r1, r4
 80032d2:	4628      	mov	r0, r5
 80032d4:	f000 f81e 	bl	8003314 <__swsetup_r>
 80032d8:	2800      	cmp	r0, #0
 80032da:	d0cb      	beq.n	8003274 <__swbuf_r+0x28>
 80032dc:	f04f 37ff 	mov.w	r7, #4294967295
 80032e0:	e7ea      	b.n	80032b8 <__swbuf_r+0x6c>
 80032e2:	bf00      	nop
 80032e4:	0800383c 	.word	0x0800383c
 80032e8:	0800385c 	.word	0x0800385c
 80032ec:	0800381c 	.word	0x0800381c

080032f0 <_write_r>:
 80032f0:	b538      	push	{r3, r4, r5, lr}
 80032f2:	4604      	mov	r4, r0
 80032f4:	4608      	mov	r0, r1
 80032f6:	4611      	mov	r1, r2
 80032f8:	2200      	movs	r2, #0
 80032fa:	4d05      	ldr	r5, [pc, #20]	; (8003310 <_write_r+0x20>)
 80032fc:	602a      	str	r2, [r5, #0]
 80032fe:	461a      	mov	r2, r3
 8003300:	f7fd fa49 	bl	8000796 <_write>
 8003304:	1c43      	adds	r3, r0, #1
 8003306:	d102      	bne.n	800330e <_write_r+0x1e>
 8003308:	682b      	ldr	r3, [r5, #0]
 800330a:	b103      	cbz	r3, 800330e <_write_r+0x1e>
 800330c:	6023      	str	r3, [r4, #0]
 800330e:	bd38      	pop	{r3, r4, r5, pc}
 8003310:	20000164 	.word	0x20000164

08003314 <__swsetup_r>:
 8003314:	4b32      	ldr	r3, [pc, #200]	; (80033e0 <__swsetup_r+0xcc>)
 8003316:	b570      	push	{r4, r5, r6, lr}
 8003318:	681d      	ldr	r5, [r3, #0]
 800331a:	4606      	mov	r6, r0
 800331c:	460c      	mov	r4, r1
 800331e:	b125      	cbz	r5, 800332a <__swsetup_r+0x16>
 8003320:	69ab      	ldr	r3, [r5, #24]
 8003322:	b913      	cbnz	r3, 800332a <__swsetup_r+0x16>
 8003324:	4628      	mov	r0, r5
 8003326:	f7ff fb1b 	bl	8002960 <__sinit>
 800332a:	4b2e      	ldr	r3, [pc, #184]	; (80033e4 <__swsetup_r+0xd0>)
 800332c:	429c      	cmp	r4, r3
 800332e:	d10f      	bne.n	8003350 <__swsetup_r+0x3c>
 8003330:	686c      	ldr	r4, [r5, #4]
 8003332:	89a3      	ldrh	r3, [r4, #12]
 8003334:	f9b4 200c 	ldrsh.w	r2, [r4, #12]
 8003338:	0719      	lsls	r1, r3, #28
 800333a:	d42c      	bmi.n	8003396 <__swsetup_r+0x82>
 800333c:	06dd      	lsls	r5, r3, #27
 800333e:	d411      	bmi.n	8003364 <__swsetup_r+0x50>
 8003340:	2309      	movs	r3, #9
 8003342:	6033      	str	r3, [r6, #0]
 8003344:	f042 0340 	orr.w	r3, r2, #64	; 0x40
 8003348:	f04f 30ff 	mov.w	r0, #4294967295
 800334c:	81a3      	strh	r3, [r4, #12]
 800334e:	e03e      	b.n	80033ce <__swsetup_r+0xba>
 8003350:	4b25      	ldr	r3, [pc, #148]	; (80033e8 <__swsetup_r+0xd4>)
 8003352:	429c      	cmp	r4, r3
 8003354:	d101      	bne.n	800335a <__swsetup_r+0x46>
 8003356:	68ac      	ldr	r4, [r5, #8]
 8003358:	e7eb      	b.n	8003332 <__swsetup_r+0x1e>
 800335a:	4b24      	ldr	r3, [pc, #144]	; (80033ec <__swsetup_r+0xd8>)
 800335c:	429c      	cmp	r4, r3
 800335e:	bf08      	it	eq
 8003360:	68ec      	ldreq	r4, [r5, #12]
 8003362:	e7e6      	b.n	8003332 <__swsetup_r+0x1e>
 8003364:	0758      	lsls	r0, r3, #29
 8003366:	d512      	bpl.n	800338e <__swsetup_r+0x7a>
 8003368:	6b61      	ldr	r1, [r4, #52]	; 0x34
 800336a:	b141      	cbz	r1, 800337e <__swsetup_r+0x6a>
 800336c:	f104 0344 	add.w	r3, r4, #68	; 0x44
 8003370:	4299      	cmp	r1, r3
 8003372:	d002      	beq.n	800337a <__swsetup_r+0x66>
 8003374:	4630      	mov	r0, r6
 8003376:	f000 f99b 	bl	80036b0 <_free_r>
 800337a:	2300      	movs	r3, #0
 800337c:	6363      	str	r3, [r4, #52]	; 0x34
 800337e:	89a3      	ldrh	r3, [r4, #12]
 8003380:	f023 0324 	bic.w	r3, r3, #36	; 0x24
 8003384:	81a3      	strh	r3, [r4, #12]
 8003386:	2300      	movs	r3, #0
 8003388:	6063      	str	r3, [r4, #4]
 800338a:	6923      	ldr	r3, [r4, #16]
 800338c:	6023      	str	r3, [r4, #0]
 800338e:	89a3      	ldrh	r3, [r4, #12]
 8003390:	f043 0308 	orr.w	r3, r3, #8
 8003394:	81a3      	strh	r3, [r4, #12]
 8003396:	6923      	ldr	r3, [r4, #16]
 8003398:	b94b      	cbnz	r3, 80033ae <__swsetup_r+0x9a>
 800339a:	89a3      	ldrh	r3, [r4, #12]
 800339c:	f403 7320 	and.w	r3, r3, #640	; 0x280
 80033a0:	f5b3 7f00 	cmp.w	r3, #512	; 0x200
 80033a4:	d003      	beq.n	80033ae <__swsetup_r+0x9a>
 80033a6:	4621      	mov	r1, r4
 80033a8:	4630      	mov	r0, r6
 80033aa:	f000 f927 	bl	80035fc <__smakebuf_r>
 80033ae:	89a0      	ldrh	r0, [r4, #12]
 80033b0:	f9b4 200c 	ldrsh.w	r2, [r4, #12]
 80033b4:	f010 0301 	ands.w	r3, r0, #1
 80033b8:	d00a      	beq.n	80033d0 <__swsetup_r+0xbc>
 80033ba:	2300      	movs	r3, #0
 80033bc:	60a3      	str	r3, [r4, #8]
 80033be:	6963      	ldr	r3, [r4, #20]
 80033c0:	425b      	negs	r3, r3
 80033c2:	61a3      	str	r3, [r4, #24]
 80033c4:	6923      	ldr	r3, [r4, #16]
 80033c6:	b943      	cbnz	r3, 80033da <__swsetup_r+0xc6>
 80033c8:	f010 0080 	ands.w	r0, r0, #128	; 0x80
 80033cc:	d1ba      	bne.n	8003344 <__swsetup_r+0x30>
 80033ce:	bd70      	pop	{r4, r5, r6, pc}
 80033d0:	0781      	lsls	r1, r0, #30
 80033d2:	bf58      	it	pl
 80033d4:	6963      	ldrpl	r3, [r4, #20]
 80033d6:	60a3      	str	r3, [r4, #8]
 80033d8:	e7f4      	b.n	80033c4 <__swsetup_r+0xb0>
 80033da:	2000      	movs	r0, #0
 80033dc:	e7f7      	b.n	80033ce <__swsetup_r+0xba>
 80033de:	bf00      	nop
 80033e0:	2000000c 	.word	0x2000000c
 80033e4:	0800383c 	.word	0x0800383c
 80033e8:	0800385c 	.word	0x0800385c
 80033ec:	0800381c 	.word	0x0800381c

080033f0 <_close_r>:
 80033f0:	b538      	push	{r3, r4, r5, lr}
 80033f2:	2300      	movs	r3, #0
 80033f4:	4d05      	ldr	r5, [pc, #20]	; (800340c <_close_r+0x1c>)
 80033f6:	4604      	mov	r4, r0
 80033f8:	4608      	mov	r0, r1
 80033fa:	602b      	str	r3, [r5, #0]
 80033fc:	f7fd f9e7 	bl	80007ce <_close>
 8003400:	1c43      	adds	r3, r0, #1
 8003402:	d102      	bne.n	800340a <_close_r+0x1a>
 8003404:	682b      	ldr	r3, [r5, #0]
 8003406:	b103      	cbz	r3, 800340a <_close_r+0x1a>
 8003408:	6023      	str	r3, [r4, #0]
 800340a:	bd38      	pop	{r3, r4, r5, pc}
 800340c:	20000164 	.word	0x20000164

08003410 <__sflush_r>:
 8003410:	898a      	ldrh	r2, [r1, #12]
 8003412:	b5f8      	push	{r3, r4, r5, r6, r7, lr}
 8003414:	4605      	mov	r5, r0
 8003416:	0710      	lsls	r0, r2, #28
 8003418:	460c      	mov	r4, r1
 800341a:	d457      	bmi.n	80034cc <__sflush_r+0xbc>
 800341c:	684b      	ldr	r3, [r1, #4]
 800341e:	2b00      	cmp	r3, #0
 8003420:	dc04      	bgt.n	800342c <__sflush_r+0x1c>
 8003422:	6c0b      	ldr	r3, [r1, #64]	; 0x40
 8003424:	2b00      	cmp	r3, #0
 8003426:	dc01      	bgt.n	800342c <__sflush_r+0x1c>
 8003428:	2000      	movs	r0, #0
 800342a:	bdf8      	pop	{r3, r4, r5, r6, r7, pc}
 800342c:	6ae6      	ldr	r6, [r4, #44]	; 0x2c
 800342e:	2e00      	cmp	r6, #0
 8003430:	d0fa      	beq.n	8003428 <__sflush_r+0x18>
 8003432:	2300      	movs	r3, #0
 8003434:	f412 5280 	ands.w	r2, r2, #4096	; 0x1000
 8003438:	682f      	ldr	r7, [r5, #0]
 800343a:	602b      	str	r3, [r5, #0]
 800343c:	d032      	beq.n	80034a4 <__sflush_r+0x94>
 800343e:	6d60      	ldr	r0, [r4, #84]	; 0x54
 8003440:	89a3      	ldrh	r3, [r4, #12]
 8003442:	075a      	lsls	r2, r3, #29
 8003444:	d505      	bpl.n	8003452 <__sflush_r+0x42>
 8003446:	6863      	ldr	r3, [r4, #4]
 8003448:	1ac0      	subs	r0, r0, r3
 800344a:	6b63      	ldr	r3, [r4, #52]	; 0x34
 800344c:	b10b      	cbz	r3, 8003452 <__sflush_r+0x42>
 800344e:	6c23      	ldr	r3, [r4, #64]	; 0x40
 8003450:	1ac0      	subs	r0, r0, r3
 8003452:	2300      	movs	r3, #0
 8003454:	4602      	mov	r2, r0
 8003456:	6ae6      	ldr	r6, [r4, #44]	; 0x2c
 8003458:	4628      	mov	r0, r5
 800345a:	6a21      	ldr	r1, [r4, #32]
 800345c:	47b0      	blx	r6
 800345e:	1c43      	adds	r3, r0, #1
 8003460:	89a3      	ldrh	r3, [r4, #12]
 8003462:	d106      	bne.n	8003472 <__sflush_r+0x62>
 8003464:	6829      	ldr	r1, [r5, #0]
 8003466:	291d      	cmp	r1, #29
 8003468:	d82c      	bhi.n	80034c4 <__sflush_r+0xb4>
 800346a:	4a29      	ldr	r2, [pc, #164]	; (8003510 <__sflush_r+0x100>)
 800346c:	40ca      	lsrs	r2, r1
 800346e:	07d6      	lsls	r6, r2, #31
 8003470:	d528      	bpl.n	80034c4 <__sflush_r+0xb4>
 8003472:	2200      	movs	r2, #0
 8003474:	6062      	str	r2, [r4, #4]
 8003476:	6922      	ldr	r2, [r4, #16]
 8003478:	04d9      	lsls	r1, r3, #19
 800347a:	6022      	str	r2, [r4, #0]
 800347c:	d504      	bpl.n	8003488 <__sflush_r+0x78>
 800347e:	1c42      	adds	r2, r0, #1
 8003480:	d101      	bne.n	8003486 <__sflush_r+0x76>
 8003482:	682b      	ldr	r3, [r5, #0]
 8003484:	b903      	cbnz	r3, 8003488 <__sflush_r+0x78>
 8003486:	6560      	str	r0, [r4, #84]	; 0x54
 8003488:	6b61      	ldr	r1, [r4, #52]	; 0x34
 800348a:	602f      	str	r7, [r5, #0]
 800348c:	2900      	cmp	r1, #0
 800348e:	d0cb      	beq.n	8003428 <__sflush_r+0x18>
 8003490:	f104 0344 	add.w	r3, r4, #68	; 0x44
 8003494:	4299      	cmp	r1, r3
 8003496:	d002      	beq.n	800349e <__sflush_r+0x8e>
 8003498:	4628      	mov	r0, r5
 800349a:	f000 f909 	bl	80036b0 <_free_r>
 800349e:	2000      	movs	r0, #0
 80034a0:	6360      	str	r0, [r4, #52]	; 0x34
 80034a2:	e7c2      	b.n	800342a <__sflush_r+0x1a>
 80034a4:	6a21      	ldr	r1, [r4, #32]
 80034a6:	2301      	movs	r3, #1
 80034a8:	4628      	mov	r0, r5
 80034aa:	47b0      	blx	r6
 80034ac:	1c41      	adds	r1, r0, #1
 80034ae:	d1c7      	bne.n	8003440 <__sflush_r+0x30>
 80034b0:	682b      	ldr	r3, [r5, #0]
 80034b2:	2b00      	cmp	r3, #0
 80034b4:	d0c4      	beq.n	8003440 <__sflush_r+0x30>
 80034b6:	2b1d      	cmp	r3, #29
 80034b8:	d001      	beq.n	80034be <__sflush_r+0xae>
 80034ba:	2b16      	cmp	r3, #22
 80034bc:	d101      	bne.n	80034c2 <__sflush_r+0xb2>
 80034be:	602f      	str	r7, [r5, #0]
 80034c0:	e7b2      	b.n	8003428 <__sflush_r+0x18>
 80034c2:	89a3      	ldrh	r3, [r4, #12]
 80034c4:	f043 0340 	orr.w	r3, r3, #64	; 0x40
 80034c8:	81a3      	strh	r3, [r4, #12]
 80034ca:	e7ae      	b.n	800342a <__sflush_r+0x1a>
 80034cc:	690f      	ldr	r7, [r1, #16]
 80034ce:	2f00      	cmp	r7, #0
 80034d0:	d0aa      	beq.n	8003428 <__sflush_r+0x18>
 80034d2:	0793      	lsls	r3, r2, #30
 80034d4:	bf18      	it	ne
 80034d6:	2300      	movne	r3, #0
 80034d8:	680e      	ldr	r6, [r1, #0]
 80034da:	bf08      	it	eq
 80034dc:	694b      	ldreq	r3, [r1, #20]
 80034de:	1bf6      	subs	r6, r6, r7
 80034e0:	600f      	str	r7, [r1, #0]
 80034e2:	608b      	str	r3, [r1, #8]
 80034e4:	2e00      	cmp	r6, #0
 80034e6:	dd9f      	ble.n	8003428 <__sflush_r+0x18>
 80034e8:	4633      	mov	r3, r6
 80034ea:	463a      	mov	r2, r7
 80034ec:	4628      	mov	r0, r5
 80034ee:	6a21      	ldr	r1, [r4, #32]
 80034f0:	f8d4 c028 	ldr.w	ip, [r4, #40]	; 0x28
 80034f4:	47e0      	blx	ip
 80034f6:	2800      	cmp	r0, #0
 80034f8:	dc06      	bgt.n	8003508 <__sflush_r+0xf8>
 80034fa:	89a3      	ldrh	r3, [r4, #12]
 80034fc:	f04f 30ff 	mov.w	r0, #4294967295
 8003500:	f043 0340 	orr.w	r3, r3, #64	; 0x40
 8003504:	81a3      	strh	r3, [r4, #12]
 8003506:	e790      	b.n	800342a <__sflush_r+0x1a>
 8003508:	4407      	add	r7, r0
 800350a:	1a36      	subs	r6, r6, r0
 800350c:	e7ea      	b.n	80034e4 <__sflush_r+0xd4>
 800350e:	bf00      	nop
 8003510:	20400001 	.word	0x20400001

08003514 <_fflush_r>:
 8003514:	b538      	push	{r3, r4, r5, lr}
 8003516:	690b      	ldr	r3, [r1, #16]
 8003518:	4605      	mov	r5, r0
 800351a:	460c      	mov	r4, r1
 800351c:	b913      	cbnz	r3, 8003524 <_fflush_r+0x10>
 800351e:	2500      	movs	r5, #0
 8003520:	4628      	mov	r0, r5
 8003522:	bd38      	pop	{r3, r4, r5, pc}
 8003524:	b118      	cbz	r0, 800352e <_fflush_r+0x1a>
 8003526:	6983      	ldr	r3, [r0, #24]
 8003528:	b90b      	cbnz	r3, 800352e <_fflush_r+0x1a>
 800352a:	f7ff fa19 	bl	8002960 <__sinit>
 800352e:	4b14      	ldr	r3, [pc, #80]	; (8003580 <_fflush_r+0x6c>)
 8003530:	429c      	cmp	r4, r3
 8003532:	d11b      	bne.n	800356c <_fflush_r+0x58>
 8003534:	686c      	ldr	r4, [r5, #4]
 8003536:	f9b4 300c 	ldrsh.w	r3, [r4, #12]
 800353a:	2b00      	cmp	r3, #0
 800353c:	d0ef      	beq.n	800351e <_fflush_r+0xa>
 800353e:	6e62      	ldr	r2, [r4, #100]	; 0x64
 8003540:	07d0      	lsls	r0, r2, #31
 8003542:	d404      	bmi.n	800354e <_fflush_r+0x3a>
 8003544:	0599      	lsls	r1, r3, #22
 8003546:	d402      	bmi.n	800354e <_fflush_r+0x3a>
 8003548:	6da0      	ldr	r0, [r4, #88]	; 0x58
 800354a:	f7ff faa7 	bl	8002a9c <__retarget_lock_acquire_recursive>
 800354e:	4628      	mov	r0, r5
 8003550:	4621      	mov	r1, r4
 8003552:	f7ff ff5d 	bl	8003410 <__sflush_r>
 8003556:	6e63      	ldr	r3, [r4, #100]	; 0x64
 8003558:	4605      	mov	r5, r0
 800355a:	07da      	lsls	r2, r3, #31
 800355c:	d4e0      	bmi.n	8003520 <_fflush_r+0xc>
 800355e:	89a3      	ldrh	r3, [r4, #12]
 8003560:	059b      	lsls	r3, r3, #22
 8003562:	d4dd      	bmi.n	8003520 <_fflush_r+0xc>
 8003564:	6da0      	ldr	r0, [r4, #88]	; 0x58
 8003566:	f7ff fa9a 	bl	8002a9e <__retarget_lock_release_recursive>
 800356a:	e7d9      	b.n	8003520 <_fflush_r+0xc>
 800356c:	4b05      	ldr	r3, [pc, #20]	; (8003584 <_fflush_r+0x70>)
 800356e:	429c      	cmp	r4, r3
 8003570:	d101      	bne.n	8003576 <_fflush_r+0x62>
 8003572:	68ac      	ldr	r4, [r5, #8]
 8003574:	e7df      	b.n	8003536 <_fflush_r+0x22>
 8003576:	4b04      	ldr	r3, [pc, #16]	; (8003588 <_fflush_r+0x74>)
 8003578:	429c      	cmp	r4, r3
 800357a:	bf08      	it	eq
 800357c:	68ec      	ldreq	r4, [r5, #12]
 800357e:	e7da      	b.n	8003536 <_fflush_r+0x22>
 8003580:	0800383c 	.word	0x0800383c
 8003584:	0800385c 	.word	0x0800385c
 8003588:	0800381c 	.word	0x0800381c

0800358c <_lseek_r>:
 800358c:	b538      	push	{r3, r4, r5, lr}
 800358e:	4604      	mov	r4, r0
 8003590:	4608      	mov	r0, r1
 8003592:	4611      	mov	r1, r2
 8003594:	2200      	movs	r2, #0
 8003596:	4d05      	ldr	r5, [pc, #20]	; (80035ac <_lseek_r+0x20>)
 8003598:	602a      	str	r2, [r5, #0]
 800359a:	461a      	mov	r2, r3
 800359c:	f7fd f93b 	bl	8000816 <_lseek>
 80035a0:	1c43      	adds	r3, r0, #1
 80035a2:	d102      	bne.n	80035aa <_lseek_r+0x1e>
 80035a4:	682b      	ldr	r3, [r5, #0]
 80035a6:	b103      	cbz	r3, 80035aa <_lseek_r+0x1e>
 80035a8:	6023      	str	r3, [r4, #0]
 80035aa:	bd38      	pop	{r3, r4, r5, pc}
 80035ac:	20000164 	.word	0x20000164

080035b0 <__swhatbuf_r>:
 80035b0:	b570      	push	{r4, r5, r6, lr}
 80035b2:	460e      	mov	r6, r1
 80035b4:	f9b1 100e 	ldrsh.w	r1, [r1, #14]
 80035b8:	4614      	mov	r4, r2
 80035ba:	2900      	cmp	r1, #0
 80035bc:	461d      	mov	r5, r3
 80035be:	b096      	sub	sp, #88	; 0x58
 80035c0:	da08      	bge.n	80035d4 <__swhatbuf_r+0x24>
 80035c2:	2200      	movs	r2, #0
 80035c4:	f9b6 300c 	ldrsh.w	r3, [r6, #12]
 80035c8:	602a      	str	r2, [r5, #0]
 80035ca:	061a      	lsls	r2, r3, #24
 80035cc:	d410      	bmi.n	80035f0 <__swhatbuf_r+0x40>
 80035ce:	f44f 6380 	mov.w	r3, #1024	; 0x400
 80035d2:	e00e      	b.n	80035f2 <__swhatbuf_r+0x42>
 80035d4:	466a      	mov	r2, sp
 80035d6:	f000 f8c5 	bl	8003764 <_fstat_r>
 80035da:	2800      	cmp	r0, #0
 80035dc:	dbf1      	blt.n	80035c2 <__swhatbuf_r+0x12>
 80035de:	9a01      	ldr	r2, [sp, #4]
 80035e0:	f402 4270 	and.w	r2, r2, #61440	; 0xf000
 80035e4:	f5a2 5300 	sub.w	r3, r2, #8192	; 0x2000
 80035e8:	425a      	negs	r2, r3
 80035ea:	415a      	adcs	r2, r3
 80035ec:	602a      	str	r2, [r5, #0]
 80035ee:	e7ee      	b.n	80035ce <__swhatbuf_r+0x1e>
 80035f0:	2340      	movs	r3, #64	; 0x40
 80035f2:	2000      	movs	r0, #0
 80035f4:	6023      	str	r3, [r4, #0]
 80035f6:	b016      	add	sp, #88	; 0x58
 80035f8:	bd70      	pop	{r4, r5, r6, pc}
	...

080035fc <__smakebuf_r>:
 80035fc:	898b      	ldrh	r3, [r1, #12]
 80035fe:	b573      	push	{r0, r1, r4, r5, r6, lr}
 8003600:	079d      	lsls	r5, r3, #30
 8003602:	4606      	mov	r6, r0
 8003604:	460c      	mov	r4, r1
 8003606:	d507      	bpl.n	8003618 <__smakebuf_r+0x1c>
 8003608:	f104 0347 	add.w	r3, r4, #71	; 0x47
 800360c:	6023      	str	r3, [r4, #0]
 800360e:	6123      	str	r3, [r4, #16]
 8003610:	2301      	movs	r3, #1
 8003612:	6163      	str	r3, [r4, #20]
 8003614:	b002      	add	sp, #8
 8003616:	bd70      	pop	{r4, r5, r6, pc}
 8003618:	466a      	mov	r2, sp
 800361a:	ab01      	add	r3, sp, #4
 800361c:	f7ff ffc8 	bl	80035b0 <__swhatbuf_r>
 8003620:	9900      	ldr	r1, [sp, #0]
 8003622:	4605      	mov	r5, r0
 8003624:	4630      	mov	r0, r6
 8003626:	f7ff fa5b 	bl	8002ae0 <_malloc_r>
 800362a:	b948      	cbnz	r0, 8003640 <__smakebuf_r+0x44>
 800362c:	f9b4 300c 	ldrsh.w	r3, [r4, #12]
 8003630:	059a      	lsls	r2, r3, #22
 8003632:	d4ef      	bmi.n	8003614 <__smakebuf_r+0x18>
 8003634:	f023 0303 	bic.w	r3, r3, #3
 8003638:	f043 0302 	orr.w	r3, r3, #2
 800363c:	81a3      	strh	r3, [r4, #12]
 800363e:	e7e3      	b.n	8003608 <__smakebuf_r+0xc>
 8003640:	4b0d      	ldr	r3, [pc, #52]	; (8003678 <__smakebuf_r+0x7c>)
 8003642:	62b3      	str	r3, [r6, #40]	; 0x28
 8003644:	89a3      	ldrh	r3, [r4, #12]
 8003646:	6020      	str	r0, [r4, #0]
 8003648:	f043 0380 	orr.w	r3, r3, #128	; 0x80
 800364c:	81a3      	strh	r3, [r4, #12]
 800364e:	9b00      	ldr	r3, [sp, #0]
 8003650:	6120      	str	r0, [r4, #16]
 8003652:	6163      	str	r3, [r4, #20]
 8003654:	9b01      	ldr	r3, [sp, #4]
 8003656:	b15b      	cbz	r3, 8003670 <__smakebuf_r+0x74>
 8003658:	4630      	mov	r0, r6
 800365a:	f9b4 100e 	ldrsh.w	r1, [r4, #14]
 800365e:	f000 f893 	bl	8003788 <_isatty_r>
 8003662:	b128      	cbz	r0, 8003670 <__smakebuf_r+0x74>
 8003664:	89a3      	ldrh	r3, [r4, #12]
 8003666:	f023 0303 	bic.w	r3, r3, #3
 800366a:	f043 0301 	orr.w	r3, r3, #1
 800366e:	81a3      	strh	r3, [r4, #12]
 8003670:	89a0      	ldrh	r0, [r4, #12]
 8003672:	4305      	orrs	r5, r0
 8003674:	81a5      	strh	r5, [r4, #12]
 8003676:	e7cd      	b.n	8003614 <__smakebuf_r+0x18>
 8003678:	080028f9 	.word	0x080028f9

0800367c <memchr>:
 800367c:	4603      	mov	r3, r0
 800367e:	b510      	push	{r4, lr}
 8003680:	b2c9      	uxtb	r1, r1
 8003682:	4402      	add	r2, r0
 8003684:	4293      	cmp	r3, r2
 8003686:	4618      	mov	r0, r3
 8003688:	d101      	bne.n	800368e <memchr+0x12>
 800368a:	2000      	movs	r0, #0
 800368c:	e003      	b.n	8003696 <memchr+0x1a>
 800368e:	7804      	ldrb	r4, [r0, #0]
 8003690:	3301      	adds	r3, #1
 8003692:	428c      	cmp	r4, r1
 8003694:	d1f6      	bne.n	8003684 <memchr+0x8>
 8003696:	bd10      	pop	{r4, pc}

08003698 <__malloc_lock>:
 8003698:	4801      	ldr	r0, [pc, #4]	; (80036a0 <__malloc_lock+0x8>)
 800369a:	f7ff b9ff 	b.w	8002a9c <__retarget_lock_acquire_recursive>
 800369e:	bf00      	nop
 80036a0:	20000158 	.word	0x20000158

080036a4 <__malloc_unlock>:
 80036a4:	4801      	ldr	r0, [pc, #4]	; (80036ac <__malloc_unlock+0x8>)
 80036a6:	f7ff b9fa 	b.w	8002a9e <__retarget_lock_release_recursive>
 80036aa:	bf00      	nop
 80036ac:	20000158 	.word	0x20000158

080036b0 <_free_r>:
 80036b0:	b538      	push	{r3, r4, r5, lr}
 80036b2:	4605      	mov	r5, r0
 80036b4:	2900      	cmp	r1, #0
 80036b6:	d040      	beq.n	800373a <_free_r+0x8a>
 80036b8:	f851 3c04 	ldr.w	r3, [r1, #-4]
 80036bc:	1f0c      	subs	r4, r1, #4
 80036be:	2b00      	cmp	r3, #0
 80036c0:	bfb8      	it	lt
 80036c2:	18e4      	addlt	r4, r4, r3
 80036c4:	f7ff ffe8 	bl	8003698 <__malloc_lock>
 80036c8:	4a1c      	ldr	r2, [pc, #112]	; (800373c <_free_r+0x8c>)
 80036ca:	6813      	ldr	r3, [r2, #0]
 80036cc:	b933      	cbnz	r3, 80036dc <_free_r+0x2c>
 80036ce:	6063      	str	r3, [r4, #4]
 80036d0:	6014      	str	r4, [r2, #0]
 80036d2:	4628      	mov	r0, r5
 80036d4:	e8bd 4038 	ldmia.w	sp!, {r3, r4, r5, lr}
 80036d8:	f7ff bfe4 	b.w	80036a4 <__malloc_unlock>
 80036dc:	42a3      	cmp	r3, r4
 80036de:	d908      	bls.n	80036f2 <_free_r+0x42>
 80036e0:	6820      	ldr	r0, [r4, #0]
 80036e2:	1821      	adds	r1, r4, r0
 80036e4:	428b      	cmp	r3, r1
 80036e6:	bf01      	itttt	eq
 80036e8:	6819      	ldreq	r1, [r3, #0]
 80036ea:	685b      	ldreq	r3, [r3, #4]
 80036ec:	1809      	addeq	r1, r1, r0
 80036ee:	6021      	streq	r1, [r4, #0]
 80036f0:	e7ed      	b.n	80036ce <_free_r+0x1e>
 80036f2:	461a      	mov	r2, r3
 80036f4:	685b      	ldr	r3, [r3, #4]
 80036f6:	b10b      	cbz	r3, 80036fc <_free_r+0x4c>
 80036f8:	42a3      	cmp	r3, r4
 80036fa:	d9fa      	bls.n	80036f2 <_free_r+0x42>
 80036fc:	6811      	ldr	r1, [r2, #0]
 80036fe:	1850      	adds	r0, r2, r1
 8003700:	42a0      	cmp	r0, r4
 8003702:	d10b      	bne.n	800371c <_free_r+0x6c>
 8003704:	6820      	ldr	r0, [r4, #0]
 8003706:	4401      	add	r1, r0
 8003708:	1850      	adds	r0, r2, r1
 800370a:	4283      	cmp	r3, r0
 800370c:	6011      	str	r1, [r2, #0]
 800370e:	d1e0      	bne.n	80036d2 <_free_r+0x22>
 8003710:	6818      	ldr	r0, [r3, #0]
 8003712:	685b      	ldr	r3, [r3, #4]
 8003714:	4401      	add	r1, r0
 8003716:	6011      	str	r1, [r2, #0]
 8003718:	6053      	str	r3, [r2, #4]
 800371a:	e7da      	b.n	80036d2 <_free_r+0x22>
 800371c:	d902      	bls.n	8003724 <_free_r+0x74>
 800371e:	230c      	movs	r3, #12
 8003720:	602b      	str	r3, [r5, #0]
 8003722:	e7d6      	b.n	80036d2 <_free_r+0x22>
 8003724:	6820      	ldr	r0, [r4, #0]
 8003726:	1821      	adds	r1, r4, r0
 8003728:	428b      	cmp	r3, r1
 800372a:	bf01      	itttt	eq
 800372c:	6819      	ldreq	r1, [r3, #0]
 800372e:	685b      	ldreq	r3, [r3, #4]
 8003730:	1809      	addeq	r1, r1, r0
 8003732:	6021      	streq	r1, [r4, #0]
 8003734:	6063      	str	r3, [r4, #4]
 8003736:	6054      	str	r4, [r2, #4]
 8003738:	e7cb      	b.n	80036d2 <_free_r+0x22>
 800373a:	bd38      	pop	{r3, r4, r5, pc}
 800373c:	2000015c 	.word	0x2000015c

08003740 <_read_r>:
 8003740:	b538      	push	{r3, r4, r5, lr}
 8003742:	4604      	mov	r4, r0
 8003744:	4608      	mov	r0, r1
 8003746:	4611      	mov	r1, r2
 8003748:	2200      	movs	r2, #0
 800374a:	4d05      	ldr	r5, [pc, #20]	; (8003760 <_read_r+0x20>)
 800374c:	602a      	str	r2, [r5, #0]
 800374e:	461a      	mov	r2, r3
 8003750:	f7fd f804 	bl	800075c <_read>
 8003754:	1c43      	adds	r3, r0, #1
 8003756:	d102      	bne.n	800375e <_read_r+0x1e>
 8003758:	682b      	ldr	r3, [r5, #0]
 800375a:	b103      	cbz	r3, 800375e <_read_r+0x1e>
 800375c:	6023      	str	r3, [r4, #0]
 800375e:	bd38      	pop	{r3, r4, r5, pc}
 8003760:	20000164 	.word	0x20000164

08003764 <_fstat_r>:
 8003764:	b538      	push	{r3, r4, r5, lr}
 8003766:	2300      	movs	r3, #0
 8003768:	4d06      	ldr	r5, [pc, #24]	; (8003784 <_fstat_r+0x20>)
 800376a:	4604      	mov	r4, r0
 800376c:	4608      	mov	r0, r1
 800376e:	4611      	mov	r1, r2
 8003770:	602b      	str	r3, [r5, #0]
 8003772:	f7fd f837 	bl	80007e4 <_fstat>
 8003776:	1c43      	adds	r3, r0, #1
 8003778:	d102      	bne.n	8003780 <_fstat_r+0x1c>
 800377a:	682b      	ldr	r3, [r5, #0]
 800377c:	b103      	cbz	r3, 8003780 <_fstat_r+0x1c>
 800377e:	6023      	str	r3, [r4, #0]
 8003780:	bd38      	pop	{r3, r4, r5, pc}
 8003782:	bf00      	nop
 8003784:	20000164 	.word	0x20000164

08003788 <_isatty_r>:
 8003788:	b538      	push	{r3, r4, r5, lr}
 800378a:	2300      	movs	r3, #0
 800378c:	4d05      	ldr	r5, [pc, #20]	; (80037a4 <_isatty_r+0x1c>)
 800378e:	4604      	mov	r4, r0
 8003790:	4608      	mov	r0, r1
 8003792:	602b      	str	r3, [r5, #0]
 8003794:	f7fd f835 	bl	8000802 <_isatty>
 8003798:	1c43      	adds	r3, r0, #1
 800379a:	d102      	bne.n	80037a2 <_isatty_r+0x1a>
 800379c:	682b      	ldr	r3, [r5, #0]
 800379e:	b103      	cbz	r3, 80037a2 <_isatty_r+0x1a>
 80037a0:	6023      	str	r3, [r4, #0]
 80037a2:	bd38      	pop	{r3, r4, r5, pc}
 80037a4:	20000164 	.word	0x20000164

080037a8 <_init>:
 80037a8:	b5f8      	push	{r3, r4, r5, r6, r7, lr}
 80037aa:	bf00      	nop
 80037ac:	bcf8      	pop	{r3, r4, r5, r6, r7}
 80037ae:	bc08      	pop	{r3}
 80037b0:	469e      	mov	lr, r3
 80037b2:	4770      	bx	lr

080037b4 <_fini>:
 80037b4:	b5f8      	push	{r3, r4, r5, r6, r7, lr}
 80037b6:	bf00      	nop
 80037b8:	bcf8      	pop	{r3, r4, r5, r6, r7}
 80037ba:	bc08      	pop	{r3}
 80037bc:	469e      	mov	lr, r3
 80037be:	4770      	bx	lr
