
project_1.elf:     file format elf32-littlearm

Sections:
Idx Name          Size      VMA       LMA       File off  Algn
  0 .isr_vector   0000010c  08000000  08000000  00010000  2**0
                  CONTENTS, ALLOC, LOAD, READONLY, DATA
  1 .text         00006128  0800010c  0800010c  0001010c  2**2
                  CONTENTS, ALLOC, LOAD, READONLY, CODE
  2 .rodata       00000128  08006234  08006234  00016234  2**2
                  CONTENTS, ALLOC, LOAD, READONLY, DATA
  3 .ARM.extab    00000000  0800635c  0800635c  00020074  2**0
                  CONTENTS
  4 .ARM          00000000  0800635c  0800635c  00020074  2**0
                  CONTENTS
  5 .preinit_array 00000000  0800635c  0800635c  00020074  2**0
                  CONTENTS, ALLOC, LOAD, DATA
  6 .init_array   00000004  0800635c  0800635c  0001635c  2**2
                  CONTENTS, ALLOC, LOAD, DATA
  7 .fini_array   00000004  08006360  08006360  00016360  2**2
                  CONTENTS, ALLOC, LOAD, DATA
  8 .data         00000074  20000000  08006364  00020000  2**2
                  CONTENTS, ALLOC, LOAD, DATA
  9 .bss          00000240  20000074  080063d8  00020074  2**2
                  ALLOC
 10 ._user_heap_stack 00000604  200002b4  080063d8  000202b4  2**0
                  ALLOC
 11 .ARM.attributes 00000029  00000000  00000000  00020074  2**0
                  CONTENTS, READONLY
 12 .debug_info   0000ff6e  00000000  00000000  0002009d  2**0
                  CONTENTS, READONLY, DEBUGGING, OCTETS
 13 .debug_abbrev 00002590  00000000  00000000  0003000b  2**0
                  CONTENTS, READONLY, DEBUGGING, OCTETS
 14 .debug_aranges 00001158  00000000  00000000  000325a0  2**3
                  CONTENTS, READONLY, DEBUGGING, OCTETS
 15 .debug_ranges 00001088  00000000  00000000  000336f8  2**3
                  CONTENTS, READONLY, DEBUGGING, OCTETS
 16 .debug_macro  00019756  00000000  00000000  00034780  2**0
                  CONTENTS, READONLY, DEBUGGING, OCTETS
 17 .debug_line   00012ccd  00000000  00000000  0004ded6  2**0
                  CONTENTS, READONLY, DEBUGGING, OCTETS
 18 .debug_str    00093289  00000000  00000000  00060ba3  2**0
                  CONTENTS, READONLY, DEBUGGING, OCTETS
 19 .comment      00000050  00000000  00000000  000f3e2c  2**0
                  CONTENTS, READONLY
 20 .debug_frame  000052cc  00000000  00000000  000f3e7c  2**2
                  CONTENTS, READONLY, DEBUGGING, OCTETS

Disassembly of section .text:

0800010c <__do_global_dtors_aux>:
 800010c:	b510      	push	{r4, lr}
 800010e:	4c05      	ldr	r4, [pc, #20]	; (8000124 <__do_global_dtors_aux+0x18>)
 8000110:	7823      	ldrb	r3, [r4, #0]
 8000112:	b933      	cbnz	r3, 8000122 <__do_global_dtors_aux+0x16>
 8000114:	4b04      	ldr	r3, [pc, #16]	; (8000128 <__do_global_dtors_aux+0x1c>)
 8000116:	b113      	cbz	r3, 800011e <__do_global_dtors_aux+0x12>
 8000118:	4804      	ldr	r0, [pc, #16]	; (800012c <__do_global_dtors_aux+0x20>)
 800011a:	f3af 8000 	nop.w
 800011e:	2301      	movs	r3, #1
 8000120:	7023      	strb	r3, [r4, #0]
 8000122:	bd10      	pop	{r4, pc}
 8000124:	20000074 	.word	0x20000074
 8000128:	00000000 	.word	0x00000000
 800012c:	0800621c 	.word	0x0800621c

08000130 <frame_dummy>:
 8000130:	b508      	push	{r3, lr}
 8000132:	4b03      	ldr	r3, [pc, #12]	; (8000140 <frame_dummy+0x10>)
 8000134:	b11b      	cbz	r3, 800013e <frame_dummy+0xe>
 8000136:	4903      	ldr	r1, [pc, #12]	; (8000144 <frame_dummy+0x14>)
 8000138:	4803      	ldr	r0, [pc, #12]	; (8000148 <frame_dummy+0x18>)
 800013a:	f3af 8000 	nop.w
 800013e:	bd08      	pop	{r3, pc}
 8000140:	00000000 	.word	0x00000000
 8000144:	20000078 	.word	0x20000078
 8000148:	0800621c 	.word	0x0800621c

0800014c <lcd_send_cmd>:
 800014c:	b580      	push	{r7, lr}
 800014e:	b086      	sub	sp, #24
 8000150:	af02      	add	r7, sp, #8
 8000152:	4603      	mov	r3, r0
 8000154:	71fb      	strb	r3, [r7, #7]
 8000156:	79fb      	ldrb	r3, [r7, #7]
 8000158:	f023 030f 	bic.w	r3, r3, #15
 800015c:	73fb      	strb	r3, [r7, #15]
 800015e:	79fb      	ldrb	r3, [r7, #7]
 8000160:	011b      	lsls	r3, r3, #4
 8000162:	73bb      	strb	r3, [r7, #14]
 8000164:	7bfb      	ldrb	r3, [r7, #15]
 8000166:	f043 030c 	orr.w	r3, r3, #12
 800016a:	b2db      	uxtb	r3, r3
 800016c:	723b      	strb	r3, [r7, #8]
 800016e:	7bfb      	ldrb	r3, [r7, #15]
 8000170:	f043 0308 	orr.w	r3, r3, #8
 8000174:	b2db      	uxtb	r3, r3
 8000176:	727b      	strb	r3, [r7, #9]
 8000178:	7bbb      	ldrb	r3, [r7, #14]
 800017a:	f043 030c 	orr.w	r3, r3, #12
 800017e:	b2db      	uxtb	r3, r3
 8000180:	72bb      	strb	r3, [r7, #10]
 8000182:	7bbb      	ldrb	r3, [r7, #14]
 8000184:	f043 0308 	orr.w	r3, r3, #8
 8000188:	b2db      	uxtb	r3, r3
 800018a:	72fb      	strb	r3, [r7, #11]
 800018c:	f107 0208 	add.w	r2, r7, #8
 8000190:	2364      	movs	r3, #100	; 0x64
 8000192:	9300      	str	r3, [sp, #0]
 8000194:	2304      	movs	r3, #4
 8000196:	214e      	movs	r1, #78	; 0x4e
 8000198:	4803      	ldr	r0, [pc, #12]	; (80001a8 <lcd_send_cmd+0x5c>)
 800019a:	f002 faf3 	bl	8002784 <HAL_I2C_Master_Transmit>
 800019e:	bf00      	nop
 80001a0:	3710      	adds	r7, #16
 80001a2:	46bd      	mov	sp, r7
 80001a4:	bd80      	pop	{r7, pc}
 80001a6:	bf00      	nop
 80001a8:	20000104 	.word	0x20000104

080001ac <lcd_send_data>:
 80001ac:	b580      	push	{r7, lr}
 80001ae:	b086      	sub	sp, #24
 80001b0:	af02      	add	r7, sp, #8
 80001b2:	4603      	mov	r3, r0
 80001b4:	71fb      	strb	r3, [r7, #7]
 80001b6:	79fb      	ldrb	r3, [r7, #7]
 80001b8:	f023 030f 	bic.w	r3, r3, #15
 80001bc:	73fb      	strb	r3, [r7, #15]
 80001be:	79fb      	ldrb	r3, [r7, #7]
 80001c0:	011b      	lsls	r3, r3, #4
 80001c2:	73bb      	strb	r3, [r7, #14]
 80001c4:	7bfb      	ldrb	r3, [r7, #15]
 80001c6:	f043 030d 	orr.w	r3, r3, #13
 80001ca:	b2db      	uxtb	r3, r3
 80001cc:	723b      	strb	r3, [r7, #8]
 80001ce:	7bfb      	ldrb	r3, [r7, #15]
 80001d0:	f043 0309 	orr.w	r3, r3, #9
 80001d4:	b2db      	uxtb	r3, r3
 80001d6:	727b      	strb	r3, [r7, #9]
 80001d8:	7bbb      	ldrb	r3, [r7, #14]
 80001da:	f043 030d 	orr.w	r3, r3, #13
 80001de:	b2db      	uxtb	r3, r3
 80001e0:	72bb      	strb	r3, [r7, #10]
 80001e2:	7bbb      	ldrb	r3, [r7, #14]
 80001e4:	f043 0309 	orr.w	r3, r3, #9
 80001e8:	b2db      	uxtb	r3, r3
 80001ea:	72fb      	strb	r3, [r7, #11]
 80001ec:	f107 0208 	add.w	r2, r7, #8
 80001f0:	2364      	movs	r3, #100	; 0x64
 80001f2:	9300      	str	r3, [sp, #0]
 80001f4:	2304      	movs	r3, #4
 80001f6:	214e      	movs	r1, #78	; 0x4e
 80001f8:	4803      	ldr	r0, [pc, #12]	; (8000208 <lcd_send_data+0x5c>)
 80001fa:	f002 fac3 	bl	8002784 <HAL_I2C_Master_Transmit>
 80001fe:	bf00      	nop
 8000200:	3710      	adds	r7, #16
 8000202:	46bd      	mov	sp, r7
 8000204:	bd80      	pop	{r7, pc}
 8000206:	bf00      	nop
 8000208:	20000104 	.word	0x20000104

0800020c <lcd_put_cur>:
 800020c:	b580      	push	{r7, lr}
 800020e:	b082      	sub	sp, #8
 8000210:	af00      	add	r7, sp, #0
 8000212:	6078      	str	r0, [r7, #4]
 8000214:	6039      	str	r1, [r7, #0]
 8000216:	687b      	ldr	r3, [r7, #4]
 8000218:	2b00      	cmp	r3, #0
 800021a:	d003      	beq.n	8000224 <lcd_put_cur+0x18>
 800021c:	687b      	ldr	r3, [r7, #4]
 800021e:	2b01      	cmp	r3, #1
 8000220:	d005      	beq.n	800022e <lcd_put_cur+0x22>
 8000222:	e009      	b.n	8000238 <lcd_put_cur+0x2c>
 8000224:	683b      	ldr	r3, [r7, #0]
 8000226:	f043 0380 	orr.w	r3, r3, #128	; 0x80
 800022a:	603b      	str	r3, [r7, #0]
 800022c:	e004      	b.n	8000238 <lcd_put_cur+0x2c>
 800022e:	683b      	ldr	r3, [r7, #0]
 8000230:	f043 03c0 	orr.w	r3, r3, #192	; 0xc0
 8000234:	603b      	str	r3, [r7, #0]
 8000236:	bf00      	nop
 8000238:	683b      	ldr	r3, [r7, #0]
 800023a:	b2db      	uxtb	r3, r3
 800023c:	4618      	mov	r0, r3
 800023e:	f7ff ff85 	bl	800014c <lcd_send_cmd>
 8000242:	bf00      	nop
 8000244:	3708      	adds	r7, #8
 8000246:	46bd      	mov	sp, r7
 8000248:	bd80      	pop	{r7, pc}

0800024a <lcd_init>:
 800024a:	b580      	push	{r7, lr}
 800024c:	af00      	add	r7, sp, #0
 800024e:	2032      	movs	r0, #50	; 0x32
 8000250:	f001 f8b4 	bl	80013bc <HAL_Delay>
 8000254:	2030      	movs	r0, #48	; 0x30
 8000256:	f7ff ff79 	bl	800014c <lcd_send_cmd>
 800025a:	2005      	movs	r0, #5
 800025c:	f001 f8ae 	bl	80013bc <HAL_Delay>
 8000260:	2030      	movs	r0, #48	; 0x30
 8000262:	f7ff ff73 	bl	800014c <lcd_send_cmd>
 8000266:	2001      	movs	r0, #1
 8000268:	f001 f8a8 	bl	80013bc <HAL_Delay>
 800026c:	2030      	movs	r0, #48	; 0x30
 800026e:	f7ff ff6d 	bl	800014c <lcd_send_cmd>
 8000272:	200a      	movs	r0, #10
 8000274:	f001 f8a2 	bl	80013bc <HAL_Delay>
 8000278:	2020      	movs	r0, #32
 800027a:	f7ff ff67 	bl	800014c <lcd_send_cmd>
 800027e:	200a      	movs	r0, #10
 8000280:	f001 f89c 	bl	80013bc <HAL_Delay>
 8000284:	2028      	movs	r0, #40	; 0x28
 8000286:	f7ff ff61 	bl	800014c <lcd_send_cmd>
 800028a:	2001      	movs	r0, #1
 800028c:	f001 f896 	bl	80013bc <HAL_Delay>
 8000290:	2008      	movs	r0, #8
 8000292:	f7ff ff5b 	bl	800014c <lcd_send_cmd>
 8000296:	2001      	movs	r0, #1
 8000298:	f001 f890 	bl	80013bc <HAL_Delay>
 800029c:	2001      	movs	r0, #1
 800029e:	f7ff ff55 	bl	800014c <lcd_send_cmd>
 80002a2:	2001      	movs	r0, #1
 80002a4:	f001 f88a 	bl	80013bc <HAL_Delay>
 80002a8:	2001      	movs	r0, #1
 80002aa:	f001 f887 	bl	80013bc <HAL_Delay>
 80002ae:	2006      	movs	r0, #6
 80002b0:	f7ff ff4c 	bl	800014c <lcd_send_cmd>
 80002b4:	2001      	movs	r0, #1
 80002b6:	f001 f881 	bl	80013bc <HAL_Delay>
 80002ba:	200c      	movs	r0, #12
 80002bc:	f7ff ff46 	bl	800014c <lcd_send_cmd>
 80002c0:	bf00      	nop
 80002c2:	bd80      	pop	{r7, pc}

080002c4 <lcd_send_string>:
 80002c4:	b580      	push	{r7, lr}
 80002c6:	b082      	sub	sp, #8
 80002c8:	af00      	add	r7, sp, #0
 80002ca:	6078      	str	r0, [r7, #4]
 80002cc:	e006      	b.n	80002dc <lcd_send_string+0x18>
 80002ce:	687b      	ldr	r3, [r7, #4]
 80002d0:	1c5a      	adds	r2, r3, #1
 80002d2:	607a      	str	r2, [r7, #4]
 80002d4:	781b      	ldrb	r3, [r3, #0]
 80002d6:	4618      	mov	r0, r3
 80002d8:	f7ff ff68 	bl	80001ac <lcd_send_data>
 80002dc:	687b      	ldr	r3, [r7, #4]
 80002de:	781b      	ldrb	r3, [r3, #0]
 80002e0:	2b00      	cmp	r3, #0
 80002e2:	d1f4      	bne.n	80002ce <lcd_send_string+0xa>
 80002e4:	bf00      	nop
 80002e6:	bf00      	nop
 80002e8:	3708      	adds	r7, #8
 80002ea:	46bd      	mov	sp, r7
 80002ec:	bd80      	pop	{r7, pc}

080002ee <map>:
UART_HandleTypeDef huart2;

/* USER CODE BEGIN PV */
//----------------------------------- Gyro sensor------------------------------------
long map(long x, long in_min, long in_max, long out_min, long out_max)
	 {
 80002ee:	b480      	push	{r7}
 80002f0:	b085      	sub	sp, #20
 80002f2:	af00      	add	r7, sp, #0
 80002f4:	60f8      	str	r0, [r7, #12]
 80002f6:	60b9      	str	r1, [r7, #8]
 80002f8:	607a      	str	r2, [r7, #4]
 80002fa:	603b      	str	r3, [r7, #0]
	  return (x - in_min) * (out_max - out_min) / (in_max - in_min) + out_min;
 80002fc:	68fa      	ldr	r2, [r7, #12]
 80002fe:	68bb      	ldr	r3, [r7, #8]
 8000300:	1ad3      	subs	r3, r2, r3
 8000302:	69b9      	ldr	r1, [r7, #24]
 8000304:	683a      	ldr	r2, [r7, #0]
 8000306:	1a8a      	subs	r2, r1, r2
 8000308:	fb03 f202 	mul.w	r2, r3, r2
 800030c:	6879      	ldr	r1, [r7, #4]
 800030e:	68bb      	ldr	r3, [r7, #8]
 8000310:	1acb      	subs	r3, r1, r3
 8000312:	fb92 f2f3 	sdiv	r2, r2, r3
 8000316:	683b      	ldr	r3, [r7, #0]
 8000318:	4413      	add	r3, r2
	 }
 800031a:	4618      	mov	r0, r3
 800031c:	3714      	adds	r7, #20
 800031e:	46bd      	mov	sp, r7
 8000320:	bc80      	pop	{r7}
 8000322:	4770      	bx	lr

08000324 <mapping>:
int xAng = 0;
int yAng = 0;
int zAng = 0;

void mapping()
{
 8000324:	b580      	push	{r7, lr}
 8000326:	b082      	sub	sp, #8
 8000328:	af02      	add	r7, sp, #8
	xAng = map(adc_value[0], 1554, 2356, -90, 90);
 800032a:	4b18      	ldr	r3, [pc, #96]	; (800038c <mapping+0x68>)
 800032c:	6818      	ldr	r0, [r3, #0]
 800032e:	235a      	movs	r3, #90	; 0x5a
 8000330:	9300      	str	r3, [sp, #0]
 8000332:	f06f 0359 	mvn.w	r3, #89	; 0x59
 8000336:	f640 1234 	movw	r2, #2356	; 0x934
 800033a:	f240 6112 	movw	r1, #1554	; 0x612
 800033e:	f7ff ffd6 	bl	80002ee <map>
 8000342:	4603      	mov	r3, r0
 8000344:	4a12      	ldr	r2, [pc, #72]	; (8000390 <mapping+0x6c>)
 8000346:	6013      	str	r3, [r2, #0]
	yAng = map(adc_value[1], 1544, 2378, -90, 90);
 8000348:	4b10      	ldr	r3, [pc, #64]	; (800038c <mapping+0x68>)
 800034a:	6858      	ldr	r0, [r3, #4]
 800034c:	235a      	movs	r3, #90	; 0x5a
 800034e:	9300      	str	r3, [sp, #0]
 8000350:	f06f 0359 	mvn.w	r3, #89	; 0x59
 8000354:	f640 124a 	movw	r2, #2378	; 0x94a
 8000358:	f44f 61c1 	mov.w	r1, #1544	; 0x608
 800035c:	f7ff ffc7 	bl	80002ee <map>
 8000360:	4603      	mov	r3, r0
 8000362:	4a0c      	ldr	r2, [pc, #48]	; (8000394 <mapping+0x70>)
 8000364:	6013      	str	r3, [r2, #0]
	zAng = map(adc_value[2], 1723, 3346, -90, 90);
 8000366:	4b09      	ldr	r3, [pc, #36]	; (800038c <mapping+0x68>)
 8000368:	6898      	ldr	r0, [r3, #8]
 800036a:	235a      	movs	r3, #90	; 0x5a
 800036c:	9300      	str	r3, [sp, #0]
 800036e:	f06f 0359 	mvn.w	r3, #89	; 0x59
 8000372:	f640 5212 	movw	r2, #3346	; 0xd12
 8000376:	f240 61bb 	movw	r1, #1723	; 0x6bb
 800037a:	f7ff ffb8 	bl	80002ee <map>
 800037e:	4603      	mov	r3, r0
 8000380:	4a05      	ldr	r2, [pc, #20]	; (8000398 <mapping+0x74>)
 8000382:	6013      	str	r3, [r2, #0]
}
 8000384:	bf00      	nop
 8000386:	46bd      	mov	sp, r7
 8000388:	bd80      	pop	{r7, pc}
 800038a:	bf00      	nop
 800038c:	20000274 	.word	0x20000274
 8000390:	20000280 	.word	0x20000280
 8000394:	20000284 	.word	0x20000284
 8000398:	20000288 	.word	0x20000288

0800039c <servoReady>:
char secToString[10]; // convert second(millis) to second(string)
//------------------------------------------------------------------------------------

//------------------------------------ Servo motor ------------------------------------
void servoReady()
{
 800039c:	b480      	push	{r7}
 800039e:	af00      	add	r7, sp, #0
	__HAL_TIM_SetCompare(&htim3, TIM_CHANNEL_1, 2000); //Servo1 1ms PWM - 90defree
 80003a0:	4b06      	ldr	r3, [pc, #24]	; (80003bc <servoReady+0x20>)
 80003a2:	681b      	ldr	r3, [r3, #0]
 80003a4:	f44f 62fa 	mov.w	r2, #2000	; 0x7d0
 80003a8:	635a      	str	r2, [r3, #52]	; 0x34
	__HAL_TIM_SetCompare(&htim3, TIM_CHANNEL_2, 1000); //setvo2 1ms PWM - 0defree
 80003aa:	4b04      	ldr	r3, [pc, #16]	; (80003bc <servoReady+0x20>)
 80003ac:	681b      	ldr	r3, [r3, #0]
 80003ae:	f44f 727a 	mov.w	r2, #1000	; 0x3e8
 80003b2:	639a      	str	r2, [r3, #56]	; 0x38
}
 80003b4:	bf00      	nop
 80003b6:	46bd      	mov	sp, r7
 80003b8:	bc80      	pop	{r7}
 80003ba:	4770      	bx	lr
 80003bc:	200001e8 	.word	0x200001e8

080003c0 <servoBoom>:

void servoBoom()
{
 80003c0:	b480      	push	{r7}
 80003c2:	af00      	add	r7, sp, #0
	__HAL_TIM_SetCompare(&htim3, TIM_CHANNEL_1, 1000);
 80003c4:	4b06      	ldr	r3, [pc, #24]	; (80003e0 <servoBoom+0x20>)
 80003c6:	681b      	ldr	r3, [r3, #0]
 80003c8:	f44f 727a 	mov.w	r2, #1000	; 0x3e8
 80003cc:	635a      	str	r2, [r3, #52]	; 0x34
	__HAL_TIM_SetCompare(&htim3, TIM_CHANNEL_2, 2000);
 80003ce:	4b04      	ldr	r3, [pc, #16]	; (80003e0 <servoBoom+0x20>)
 80003d0:	681b      	ldr	r3, [r3, #0]
 80003d2:	f44f 62fa 	mov.w	r2, #2000	; 0x7d0
 80003d6:	639a      	str	r2, [r3, #56]	; 0x38
}
 80003d8:	bf00      	nop
 80003da:	46bd      	mov	sp, r7
 80003dc:	bc80      	pop	{r7}
 80003de:	4770      	bx	lr
 80003e0:	200001e8 	.word	0x200001e8

080003e4 <start>:

//------------------------------------------------------------------------------------

//------------------------------------------------------------------------------------
void start()
{
 80003e4:	b580      	push	{r7, lr}
 80003e6:	af00      	add	r7, sp, #0
	lcd_init();
 80003e8:	f7ff ff2f 	bl	800024a <lcd_init>
	HAL_TIM_Base_Start_IT(&htim2); // LCD
 80003ec:	480c      	ldr	r0, [pc, #48]	; (8000420 <start+0x3c>)
 80003ee:	f003 f9ef 	bl	80037d0 <HAL_TIM_Base_Start_IT>
	HAL_TIM_OC_Start_IT(&htim2, TIM_CHANNEL_1); // LCD
 80003f2:	2100      	movs	r1, #0
 80003f4:	480a      	ldr	r0, [pc, #40]	; (8000420 <start+0x3c>)
 80003f6:	f003 fa95 	bl	8003924 <HAL_TIM_OC_Start_IT>
	HAL_TIM_PWM_Start_IT(&htim1, TIM_CHANNEL_2); // buzzer
 80003fa:	2104      	movs	r1, #4
 80003fc:	4809      	ldr	r0, [pc, #36]	; (8000424 <start+0x40>)
 80003fe:	f003 fc73 	bl	8003ce8 <HAL_TIM_PWM_Start_IT>
	HAL_TIM_PWM_Start(&htim3, TIM_CHANNEL_1); // setvo1 motor
 8000402:	2100      	movs	r1, #0
 8000404:	4808      	ldr	r0, [pc, #32]	; (8000428 <start+0x44>)
 8000406:	f003 fbcd 	bl	8003ba4 <HAL_TIM_PWM_Start>
	HAL_TIM_PWM_Start(&htim3, TIM_CHANNEL_2); // setvo2 motor
 800040a:	2104      	movs	r1, #4
 800040c:	4806      	ldr	r0, [pc, #24]	; (8000428 <start+0x44>)
 800040e:	f003 fbc9 	bl	8003ba4 <HAL_TIM_PWM_Start>
	HAL_ADC_Start_DMA(&hadc1, adc_value, 3); // Gyro
 8000412:	2203      	movs	r2, #3
 8000414:	4905      	ldr	r1, [pc, #20]	; (800042c <start+0x48>)
 8000416:	4806      	ldr	r0, [pc, #24]	; (8000430 <start+0x4c>)
 8000418:	f001 f8cc 	bl	80015b4 <HAL_ADC_Start_DMA>
}
 800041c:	bf00      	nop
 800041e:	bd80      	pop	{r7, pc}
 8000420:	200001a0 	.word	0x200001a0
 8000424:	20000158 	.word	0x20000158
 8000428:	200001e8 	.word	0x200001e8
 800042c:	20000274 	.word	0x20000274
 8000430:	20000090 	.word	0x20000090

08000434 <__io_putchar>:
#else
#define PUTCHAR_PROTOTYPE int fputc(int ch, FILE *f)
#endif /* __GNUC__ */

PUTCHAR_PROTOTYPE
{
 8000434:	b580      	push	{r7, lr}
 8000436:	b082      	sub	sp, #8
 8000438:	af00      	add	r7, sp, #0
 800043a:	6078      	str	r0, [r7, #4]
  /* Place your implementation of fputc here */
  /* e.g. write a character to the USART1 and Loop until the end of transmission */
  HAL_UART_Transmit(&huart2, (uint8_t *)&ch, 1, 0xFFFF);
 800043c:	1d39      	adds	r1, r7, #4
 800043e:	f64f 73ff 	movw	r3, #65535	; 0xffff
 8000442:	2201      	movs	r2, #1
 8000444:	4803      	ldr	r0, [pc, #12]	; (8000454 <__io_putchar+0x20>)
 8000446:	f004 fbdd 	bl	8004c04 <HAL_UART_Transmit>

  return ch;
 800044a:	687b      	ldr	r3, [r7, #4]
}
 800044c:	4618      	mov	r0, r3
 800044e:	3708      	adds	r7, #8
 8000450:	46bd      	mov	sp, r7
 8000452:	bd80      	pop	{r7, pc}
 8000454:	20000230 	.word	0x20000230

08000458 <main>:
/**
  * @brief  The application entry point.
  * @retval int
  */
int main(void)
{
 8000458:	b580      	push	{r7, lr}
 800045a:	af00      	add	r7, sp, #0
  /* USER CODE END 1 */

  /* MCU Configuration--------------------------------------------------------*/

  /* Reset of all peripherals, Initializes the Flash interface and the Systick. */
  HAL_Init();
 800045c:	f000 ff4c 	bl	80012f8 <HAL_Init>
  /* USER CODE BEGIN Init */

  /* USER CODE END Init */

  /* Configure the system clock */
  SystemClock_Config();
 8000460:	f000 f834 	bl	80004cc <SystemClock_Config>
  /* USER CODE BEGIN SysInit */

  /* USER CODE END SysInit */

  /* Initialize all configured peripherals */
  MX_GPIO_Init();
 8000464:	f000 faf4 	bl	8000a50 <MX_GPIO_Init>
  MX_USART2_UART_Init();
 8000468:	f000 faaa 	bl	80009c0 <MX_USART2_UART_Init>
  MX_I2C1_Init();
 800046c:	f000 f8e2 	bl	8000634 <MX_I2C1_Init>
  MX_DMA_Init();
 8000470:	f000 fad0 	bl	8000a14 <MX_DMA_Init>
  MX_TIM3_Init();
 8000474:	f000 fa22 	bl	80008bc <MX_TIM3_Init>
  MX_ADC1_Init();
 8000478:	f000 f880 	bl	800057c <MX_ADC1_Init>
  MX_TIM2_Init();
 800047c:	f000 f9aa 	bl	80007d4 <MX_TIM2_Init>
  MX_TIM1_Init();
 8000480:	f000 f906 	bl	8000690 <MX_TIM1_Init>
  /* USER CODE BEGIN 2 */

  start();
 8000484:	f7ff ffae 	bl	80003e4 <start>
  servoReady();
 8000488:	f7ff ff88 	bl	800039c <servoReady>
  {
    /* USER CODE END WHILE */

    /* USER CODE BEGIN 3 */
	  //-------------------------------- Gyro -----------
	  mapping(); //Gyro mappoing
 800048c:	f7ff ff4a 	bl	8000324 <mapping>

	  printf("X_Value : %ld, Y_Value : %ld,  Z_Value : %ld\r\n", xAng, yAng, zAng); //putty
 8000490:	4b09      	ldr	r3, [pc, #36]	; (80004b8 <main+0x60>)
 8000492:	6819      	ldr	r1, [r3, #0]
 8000494:	4b09      	ldr	r3, [pc, #36]	; (80004bc <main+0x64>)
 8000496:	681a      	ldr	r2, [r3, #0]
 8000498:	4b09      	ldr	r3, [pc, #36]	; (80004c0 <main+0x68>)
 800049a:	681b      	ldr	r3, [r3, #0]
 800049c:	4809      	ldr	r0, [pc, #36]	; (80004c4 <main+0x6c>)
 800049e:	f004 fd4d 	bl	8004f3c <iprintf>
	  HAL_Delay(200);
 80004a2:	20c8      	movs	r0, #200	; 0xc8
 80004a4:	f000 ff8a 	bl	80013bc <HAL_Delay>

	  if(xAng > 80) //Gyro -> count down start
 80004a8:	4b03      	ldr	r3, [pc, #12]	; (80004b8 <main+0x60>)
 80004aa:	681b      	ldr	r3, [r3, #0]
 80004ac:	2b50      	cmp	r3, #80	; 0x50
 80004ae:	dded      	ble.n	800048c <main+0x34>
	  {
		  flag_sw1 = 1;
 80004b0:	4b05      	ldr	r3, [pc, #20]	; (80004c8 <main+0x70>)
 80004b2:	2201      	movs	r2, #1
 80004b4:	701a      	strb	r2, [r3, #0]
	  mapping(); //Gyro mappoing
 80004b6:	e7e9      	b.n	800048c <main+0x34>
 80004b8:	20000280 	.word	0x20000280
 80004bc:	20000284 	.word	0x20000284
 80004c0:	20000288 	.word	0x20000288
 80004c4:	08006234 	.word	0x08006234
 80004c8:	2000028c 	.word	0x2000028c

080004cc <SystemClock_Config>:
/**
  * @brief System Clock Configuration
  * @retval None
  */
void SystemClock_Config(void)
{
 80004cc:	b580      	push	{r7, lr}
 80004ce:	b094      	sub	sp, #80	; 0x50
 80004d0:	af00      	add	r7, sp, #0
  RCC_OscInitTypeDef RCC_OscInitStruct = {0};
 80004d2:	f107 0328 	add.w	r3, r7, #40	; 0x28
 80004d6:	2228      	movs	r2, #40	; 0x28
 80004d8:	2100      	movs	r1, #0
 80004da:	4618      	mov	r0, r3
 80004dc:	f004 fd26 	bl	8004f2c <memset>
  RCC_ClkInitTypeDef RCC_ClkInitStruct = {0};
 80004e0:	f107 0314 	add.w	r3, r7, #20
 80004e4:	2200      	movs	r2, #0
 80004e6:	601a      	str	r2, [r3, #0]
 80004e8:	605a      	str	r2, [r3, #4]
 80004ea:	609a      	str	r2, [r3, #8]
 80004ec:	60da      	str	r2, [r3, #12]
 80004ee:	611a      	str	r2, [r3, #16]
  RCC_PeriphCLKInitTypeDef PeriphClkInit = {0};
 80004f0:	1d3b      	adds	r3, r7, #4
 80004f2:	2200      	movs	r2, #0
 80004f4:	601a      	str	r2, [r3, #0]
 80004f6:	605a      	str	r2, [r3, #4]
 80004f8:	609a      	str	r2, [r3, #8]
 80004fa:	60da      	str	r2, [r3, #12]

  /** Initializes the RCC Oscillators according to the specified parameters
  * in the RCC_OscInitTypeDef structure.
  */
  RCC_OscInitStruct.OscillatorType = RCC_OSCILLATORTYPE_HSI;
 80004fc:	2302      	movs	r3, #2
 80004fe:	62bb      	str	r3, [r7, #40]	; 0x28
  RCC_OscInitStruct.HSIState = RCC_HSI_ON;
 8000500:	2301      	movs	r3, #1
 8000502:	63bb      	str	r3, [r7, #56]	; 0x38
  RCC_OscInitStruct.HSICalibrationValue = RCC_HSICALIBRATION_DEFAULT;
 8000504:	2310      	movs	r3, #16
 8000506:	63fb      	str	r3, [r7, #60]	; 0x3c
  RCC_OscInitStruct.PLL.PLLState = RCC_PLL_ON;
 8000508:	2302      	movs	r3, #2
 800050a:	647b      	str	r3, [r7, #68]	; 0x44
  RCC_OscInitStruct.PLL.PLLSource = RCC_PLLSOURCE_HSI_DIV2;
 800050c:	2300      	movs	r3, #0
 800050e:	64bb      	str	r3, [r7, #72]	; 0x48
  RCC_OscInitStruct.PLL.PLLMUL = RCC_PLL_MUL16;
 8000510:	f44f 1360 	mov.w	r3, #3670016	; 0x380000
 8000514:	64fb      	str	r3, [r7, #76]	; 0x4c
  if (HAL_RCC_OscConfig(&RCC_OscInitStruct) != HAL_OK)
 8000516:	f107 0328 	add.w	r3, r7, #40	; 0x28
 800051a:	4618      	mov	r0, r3
 800051c:	f002 fc38 	bl	8002d90 <HAL_RCC_OscConfig>
 8000520:	4603      	mov	r3, r0
 8000522:	2b00      	cmp	r3, #0
 8000524:	d001      	beq.n	800052a <SystemClock_Config+0x5e>
  {
    Error_Handler();
 8000526:	f000 fbfb 	bl	8000d20 <Error_Handler>
  }

  /** Initializes the CPU, AHB and APB buses clocks
  */
  RCC_ClkInitStruct.ClockType = RCC_CLOCKTYPE_HCLK|RCC_CLOCKTYPE_SYSCLK
 800052a:	230f      	movs	r3, #15
 800052c:	617b      	str	r3, [r7, #20]
                              |RCC_CLOCKTYPE_PCLK1|RCC_CLOCKTYPE_PCLK2;
  RCC_ClkInitStruct.SYSCLKSource = RCC_SYSCLKSOURCE_PLLCLK;
 800052e:	2302      	movs	r3, #2
 8000530:	61bb      	str	r3, [r7, #24]
  RCC_ClkInitStruct.AHBCLKDivider = RCC_SYSCLK_DIV1;
 8000532:	2300      	movs	r3, #0
 8000534:	61fb      	str	r3, [r7, #28]
  RCC_ClkInitStruct.APB1CLKDivider = RCC_HCLK_DIV2;
 8000536:	f44f 6380 	mov.w	r3, #1024	; 0x400
 800053a:	623b      	str	r3, [r7, #32]
  RCC_ClkInitStruct.APB2CLKDivider = RCC_HCLK_DIV1;
 800053c:	2300      	movs	r3, #0
 800053e:	627b      	str	r3, [r7, #36]	; 0x24

  if (HAL_RCC_ClockConfig(&RCC_ClkInitStruct, FLASH_LATENCY_2) != HAL_OK)
 8000540:	f107 0314 	add.w	r3, r7, #20
 8000544:	2102      	movs	r1, #2
 8000546:	4618      	mov	r0, r3
 8000548:	f002 fea4 	bl	8003294 <HAL_RCC_ClockConfig>
 800054c:	4603      	mov	r3, r0
 800054e:	2b00      	cmp	r3, #0
 8000550:	d001      	beq.n	8000556 <SystemClock_Config+0x8a>
  {
    Error_Handler();
 8000552:	f000 fbe5 	bl	8000d20 <Error_Handler>
  }
  PeriphClkInit.PeriphClockSelection = RCC_PERIPHCLK_ADC;
 8000556:	2302      	movs	r3, #2
 8000558:	607b      	str	r3, [r7, #4]
  PeriphClkInit.AdcClockSelection = RCC_ADCPCLK2_DIV8;
 800055a:	f44f 4340 	mov.w	r3, #49152	; 0xc000
 800055e:	60fb      	str	r3, [r7, #12]
  if (HAL_RCCEx_PeriphCLKConfig(&PeriphClkInit) != HAL_OK)
 8000560:	1d3b      	adds	r3, r7, #4
 8000562:	4618      	mov	r0, r3
 8000564:	f003 f82e 	bl	80035c4 <HAL_RCCEx_PeriphCLKConfig>
 8000568:	4603      	mov	r3, r0
 800056a:	2b00      	cmp	r3, #0
 800056c:	d001      	beq.n	8000572 <SystemClock_Config+0xa6>
  {
    Error_Handler();
 800056e:	f000 fbd7 	bl	8000d20 <Error_Handler>
  }
}
 8000572:	bf00      	nop
 8000574:	3750      	adds	r7, #80	; 0x50
 8000576:	46bd      	mov	sp, r7
 8000578:	bd80      	pop	{r7, pc}
	...

0800057c <MX_ADC1_Init>:
  * @brief ADC1 Initialization Function
  * @param None
  * @retval None
  */
static void MX_ADC1_Init(void)
{
 800057c:	b580      	push	{r7, lr}
 800057e:	b084      	sub	sp, #16
 8000580:	af00      	add	r7, sp, #0

  /* USER CODE BEGIN ADC1_Init 0 */

  /* USER CODE END ADC1_Init 0 */

  ADC_ChannelConfTypeDef sConfig = {0};
 8000582:	1d3b      	adds	r3, r7, #4
 8000584:	2200      	movs	r2, #0
 8000586:	601a      	str	r2, [r3, #0]
 8000588:	605a      	str	r2, [r3, #4]
 800058a:	609a      	str	r2, [r3, #8]

  /* USER CODE END ADC1_Init 1 */

  /** Common config
  */
  hadc1.Instance = ADC1;
 800058c:	4b27      	ldr	r3, [pc, #156]	; (800062c <MX_ADC1_Init+0xb0>)
 800058e:	4a28      	ldr	r2, [pc, #160]	; (8000630 <MX_ADC1_Init+0xb4>)
 8000590:	601a      	str	r2, [r3, #0]
  hadc1.Init.ScanConvMode = ADC_SCAN_ENABLE;
 8000592:	4b26      	ldr	r3, [pc, #152]	; (800062c <MX_ADC1_Init+0xb0>)
 8000594:	f44f 7280 	mov.w	r2, #256	; 0x100
 8000598:	609a      	str	r2, [r3, #8]
  hadc1.Init.ContinuousConvMode = ENABLE;
 800059a:	4b24      	ldr	r3, [pc, #144]	; (800062c <MX_ADC1_Init+0xb0>)
 800059c:	2201      	movs	r2, #1
 800059e:	731a      	strb	r2, [r3, #12]
  hadc1.Init.DiscontinuousConvMode = DISABLE;
 80005a0:	4b22      	ldr	r3, [pc, #136]	; (800062c <MX_ADC1_Init+0xb0>)
 80005a2:	2200      	movs	r2, #0
 80005a4:	751a      	strb	r2, [r3, #20]
  hadc1.Init.ExternalTrigConv = ADC_SOFTWARE_START;
 80005a6:	4b21      	ldr	r3, [pc, #132]	; (800062c <MX_ADC1_Init+0xb0>)
 80005a8:	f44f 2260 	mov.w	r2, #917504	; 0xe0000
 80005ac:	61da      	str	r2, [r3, #28]
  hadc1.Init.DataAlign = ADC_DATAALIGN_RIGHT;
 80005ae:	4b1f      	ldr	r3, [pc, #124]	; (800062c <MX_ADC1_Init+0xb0>)
 80005b0:	2200      	movs	r2, #0
 80005b2:	605a      	str	r2, [r3, #4]
  hadc1.Init.NbrOfConversion = 3;
 80005b4:	4b1d      	ldr	r3, [pc, #116]	; (800062c <MX_ADC1_Init+0xb0>)
 80005b6:	2203      	movs	r2, #3
 80005b8:	611a      	str	r2, [r3, #16]
  if (HAL_ADC_Init(&hadc1) != HAL_OK)
 80005ba:	481c      	ldr	r0, [pc, #112]	; (800062c <MX_ADC1_Init+0xb0>)
 80005bc:	f000 ff22 	bl	8001404 <HAL_ADC_Init>
 80005c0:	4603      	mov	r3, r0
 80005c2:	2b00      	cmp	r3, #0
 80005c4:	d001      	beq.n	80005ca <MX_ADC1_Init+0x4e>
  {
    Error_Handler();
 80005c6:	f000 fbab 	bl	8000d20 <Error_Handler>
  }

  /** Configure Regular Channel
  */
  sConfig.Channel = ADC_CHANNEL_0;
 80005ca:	2300      	movs	r3, #0
 80005cc:	607b      	str	r3, [r7, #4]
  sConfig.Rank = ADC_REGULAR_RANK_1;
 80005ce:	2301      	movs	r3, #1
 80005d0:	60bb      	str	r3, [r7, #8]
  sConfig.SamplingTime = ADC_SAMPLETIME_239CYCLES_5;
 80005d2:	2307      	movs	r3, #7
 80005d4:	60fb      	str	r3, [r7, #12]
  if (HAL_ADC_ConfigChannel(&hadc1, &sConfig) != HAL_OK)
 80005d6:	1d3b      	adds	r3, r7, #4
 80005d8:	4619      	mov	r1, r3
 80005da:	4814      	ldr	r0, [pc, #80]	; (800062c <MX_ADC1_Init+0xb0>)
 80005dc:	f001 f8e4 	bl	80017a8 <HAL_ADC_ConfigChannel>
 80005e0:	4603      	mov	r3, r0
 80005e2:	2b00      	cmp	r3, #0
 80005e4:	d001      	beq.n	80005ea <MX_ADC1_Init+0x6e>
  {
    Error_Handler();
 80005e6:	f000 fb9b 	bl	8000d20 <Error_Handler>
  }

  /** Configure Regular Channel
  */
  sConfig.Channel = ADC_CHANNEL_1;
 80005ea:	2301      	movs	r3, #1
 80005ec:	607b      	str	r3, [r7, #4]
  sConfig.Rank = ADC_REGULAR_RANK_2;
 80005ee:	2302      	movs	r3, #2
 80005f0:	60bb      	str	r3, [r7, #8]
  if (HAL_ADC_ConfigChannel(&hadc1, &sConfig) != HAL_OK)
 80005f2:	1d3b      	adds	r3, r7, #4
 80005f4:	4619      	mov	r1, r3
 80005f6:	480d      	ldr	r0, [pc, #52]	; (800062c <MX_ADC1_Init+0xb0>)
 80005f8:	f001 f8d6 	bl	80017a8 <HAL_ADC_ConfigChannel>
 80005fc:	4603      	mov	r3, r0
 80005fe:	2b00      	cmp	r3, #0
 8000600:	d001      	beq.n	8000606 <MX_ADC1_Init+0x8a>
  {
    Error_Handler();
 8000602:	f000 fb8d 	bl	8000d20 <Error_Handler>
  }

  /** Configure Regular Channel
  */
  sConfig.Channel = ADC_CHANNEL_4;
 8000606:	2304      	movs	r3, #4
 8000608:	607b      	str	r3, [r7, #4]
  sConfig.Rank = ADC_REGULAR_RANK_3;
 800060a:	2303      	movs	r3, #3
 800060c:	60bb      	str	r3, [r7, #8]
  if (HAL_ADC_ConfigChannel(&hadc1, &sConfig) != HAL_OK)
 800060e:	1d3b      	adds	r3, r7, #4
 8000610:	4619      	mov	r1, r3
 8000612:	4806      	ldr	r0, [pc, #24]	; (800062c <MX_ADC1_Init+0xb0>)
 8000614:	f001 f8c8 	bl	80017a8 <HAL_ADC_ConfigChannel>
 8000618:	4603      	mov	r3, r0
 800061a:	2b00      	cmp	r3, #0
 800061c:	d001      	beq.n	8000622 <MX_ADC1_Init+0xa6>
  {
    Error_Handler();
 800061e:	f000 fb7f 	bl	8000d20 <Error_Handler>
  }
  /* USER CODE BEGIN ADC1_Init 2 */

  /* USER CODE END ADC1_Init 2 */

}
 8000622:	bf00      	nop
 8000624:	3710      	adds	r7, #16
 8000626:	46bd      	mov	sp, r7
 8000628:	bd80      	pop	{r7, pc}
 800062a:	bf00      	nop
 800062c:	20000090 	.word	0x20000090
 8000630:	40012400 	.word	0x40012400

08000634 <MX_I2C1_Init>:
  * @brief I2C1 Initialization Function
  * @param None
  * @retval None
  */
static void MX_I2C1_Init(void)
{
 8000634:	b580      	push	{r7, lr}
 8000636:	af00      	add	r7, sp, #0
  /* USER CODE END I2C1_Init 0 */

  /* USER CODE BEGIN I2C1_Init 1 */

  /* USER CODE END I2C1_Init 1 */
  hi2c1.Instance = I2C1;
 8000638:	4b12      	ldr	r3, [pc, #72]	; (8000684 <MX_I2C1_Init+0x50>)
 800063a:	4a13      	ldr	r2, [pc, #76]	; (8000688 <MX_I2C1_Init+0x54>)
 800063c:	601a      	str	r2, [r3, #0]
  hi2c1.Init.ClockSpeed = 100000;
 800063e:	4b11      	ldr	r3, [pc, #68]	; (8000684 <MX_I2C1_Init+0x50>)
 8000640:	4a12      	ldr	r2, [pc, #72]	; (800068c <MX_I2C1_Init+0x58>)
 8000642:	605a      	str	r2, [r3, #4]
  hi2c1.Init.DutyCycle = I2C_DUTYCYCLE_2;
 8000644:	4b0f      	ldr	r3, [pc, #60]	; (8000684 <MX_I2C1_Init+0x50>)
 8000646:	2200      	movs	r2, #0
 8000648:	609a      	str	r2, [r3, #8]
  hi2c1.Init.OwnAddress1 = 0;
 800064a:	4b0e      	ldr	r3, [pc, #56]	; (8000684 <MX_I2C1_Init+0x50>)
 800064c:	2200      	movs	r2, #0
 800064e:	60da      	str	r2, [r3, #12]
  hi2c1.Init.AddressingMode = I2C_ADDRESSINGMODE_7BIT;
 8000650:	4b0c      	ldr	r3, [pc, #48]	; (8000684 <MX_I2C1_Init+0x50>)
 8000652:	f44f 4280 	mov.w	r2, #16384	; 0x4000
 8000656:	611a      	str	r2, [r3, #16]
  hi2c1.Init.DualAddressMode = I2C_DUALADDRESS_DISABLE;
 8000658:	4b0a      	ldr	r3, [pc, #40]	; (8000684 <MX_I2C1_Init+0x50>)
 800065a:	2200      	movs	r2, #0
 800065c:	615a      	str	r2, [r3, #20]
  hi2c1.Init.OwnAddress2 = 0;
 800065e:	4b09      	ldr	r3, [pc, #36]	; (8000684 <MX_I2C1_Init+0x50>)
 8000660:	2200      	movs	r2, #0
 8000662:	619a      	str	r2, [r3, #24]
  hi2c1.Init.GeneralCallMode = I2C_GENERALCALL_DISABLE;
 8000664:	4b07      	ldr	r3, [pc, #28]	; (8000684 <MX_I2C1_Init+0x50>)
 8000666:	2200      	movs	r2, #0
 8000668:	61da      	str	r2, [r3, #28]
  hi2c1.Init.NoStretchMode = I2C_NOSTRETCH_DISABLE;
 800066a:	4b06      	ldr	r3, [pc, #24]	; (8000684 <MX_I2C1_Init+0x50>)
 800066c:	2200      	movs	r2, #0
 800066e:	621a      	str	r2, [r3, #32]
  if (HAL_I2C_Init(&hi2c1) != HAL_OK)
 8000670:	4804      	ldr	r0, [pc, #16]	; (8000684 <MX_I2C1_Init+0x50>)
 8000672:	f001 ff43 	bl	80024fc <HAL_I2C_Init>
 8000676:	4603      	mov	r3, r0
 8000678:	2b00      	cmp	r3, #0
 800067a:	d001      	beq.n	8000680 <MX_I2C1_Init+0x4c>
  {
    Error_Handler();
 800067c:	f000 fb50 	bl	8000d20 <Error_Handler>
  }
  /* USER CODE BEGIN I2C1_Init 2 */

  /* USER CODE END I2C1_Init 2 */

}
 8000680:	bf00      	nop
 8000682:	bd80      	pop	{r7, pc}
 8000684:	20000104 	.word	0x20000104
 8000688:	40005400 	.word	0x40005400
 800068c:	000186a0 	.word	0x000186a0

08000690 <MX_TIM1_Init>:
  * @brief TIM1 Initialization Function
  * @param None
  * @retval None
  */
static void MX_TIM1_Init(void)
{
 8000690:	b580      	push	{r7, lr}
 8000692:	b096      	sub	sp, #88	; 0x58
 8000694:	af00      	add	r7, sp, #0

  /* USER CODE BEGIN TIM1_Init 0 */

  /* USER CODE END TIM1_Init 0 */

  TIM_ClockConfigTypeDef sClockSourceConfig = {0};
 8000696:	f107 0348 	add.w	r3, r7, #72	; 0x48
 800069a:	2200      	movs	r2, #0
 800069c:	601a      	str	r2, [r3, #0]
 800069e:	605a      	str	r2, [r3, #4]
 80006a0:	609a      	str	r2, [r3, #8]
 80006a2:	60da      	str	r2, [r3, #12]
  TIM_MasterConfigTypeDef sMasterConfig = {0};
 80006a4:	f107 0340 	add.w	r3, r7, #64	; 0x40
 80006a8:	2200      	movs	r2, #0
 80006aa:	601a      	str	r2, [r3, #0]
 80006ac:	605a      	str	r2, [r3, #4]
  TIM_OC_InitTypeDef sConfigOC = {0};
 80006ae:	f107 0324 	add.w	r3, r7, #36	; 0x24
 80006b2:	2200      	movs	r2, #0
 80006b4:	601a      	str	r2, [r3, #0]
 80006b6:	605a      	str	r2, [r3, #4]
 80006b8:	609a      	str	r2, [r3, #8]
 80006ba:	60da      	str	r2, [r3, #12]
 80006bc:	611a      	str	r2, [r3, #16]
 80006be:	615a      	str	r2, [r3, #20]
 80006c0:	619a      	str	r2, [r3, #24]
  TIM_BreakDeadTimeConfigTypeDef sBreakDeadTimeConfig = {0};
 80006c2:	1d3b      	adds	r3, r7, #4
 80006c4:	2220      	movs	r2, #32
 80006c6:	2100      	movs	r1, #0
 80006c8:	4618      	mov	r0, r3
 80006ca:	f004 fc2f 	bl	8004f2c <memset>

  /* USER CODE BEGIN TIM1_Init 1 */

  /* USER CODE END TIM1_Init 1 */
  htim1.Instance = TIM1;
 80006ce:	4b3f      	ldr	r3, [pc, #252]	; (80007cc <MX_TIM1_Init+0x13c>)
 80006d0:	4a3f      	ldr	r2, [pc, #252]	; (80007d0 <MX_TIM1_Init+0x140>)
 80006d2:	601a      	str	r2, [r3, #0]
  htim1.Init.Prescaler = 640-1;
 80006d4:	4b3d      	ldr	r3, [pc, #244]	; (80007cc <MX_TIM1_Init+0x13c>)
 80006d6:	f240 227f 	movw	r2, #639	; 0x27f
 80006da:	605a      	str	r2, [r3, #4]
  htim1.Init.CounterMode = TIM_COUNTERMODE_UP;
 80006dc:	4b3b      	ldr	r3, [pc, #236]	; (80007cc <MX_TIM1_Init+0x13c>)
 80006de:	2200      	movs	r2, #0
 80006e0:	609a      	str	r2, [r3, #8]
  htim1.Init.Period = 50000-1;
 80006e2:	4b3a      	ldr	r3, [pc, #232]	; (80007cc <MX_TIM1_Init+0x13c>)
 80006e4:	f24c 324f 	movw	r2, #49999	; 0xc34f
 80006e8:	60da      	str	r2, [r3, #12]
  htim1.Init.ClockDivision = TIM_CLOCKDIVISION_DIV1;
 80006ea:	4b38      	ldr	r3, [pc, #224]	; (80007cc <MX_TIM1_Init+0x13c>)
 80006ec:	2200      	movs	r2, #0
 80006ee:	611a      	str	r2, [r3, #16]
  htim1.Init.RepetitionCounter = 0;
 80006f0:	4b36      	ldr	r3, [pc, #216]	; (80007cc <MX_TIM1_Init+0x13c>)
 80006f2:	2200      	movs	r2, #0
 80006f4:	615a      	str	r2, [r3, #20]
  htim1.Init.AutoReloadPreload = TIM_AUTORELOAD_PRELOAD_DISABLE;
 80006f6:	4b35      	ldr	r3, [pc, #212]	; (80007cc <MX_TIM1_Init+0x13c>)
 80006f8:	2200      	movs	r2, #0
 80006fa:	619a      	str	r2, [r3, #24]
  if (HAL_TIM_Base_Init(&htim1) != HAL_OK)
 80006fc:	4833      	ldr	r0, [pc, #204]	; (80007cc <MX_TIM1_Init+0x13c>)
 80006fe:	f003 f817 	bl	8003730 <HAL_TIM_Base_Init>
 8000702:	4603      	mov	r3, r0
 8000704:	2b00      	cmp	r3, #0
 8000706:	d001      	beq.n	800070c <MX_TIM1_Init+0x7c>
  {
    Error_Handler();
 8000708:	f000 fb0a 	bl	8000d20 <Error_Handler>
  }
  sClockSourceConfig.ClockSource = TIM_CLOCKSOURCE_INTERNAL;
 800070c:	f44f 5380 	mov.w	r3, #4096	; 0x1000
 8000710:	64bb      	str	r3, [r7, #72]	; 0x48
  if (HAL_TIM_ConfigClockSource(&htim1, &sClockSourceConfig) != HAL_OK)
 8000712:	f107 0348 	add.w	r3, r7, #72	; 0x48
 8000716:	4619      	mov	r1, r3
 8000718:	482c      	ldr	r0, [pc, #176]	; (80007cc <MX_TIM1_Init+0x13c>)
 800071a:	f003 fdeb 	bl	80042f4 <HAL_TIM_ConfigClockSource>
 800071e:	4603      	mov	r3, r0
 8000720:	2b00      	cmp	r3, #0
 8000722:	d001      	beq.n	8000728 <MX_TIM1_Init+0x98>
  {
    Error_Handler();
 8000724:	f000 fafc 	bl	8000d20 <Error_Handler>
  }
  if (HAL_TIM_PWM_Init(&htim1) != HAL_OK)
 8000728:	4828      	ldr	r0, [pc, #160]	; (80007cc <MX_TIM1_Init+0x13c>)
 800072a:	f003 f9e3 	bl	8003af4 <HAL_TIM_PWM_Init>
 800072e:	4603      	mov	r3, r0
 8000730:	2b00      	cmp	r3, #0
 8000732:	d001      	beq.n	8000738 <MX_TIM1_Init+0xa8>
  {
    Error_Handler();
 8000734:	f000 faf4 	bl	8000d20 <Error_Handler>
  }
  sMasterConfig.MasterOutputTrigger = TIM_TRGO_RESET;
 8000738:	2300      	movs	r3, #0
 800073a:	643b      	str	r3, [r7, #64]	; 0x40
  sMasterConfig.MasterSlaveMode = TIM_MASTERSLAVEMODE_DISABLE;
 800073c:	2300      	movs	r3, #0
 800073e:	647b      	str	r3, [r7, #68]	; 0x44
  if (HAL_TIMEx_MasterConfigSynchronization(&htim1, &sMasterConfig) != HAL_OK)
 8000740:	f107 0340 	add.w	r3, r7, #64	; 0x40
 8000744:	4619      	mov	r1, r3
 8000746:	4821      	ldr	r0, [pc, #132]	; (80007cc <MX_TIM1_Init+0x13c>)
 8000748:	f004 f94e 	bl	80049e8 <HAL_TIMEx_MasterConfigSynchronization>
 800074c:	4603      	mov	r3, r0
 800074e:	2b00      	cmp	r3, #0
 8000750:	d001      	beq.n	8000756 <MX_TIM1_Init+0xc6>
  {
    Error_Handler();
 8000752:	f000 fae5 	bl	8000d20 <Error_Handler>
  }
  sConfigOC.OCMode = TIM_OCMODE_PWM1;
 8000756:	2360      	movs	r3, #96	; 0x60
 8000758:	627b      	str	r3, [r7, #36]	; 0x24
  sConfigOC.Pulse = 0;
 800075a:	2300      	movs	r3, #0
 800075c:	62bb      	str	r3, [r7, #40]	; 0x28
  sConfigOC.OCPolarity = TIM_OCPOLARITY_HIGH;
 800075e:	2300      	movs	r3, #0
 8000760:	62fb      	str	r3, [r7, #44]	; 0x2c
  sConfigOC.OCNPolarity = TIM_OCNPOLARITY_HIGH;
 8000762:	2300      	movs	r3, #0
 8000764:	633b      	str	r3, [r7, #48]	; 0x30
  sConfigOC.OCFastMode = TIM_OCFAST_DISABLE;
 8000766:	2300      	movs	r3, #0
 8000768:	637b      	str	r3, [r7, #52]	; 0x34
  sConfigOC.OCIdleState = TIM_OCIDLESTATE_RESET;
 800076a:	2300      	movs	r3, #0
 800076c:	63bb      	str	r3, [r7, #56]	; 0x38
  sConfigOC.OCNIdleState = TIM_OCNIDLESTATE_RESET;
 800076e:	2300      	movs	r3, #0
 8000770:	63fb      	str	r3, [r7, #60]	; 0x3c
  if (HAL_TIM_PWM_ConfigChannel(&htim1, &sConfigOC, TIM_CHANNEL_2) != HAL_OK)
 8000772:	f107 0324 	add.w	r3, r7, #36	; 0x24
 8000776:	2204      	movs	r2, #4
 8000778:	4619      	mov	r1, r3
 800077a:	4814      	ldr	r0, [pc, #80]	; (80007cc <MX_TIM1_Init+0x13c>)
 800077c:	f003 fcfc 	bl	8004178 <HAL_TIM_PWM_ConfigChannel>
 8000780:	4603      	mov	r3, r0
 8000782:	2b00      	cmp	r3, #0
 8000784:	d001      	beq.n	800078a <MX_TIM1_Init+0xfa>
  {
    Error_Handler();
 8000786:	f000 facb 	bl	8000d20 <Error_Handler>
  }
  sBreakDeadTimeConfig.OffStateRunMode = TIM_OSSR_DISABLE;
 800078a:	2300      	movs	r3, #0
 800078c:	607b      	str	r3, [r7, #4]
  sBreakDeadTimeConfig.OffStateIDLEMode = TIM_OSSI_DISABLE;
 800078e:	2300      	movs	r3, #0
 8000790:	60bb      	str	r3, [r7, #8]
  sBreakDeadTimeConfig.LockLevel = TIM_LOCKLEVEL_OFF;
 8000792:	2300      	movs	r3, #0
 8000794:	60fb      	str	r3, [r7, #12]
  sBreakDeadTimeConfig.DeadTime = 0;
 8000796:	2300      	movs	r3, #0
 8000798:	613b      	str	r3, [r7, #16]
  sBreakDeadTimeConfig.BreakState = TIM_BREAK_DISABLE;
 800079a:	2300      	movs	r3, #0
 800079c:	617b      	str	r3, [r7, #20]
  sBreakDeadTimeConfig.BreakPolarity = TIM_BREAKPOLARITY_HIGH;
 800079e:	f44f 5300 	mov.w	r3, #8192	; 0x2000
 80007a2:	61bb      	str	r3, [r7, #24]
  sBreakDeadTimeConfig.AutomaticOutput = TIM_AUTOMATICOUTPUT_DISABLE;
 80007a4:	2300      	movs	r3, #0
 80007a6:	623b      	str	r3, [r7, #32]
  if (HAL_TIMEx_ConfigBreakDeadTime(&htim1, &sBreakDeadTimeConfig) != HAL_OK)
 80007a8:	1d3b      	adds	r3, r7, #4
 80007aa:	4619      	mov	r1, r3
 80007ac:	4807      	ldr	r0, [pc, #28]	; (80007cc <MX_TIM1_Init+0x13c>)
 80007ae:	f004 f979 	bl	8004aa4 <HAL_TIMEx_ConfigBreakDeadTime>
 80007b2:	4603      	mov	r3, r0
 80007b4:	2b00      	cmp	r3, #0
 80007b6:	d001      	beq.n	80007bc <MX_TIM1_Init+0x12c>
  {
    Error_Handler();
 80007b8:	f000 fab2 	bl	8000d20 <Error_Handler>
  }
  /* USER CODE BEGIN TIM1_Init 2 */

  /* USER CODE END TIM1_Init 2 */
  HAL_TIM_MspPostInit(&htim1);
 80007bc:	4803      	ldr	r0, [pc, #12]	; (80007cc <MX_TIM1_Init+0x13c>)
 80007be:	f000 fbe1 	bl	8000f84 <HAL_TIM_MspPostInit>

}
 80007c2:	bf00      	nop
 80007c4:	3758      	adds	r7, #88	; 0x58
 80007c6:	46bd      	mov	sp, r7
 80007c8:	bd80      	pop	{r7, pc}
 80007ca:	bf00      	nop
 80007cc:	20000158 	.word	0x20000158
 80007d0:	40012c00 	.word	0x40012c00

080007d4 <MX_TIM2_Init>:
  * @brief TIM2 Initialization Function
  * @param None
  * @retval None
  */
static void MX_TIM2_Init(void)
{
 80007d4:	b580      	push	{r7, lr}
 80007d6:	b08e      	sub	sp, #56	; 0x38
 80007d8:	af00      	add	r7, sp, #0

  /* USER CODE BEGIN TIM2_Init 0 */

  /* USER CODE END TIM2_Init 0 */

  TIM_ClockConfigTypeDef sClockSourceConfig = {0};
 80007da:	f107 0328 	add.w	r3, r7, #40	; 0x28
 80007de:	2200      	movs	r2, #0
 80007e0:	601a      	str	r2, [r3, #0]
 80007e2:	605a      	str	r2, [r3, #4]
 80007e4:	609a      	str	r2, [r3, #8]
 80007e6:	60da      	str	r2, [r3, #12]
  TIM_MasterConfigTypeDef sMasterConfig = {0};
 80007e8:	f107 0320 	add.w	r3, r7, #32
 80007ec:	2200      	movs	r2, #0
 80007ee:	601a      	str	r2, [r3, #0]
 80007f0:	605a      	str	r2, [r3, #4]
  TIM_OC_InitTypeDef sConfigOC = {0};
 80007f2:	1d3b      	adds	r3, r7, #4
 80007f4:	2200      	movs	r2, #0
 80007f6:	601a      	str	r2, [r3, #0]
 80007f8:	605a      	str	r2, [r3, #4]
 80007fa:	609a      	str	r2, [r3, #8]
 80007fc:	60da      	str	r2, [r3, #12]
 80007fe:	611a      	str	r2, [r3, #16]
 8000800:	615a      	str	r2, [r3, #20]
 8000802:	619a      	str	r2, [r3, #24]

  /* USER CODE BEGIN TIM2_Init 1 */

  /* USER CODE END TIM2_Init 1 */
  htim2.Instance = TIM2;
 8000804:	4b2c      	ldr	r3, [pc, #176]	; (80008b8 <MX_TIM2_Init+0xe4>)
 8000806:	f04f 4280 	mov.w	r2, #1073741824	; 0x40000000
 800080a:	601a      	str	r2, [r3, #0]
  htim2.Init.Prescaler = 6400-1;
 800080c:	4b2a      	ldr	r3, [pc, #168]	; (80008b8 <MX_TIM2_Init+0xe4>)
 800080e:	f641 02ff 	movw	r2, #6399	; 0x18ff
 8000812:	605a      	str	r2, [r3, #4]
  htim2.Init.CounterMode = TIM_COUNTERMODE_UP;
 8000814:	4b28      	ldr	r3, [pc, #160]	; (80008b8 <MX_TIM2_Init+0xe4>)
 8000816:	2200      	movs	r2, #0
 8000818:	609a      	str	r2, [r3, #8]
  htim2.Init.Period = 10000-1;
 800081a:	4b27      	ldr	r3, [pc, #156]	; (80008b8 <MX_TIM2_Init+0xe4>)
 800081c:	f242 720f 	movw	r2, #9999	; 0x270f
 8000820:	60da      	str	r2, [r3, #12]
  htim2.Init.ClockDivision = TIM_CLOCKDIVISION_DIV1;
 8000822:	4b25      	ldr	r3, [pc, #148]	; (80008b8 <MX_TIM2_Init+0xe4>)
 8000824:	2200      	movs	r2, #0
 8000826:	611a      	str	r2, [r3, #16]
  htim2.Init.AutoReloadPreload = TIM_AUTORELOAD_PRELOAD_DISABLE;
 8000828:	4b23      	ldr	r3, [pc, #140]	; (80008b8 <MX_TIM2_Init+0xe4>)
 800082a:	2200      	movs	r2, #0
 800082c:	619a      	str	r2, [r3, #24]
  if (HAL_TIM_Base_Init(&htim2) != HAL_OK)
 800082e:	4822      	ldr	r0, [pc, #136]	; (80008b8 <MX_TIM2_Init+0xe4>)
 8000830:	f002 ff7e 	bl	8003730 <HAL_TIM_Base_Init>
 8000834:	4603      	mov	r3, r0
 8000836:	2b00      	cmp	r3, #0
 8000838:	d001      	beq.n	800083e <MX_TIM2_Init+0x6a>
  {
    Error_Handler();
 800083a:	f000 fa71 	bl	8000d20 <Error_Handler>
  }
  sClockSourceConfig.ClockSource = TIM_CLOCKSOURCE_INTERNAL;
 800083e:	f44f 5380 	mov.w	r3, #4096	; 0x1000
 8000842:	62bb      	str	r3, [r7, #40]	; 0x28
  if (HAL_TIM_ConfigClockSource(&htim2, &sClockSourceConfig) != HAL_OK)
 8000844:	f107 0328 	add.w	r3, r7, #40	; 0x28
 8000848:	4619      	mov	r1, r3
 800084a:	481b      	ldr	r0, [pc, #108]	; (80008b8 <MX_TIM2_Init+0xe4>)
 800084c:	f003 fd52 	bl	80042f4 <HAL_TIM_ConfigClockSource>
 8000850:	4603      	mov	r3, r0
 8000852:	2b00      	cmp	r3, #0
 8000854:	d001      	beq.n	800085a <MX_TIM2_Init+0x86>
  {
    Error_Handler();
 8000856:	f000 fa63 	bl	8000d20 <Error_Handler>
  }
  if (HAL_TIM_OC_Init(&htim2) != HAL_OK)
 800085a:	4817      	ldr	r0, [pc, #92]	; (80008b8 <MX_TIM2_Init+0xe4>)
 800085c:	f003 f80a 	bl	8003874 <HAL_TIM_OC_Init>
 8000860:	4603      	mov	r3, r0
 8000862:	2b00      	cmp	r3, #0
 8000864:	d001      	beq.n	800086a <MX_TIM2_Init+0x96>
  {
    Error_Handler();
 8000866:	f000 fa5b 	bl	8000d20 <Error_Handler>
  }
  sMasterConfig.MasterOutputTrigger = TIM_TRGO_RESET;
 800086a:	2300      	movs	r3, #0
 800086c:	623b      	str	r3, [r7, #32]
  sMasterConfig.MasterSlaveMode = TIM_MASTERSLAVEMODE_DISABLE;
 800086e:	2300      	movs	r3, #0
 8000870:	627b      	str	r3, [r7, #36]	; 0x24
  if (HAL_TIMEx_MasterConfigSynchronization(&htim2, &sMasterConfig) != HAL_OK)
 8000872:	f107 0320 	add.w	r3, r7, #32
 8000876:	4619      	mov	r1, r3
 8000878:	480f      	ldr	r0, [pc, #60]	; (80008b8 <MX_TIM2_Init+0xe4>)
 800087a:	f004 f8b5 	bl	80049e8 <HAL_TIMEx_MasterConfigSynchronization>
 800087e:	4603      	mov	r3, r0
 8000880:	2b00      	cmp	r3, #0
 8000882:	d001      	beq.n	8000888 <MX_TIM2_Init+0xb4>
  {
    Error_Handler();
 8000884:	f000 fa4c 	bl	8000d20 <Error_Handler>
  }
  sConfigOC.OCMode = TIM_OCMODE_TIMING;
 8000888:	2300      	movs	r3, #0
 800088a:	607b      	str	r3, [r7, #4]
  sConfigOC.Pulse = 10000-1;
 800088c:	f242 730f 	movw	r3, #9999	; 0x270f
 8000890:	60bb      	str	r3, [r7, #8]
  sConfigOC.OCPolarity = TIM_OCPOLARITY_HIGH;
 8000892:	2300      	movs	r3, #0
 8000894:	60fb      	str	r3, [r7, #12]
  sConfigOC.OCFastMode = TIM_OCFAST_DISABLE;
 8000896:	2300      	movs	r3, #0
 8000898:	617b      	str	r3, [r7, #20]
  if (HAL_TIM_OC_ConfigChannel(&htim2, &sConfigOC, TIM_CHANNEL_1) != HAL_OK)
 800089a:	1d3b      	adds	r3, r7, #4
 800089c:	2200      	movs	r2, #0
 800089e:	4619      	mov	r1, r3
 80008a0:	4805      	ldr	r0, [pc, #20]	; (80008b8 <MX_TIM2_Init+0xe4>)
 80008a2:	f003 fc11 	bl	80040c8 <HAL_TIM_OC_ConfigChannel>
 80008a6:	4603      	mov	r3, r0
 80008a8:	2b00      	cmp	r3, #0
 80008aa:	d001      	beq.n	80008b0 <MX_TIM2_Init+0xdc>
  {
    Error_Handler();
 80008ac:	f000 fa38 	bl	8000d20 <Error_Handler>
  }
  /* USER CODE BEGIN TIM2_Init 2 */

  /* USER CODE END TIM2_Init 2 */

}
 80008b0:	bf00      	nop
 80008b2:	3738      	adds	r7, #56	; 0x38
 80008b4:	46bd      	mov	sp, r7
 80008b6:	bd80      	pop	{r7, pc}
 80008b8:	200001a0 	.word	0x200001a0

080008bc <MX_TIM3_Init>:
  * @brief TIM3 Initialization Function
  * @param None
  * @retval None
  */
static void MX_TIM3_Init(void)
{
 80008bc:	b580      	push	{r7, lr}
 80008be:	b08e      	sub	sp, #56	; 0x38
 80008c0:	af00      	add	r7, sp, #0

  /* USER CODE BEGIN TIM3_Init 0 */

  /* USER CODE END TIM3_Init 0 */

  TIM_ClockConfigTypeDef sClockSourceConfig = {0};
 80008c2:	f107 0328 	add.w	r3, r7, #40	; 0x28
 80008c6:	2200      	movs	r2, #0
 80008c8:	601a      	str	r2, [r3, #0]
 80008ca:	605a      	str	r2, [r3, #4]
 80008cc:	609a      	str	r2, [r3, #8]
 80008ce:	60da      	str	r2, [r3, #12]
  TIM_MasterConfigTypeDef sMasterConfig = {0};
 80008d0:	f107 0320 	add.w	r3, r7, #32
 80008d4:	2200      	movs	r2, #0
 80008d6:	601a      	str	r2, [r3, #0]
 80008d8:	605a      	str	r2, [r3, #4]
  TIM_OC_InitTypeDef sConfigOC = {0};
 80008da:	1d3b      	adds	r3, r7, #4
 80008dc:	2200      	movs	r2, #0
 80008de:	601a      	str	r2, [r3, #0]
 80008e0:	605a      	str	r2, [r3, #4]
 80008e2:	609a      	str	r2, [r3, #8]
 80008e4:	60da      	str	r2, [r3, #12]
 80008e6:	611a      	str	r2, [r3, #16]
 80008e8:	615a      	str	r2, [r3, #20]
 80008ea:	619a      	str	r2, [r3, #24]

  /* USER CODE BEGIN TIM3_Init 1 */

  /* USER CODE END TIM3_Init 1 */
  htim3.Instance = TIM3;
 80008ec:	4b32      	ldr	r3, [pc, #200]	; (80009b8 <MX_TIM3_Init+0xfc>)
 80008ee:	4a33      	ldr	r2, [pc, #204]	; (80009bc <MX_TIM3_Init+0x100>)
 80008f0:	601a      	str	r2, [r3, #0]
  htim3.Init.Prescaler = 64-1;
 80008f2:	4b31      	ldr	r3, [pc, #196]	; (80009b8 <MX_TIM3_Init+0xfc>)
 80008f4:	223f      	movs	r2, #63	; 0x3f
 80008f6:	605a      	str	r2, [r3, #4]
  htim3.Init.CounterMode = TIM_COUNTERMODE_UP;
 80008f8:	4b2f      	ldr	r3, [pc, #188]	; (80009b8 <MX_TIM3_Init+0xfc>)
 80008fa:	2200      	movs	r2, #0
 80008fc:	609a      	str	r2, [r3, #8]
  htim3.Init.Period = 20000-1;
 80008fe:	4b2e      	ldr	r3, [pc, #184]	; (80009b8 <MX_TIM3_Init+0xfc>)
 8000900:	f644 621f 	movw	r2, #19999	; 0x4e1f
 8000904:	60da      	str	r2, [r3, #12]
  htim3.Init.ClockDivision = TIM_CLOCKDIVISION_DIV1;
 8000906:	4b2c      	ldr	r3, [pc, #176]	; (80009b8 <MX_TIM3_Init+0xfc>)
 8000908:	2200      	movs	r2, #0
 800090a:	611a      	str	r2, [r3, #16]
  htim3.Init.AutoReloadPreload = TIM_AUTORELOAD_PRELOAD_DISABLE;
 800090c:	4b2a      	ldr	r3, [pc, #168]	; (80009b8 <MX_TIM3_Init+0xfc>)
 800090e:	2200      	movs	r2, #0
 8000910:	619a      	str	r2, [r3, #24]
  if (HAL_TIM_Base_Init(&htim3) != HAL_OK)
 8000912:	4829      	ldr	r0, [pc, #164]	; (80009b8 <MX_TIM3_Init+0xfc>)
 8000914:	f002 ff0c 	bl	8003730 <HAL_TIM_Base_Init>
 8000918:	4603      	mov	r3, r0
 800091a:	2b00      	cmp	r3, #0
 800091c:	d001      	beq.n	8000922 <MX_TIM3_Init+0x66>
  {
    Error_Handler();
 800091e:	f000 f9ff 	bl	8000d20 <Error_Handler>
  }
  sClockSourceConfig.ClockSource = TIM_CLOCKSOURCE_INTERNAL;
 8000922:	f44f 5380 	mov.w	r3, #4096	; 0x1000
 8000926:	62bb      	str	r3, [r7, #40]	; 0x28
  if (HAL_TIM_ConfigClockSource(&htim3, &sClockSourceConfig) != HAL_OK)
 8000928:	f107 0328 	add.w	r3, r7, #40	; 0x28
 800092c:	4619      	mov	r1, r3
 800092e:	4822      	ldr	r0, [pc, #136]	; (80009b8 <MX_TIM3_Init+0xfc>)
 8000930:	f003 fce0 	bl	80042f4 <HAL_TIM_ConfigClockSource>
 8000934:	4603      	mov	r3, r0
 8000936:	2b00      	cmp	r3, #0
 8000938:	d001      	beq.n	800093e <MX_TIM3_Init+0x82>
  {
    Error_Handler();
 800093a:	f000 f9f1 	bl	8000d20 <Error_Handler>
  }
  if (HAL_TIM_PWM_Init(&htim3) != HAL_OK)
 800093e:	481e      	ldr	r0, [pc, #120]	; (80009b8 <MX_TIM3_Init+0xfc>)
 8000940:	f003 f8d8 	bl	8003af4 <HAL_TIM_PWM_Init>
 8000944:	4603      	mov	r3, r0
 8000946:	2b00      	cmp	r3, #0
 8000948:	d001      	beq.n	800094e <MX_TIM3_Init+0x92>
  {
    Error_Handler();
 800094a:	f000 f9e9 	bl	8000d20 <Error_Handler>
  }
  sMasterConfig.MasterOutputTrigger = TIM_TRGO_RESET;
 800094e:	2300      	movs	r3, #0
 8000950:	623b      	str	r3, [r7, #32]
  sMasterConfig.MasterSlaveMode = TIM_MASTERSLAVEMODE_DISABLE;
 8000952:	2300      	movs	r3, #0
 8000954:	627b      	str	r3, [r7, #36]	; 0x24
  if (HAL_TIMEx_MasterConfigSynchronization(&htim3, &sMasterConfig) != HAL_OK)
 8000956:	f107 0320 	add.w	r3, r7, #32
 800095a:	4619      	mov	r1, r3
 800095c:	4816      	ldr	r0, [pc, #88]	; (80009b8 <MX_TIM3_Init+0xfc>)
 800095e:	f004 f843 	bl	80049e8 <HAL_TIMEx_MasterConfigSynchronization>
 8000962:	4603      	mov	r3, r0
 8000964:	2b00      	cmp	r3, #0
 8000966:	d001      	beq.n	800096c <MX_TIM3_Init+0xb0>
  {
    Error_Handler();
 8000968:	f000 f9da 	bl	8000d20 <Error_Handler>
  }
  sConfigOC.OCMode = TIM_OCMODE_PWM1;
 800096c:	2360      	movs	r3, #96	; 0x60
 800096e:	607b      	str	r3, [r7, #4]
  sConfigOC.Pulse = 2000-1;
 8000970:	f240 73cf 	movw	r3, #1999	; 0x7cf
 8000974:	60bb      	str	r3, [r7, #8]
  sConfigOC.OCPolarity = TIM_OCPOLARITY_HIGH;
 8000976:	2300      	movs	r3, #0
 8000978:	60fb      	str	r3, [r7, #12]
  sConfigOC.OCFastMode = TIM_OCFAST_DISABLE;
 800097a:	2300      	movs	r3, #0
 800097c:	617b      	str	r3, [r7, #20]
  if (HAL_TIM_PWM_ConfigChannel(&htim3, &sConfigOC, TIM_CHANNEL_1) != HAL_OK)
 800097e:	1d3b      	adds	r3, r7, #4
 8000980:	2200      	movs	r2, #0
 8000982:	4619      	mov	r1, r3
 8000984:	480c      	ldr	r0, [pc, #48]	; (80009b8 <MX_TIM3_Init+0xfc>)
 8000986:	f003 fbf7 	bl	8004178 <HAL_TIM_PWM_ConfigChannel>
 800098a:	4603      	mov	r3, r0
 800098c:	2b00      	cmp	r3, #0
 800098e:	d001      	beq.n	8000994 <MX_TIM3_Init+0xd8>
  {
    Error_Handler();
 8000990:	f000 f9c6 	bl	8000d20 <Error_Handler>
  }
  if (HAL_TIM_PWM_ConfigChannel(&htim3, &sConfigOC, TIM_CHANNEL_2) != HAL_OK)
 8000994:	1d3b      	adds	r3, r7, #4
 8000996:	2204      	movs	r2, #4
 8000998:	4619      	mov	r1, r3
 800099a:	4807      	ldr	r0, [pc, #28]	; (80009b8 <MX_TIM3_Init+0xfc>)
 800099c:	f003 fbec 	bl	8004178 <HAL_TIM_PWM_ConfigChannel>
 80009a0:	4603      	mov	r3, r0
 80009a2:	2b00      	cmp	r3, #0
 80009a4:	d001      	beq.n	80009aa <MX_TIM3_Init+0xee>
  {
    Error_Handler();
 80009a6:	f000 f9bb 	bl	8000d20 <Error_Handler>
  }
  /* USER CODE BEGIN TIM3_Init 2 */

  /* USER CODE END TIM3_Init 2 */
  HAL_TIM_MspPostInit(&htim3);
 80009aa:	4803      	ldr	r0, [pc, #12]	; (80009b8 <MX_TIM3_Init+0xfc>)
 80009ac:	f000 faea 	bl	8000f84 <HAL_TIM_MspPostInit>

}
 80009b0:	bf00      	nop
 80009b2:	3738      	adds	r7, #56	; 0x38
 80009b4:	46bd      	mov	sp, r7
 80009b6:	bd80      	pop	{r7, pc}
 80009b8:	200001e8 	.word	0x200001e8
 80009bc:	40000400 	.word	0x40000400

080009c0 <MX_USART2_UART_Init>:
  * @brief USART2 Initialization Function
  * @param None
  * @retval None
  */
static void MX_USART2_UART_Init(void)
{
 80009c0:	b580      	push	{r7, lr}
 80009c2:	af00      	add	r7, sp, #0
  /* USER CODE END USART2_Init 0 */

  /* USER CODE BEGIN USART2_Init 1 */

  /* USER CODE END USART2_Init 1 */
  huart2.Instance = USART2;
 80009c4:	4b11      	ldr	r3, [pc, #68]	; (8000a0c <MX_USART2_UART_Init+0x4c>)
 80009c6:	4a12      	ldr	r2, [pc, #72]	; (8000a10 <MX_USART2_UART_Init+0x50>)
 80009c8:	601a      	str	r2, [r3, #0]
  huart2.Init.BaudRate = 115200;
 80009ca:	4b10      	ldr	r3, [pc, #64]	; (8000a0c <MX_USART2_UART_Init+0x4c>)
 80009cc:	f44f 32e1 	mov.w	r2, #115200	; 0x1c200
 80009d0:	605a      	str	r2, [r3, #4]
  huart2.Init.WordLength = UART_WORDLENGTH_8B;
 80009d2:	4b0e      	ldr	r3, [pc, #56]	; (8000a0c <MX_USART2_UART_Init+0x4c>)
 80009d4:	2200      	movs	r2, #0
 80009d6:	609a      	str	r2, [r3, #8]
  huart2.Init.StopBits = UART_STOPBITS_1;
 80009d8:	4b0c      	ldr	r3, [pc, #48]	; (8000a0c <MX_USART2_UART_Init+0x4c>)
 80009da:	2200      	movs	r2, #0
 80009dc:	60da      	str	r2, [r3, #12]
  huart2.Init.Parity = UART_PARITY_NONE;
 80009de:	4b0b      	ldr	r3, [pc, #44]	; (8000a0c <MX_USART2_UART_Init+0x4c>)
 80009e0:	2200      	movs	r2, #0
 80009e2:	611a      	str	r2, [r3, #16]
  huart2.Init.Mode = UART_MODE_TX_RX;
 80009e4:	4b09      	ldr	r3, [pc, #36]	; (8000a0c <MX_USART2_UART_Init+0x4c>)
 80009e6:	220c      	movs	r2, #12
 80009e8:	615a      	str	r2, [r3, #20]
  huart2.Init.HwFlowCtl = UART_HWCONTROL_NONE;
 80009ea:	4b08      	ldr	r3, [pc, #32]	; (8000a0c <MX_USART2_UART_Init+0x4c>)
 80009ec:	2200      	movs	r2, #0
 80009ee:	619a      	str	r2, [r3, #24]
  huart2.Init.OverSampling = UART_OVERSAMPLING_16;
 80009f0:	4b06      	ldr	r3, [pc, #24]	; (8000a0c <MX_USART2_UART_Init+0x4c>)
 80009f2:	2200      	movs	r2, #0
 80009f4:	61da      	str	r2, [r3, #28]
  if (HAL_UART_Init(&huart2) != HAL_OK)
 80009f6:	4805      	ldr	r0, [pc, #20]	; (8000a0c <MX_USART2_UART_Init+0x4c>)
 80009f8:	f004 f8b7 	bl	8004b6a <HAL_UART_Init>
 80009fc:	4603      	mov	r3, r0
 80009fe:	2b00      	cmp	r3, #0
 8000a00:	d001      	beq.n	8000a06 <MX_USART2_UART_Init+0x46>
  {
    Error_Handler();
 8000a02:	f000 f98d 	bl	8000d20 <Error_Handler>
  }
  /* USER CODE BEGIN USART2_Init 2 */

  /* USER CODE END USART2_Init 2 */

}
 8000a06:	bf00      	nop
 8000a08:	bd80      	pop	{r7, pc}
 8000a0a:	bf00      	nop
 8000a0c:	20000230 	.word	0x20000230
 8000a10:	40004400 	.word	0x40004400

08000a14 <MX_DMA_Init>:

/**
  * Enable DMA controller clock
  */
static void MX_DMA_Init(void)
{
 8000a14:	b580      	push	{r7, lr}
 8000a16:	b082      	sub	sp, #8
 8000a18:	af00      	add	r7, sp, #0

  /* DMA controller clock enable */
  __HAL_RCC_DMA1_CLK_ENABLE();
 8000a1a:	4b0c      	ldr	r3, [pc, #48]	; (8000a4c <MX_DMA_Init+0x38>)
 8000a1c:	695b      	ldr	r3, [r3, #20]
 8000a1e:	4a0b      	ldr	r2, [pc, #44]	; (8000a4c <MX_DMA_Init+0x38>)
 8000a20:	f043 0301 	orr.w	r3, r3, #1
 8000a24:	6153      	str	r3, [r2, #20]
 8000a26:	4b09      	ldr	r3, [pc, #36]	; (8000a4c <MX_DMA_Init+0x38>)
 8000a28:	695b      	ldr	r3, [r3, #20]
 8000a2a:	f003 0301 	and.w	r3, r3, #1
 8000a2e:	607b      	str	r3, [r7, #4]
 8000a30:	687b      	ldr	r3, [r7, #4]

  /* DMA interrupt init */
  /* DMA1_Channel1_IRQn interrupt configuration */
  HAL_NVIC_SetPriority(DMA1_Channel1_IRQn, 0, 0);
 8000a32:	2200      	movs	r2, #0
 8000a34:	2100      	movs	r1, #0
 8000a36:	200b      	movs	r0, #11
 8000a38:	f001 f987 	bl	8001d4a <HAL_NVIC_SetPriority>
  HAL_NVIC_EnableIRQ(DMA1_Channel1_IRQn);
 8000a3c:	200b      	movs	r0, #11
 8000a3e:	f001 f9a0 	bl	8001d82 <HAL_NVIC_EnableIRQ>

}
 8000a42:	bf00      	nop
 8000a44:	3708      	adds	r7, #8
 8000a46:	46bd      	mov	sp, r7
 8000a48:	bd80      	pop	{r7, pc}
 8000a4a:	bf00      	nop
 8000a4c:	40021000 	.word	0x40021000

08000a50 <MX_GPIO_Init>:
  * @brief GPIO Initialization Function
  * @param None
  * @retval None
  */
static void MX_GPIO_Init(void)
{
 8000a50:	b580      	push	{r7, lr}
 8000a52:	b088      	sub	sp, #32
 8000a54:	af00      	add	r7, sp, #0
  GPIO_InitTypeDef GPIO_InitStruct = {0};
 8000a56:	f107 0310 	add.w	r3, r7, #16
 8000a5a:	2200      	movs	r2, #0
 8000a5c:	601a      	str	r2, [r3, #0]
 8000a5e:	605a      	str	r2, [r3, #4]
 8000a60:	609a      	str	r2, [r3, #8]
 8000a62:	60da      	str	r2, [r3, #12]

  /* GPIO Ports Clock Enable */
  __HAL_RCC_GPIOC_CLK_ENABLE();
 8000a64:	4b42      	ldr	r3, [pc, #264]	; (8000b70 <MX_GPIO_Init+0x120>)
 8000a66:	699b      	ldr	r3, [r3, #24]
 8000a68:	4a41      	ldr	r2, [pc, #260]	; (8000b70 <MX_GPIO_Init+0x120>)
 8000a6a:	f043 0310 	orr.w	r3, r3, #16
 8000a6e:	6193      	str	r3, [r2, #24]
 8000a70:	4b3f      	ldr	r3, [pc, #252]	; (8000b70 <MX_GPIO_Init+0x120>)
 8000a72:	699b      	ldr	r3, [r3, #24]
 8000a74:	f003 0310 	and.w	r3, r3, #16
 8000a78:	60fb      	str	r3, [r7, #12]
 8000a7a:	68fb      	ldr	r3, [r7, #12]
  __HAL_RCC_GPIOD_CLK_ENABLE();
 8000a7c:	4b3c      	ldr	r3, [pc, #240]	; (8000b70 <MX_GPIO_Init+0x120>)
 8000a7e:	699b      	ldr	r3, [r3, #24]
 8000a80:	4a3b      	ldr	r2, [pc, #236]	; (8000b70 <MX_GPIO_Init+0x120>)
 8000a82:	f043 0320 	orr.w	r3, r3, #32
 8000a86:	6193      	str	r3, [r2, #24]
 8000a88:	4b39      	ldr	r3, [pc, #228]	; (8000b70 <MX_GPIO_Init+0x120>)
 8000a8a:	699b      	ldr	r3, [r3, #24]
 8000a8c:	f003 0320 	and.w	r3, r3, #32
 8000a90:	60bb      	str	r3, [r7, #8]
 8000a92:	68bb      	ldr	r3, [r7, #8]
  __HAL_RCC_GPIOA_CLK_ENABLE();
 8000a94:	4b36      	ldr	r3, [pc, #216]	; (8000b70 <MX_GPIO_Init+0x120>)
 8000a96:	699b      	ldr	r3, [r3, #24]
 8000a98:	4a35      	ldr	r2, [pc, #212]	; (8000b70 <MX_GPIO_Init+0x120>)
 8000a9a:	f043 0304 	orr.w	r3, r3, #4
 8000a9e:	6193      	str	r3, [r2, #24]
 8000aa0:	4b33      	ldr	r3, [pc, #204]	; (8000b70 <MX_GPIO_Init+0x120>)
 8000aa2:	699b      	ldr	r3, [r3, #24]
 8000aa4:	f003 0304 	and.w	r3, r3, #4
 8000aa8:	607b      	str	r3, [r7, #4]
 8000aaa:	687b      	ldr	r3, [r7, #4]
  __HAL_RCC_GPIOB_CLK_ENABLE();
 8000aac:	4b30      	ldr	r3, [pc, #192]	; (8000b70 <MX_GPIO_Init+0x120>)
 8000aae:	699b      	ldr	r3, [r3, #24]
 8000ab0:	4a2f      	ldr	r2, [pc, #188]	; (8000b70 <MX_GPIO_Init+0x120>)
 8000ab2:	f043 0308 	orr.w	r3, r3, #8
 8000ab6:	6193      	str	r3, [r2, #24]
 8000ab8:	4b2d      	ldr	r3, [pc, #180]	; (8000b70 <MX_GPIO_Init+0x120>)
 8000aba:	699b      	ldr	r3, [r3, #24]
 8000abc:	f003 0308 	and.w	r3, r3, #8
 8000ac0:	603b      	str	r3, [r7, #0]
 8000ac2:	683b      	ldr	r3, [r7, #0]

  /*Configure GPIO pin Output Level */
  HAL_GPIO_WritePin(LD2_GPIO_Port, LD2_Pin, GPIO_PIN_RESET);
 8000ac4:	2200      	movs	r2, #0
 8000ac6:	2120      	movs	r1, #32
 8000ac8:	482a      	ldr	r0, [pc, #168]	; (8000b74 <MX_GPIO_Init+0x124>)
 8000aca:	f001 fce7 	bl	800249c <HAL_GPIO_WritePin>

  /*Configure GPIO pin : B1_Pin */
  GPIO_InitStruct.Pin = B1_Pin;
 8000ace:	f44f 5300 	mov.w	r3, #8192	; 0x2000
 8000ad2:	613b      	str	r3, [r7, #16]
  GPIO_InitStruct.Mode = GPIO_MODE_IT_RISING;
 8000ad4:	4b28      	ldr	r3, [pc, #160]	; (8000b78 <MX_GPIO_Init+0x128>)
 8000ad6:	617b      	str	r3, [r7, #20]
  GPIO_InitStruct.Pull = GPIO_NOPULL;
 8000ad8:	2300      	movs	r3, #0
 8000ada:	61bb      	str	r3, [r7, #24]
  HAL_GPIO_Init(B1_GPIO_Port, &GPIO_InitStruct);
 8000adc:	f107 0310 	add.w	r3, r7, #16
 8000ae0:	4619      	mov	r1, r3
 8000ae2:	4826      	ldr	r0, [pc, #152]	; (8000b7c <MX_GPIO_Init+0x12c>)
 8000ae4:	f001 fb56 	bl	8002194 <HAL_GPIO_Init>

  /*Configure GPIO pin : LD2_Pin */
  GPIO_InitStruct.Pin = LD2_Pin;
 8000ae8:	2320      	movs	r3, #32
 8000aea:	613b      	str	r3, [r7, #16]
  GPIO_InitStruct.Mode = GPIO_MODE_OUTPUT_PP;
 8000aec:	2301      	movs	r3, #1
 8000aee:	617b      	str	r3, [r7, #20]
  GPIO_InitStruct.Pull = GPIO_NOPULL;
 8000af0:	2300      	movs	r3, #0
 8000af2:	61bb      	str	r3, [r7, #24]
  GPIO_InitStruct.Speed = GPIO_SPEED_FREQ_LOW;
 8000af4:	2302      	movs	r3, #2
 8000af6:	61fb      	str	r3, [r7, #28]
  HAL_GPIO_Init(LD2_GPIO_Port, &GPIO_InitStruct);
 8000af8:	f107 0310 	add.w	r3, r7, #16
 8000afc:	4619      	mov	r1, r3
 8000afe:	481d      	ldr	r0, [pc, #116]	; (8000b74 <MX_GPIO_Init+0x124>)
 8000b00:	f001 fb48 	bl	8002194 <HAL_GPIO_Init>

  /*Configure GPIO pin : sw1_Pin */
  GPIO_InitStruct.Pin = sw1_Pin;
 8000b04:	f44f 7380 	mov.w	r3, #256	; 0x100
 8000b08:	613b      	str	r3, [r7, #16]
  GPIO_InitStruct.Mode = GPIO_MODE_IT_RISING;
 8000b0a:	4b1b      	ldr	r3, [pc, #108]	; (8000b78 <MX_GPIO_Init+0x128>)
 8000b0c:	617b      	str	r3, [r7, #20]
  GPIO_InitStruct.Pull = GPIO_NOPULL;
 8000b0e:	2300      	movs	r3, #0
 8000b10:	61bb      	str	r3, [r7, #24]
  HAL_GPIO_Init(sw1_GPIO_Port, &GPIO_InitStruct);
 8000b12:	f107 0310 	add.w	r3, r7, #16
 8000b16:	4619      	mov	r1, r3
 8000b18:	4816      	ldr	r0, [pc, #88]	; (8000b74 <MX_GPIO_Init+0x124>)
 8000b1a:	f001 fb3b 	bl	8002194 <HAL_GPIO_Init>

  /*Configure GPIO pin : reset_Pin */
  GPIO_InitStruct.Pin = reset_Pin;
 8000b1e:	2310      	movs	r3, #16
 8000b20:	613b      	str	r3, [r7, #16]
  GPIO_InitStruct.Mode = GPIO_MODE_IT_RISING;
 8000b22:	4b15      	ldr	r3, [pc, #84]	; (8000b78 <MX_GPIO_Init+0x128>)
 8000b24:	617b      	str	r3, [r7, #20]
  GPIO_InitStruct.Pull = GPIO_NOPULL;
 8000b26:	2300      	movs	r3, #0
 8000b28:	61bb      	str	r3, [r7, #24]
  HAL_GPIO_Init(reset_GPIO_Port, &GPIO_InitStruct);
 8000b2a:	f107 0310 	add.w	r3, r7, #16
 8000b2e:	4619      	mov	r1, r3
 8000b30:	4813      	ldr	r0, [pc, #76]	; (8000b80 <MX_GPIO_Init+0x130>)
 8000b32:	f001 fb2f 	bl	8002194 <HAL_GPIO_Init>

  /* EXTI interrupt init*/
  HAL_NVIC_SetPriority(EXTI4_IRQn, 0, 0);
 8000b36:	2200      	movs	r2, #0
 8000b38:	2100      	movs	r1, #0
 8000b3a:	200a      	movs	r0, #10
 8000b3c:	f001 f905 	bl	8001d4a <HAL_NVIC_SetPriority>
  HAL_NVIC_EnableIRQ(EXTI4_IRQn);
 8000b40:	200a      	movs	r0, #10
 8000b42:	f001 f91e 	bl	8001d82 <HAL_NVIC_EnableIRQ>

  HAL_NVIC_SetPriority(EXTI9_5_IRQn, 0, 0);
 8000b46:	2200      	movs	r2, #0
 8000b48:	2100      	movs	r1, #0
 8000b4a:	2017      	movs	r0, #23
 8000b4c:	f001 f8fd 	bl	8001d4a <HAL_NVIC_SetPriority>
  HAL_NVIC_EnableIRQ(EXTI9_5_IRQn);
 8000b50:	2017      	movs	r0, #23
 8000b52:	f001 f916 	bl	8001d82 <HAL_NVIC_EnableIRQ>

  HAL_NVIC_SetPriority(EXTI15_10_IRQn, 0, 0);
 8000b56:	2200      	movs	r2, #0
 8000b58:	2100      	movs	r1, #0
 8000b5a:	2028      	movs	r0, #40	; 0x28
 8000b5c:	f001 f8f5 	bl	8001d4a <HAL_NVIC_SetPriority>
  HAL_NVIC_EnableIRQ(EXTI15_10_IRQn);
 8000b60:	2028      	movs	r0, #40	; 0x28
 8000b62:	f001 f90e 	bl	8001d82 <HAL_NVIC_EnableIRQ>

}
 8000b66:	bf00      	nop
 8000b68:	3720      	adds	r7, #32
 8000b6a:	46bd      	mov	sp, r7
 8000b6c:	bd80      	pop	{r7, pc}
 8000b6e:	bf00      	nop
 8000b70:	40021000 	.word	0x40021000
 8000b74:	40010800 	.word	0x40010800
 8000b78:	10110000 	.word	0x10110000
 8000b7c:	40011000 	.word	0x40011000
 8000b80:	40010c00 	.word	0x40010c00

08000b84 <HAL_GPIO_EXTI_Callback>:

/* USER CODE BEGIN 4 */
void HAL_GPIO_EXTI_Callback(uint16_t GPIO_Pin)
{
 8000b84:	b580      	push	{r7, lr}
 8000b86:	b082      	sub	sp, #8
 8000b88:	af00      	add	r7, sp, #0
 8000b8a:	4603      	mov	r3, r0
 8000b8c:	80fb      	strh	r3, [r7, #6]
	if(GPIO_Pin == sw1_Pin)
 8000b8e:	88fb      	ldrh	r3, [r7, #6]
 8000b90:	f5b3 7f80 	cmp.w	r3, #256	; 0x100
 8000b94:	d107      	bne.n	8000ba6 <HAL_GPIO_EXTI_Callback+0x22>
	{
		flag_sw1 = 1;
 8000b96:	4b0d      	ldr	r3, [pc, #52]	; (8000bcc <HAL_GPIO_EXTI_Callback+0x48>)
 8000b98:	2201      	movs	r2, #1
 8000b9a:	701a      	strb	r2, [r3, #0]
		secMills = 15;
 8000b9c:	4b0c      	ldr	r3, [pc, #48]	; (8000bd0 <HAL_GPIO_EXTI_Callback+0x4c>)
 8000b9e:	220f      	movs	r2, #15
 8000ba0:	701a      	strb	r2, [r3, #0]
		//------------ servo reset
		servoReady();
 8000ba2:	f7ff fbfb 	bl	800039c <servoReady>
		//------------------
	}

	if(GPIO_Pin == reset_Pin)
 8000ba6:	88fb      	ldrh	r3, [r7, #6]
 8000ba8:	2b10      	cmp	r3, #16
 8000baa:	d10a      	bne.n	8000bc2 <HAL_GPIO_EXTI_Callback+0x3e>
	{
		flag_sw1 = 0;
 8000bac:	4b07      	ldr	r3, [pc, #28]	; (8000bcc <HAL_GPIO_EXTI_Callback+0x48>)
 8000bae:	2200      	movs	r2, #0
 8000bb0:	701a      	strb	r2, [r3, #0]
		secMills = 15;
 8000bb2:	4b07      	ldr	r3, [pc, #28]	; (8000bd0 <HAL_GPIO_EXTI_Callback+0x4c>)
 8000bb4:	220f      	movs	r2, #15
 8000bb6:	701a      	strb	r2, [r3, #0]
		//------------ reset state&time(servo&buzzer)
		servoReady();
 8000bb8:	f7ff fbf0 	bl	800039c <servoReady>
		TIM1->CCR2 = 0;
 8000bbc:	4b05      	ldr	r3, [pc, #20]	; (8000bd4 <HAL_GPIO_EXTI_Callback+0x50>)
 8000bbe:	2200      	movs	r2, #0
 8000bc0:	639a      	str	r2, [r3, #56]	; 0x38
		//------------------


	}

}
 8000bc2:	bf00      	nop
 8000bc4:	3708      	adds	r7, #8
 8000bc6:	46bd      	mov	sp, r7
 8000bc8:	bd80      	pop	{r7, pc}
 8000bca:	bf00      	nop
 8000bcc:	2000028c 	.word	0x2000028c
 8000bd0:	20000000 	.word	0x20000000
 8000bd4:	40012c00 	.word	0x40012c00

08000bd8 <HAL_TIM_PeriodElapsedCallback>:
void HAL_TIM_PeriodElapsedCallback(TIM_HandleTypeDef *htim)
{
 8000bd8:	b580      	push	{r7, lr}
 8000bda:	b082      	sub	sp, #8
 8000bdc:	af00      	add	r7, sp, #0
 8000bde:	6078      	str	r0, [r7, #4]
		lcd_put_cur(0, 0);
 8000be0:	2100      	movs	r1, #0
 8000be2:	2000      	movs	r0, #0
 8000be4:	f7ff fb12 	bl	800020c <lcd_put_cur>
		lcd_send_string("STATUS:");
 8000be8:	4819      	ldr	r0, [pc, #100]	; (8000c50 <HAL_TIM_PeriodElapsedCallback+0x78>)
 8000bea:	f7ff fb6b 	bl	80002c4 <lcd_send_string>
		lcd_put_cur(0, 7);
 8000bee:	2107      	movs	r1, #7
 8000bf0:	2000      	movs	r0, #0
 8000bf2:	f7ff fb0b 	bl	800020c <lcd_put_cur>
		lcd_send_string("READY....");
 8000bf6:	4817      	ldr	r0, [pc, #92]	; (8000c54 <HAL_TIM_PeriodElapsedCallback+0x7c>)
 8000bf8:	f7ff fb64 	bl	80002c4 <lcd_send_string>

		if(flag_sw1 == 1)
 8000bfc:	4b16      	ldr	r3, [pc, #88]	; (8000c58 <HAL_TIM_PeriodElapsedCallback+0x80>)
 8000bfe:	781b      	ldrb	r3, [r3, #0]
 8000c00:	2b01      	cmp	r3, #1
 8000c02:	d121      	bne.n	8000c48 <HAL_TIM_PeriodElapsedCallback+0x70>
		{
			if(secMills > 0)
 8000c04:	4b15      	ldr	r3, [pc, #84]	; (8000c5c <HAL_TIM_PeriodElapsedCallback+0x84>)
 8000c06:	781b      	ldrb	r3, [r3, #0]
 8000c08:	2b00      	cmp	r3, #0
 8000c0a:	d00d      	beq.n	8000c28 <HAL_TIM_PeriodElapsedCallback+0x50>
			{
				secMills--;
 8000c0c:	4b13      	ldr	r3, [pc, #76]	; (8000c5c <HAL_TIM_PeriodElapsedCallback+0x84>)
 8000c0e:	781b      	ldrb	r3, [r3, #0]
 8000c10:	3b01      	subs	r3, #1
 8000c12:	b2da      	uxtb	r2, r3
 8000c14:	4b11      	ldr	r3, [pc, #68]	; (8000c5c <HAL_TIM_PeriodElapsedCallback+0x84>)
 8000c16:	701a      	strb	r2, [r3, #0]
				lcd_put_cur(0, 7);
 8000c18:	2107      	movs	r1, #7
 8000c1a:	2000      	movs	r0, #0
 8000c1c:	f7ff faf6 	bl	800020c <lcd_put_cur>
				lcd_send_string("COUNTDOWN");
 8000c20:	480f      	ldr	r0, [pc, #60]	; (8000c60 <HAL_TIM_PeriodElapsedCallback+0x88>)
 8000c22:	f7ff fb4f 	bl	80002c4 <lcd_send_string>
				//------------ servo
				servoBoom();
				//------------------
			}
		}
}
 8000c26:	e00f      	b.n	8000c48 <HAL_TIM_PeriodElapsedCallback+0x70>
			else if (secMills ==0)
 8000c28:	4b0c      	ldr	r3, [pc, #48]	; (8000c5c <HAL_TIM_PeriodElapsedCallback+0x84>)
 8000c2a:	781b      	ldrb	r3, [r3, #0]
 8000c2c:	2b00      	cmp	r3, #0
 8000c2e:	d10b      	bne.n	8000c48 <HAL_TIM_PeriodElapsedCallback+0x70>
				lcd_put_cur(0, 7);
 8000c30:	2107      	movs	r1, #7
 8000c32:	2000      	movs	r0, #0
 8000c34:	f7ff faea 	bl	800020c <lcd_put_cur>
				lcd_send_string("!!BOOOM!!");
 8000c38:	480a      	ldr	r0, [pc, #40]	; (8000c64 <HAL_TIM_PeriodElapsedCallback+0x8c>)
 8000c3a:	f7ff fb43 	bl	80002c4 <lcd_send_string>
				secMills = 0;
 8000c3e:	4b07      	ldr	r3, [pc, #28]	; (8000c5c <HAL_TIM_PeriodElapsedCallback+0x84>)
 8000c40:	2200      	movs	r2, #0
 8000c42:	701a      	strb	r2, [r3, #0]
				servoBoom();
 8000c44:	f7ff fbbc 	bl	80003c0 <servoBoom>
}
 8000c48:	bf00      	nop
 8000c4a:	3708      	adds	r7, #8
 8000c4c:	46bd      	mov	sp, r7
 8000c4e:	bd80      	pop	{r7, pc}
 8000c50:	08006264 	.word	0x08006264
 8000c54:	0800626c 	.word	0x0800626c
 8000c58:	2000028c 	.word	0x2000028c
 8000c5c:	20000000 	.word	0x20000000
 8000c60:	08006278 	.word	0x08006278
 8000c64:	08006284 	.word	0x08006284

08000c68 <HAL_TIM_OC_DelayElapsedCallback>:

void HAL_TIM_OC_DelayElapsedCallback(TIM_HandleTypeDef *htim)
{
 8000c68:	b580      	push	{r7, lr}
 8000c6a:	b082      	sub	sp, #8
 8000c6c:	af00      	add	r7, sp, #0
 8000c6e:	6078      	str	r0, [r7, #4]

		lcd_put_cur(1,0);
 8000c70:	2100      	movs	r1, #0
 8000c72:	2001      	movs	r0, #1
 8000c74:	f7ff faca 	bl	800020c <lcd_put_cur>
		sprintf(secToString,"TIME:%02d",secMills);
 8000c78:	4b06      	ldr	r3, [pc, #24]	; (8000c94 <HAL_TIM_OC_DelayElapsedCallback+0x2c>)
 8000c7a:	781b      	ldrb	r3, [r3, #0]
 8000c7c:	461a      	mov	r2, r3
 8000c7e:	4906      	ldr	r1, [pc, #24]	; (8000c98 <HAL_TIM_OC_DelayElapsedCallback+0x30>)
 8000c80:	4806      	ldr	r0, [pc, #24]	; (8000c9c <HAL_TIM_OC_DelayElapsedCallback+0x34>)
 8000c82:	f004 f973 	bl	8004f6c <siprintf>
		lcd_send_string(secToString);
 8000c86:	4805      	ldr	r0, [pc, #20]	; (8000c9c <HAL_TIM_OC_DelayElapsedCallback+0x34>)
 8000c88:	f7ff fb1c 	bl	80002c4 <lcd_send_string>
}
 8000c8c:	bf00      	nop
 8000c8e:	3708      	adds	r7, #8
 8000c90:	46bd      	mov	sp, r7
 8000c92:	bd80      	pop	{r7, pc}
 8000c94:	20000000 	.word	0x20000000
 8000c98:	08006290 	.word	0x08006290
 8000c9c:	20000290 	.word	0x20000290

08000ca0 <HAL_TIM_PWM_PulseFinishedCallback>:


void HAL_TIM_PWM_PulseFinishedCallback(TIM_HandleTypeDef *htim)
{
 8000ca0:	b480      	push	{r7}
 8000ca2:	b083      	sub	sp, #12
 8000ca4:	af00      	add	r7, sp, #0
 8000ca6:	6078      	str	r0, [r7, #4]
	if((secMills <= 14)&&(secMills>7))
 8000ca8:	4b1a      	ldr	r3, [pc, #104]	; (8000d14 <HAL_TIM_PWM_PulseFinishedCallback+0x74>)
 8000caa:	781b      	ldrb	r3, [r3, #0]
 8000cac:	2b0e      	cmp	r3, #14
 8000cae:	d811      	bhi.n	8000cd4 <HAL_TIM_PWM_PulseFinishedCallback+0x34>
 8000cb0:	4b18      	ldr	r3, [pc, #96]	; (8000d14 <HAL_TIM_PWM_PulseFinishedCallback+0x74>)
 8000cb2:	781b      	ldrb	r3, [r3, #0]
 8000cb4:	2b07      	cmp	r3, #7
 8000cb6:	d90d      	bls.n	8000cd4 <HAL_TIM_PWM_PulseFinishedCallback+0x34>
	{
		TIM1->CCR2 = 5000-1;
 8000cb8:	4b17      	ldr	r3, [pc, #92]	; (8000d18 <HAL_TIM_PWM_PulseFinishedCallback+0x78>)
 8000cba:	f241 3287 	movw	r2, #4999	; 0x1387
 8000cbe:	639a      	str	r2, [r3, #56]	; 0x38
		GPIOA->BSRR = 0xffff;
 8000cc0:	4b16      	ldr	r3, [pc, #88]	; (8000d1c <HAL_TIM_PWM_PulseFinishedCallback+0x7c>)
 8000cc2:	f64f 72ff 	movw	r2, #65535	; 0xffff
 8000cc6:	611a      	str	r2, [r3, #16]
		TIM1->ARR -= 2000;
 8000cc8:	4b13      	ldr	r3, [pc, #76]	; (8000d18 <HAL_TIM_PWM_PulseFinishedCallback+0x78>)
 8000cca:	6adb      	ldr	r3, [r3, #44]	; 0x2c
 8000ccc:	4a12      	ldr	r2, [pc, #72]	; (8000d18 <HAL_TIM_PWM_PulseFinishedCallback+0x78>)
 8000cce:	f5a3 63fa 	sub.w	r3, r3, #2000	; 0x7d0
 8000cd2:	62d3      	str	r3, [r2, #44]	; 0x2c
	}
	if((secMills <= 7)&&(secMills>0))
 8000cd4:	4b0f      	ldr	r3, [pc, #60]	; (8000d14 <HAL_TIM_PWM_PulseFinishedCallback+0x74>)
 8000cd6:	781b      	ldrb	r3, [r3, #0]
 8000cd8:	2b07      	cmp	r3, #7
 8000cda:	d80a      	bhi.n	8000cf2 <HAL_TIM_PWM_PulseFinishedCallback+0x52>
 8000cdc:	4b0d      	ldr	r3, [pc, #52]	; (8000d14 <HAL_TIM_PWM_PulseFinishedCallback+0x74>)
 8000cde:	781b      	ldrb	r3, [r3, #0]
 8000ce0:	2b00      	cmp	r3, #0
 8000ce2:	d006      	beq.n	8000cf2 <HAL_TIM_PWM_PulseFinishedCallback+0x52>
	{
		TIM1->ARR -= 4500;
 8000ce4:	4b0c      	ldr	r3, [pc, #48]	; (8000d18 <HAL_TIM_PWM_PulseFinishedCallback+0x78>)
 8000ce6:	6adb      	ldr	r3, [r3, #44]	; 0x2c
 8000ce8:	4a0b      	ldr	r2, [pc, #44]	; (8000d18 <HAL_TIM_PWM_PulseFinishedCallback+0x78>)
 8000cea:	f5a3 538c 	sub.w	r3, r3, #4480	; 0x1180
 8000cee:	3b14      	subs	r3, #20
 8000cf0:	62d3      	str	r3, [r2, #44]	; 0x2c
	}
	if(secMills == 0)
 8000cf2:	4b08      	ldr	r3, [pc, #32]	; (8000d14 <HAL_TIM_PWM_PulseFinishedCallback+0x74>)
 8000cf4:	781b      	ldrb	r3, [r3, #0]
 8000cf6:	2b00      	cmp	r3, #0
 8000cf8:	d106      	bne.n	8000d08 <HAL_TIM_PWM_PulseFinishedCallback+0x68>
		{
		TIM1->CCR2 = 0;
 8000cfa:	4b07      	ldr	r3, [pc, #28]	; (8000d18 <HAL_TIM_PWM_PulseFinishedCallback+0x78>)
 8000cfc:	2200      	movs	r2, #0
 8000cfe:	639a      	str	r2, [r3, #56]	; 0x38
		TIM1->ARR = 50000-1;
 8000d00:	4b05      	ldr	r3, [pc, #20]	; (8000d18 <HAL_TIM_PWM_PulseFinishedCallback+0x78>)
 8000d02:	f24c 324f 	movw	r2, #49999	; 0xc34f
 8000d06:	62da      	str	r2, [r3, #44]	; 0x2c
		}
}
 8000d08:	bf00      	nop
 8000d0a:	370c      	adds	r7, #12
 8000d0c:	46bd      	mov	sp, r7
 8000d0e:	bc80      	pop	{r7}
 8000d10:	4770      	bx	lr
 8000d12:	bf00      	nop
 8000d14:	20000000 	.word	0x20000000
 8000d18:	40012c00 	.word	0x40012c00
 8000d1c:	40010800 	.word	0x40010800

08000d20 <Error_Handler>:
/**
  * @brief  This function is executed in case of error occurrence.
  * @retval None
  */
void Error_Handler(void)
{
 8000d20:	b480      	push	{r7}
 8000d22:	af00      	add	r7, sp, #0
  \details Disables IRQ interrupts by setting the I-bit in the CPSR.
           Can only be executed in Privileged modes.
 */
__STATIC_FORCEINLINE void __disable_irq(void)
{
  __ASM volatile ("cpsid i" : : : "memory");
 8000d24:	b672      	cpsid	i
}
 8000d26:	bf00      	nop
  /* USER CODE BEGIN Error_Handler_Debug */
  /* User can add his own implementation to report the HAL error return state */
  __disable_irq();
  while (1)
 8000d28:	e7fe      	b.n	8000d28 <Error_Handler+0x8>
	...

08000d2c <HAL_MspInit>:
 8000d2c:	b480      	push	{r7}
 8000d2e:	b085      	sub	sp, #20
 8000d30:	af00      	add	r7, sp, #0
 8000d32:	4b15      	ldr	r3, [pc, #84]	; (8000d88 <HAL_MspInit+0x5c>)
 8000d34:	699b      	ldr	r3, [r3, #24]
 8000d36:	4a14      	ldr	r2, [pc, #80]	; (8000d88 <HAL_MspInit+0x5c>)
 8000d38:	f043 0301 	orr.w	r3, r3, #1
 8000d3c:	6193      	str	r3, [r2, #24]
 8000d3e:	4b12      	ldr	r3, [pc, #72]	; (8000d88 <HAL_MspInit+0x5c>)
 8000d40:	699b      	ldr	r3, [r3, #24]
 8000d42:	f003 0301 	and.w	r3, r3, #1
 8000d46:	60bb      	str	r3, [r7, #8]
 8000d48:	68bb      	ldr	r3, [r7, #8]
 8000d4a:	4b0f      	ldr	r3, [pc, #60]	; (8000d88 <HAL_MspInit+0x5c>)
 8000d4c:	69db      	ldr	r3, [r3, #28]
 8000d4e:	4a0e      	ldr	r2, [pc, #56]	; (8000d88 <HAL_MspInit+0x5c>)
 8000d50:	f043 5380 	orr.w	r3, r3, #268435456	; 0x10000000
 8000d54:	61d3      	str	r3, [r2, #28]
 8000d56:	4b0c      	ldr	r3, [pc, #48]	; (8000d88 <HAL_MspInit+0x5c>)
 8000d58:	69db      	ldr	r3, [r3, #28]
 8000d5a:	f003 5380 	and.w	r3, r3, #268435456	; 0x10000000
 8000d5e:	607b      	str	r3, [r7, #4]
 8000d60:	687b      	ldr	r3, [r7, #4]
 8000d62:	4b0a      	ldr	r3, [pc, #40]	; (8000d8c <HAL_MspInit+0x60>)
 8000d64:	685b      	ldr	r3, [r3, #4]
 8000d66:	60fb      	str	r3, [r7, #12]
 8000d68:	68fb      	ldr	r3, [r7, #12]
 8000d6a:	f023 63e0 	bic.w	r3, r3, #117440512	; 0x7000000
 8000d6e:	60fb      	str	r3, [r7, #12]
 8000d70:	68fb      	ldr	r3, [r7, #12]
 8000d72:	f043 7300 	orr.w	r3, r3, #33554432	; 0x2000000
 8000d76:	60fb      	str	r3, [r7, #12]
 8000d78:	4a04      	ldr	r2, [pc, #16]	; (8000d8c <HAL_MspInit+0x60>)
 8000d7a:	68fb      	ldr	r3, [r7, #12]
 8000d7c:	6053      	str	r3, [r2, #4]
 8000d7e:	bf00      	nop
 8000d80:	3714      	adds	r7, #20
 8000d82:	46bd      	mov	sp, r7
 8000d84:	bc80      	pop	{r7}
 8000d86:	4770      	bx	lr
 8000d88:	40021000 	.word	0x40021000
 8000d8c:	40010000 	.word	0x40010000

08000d90 <HAL_ADC_MspInit>:
 8000d90:	b580      	push	{r7, lr}
 8000d92:	b088      	sub	sp, #32
 8000d94:	af00      	add	r7, sp, #0
 8000d96:	6078      	str	r0, [r7, #4]
 8000d98:	f107 0310 	add.w	r3, r7, #16
 8000d9c:	2200      	movs	r2, #0
 8000d9e:	601a      	str	r2, [r3, #0]
 8000da0:	605a      	str	r2, [r3, #4]
 8000da2:	609a      	str	r2, [r3, #8]
 8000da4:	60da      	str	r2, [r3, #12]
 8000da6:	687b      	ldr	r3, [r7, #4]
 8000da8:	681b      	ldr	r3, [r3, #0]
 8000daa:	4a28      	ldr	r2, [pc, #160]	; (8000e4c <HAL_ADC_MspInit+0xbc>)
 8000dac:	4293      	cmp	r3, r2
 8000dae:	d149      	bne.n	8000e44 <HAL_ADC_MspInit+0xb4>
 8000db0:	4b27      	ldr	r3, [pc, #156]	; (8000e50 <HAL_ADC_MspInit+0xc0>)
 8000db2:	699b      	ldr	r3, [r3, #24]
 8000db4:	4a26      	ldr	r2, [pc, #152]	; (8000e50 <HAL_ADC_MspInit+0xc0>)
 8000db6:	f443 7300 	orr.w	r3, r3, #512	; 0x200
 8000dba:	6193      	str	r3, [r2, #24]
 8000dbc:	4b24      	ldr	r3, [pc, #144]	; (8000e50 <HAL_ADC_MspInit+0xc0>)
 8000dbe:	699b      	ldr	r3, [r3, #24]
 8000dc0:	f403 7300 	and.w	r3, r3, #512	; 0x200
 8000dc4:	60fb      	str	r3, [r7, #12]
 8000dc6:	68fb      	ldr	r3, [r7, #12]
 8000dc8:	4b21      	ldr	r3, [pc, #132]	; (8000e50 <HAL_ADC_MspInit+0xc0>)
 8000dca:	699b      	ldr	r3, [r3, #24]
 8000dcc:	4a20      	ldr	r2, [pc, #128]	; (8000e50 <HAL_ADC_MspInit+0xc0>)
 8000dce:	f043 0304 	orr.w	r3, r3, #4
 8000dd2:	6193      	str	r3, [r2, #24]
 8000dd4:	4b1e      	ldr	r3, [pc, #120]	; (8000e50 <HAL_ADC_MspInit+0xc0>)
 8000dd6:	699b      	ldr	r3, [r3, #24]
 8000dd8:	f003 0304 	and.w	r3, r3, #4
 8000ddc:	60bb      	str	r3, [r7, #8]
 8000dde:	68bb      	ldr	r3, [r7, #8]
 8000de0:	2313      	movs	r3, #19
 8000de2:	613b      	str	r3, [r7, #16]
 8000de4:	2303      	movs	r3, #3
 8000de6:	617b      	str	r3, [r7, #20]
 8000de8:	f107 0310 	add.w	r3, r7, #16
 8000dec:	4619      	mov	r1, r3
 8000dee:	4819      	ldr	r0, [pc, #100]	; (8000e54 <HAL_ADC_MspInit+0xc4>)
 8000df0:	f001 f9d0 	bl	8002194 <HAL_GPIO_Init>
 8000df4:	4b18      	ldr	r3, [pc, #96]	; (8000e58 <HAL_ADC_MspInit+0xc8>)
 8000df6:	4a19      	ldr	r2, [pc, #100]	; (8000e5c <HAL_ADC_MspInit+0xcc>)
 8000df8:	601a      	str	r2, [r3, #0]
 8000dfa:	4b17      	ldr	r3, [pc, #92]	; (8000e58 <HAL_ADC_MspInit+0xc8>)
 8000dfc:	2200      	movs	r2, #0
 8000dfe:	605a      	str	r2, [r3, #4]
 8000e00:	4b15      	ldr	r3, [pc, #84]	; (8000e58 <HAL_ADC_MspInit+0xc8>)
 8000e02:	2200      	movs	r2, #0
 8000e04:	609a      	str	r2, [r3, #8]
 8000e06:	4b14      	ldr	r3, [pc, #80]	; (8000e58 <HAL_ADC_MspInit+0xc8>)
 8000e08:	2280      	movs	r2, #128	; 0x80
 8000e0a:	60da      	str	r2, [r3, #12]
 8000e0c:	4b12      	ldr	r3, [pc, #72]	; (8000e58 <HAL_ADC_MspInit+0xc8>)
 8000e0e:	f44f 7200 	mov.w	r2, #512	; 0x200
 8000e12:	611a      	str	r2, [r3, #16]
 8000e14:	4b10      	ldr	r3, [pc, #64]	; (8000e58 <HAL_ADC_MspInit+0xc8>)
 8000e16:	f44f 6200 	mov.w	r2, #2048	; 0x800
 8000e1a:	615a      	str	r2, [r3, #20]
 8000e1c:	4b0e      	ldr	r3, [pc, #56]	; (8000e58 <HAL_ADC_MspInit+0xc8>)
 8000e1e:	2220      	movs	r2, #32
 8000e20:	619a      	str	r2, [r3, #24]
 8000e22:	4b0d      	ldr	r3, [pc, #52]	; (8000e58 <HAL_ADC_MspInit+0xc8>)
 8000e24:	2200      	movs	r2, #0
 8000e26:	61da      	str	r2, [r3, #28]
 8000e28:	480b      	ldr	r0, [pc, #44]	; (8000e58 <HAL_ADC_MspInit+0xc8>)
 8000e2a:	f000 ffc5 	bl	8001db8 <HAL_DMA_Init>
 8000e2e:	4603      	mov	r3, r0
 8000e30:	2b00      	cmp	r3, #0
 8000e32:	d001      	beq.n	8000e38 <HAL_ADC_MspInit+0xa8>
 8000e34:	f7ff ff74 	bl	8000d20 <Error_Handler>
 8000e38:	687b      	ldr	r3, [r7, #4]
 8000e3a:	4a07      	ldr	r2, [pc, #28]	; (8000e58 <HAL_ADC_MspInit+0xc8>)
 8000e3c:	621a      	str	r2, [r3, #32]
 8000e3e:	4a06      	ldr	r2, [pc, #24]	; (8000e58 <HAL_ADC_MspInit+0xc8>)
 8000e40:	687b      	ldr	r3, [r7, #4]
 8000e42:	6253      	str	r3, [r2, #36]	; 0x24
 8000e44:	bf00      	nop
 8000e46:	3720      	adds	r7, #32
 8000e48:	46bd      	mov	sp, r7
 8000e4a:	bd80      	pop	{r7, pc}
 8000e4c:	40012400 	.word	0x40012400
 8000e50:	40021000 	.word	0x40021000
 8000e54:	40010800 	.word	0x40010800
 8000e58:	200000c0 	.word	0x200000c0
 8000e5c:	40020008 	.word	0x40020008

08000e60 <HAL_I2C_MspInit>:
 8000e60:	b580      	push	{r7, lr}
 8000e62:	b088      	sub	sp, #32
 8000e64:	af00      	add	r7, sp, #0
 8000e66:	6078      	str	r0, [r7, #4]
 8000e68:	f107 0310 	add.w	r3, r7, #16
 8000e6c:	2200      	movs	r2, #0
 8000e6e:	601a      	str	r2, [r3, #0]
 8000e70:	605a      	str	r2, [r3, #4]
 8000e72:	609a      	str	r2, [r3, #8]
 8000e74:	60da      	str	r2, [r3, #12]
 8000e76:	687b      	ldr	r3, [r7, #4]
 8000e78:	681b      	ldr	r3, [r3, #0]
 8000e7a:	4a15      	ldr	r2, [pc, #84]	; (8000ed0 <HAL_I2C_MspInit+0x70>)
 8000e7c:	4293      	cmp	r3, r2
 8000e7e:	d123      	bne.n	8000ec8 <HAL_I2C_MspInit+0x68>
 8000e80:	4b14      	ldr	r3, [pc, #80]	; (8000ed4 <HAL_I2C_MspInit+0x74>)
 8000e82:	699b      	ldr	r3, [r3, #24]
 8000e84:	4a13      	ldr	r2, [pc, #76]	; (8000ed4 <HAL_I2C_MspInit+0x74>)
 8000e86:	f043 0308 	orr.w	r3, r3, #8
 8000e8a:	6193      	str	r3, [r2, #24]
 8000e8c:	4b11      	ldr	r3, [pc, #68]	; (8000ed4 <HAL_I2C_MspInit+0x74>)
 8000e8e:	699b      	ldr	r3, [r3, #24]
 8000e90:	f003 0308 	and.w	r3, r3, #8
 8000e94:	60fb      	str	r3, [r7, #12]
 8000e96:	68fb      	ldr	r3, [r7, #12]
 8000e98:	23c0      	movs	r3, #192	; 0xc0
 8000e9a:	613b      	str	r3, [r7, #16]
 8000e9c:	2312      	movs	r3, #18
 8000e9e:	617b      	str	r3, [r7, #20]
 8000ea0:	2303      	movs	r3, #3
 8000ea2:	61fb      	str	r3, [r7, #28]
 8000ea4:	f107 0310 	add.w	r3, r7, #16
 8000ea8:	4619      	mov	r1, r3
 8000eaa:	480b      	ldr	r0, [pc, #44]	; (8000ed8 <HAL_I2C_MspInit+0x78>)
 8000eac:	f001 f972 	bl	8002194 <HAL_GPIO_Init>
 8000eb0:	4b08      	ldr	r3, [pc, #32]	; (8000ed4 <HAL_I2C_MspInit+0x74>)
 8000eb2:	69db      	ldr	r3, [r3, #28]
 8000eb4:	4a07      	ldr	r2, [pc, #28]	; (8000ed4 <HAL_I2C_MspInit+0x74>)
 8000eb6:	f443 1300 	orr.w	r3, r3, #2097152	; 0x200000
 8000eba:	61d3      	str	r3, [r2, #28]
 8000ebc:	4b05      	ldr	r3, [pc, #20]	; (8000ed4 <HAL_I2C_MspInit+0x74>)
 8000ebe:	69db      	ldr	r3, [r3, #28]
 8000ec0:	f403 1300 	and.w	r3, r3, #2097152	; 0x200000
 8000ec4:	60bb      	str	r3, [r7, #8]
 8000ec6:	68bb      	ldr	r3, [r7, #8]
 8000ec8:	bf00      	nop
 8000eca:	3720      	adds	r7, #32
 8000ecc:	46bd      	mov	sp, r7
 8000ece:	bd80      	pop	{r7, pc}
 8000ed0:	40005400 	.word	0x40005400
 8000ed4:	40021000 	.word	0x40021000
 8000ed8:	40010c00 	.word	0x40010c00

08000edc <HAL_TIM_Base_MspInit>:
 8000edc:	b580      	push	{r7, lr}
 8000ede:	b086      	sub	sp, #24
 8000ee0:	af00      	add	r7, sp, #0
 8000ee2:	6078      	str	r0, [r7, #4]
 8000ee4:	687b      	ldr	r3, [r7, #4]
 8000ee6:	681b      	ldr	r3, [r3, #0]
 8000ee8:	4a23      	ldr	r2, [pc, #140]	; (8000f78 <HAL_TIM_Base_MspInit+0x9c>)
 8000eea:	4293      	cmp	r3, r2
 8000eec:	d10c      	bne.n	8000f08 <HAL_TIM_Base_MspInit+0x2c>
 8000eee:	4b23      	ldr	r3, [pc, #140]	; (8000f7c <HAL_TIM_Base_MspInit+0xa0>)
 8000ef0:	699b      	ldr	r3, [r3, #24]
 8000ef2:	4a22      	ldr	r2, [pc, #136]	; (8000f7c <HAL_TIM_Base_MspInit+0xa0>)
 8000ef4:	f443 6300 	orr.w	r3, r3, #2048	; 0x800
 8000ef8:	6193      	str	r3, [r2, #24]
 8000efa:	4b20      	ldr	r3, [pc, #128]	; (8000f7c <HAL_TIM_Base_MspInit+0xa0>)
 8000efc:	699b      	ldr	r3, [r3, #24]
 8000efe:	f403 6300 	and.w	r3, r3, #2048	; 0x800
 8000f02:	617b      	str	r3, [r7, #20]
 8000f04:	697b      	ldr	r3, [r7, #20]
 8000f06:	e032      	b.n	8000f6e <HAL_TIM_Base_MspInit+0x92>
 8000f08:	687b      	ldr	r3, [r7, #4]
 8000f0a:	681b      	ldr	r3, [r3, #0]
 8000f0c:	f1b3 4f80 	cmp.w	r3, #1073741824	; 0x40000000
 8000f10:	d114      	bne.n	8000f3c <HAL_TIM_Base_MspInit+0x60>
 8000f12:	4b1a      	ldr	r3, [pc, #104]	; (8000f7c <HAL_TIM_Base_MspInit+0xa0>)
 8000f14:	69db      	ldr	r3, [r3, #28]
 8000f16:	4a19      	ldr	r2, [pc, #100]	; (8000f7c <HAL_TIM_Base_MspInit+0xa0>)
 8000f18:	f043 0301 	orr.w	r3, r3, #1
 8000f1c:	61d3      	str	r3, [r2, #28]
 8000f1e:	4b17      	ldr	r3, [pc, #92]	; (8000f7c <HAL_TIM_Base_MspInit+0xa0>)
 8000f20:	69db      	ldr	r3, [r3, #28]
 8000f22:	f003 0301 	and.w	r3, r3, #1
 8000f26:	613b      	str	r3, [r7, #16]
 8000f28:	693b      	ldr	r3, [r7, #16]
 8000f2a:	2200      	movs	r2, #0
 8000f2c:	2100      	movs	r1, #0
 8000f2e:	201c      	movs	r0, #28
 8000f30:	f000 ff0b 	bl	8001d4a <HAL_NVIC_SetPriority>
 8000f34:	201c      	movs	r0, #28
 8000f36:	f000 ff24 	bl	8001d82 <HAL_NVIC_EnableIRQ>
 8000f3a:	e018      	b.n	8000f6e <HAL_TIM_Base_MspInit+0x92>
 8000f3c:	687b      	ldr	r3, [r7, #4]
 8000f3e:	681b      	ldr	r3, [r3, #0]
 8000f40:	4a0f      	ldr	r2, [pc, #60]	; (8000f80 <HAL_TIM_Base_MspInit+0xa4>)
 8000f42:	4293      	cmp	r3, r2
 8000f44:	d113      	bne.n	8000f6e <HAL_TIM_Base_MspInit+0x92>
 8000f46:	4b0d      	ldr	r3, [pc, #52]	; (8000f7c <HAL_TIM_Base_MspInit+0xa0>)
 8000f48:	69db      	ldr	r3, [r3, #28]
 8000f4a:	4a0c      	ldr	r2, [pc, #48]	; (8000f7c <HAL_TIM_Base_MspInit+0xa0>)
 8000f4c:	f043 0302 	orr.w	r3, r3, #2
 8000f50:	61d3      	str	r3, [r2, #28]
 8000f52:	4b0a      	ldr	r3, [pc, #40]	; (8000f7c <HAL_TIM_Base_MspInit+0xa0>)
 8000f54:	69db      	ldr	r3, [r3, #28]
 8000f56:	f003 0302 	and.w	r3, r3, #2
 8000f5a:	60fb      	str	r3, [r7, #12]
 8000f5c:	68fb      	ldr	r3, [r7, #12]
 8000f5e:	2200      	movs	r2, #0
 8000f60:	2100      	movs	r1, #0
 8000f62:	201d      	movs	r0, #29
 8000f64:	f000 fef1 	bl	8001d4a <HAL_NVIC_SetPriority>
 8000f68:	201d      	movs	r0, #29
 8000f6a:	f000 ff0a 	bl	8001d82 <HAL_NVIC_EnableIRQ>
 8000f6e:	bf00      	nop
 8000f70:	3718      	adds	r7, #24
 8000f72:	46bd      	mov	sp, r7
 8000f74:	bd80      	pop	{r7, pc}
 8000f76:	bf00      	nop
 8000f78:	40012c00 	.word	0x40012c00
 8000f7c:	40021000 	.word	0x40021000
 8000f80:	40000400 	.word	0x40000400

08000f84 <HAL_TIM_MspPostInit>:
 8000f84:	b580      	push	{r7, lr}
 8000f86:	b088      	sub	sp, #32
 8000f88:	af00      	add	r7, sp, #0
 8000f8a:	6078      	str	r0, [r7, #4]
 8000f8c:	f107 0310 	add.w	r3, r7, #16
 8000f90:	2200      	movs	r2, #0
 8000f92:	601a      	str	r2, [r3, #0]
 8000f94:	605a      	str	r2, [r3, #4]
 8000f96:	609a      	str	r2, [r3, #8]
 8000f98:	60da      	str	r2, [r3, #12]
 8000f9a:	687b      	ldr	r3, [r7, #4]
 8000f9c:	681b      	ldr	r3, [r3, #0]
 8000f9e:	4a1f      	ldr	r2, [pc, #124]	; (800101c <HAL_TIM_MspPostInit+0x98>)
 8000fa0:	4293      	cmp	r3, r2
 8000fa2:	d119      	bne.n	8000fd8 <HAL_TIM_MspPostInit+0x54>
 8000fa4:	4b1e      	ldr	r3, [pc, #120]	; (8001020 <HAL_TIM_MspPostInit+0x9c>)
 8000fa6:	699b      	ldr	r3, [r3, #24]
 8000fa8:	4a1d      	ldr	r2, [pc, #116]	; (8001020 <HAL_TIM_MspPostInit+0x9c>)
 8000faa:	f043 0304 	orr.w	r3, r3, #4
 8000fae:	6193      	str	r3, [r2, #24]
 8000fb0:	4b1b      	ldr	r3, [pc, #108]	; (8001020 <HAL_TIM_MspPostInit+0x9c>)
 8000fb2:	699b      	ldr	r3, [r3, #24]
 8000fb4:	f003 0304 	and.w	r3, r3, #4
 8000fb8:	60fb      	str	r3, [r7, #12]
 8000fba:	68fb      	ldr	r3, [r7, #12]
 8000fbc:	f44f 7300 	mov.w	r3, #512	; 0x200
 8000fc0:	613b      	str	r3, [r7, #16]
 8000fc2:	2302      	movs	r3, #2
 8000fc4:	617b      	str	r3, [r7, #20]
 8000fc6:	2302      	movs	r3, #2
 8000fc8:	61fb      	str	r3, [r7, #28]
 8000fca:	f107 0310 	add.w	r3, r7, #16
 8000fce:	4619      	mov	r1, r3
 8000fd0:	4814      	ldr	r0, [pc, #80]	; (8001024 <HAL_TIM_MspPostInit+0xa0>)
 8000fd2:	f001 f8df 	bl	8002194 <HAL_GPIO_Init>
 8000fd6:	e01c      	b.n	8001012 <HAL_TIM_MspPostInit+0x8e>
 8000fd8:	687b      	ldr	r3, [r7, #4]
 8000fda:	681b      	ldr	r3, [r3, #0]
 8000fdc:	4a12      	ldr	r2, [pc, #72]	; (8001028 <HAL_TIM_MspPostInit+0xa4>)
 8000fde:	4293      	cmp	r3, r2
 8000fe0:	d117      	bne.n	8001012 <HAL_TIM_MspPostInit+0x8e>
 8000fe2:	4b0f      	ldr	r3, [pc, #60]	; (8001020 <HAL_TIM_MspPostInit+0x9c>)
 8000fe4:	699b      	ldr	r3, [r3, #24]
 8000fe6:	4a0e      	ldr	r2, [pc, #56]	; (8001020 <HAL_TIM_MspPostInit+0x9c>)
 8000fe8:	f043 0304 	orr.w	r3, r3, #4
 8000fec:	6193      	str	r3, [r2, #24]
 8000fee:	4b0c      	ldr	r3, [pc, #48]	; (8001020 <HAL_TIM_MspPostInit+0x9c>)
 8000ff0:	699b      	ldr	r3, [r3, #24]
 8000ff2:	f003 0304 	and.w	r3, r3, #4
 8000ff6:	60bb      	str	r3, [r7, #8]
 8000ff8:	68bb      	ldr	r3, [r7, #8]
 8000ffa:	23c0      	movs	r3, #192	; 0xc0
 8000ffc:	613b      	str	r3, [r7, #16]
 8000ffe:	2302      	movs	r3, #2
 8001000:	617b      	str	r3, [r7, #20]
 8001002:	2302      	movs	r3, #2
 8001004:	61fb      	str	r3, [r7, #28]
 8001006:	f107 0310 	add.w	r3, r7, #16
 800100a:	4619      	mov	r1, r3
 800100c:	4805      	ldr	r0, [pc, #20]	; (8001024 <HAL_TIM_MspPostInit+0xa0>)
 800100e:	f001 f8c1 	bl	8002194 <HAL_GPIO_Init>
 8001012:	bf00      	nop
 8001014:	3720      	adds	r7, #32
 8001016:	46bd      	mov	sp, r7
 8001018:	bd80      	pop	{r7, pc}
 800101a:	bf00      	nop
 800101c:	40012c00 	.word	0x40012c00
 8001020:	40021000 	.word	0x40021000
 8001024:	40010800 	.word	0x40010800
 8001028:	40000400 	.word	0x40000400

0800102c <HAL_UART_MspInit>:
 800102c:	b580      	push	{r7, lr}
 800102e:	b088      	sub	sp, #32
 8001030:	af00      	add	r7, sp, #0
 8001032:	6078      	str	r0, [r7, #4]
 8001034:	f107 0310 	add.w	r3, r7, #16
 8001038:	2200      	movs	r2, #0
 800103a:	601a      	str	r2, [r3, #0]
 800103c:	605a      	str	r2, [r3, #4]
 800103e:	609a      	str	r2, [r3, #8]
 8001040:	60da      	str	r2, [r3, #12]
 8001042:	687b      	ldr	r3, [r7, #4]
 8001044:	681b      	ldr	r3, [r3, #0]
 8001046:	4a15      	ldr	r2, [pc, #84]	; (800109c <HAL_UART_MspInit+0x70>)
 8001048:	4293      	cmp	r3, r2
 800104a:	d123      	bne.n	8001094 <HAL_UART_MspInit+0x68>
 800104c:	4b14      	ldr	r3, [pc, #80]	; (80010a0 <HAL_UART_MspInit+0x74>)
 800104e:	69db      	ldr	r3, [r3, #28]
 8001050:	4a13      	ldr	r2, [pc, #76]	; (80010a0 <HAL_UART_MspInit+0x74>)
 8001052:	f443 3300 	orr.w	r3, r3, #131072	; 0x20000
 8001056:	61d3      	str	r3, [r2, #28]
 8001058:	4b11      	ldr	r3, [pc, #68]	; (80010a0 <HAL_UART_MspInit+0x74>)
 800105a:	69db      	ldr	r3, [r3, #28]
 800105c:	f403 3300 	and.w	r3, r3, #131072	; 0x20000
 8001060:	60fb      	str	r3, [r7, #12]
 8001062:	68fb      	ldr	r3, [r7, #12]
 8001064:	4b0e      	ldr	r3, [pc, #56]	; (80010a0 <HAL_UART_MspInit+0x74>)
 8001066:	699b      	ldr	r3, [r3, #24]
 8001068:	4a0d      	ldr	r2, [pc, #52]	; (80010a0 <HAL_UART_MspInit+0x74>)
 800106a:	f043 0304 	orr.w	r3, r3, #4
 800106e:	6193      	str	r3, [r2, #24]
 8001070:	4b0b      	ldr	r3, [pc, #44]	; (80010a0 <HAL_UART_MspInit+0x74>)
 8001072:	699b      	ldr	r3, [r3, #24]
 8001074:	f003 0304 	and.w	r3, r3, #4
 8001078:	60bb      	str	r3, [r7, #8]
 800107a:	68bb      	ldr	r3, [r7, #8]
 800107c:	230c      	movs	r3, #12
 800107e:	613b      	str	r3, [r7, #16]
 8001080:	2302      	movs	r3, #2
 8001082:	617b      	str	r3, [r7, #20]
 8001084:	2302      	movs	r3, #2
 8001086:	61fb      	str	r3, [r7, #28]
 8001088:	f107 0310 	add.w	r3, r7, #16
 800108c:	4619      	mov	r1, r3
 800108e:	4805      	ldr	r0, [pc, #20]	; (80010a4 <HAL_UART_MspInit+0x78>)
 8001090:	f001 f880 	bl	8002194 <HAL_GPIO_Init>
 8001094:	bf00      	nop
 8001096:	3720      	adds	r7, #32
 8001098:	46bd      	mov	sp, r7
 800109a:	bd80      	pop	{r7, pc}
 800109c:	40004400 	.word	0x40004400
 80010a0:	40021000 	.word	0x40021000
 80010a4:	40010800 	.word	0x40010800

080010a8 <NMI_Handler>:
 80010a8:	b480      	push	{r7}
 80010aa:	af00      	add	r7, sp, #0
 80010ac:	e7fe      	b.n	80010ac <NMI_Handler+0x4>

080010ae <HardFault_Handler>:
 80010ae:	b480      	push	{r7}
 80010b0:	af00      	add	r7, sp, #0
 80010b2:	e7fe      	b.n	80010b2 <HardFault_Handler+0x4>

080010b4 <MemManage_Handler>:
 80010b4:	b480      	push	{r7}
 80010b6:	af00      	add	r7, sp, #0
 80010b8:	e7fe      	b.n	80010b8 <MemManage_Handler+0x4>

080010ba <BusFault_Handler>:
 80010ba:	b480      	push	{r7}
 80010bc:	af00      	add	r7, sp, #0
 80010be:	e7fe      	b.n	80010be <BusFault_Handler+0x4>

080010c0 <UsageFault_Handler>:
 80010c0:	b480      	push	{r7}
 80010c2:	af00      	add	r7, sp, #0
 80010c4:	e7fe      	b.n	80010c4 <UsageFault_Handler+0x4>

080010c6 <SVC_Handler>:
 80010c6:	b480      	push	{r7}
 80010c8:	af00      	add	r7, sp, #0
 80010ca:	bf00      	nop
 80010cc:	46bd      	mov	sp, r7
 80010ce:	bc80      	pop	{r7}
 80010d0:	4770      	bx	lr

080010d2 <DebugMon_Handler>:
 80010d2:	b480      	push	{r7}
 80010d4:	af00      	add	r7, sp, #0
 80010d6:	bf00      	nop
 80010d8:	46bd      	mov	sp, r7
 80010da:	bc80      	pop	{r7}
 80010dc:	4770      	bx	lr

080010de <PendSV_Handler>:
 80010de:	b480      	push	{r7}
 80010e0:	af00      	add	r7, sp, #0
 80010e2:	bf00      	nop
 80010e4:	46bd      	mov	sp, r7
 80010e6:	bc80      	pop	{r7}
 80010e8:	4770      	bx	lr

080010ea <SysTick_Handler>:
 80010ea:	b580      	push	{r7, lr}
 80010ec:	af00      	add	r7, sp, #0
 80010ee:	f000 f949 	bl	8001384 <HAL_IncTick>
 80010f2:	bf00      	nop
 80010f4:	bd80      	pop	{r7, pc}

080010f6 <EXTI4_IRQHandler>:
 80010f6:	b580      	push	{r7, lr}
 80010f8:	af00      	add	r7, sp, #0
 80010fa:	2010      	movs	r0, #16
 80010fc:	f001 f9e6 	bl	80024cc <HAL_GPIO_EXTI_IRQHandler>
 8001100:	bf00      	nop
 8001102:	bd80      	pop	{r7, pc}

08001104 <DMA1_Channel1_IRQHandler>:
 8001104:	b580      	push	{r7, lr}
 8001106:	af00      	add	r7, sp, #0
 8001108:	4802      	ldr	r0, [pc, #8]	; (8001114 <DMA1_Channel1_IRQHandler+0x10>)
 800110a:	f000 ff0f 	bl	8001f2c <HAL_DMA_IRQHandler>
 800110e:	bf00      	nop
 8001110:	bd80      	pop	{r7, pc}
 8001112:	bf00      	nop
 8001114:	200000c0 	.word	0x200000c0

08001118 <EXTI9_5_IRQHandler>:
 8001118:	b580      	push	{r7, lr}
 800111a:	af00      	add	r7, sp, #0
 800111c:	f44f 7080 	mov.w	r0, #256	; 0x100
 8001120:	f001 f9d4 	bl	80024cc <HAL_GPIO_EXTI_IRQHandler>
 8001124:	bf00      	nop
 8001126:	bd80      	pop	{r7, pc}

08001128 <TIM2_IRQHandler>:
 8001128:	b580      	push	{r7, lr}
 800112a:	af00      	add	r7, sp, #0
 800112c:	4802      	ldr	r0, [pc, #8]	; (8001138 <TIM2_IRQHandler+0x10>)
 800112e:	f002 fec3 	bl	8003eb8 <HAL_TIM_IRQHandler>
 8001132:	bf00      	nop
 8001134:	bd80      	pop	{r7, pc}
 8001136:	bf00      	nop
 8001138:	200001a0 	.word	0x200001a0

0800113c <TIM3_IRQHandler>:
 800113c:	b580      	push	{r7, lr}
 800113e:	af00      	add	r7, sp, #0
 8001140:	4802      	ldr	r0, [pc, #8]	; (800114c <TIM3_IRQHandler+0x10>)
 8001142:	f002 feb9 	bl	8003eb8 <HAL_TIM_IRQHandler>
 8001146:	bf00      	nop
 8001148:	bd80      	pop	{r7, pc}
 800114a:	bf00      	nop
 800114c:	200001e8 	.word	0x200001e8

08001150 <EXTI15_10_IRQHandler>:
 8001150:	b580      	push	{r7, lr}
 8001152:	af00      	add	r7, sp, #0
 8001154:	f44f 5000 	mov.w	r0, #8192	; 0x2000
 8001158:	f001 f9b8 	bl	80024cc <HAL_GPIO_EXTI_IRQHandler>
 800115c:	bf00      	nop
 800115e:	bd80      	pop	{r7, pc}

08001160 <_read>:
 8001160:	b580      	push	{r7, lr}
 8001162:	b086      	sub	sp, #24
 8001164:	af00      	add	r7, sp, #0
 8001166:	60f8      	str	r0, [r7, #12]
 8001168:	60b9      	str	r1, [r7, #8]
 800116a:	607a      	str	r2, [r7, #4]
 800116c:	2300      	movs	r3, #0
 800116e:	617b      	str	r3, [r7, #20]
 8001170:	e00a      	b.n	8001188 <_read+0x28>
 8001172:	f3af 8000 	nop.w
 8001176:	4601      	mov	r1, r0
 8001178:	68bb      	ldr	r3, [r7, #8]
 800117a:	1c5a      	adds	r2, r3, #1
 800117c:	60ba      	str	r2, [r7, #8]
 800117e:	b2ca      	uxtb	r2, r1
 8001180:	701a      	strb	r2, [r3, #0]
 8001182:	697b      	ldr	r3, [r7, #20]
 8001184:	3301      	adds	r3, #1
 8001186:	617b      	str	r3, [r7, #20]
 8001188:	697a      	ldr	r2, [r7, #20]
 800118a:	687b      	ldr	r3, [r7, #4]
 800118c:	429a      	cmp	r2, r3
 800118e:	dbf0      	blt.n	8001172 <_read+0x12>
 8001190:	687b      	ldr	r3, [r7, #4]
 8001192:	4618      	mov	r0, r3
 8001194:	3718      	adds	r7, #24
 8001196:	46bd      	mov	sp, r7
 8001198:	bd80      	pop	{r7, pc}

0800119a <_write>:
 800119a:	b580      	push	{r7, lr}
 800119c:	b086      	sub	sp, #24
 800119e:	af00      	add	r7, sp, #0
 80011a0:	60f8      	str	r0, [r7, #12]
 80011a2:	60b9      	str	r1, [r7, #8]
 80011a4:	607a      	str	r2, [r7, #4]
 80011a6:	2300      	movs	r3, #0
 80011a8:	617b      	str	r3, [r7, #20]
 80011aa:	e009      	b.n	80011c0 <_write+0x26>
 80011ac:	68bb      	ldr	r3, [r7, #8]
 80011ae:	1c5a      	adds	r2, r3, #1
 80011b0:	60ba      	str	r2, [r7, #8]
 80011b2:	781b      	ldrb	r3, [r3, #0]
 80011b4:	4618      	mov	r0, r3
 80011b6:	f7ff f93d 	bl	8000434 <__io_putchar>
 80011ba:	697b      	ldr	r3, [r7, #20]
 80011bc:	3301      	adds	r3, #1
 80011be:	617b      	str	r3, [r7, #20]
 80011c0:	697a      	ldr	r2, [r7, #20]
 80011c2:	687b      	ldr	r3, [r7, #4]
 80011c4:	429a      	cmp	r2, r3
 80011c6:	dbf1      	blt.n	80011ac <_write+0x12>
 80011c8:	687b      	ldr	r3, [r7, #4]
 80011ca:	4618      	mov	r0, r3
 80011cc:	3718      	adds	r7, #24
 80011ce:	46bd      	mov	sp, r7
 80011d0:	bd80      	pop	{r7, pc}

080011d2 <_close>:
 80011d2:	b480      	push	{r7}
 80011d4:	b083      	sub	sp, #12
 80011d6:	af00      	add	r7, sp, #0
 80011d8:	6078      	str	r0, [r7, #4]
 80011da:	f04f 33ff 	mov.w	r3, #4294967295
 80011de:	4618      	mov	r0, r3
 80011e0:	370c      	adds	r7, #12
 80011e2:	46bd      	mov	sp, r7
 80011e4:	bc80      	pop	{r7}
 80011e6:	4770      	bx	lr

080011e8 <_fstat>:
 80011e8:	b480      	push	{r7}
 80011ea:	b083      	sub	sp, #12
 80011ec:	af00      	add	r7, sp, #0
 80011ee:	6078      	str	r0, [r7, #4]
 80011f0:	6039      	str	r1, [r7, #0]
 80011f2:	683b      	ldr	r3, [r7, #0]
 80011f4:	f44f 5200 	mov.w	r2, #8192	; 0x2000
 80011f8:	605a      	str	r2, [r3, #4]
 80011fa:	2300      	movs	r3, #0
 80011fc:	4618      	mov	r0, r3
 80011fe:	370c      	adds	r7, #12
 8001200:	46bd      	mov	sp, r7
 8001202:	bc80      	pop	{r7}
 8001204:	4770      	bx	lr

08001206 <_isatty>:
 8001206:	b480      	push	{r7}
 8001208:	b083      	sub	sp, #12
 800120a:	af00      	add	r7, sp, #0
 800120c:	6078      	str	r0, [r7, #4]
 800120e:	2301      	movs	r3, #1
 8001210:	4618      	mov	r0, r3
 8001212:	370c      	adds	r7, #12
 8001214:	46bd      	mov	sp, r7
 8001216:	bc80      	pop	{r7}
 8001218:	4770      	bx	lr

0800121a <_lseek>:
 800121a:	b480      	push	{r7}
 800121c:	b085      	sub	sp, #20
 800121e:	af00      	add	r7, sp, #0
 8001220:	60f8      	str	r0, [r7, #12]
 8001222:	60b9      	str	r1, [r7, #8]
 8001224:	607a      	str	r2, [r7, #4]
 8001226:	2300      	movs	r3, #0
 8001228:	4618      	mov	r0, r3
 800122a:	3714      	adds	r7, #20
 800122c:	46bd      	mov	sp, r7
 800122e:	bc80      	pop	{r7}
 8001230:	4770      	bx	lr
	...

08001234 <_sbrk>:
 8001234:	b580      	push	{r7, lr}
 8001236:	b086      	sub	sp, #24
 8001238:	af00      	add	r7, sp, #0
 800123a:	6078      	str	r0, [r7, #4]
 800123c:	4a14      	ldr	r2, [pc, #80]	; (8001290 <_sbrk+0x5c>)
 800123e:	4b15      	ldr	r3, [pc, #84]	; (8001294 <_sbrk+0x60>)
 8001240:	1ad3      	subs	r3, r2, r3
 8001242:	617b      	str	r3, [r7, #20]
 8001244:	697b      	ldr	r3, [r7, #20]
 8001246:	613b      	str	r3, [r7, #16]
 8001248:	4b13      	ldr	r3, [pc, #76]	; (8001298 <_sbrk+0x64>)
 800124a:	681b      	ldr	r3, [r3, #0]
 800124c:	2b00      	cmp	r3, #0
 800124e:	d102      	bne.n	8001256 <_sbrk+0x22>
 8001250:	4b11      	ldr	r3, [pc, #68]	; (8001298 <_sbrk+0x64>)
 8001252:	4a12      	ldr	r2, [pc, #72]	; (800129c <_sbrk+0x68>)
 8001254:	601a      	str	r2, [r3, #0]
 8001256:	4b10      	ldr	r3, [pc, #64]	; (8001298 <_sbrk+0x64>)
 8001258:	681a      	ldr	r2, [r3, #0]
 800125a:	687b      	ldr	r3, [r7, #4]
 800125c:	4413      	add	r3, r2
 800125e:	693a      	ldr	r2, [r7, #16]
 8001260:	429a      	cmp	r2, r3
 8001262:	d207      	bcs.n	8001274 <_sbrk+0x40>
 8001264:	f003 fe38 	bl	8004ed8 <__errno>
 8001268:	4603      	mov	r3, r0
 800126a:	220c      	movs	r2, #12
 800126c:	601a      	str	r2, [r3, #0]
 800126e:	f04f 33ff 	mov.w	r3, #4294967295
 8001272:	e009      	b.n	8001288 <_sbrk+0x54>
 8001274:	4b08      	ldr	r3, [pc, #32]	; (8001298 <_sbrk+0x64>)
 8001276:	681b      	ldr	r3, [r3, #0]
 8001278:	60fb      	str	r3, [r7, #12]
 800127a:	4b07      	ldr	r3, [pc, #28]	; (8001298 <_sbrk+0x64>)
 800127c:	681a      	ldr	r2, [r3, #0]
 800127e:	687b      	ldr	r3, [r7, #4]
 8001280:	4413      	add	r3, r2
 8001282:	4a05      	ldr	r2, [pc, #20]	; (8001298 <_sbrk+0x64>)
 8001284:	6013      	str	r3, [r2, #0]
 8001286:	68fb      	ldr	r3, [r7, #12]
 8001288:	4618      	mov	r0, r3
 800128a:	3718      	adds	r7, #24
 800128c:	46bd      	mov	sp, r7
 800128e:	bd80      	pop	{r7, pc}
 8001290:	20005000 	.word	0x20005000
 8001294:	00000400 	.word	0x00000400
 8001298:	2000029c 	.word	0x2000029c
 800129c:	200002b8 	.word	0x200002b8

080012a0 <SystemInit>:
 80012a0:	b480      	push	{r7}
 80012a2:	af00      	add	r7, sp, #0
 80012a4:	bf00      	nop
 80012a6:	46bd      	mov	sp, r7
 80012a8:	bc80      	pop	{r7}
 80012aa:	4770      	bx	lr

080012ac <Reset_Handler>:
 80012ac:	480c      	ldr	r0, [pc, #48]	; (80012e0 <LoopFillZerobss+0x12>)
 80012ae:	490d      	ldr	r1, [pc, #52]	; (80012e4 <LoopFillZerobss+0x16>)
 80012b0:	4a0d      	ldr	r2, [pc, #52]	; (80012e8 <LoopFillZerobss+0x1a>)
 80012b2:	2300      	movs	r3, #0
 80012b4:	e002      	b.n	80012bc <LoopCopyDataInit>

080012b6 <CopyDataInit>:
 80012b6:	58d4      	ldr	r4, [r2, r3]
 80012b8:	50c4      	str	r4, [r0, r3]
 80012ba:	3304      	adds	r3, #4

080012bc <LoopCopyDataInit>:
 80012bc:	18c4      	adds	r4, r0, r3
 80012be:	428c      	cmp	r4, r1
 80012c0:	d3f9      	bcc.n	80012b6 <CopyDataInit>
 80012c2:	4a0a      	ldr	r2, [pc, #40]	; (80012ec <LoopFillZerobss+0x1e>)
 80012c4:	4c0a      	ldr	r4, [pc, #40]	; (80012f0 <LoopFillZerobss+0x22>)
 80012c6:	2300      	movs	r3, #0
 80012c8:	e001      	b.n	80012ce <LoopFillZerobss>

080012ca <FillZerobss>:
 80012ca:	6013      	str	r3, [r2, #0]
 80012cc:	3204      	adds	r2, #4

080012ce <LoopFillZerobss>:
 80012ce:	42a2      	cmp	r2, r4
 80012d0:	d3fb      	bcc.n	80012ca <FillZerobss>
 80012d2:	f7ff ffe5 	bl	80012a0 <SystemInit>
 80012d6:	f003 fe05 	bl	8004ee4 <__libc_init_array>
 80012da:	f7ff f8bd 	bl	8000458 <main>
 80012de:	4770      	bx	lr
 80012e0:	20000000 	.word	0x20000000
 80012e4:	20000074 	.word	0x20000074
 80012e8:	08006364 	.word	0x08006364
 80012ec:	20000074 	.word	0x20000074
 80012f0:	200002b4 	.word	0x200002b4

080012f4 <ADC1_2_IRQHandler>:
 80012f4:	e7fe      	b.n	80012f4 <ADC1_2_IRQHandler>
	...

080012f8 <HAL_Init>:
 80012f8:	b580      	push	{r7, lr}
 80012fa:	af00      	add	r7, sp, #0
 80012fc:	4b08      	ldr	r3, [pc, #32]	; (8001320 <HAL_Init+0x28>)
 80012fe:	681b      	ldr	r3, [r3, #0]
 8001300:	4a07      	ldr	r2, [pc, #28]	; (8001320 <HAL_Init+0x28>)
 8001302:	f043 0310 	orr.w	r3, r3, #16
 8001306:	6013      	str	r3, [r2, #0]
 8001308:	2003      	movs	r0, #3
 800130a:	f000 fd13 	bl	8001d34 <HAL_NVIC_SetPriorityGrouping>
 800130e:	2000      	movs	r0, #0
 8001310:	f000 f808 	bl	8001324 <HAL_InitTick>
 8001314:	f7ff fd0a 	bl	8000d2c <HAL_MspInit>
 8001318:	2300      	movs	r3, #0
 800131a:	4618      	mov	r0, r3
 800131c:	bd80      	pop	{r7, pc}
 800131e:	bf00      	nop
 8001320:	40022000 	.word	0x40022000

08001324 <HAL_InitTick>:
 8001324:	b580      	push	{r7, lr}
 8001326:	b082      	sub	sp, #8
 8001328:	af00      	add	r7, sp, #0
 800132a:	6078      	str	r0, [r7, #4]
 800132c:	4b12      	ldr	r3, [pc, #72]	; (8001378 <HAL_InitTick+0x54>)
 800132e:	681a      	ldr	r2, [r3, #0]
 8001330:	4b12      	ldr	r3, [pc, #72]	; (800137c <HAL_InitTick+0x58>)
 8001332:	781b      	ldrb	r3, [r3, #0]
 8001334:	4619      	mov	r1, r3
 8001336:	f44f 737a 	mov.w	r3, #1000	; 0x3e8
 800133a:	fbb3 f3f1 	udiv	r3, r3, r1
 800133e:	fbb2 f3f3 	udiv	r3, r2, r3
 8001342:	4618      	mov	r0, r3
 8001344:	f000 fd2b 	bl	8001d9e <HAL_SYSTICK_Config>
 8001348:	4603      	mov	r3, r0
 800134a:	2b00      	cmp	r3, #0
 800134c:	d001      	beq.n	8001352 <HAL_InitTick+0x2e>
 800134e:	2301      	movs	r3, #1
 8001350:	e00e      	b.n	8001370 <HAL_InitTick+0x4c>
 8001352:	687b      	ldr	r3, [r7, #4]
 8001354:	2b0f      	cmp	r3, #15
 8001356:	d80a      	bhi.n	800136e <HAL_InitTick+0x4a>
 8001358:	2200      	movs	r2, #0
 800135a:	6879      	ldr	r1, [r7, #4]
 800135c:	f04f 30ff 	mov.w	r0, #4294967295
 8001360:	f000 fcf3 	bl	8001d4a <HAL_NVIC_SetPriority>
 8001364:	4a06      	ldr	r2, [pc, #24]	; (8001380 <HAL_InitTick+0x5c>)
 8001366:	687b      	ldr	r3, [r7, #4]
 8001368:	6013      	str	r3, [r2, #0]
 800136a:	2300      	movs	r3, #0
 800136c:	e000      	b.n	8001370 <HAL_InitTick+0x4c>
 800136e:	2301      	movs	r3, #1
 8001370:	4618      	mov	r0, r3
 8001372:	3708      	adds	r7, #8
 8001374:	46bd      	mov	sp, r7
 8001376:	bd80      	pop	{r7, pc}
 8001378:	20000004 	.word	0x20000004
 800137c:	2000000c 	.word	0x2000000c
 8001380:	20000008 	.word	0x20000008

08001384 <HAL_IncTick>:
 8001384:	b480      	push	{r7}
 8001386:	af00      	add	r7, sp, #0
 8001388:	4b05      	ldr	r3, [pc, #20]	; (80013a0 <HAL_IncTick+0x1c>)
 800138a:	781b      	ldrb	r3, [r3, #0]
 800138c:	461a      	mov	r2, r3
 800138e:	4b05      	ldr	r3, [pc, #20]	; (80013a4 <HAL_IncTick+0x20>)
 8001390:	681b      	ldr	r3, [r3, #0]
 8001392:	4413      	add	r3, r2
 8001394:	4a03      	ldr	r2, [pc, #12]	; (80013a4 <HAL_IncTick+0x20>)
 8001396:	6013      	str	r3, [r2, #0]
 8001398:	bf00      	nop
 800139a:	46bd      	mov	sp, r7
 800139c:	bc80      	pop	{r7}
 800139e:	4770      	bx	lr
 80013a0:	2000000c 	.word	0x2000000c
 80013a4:	200002a0 	.word	0x200002a0

080013a8 <HAL_GetTick>:
 80013a8:	b480      	push	{r7}
 80013aa:	af00      	add	r7, sp, #0
 80013ac:	4b02      	ldr	r3, [pc, #8]	; (80013b8 <HAL_GetTick+0x10>)
 80013ae:	681b      	ldr	r3, [r3, #0]
 80013b0:	4618      	mov	r0, r3
 80013b2:	46bd      	mov	sp, r7
 80013b4:	bc80      	pop	{r7}
 80013b6:	4770      	bx	lr
 80013b8:	200002a0 	.word	0x200002a0

080013bc <HAL_Delay>:
 80013bc:	b580      	push	{r7, lr}
 80013be:	b084      	sub	sp, #16
 80013c0:	af00      	add	r7, sp, #0
 80013c2:	6078      	str	r0, [r7, #4]
 80013c4:	f7ff fff0 	bl	80013a8 <HAL_GetTick>
 80013c8:	60b8      	str	r0, [r7, #8]
 80013ca:	687b      	ldr	r3, [r7, #4]
 80013cc:	60fb      	str	r3, [r7, #12]
 80013ce:	68fb      	ldr	r3, [r7, #12]
 80013d0:	f1b3 3fff 	cmp.w	r3, #4294967295
 80013d4:	d005      	beq.n	80013e2 <HAL_Delay+0x26>
 80013d6:	4b0a      	ldr	r3, [pc, #40]	; (8001400 <HAL_Delay+0x44>)
 80013d8:	781b      	ldrb	r3, [r3, #0]
 80013da:	461a      	mov	r2, r3
 80013dc:	68fb      	ldr	r3, [r7, #12]
 80013de:	4413      	add	r3, r2
 80013e0:	60fb      	str	r3, [r7, #12]
 80013e2:	bf00      	nop
 80013e4:	f7ff ffe0 	bl	80013a8 <HAL_GetTick>
 80013e8:	4602      	mov	r2, r0
 80013ea:	68bb      	ldr	r3, [r7, #8]
 80013ec:	1ad3      	subs	r3, r2, r3
 80013ee:	68fa      	ldr	r2, [r7, #12]
 80013f0:	429a      	cmp	r2, r3
 80013f2:	d8f7      	bhi.n	80013e4 <HAL_Delay+0x28>
 80013f4:	bf00      	nop
 80013f6:	bf00      	nop
 80013f8:	3710      	adds	r7, #16
 80013fa:	46bd      	mov	sp, r7
 80013fc:	bd80      	pop	{r7, pc}
 80013fe:	bf00      	nop
 8001400:	2000000c 	.word	0x2000000c

08001404 <HAL_ADC_Init>:
 8001404:	b580      	push	{r7, lr}
 8001406:	b086      	sub	sp, #24
 8001408:	af00      	add	r7, sp, #0
 800140a:	6078      	str	r0, [r7, #4]
 800140c:	2300      	movs	r3, #0
 800140e:	75fb      	strb	r3, [r7, #23]
 8001410:	2300      	movs	r3, #0
 8001412:	613b      	str	r3, [r7, #16]
 8001414:	2300      	movs	r3, #0
 8001416:	60bb      	str	r3, [r7, #8]
 8001418:	2300      	movs	r3, #0
 800141a:	60fb      	str	r3, [r7, #12]
 800141c:	687b      	ldr	r3, [r7, #4]
 800141e:	2b00      	cmp	r3, #0
 8001420:	d101      	bne.n	8001426 <HAL_ADC_Init+0x22>
 8001422:	2301      	movs	r3, #1
 8001424:	e0be      	b.n	80015a4 <HAL_ADC_Init+0x1a0>
 8001426:	687b      	ldr	r3, [r7, #4]
 8001428:	689b      	ldr	r3, [r3, #8]
 800142a:	2b00      	cmp	r3, #0
 800142c:	687b      	ldr	r3, [r7, #4]
 800142e:	6a9b      	ldr	r3, [r3, #40]	; 0x28
 8001430:	2b00      	cmp	r3, #0
 8001432:	d109      	bne.n	8001448 <HAL_ADC_Init+0x44>
 8001434:	687b      	ldr	r3, [r7, #4]
 8001436:	2200      	movs	r2, #0
 8001438:	62da      	str	r2, [r3, #44]	; 0x2c
 800143a:	687b      	ldr	r3, [r7, #4]
 800143c:	2200      	movs	r2, #0
 800143e:	f883 2024 	strb.w	r2, [r3, #36]	; 0x24
 8001442:	6878      	ldr	r0, [r7, #4]
 8001444:	f7ff fca4 	bl	8000d90 <HAL_ADC_MspInit>
 8001448:	6878      	ldr	r0, [r7, #4]
 800144a:	f000 faff 	bl	8001a4c <ADC_ConversionStop_Disable>
 800144e:	4603      	mov	r3, r0
 8001450:	75fb      	strb	r3, [r7, #23]
 8001452:	687b      	ldr	r3, [r7, #4]
 8001454:	6a9b      	ldr	r3, [r3, #40]	; 0x28
 8001456:	f003 0310 	and.w	r3, r3, #16
 800145a:	2b00      	cmp	r3, #0
 800145c:	f040 8099 	bne.w	8001592 <HAL_ADC_Init+0x18e>
 8001460:	7dfb      	ldrb	r3, [r7, #23]
 8001462:	2b00      	cmp	r3, #0
 8001464:	f040 8095 	bne.w	8001592 <HAL_ADC_Init+0x18e>
 8001468:	687b      	ldr	r3, [r7, #4]
 800146a:	6a9b      	ldr	r3, [r3, #40]	; 0x28
 800146c:	f423 5388 	bic.w	r3, r3, #4352	; 0x1100
 8001470:	f023 0302 	bic.w	r3, r3, #2
 8001474:	f043 0202 	orr.w	r2, r3, #2
 8001478:	687b      	ldr	r3, [r7, #4]
 800147a:	629a      	str	r2, [r3, #40]	; 0x28
 800147c:	687b      	ldr	r3, [r7, #4]
 800147e:	685a      	ldr	r2, [r3, #4]
 8001480:	687b      	ldr	r3, [r7, #4]
 8001482:	69db      	ldr	r3, [r3, #28]
 8001484:	431a      	orrs	r2, r3
 8001486:	687b      	ldr	r3, [r7, #4]
 8001488:	7b1b      	ldrb	r3, [r3, #12]
 800148a:	005b      	lsls	r3, r3, #1
 800148c:	4313      	orrs	r3, r2
 800148e:	68ba      	ldr	r2, [r7, #8]
 8001490:	4313      	orrs	r3, r2
 8001492:	60bb      	str	r3, [r7, #8]
 8001494:	687b      	ldr	r3, [r7, #4]
 8001496:	689b      	ldr	r3, [r3, #8]
 8001498:	f5b3 7f80 	cmp.w	r3, #256	; 0x100
 800149c:	d003      	beq.n	80014a6 <HAL_ADC_Init+0xa2>
 800149e:	687b      	ldr	r3, [r7, #4]
 80014a0:	689b      	ldr	r3, [r3, #8]
 80014a2:	2b01      	cmp	r3, #1
 80014a4:	d102      	bne.n	80014ac <HAL_ADC_Init+0xa8>
 80014a6:	f44f 7380 	mov.w	r3, #256	; 0x100
 80014aa:	e000      	b.n	80014ae <HAL_ADC_Init+0xaa>
 80014ac:	2300      	movs	r3, #0
 80014ae:	693a      	ldr	r2, [r7, #16]
 80014b0:	4313      	orrs	r3, r2
 80014b2:	613b      	str	r3, [r7, #16]
 80014b4:	687b      	ldr	r3, [r7, #4]
 80014b6:	7d1b      	ldrb	r3, [r3, #20]
 80014b8:	2b01      	cmp	r3, #1
 80014ba:	d119      	bne.n	80014f0 <HAL_ADC_Init+0xec>
 80014bc:	687b      	ldr	r3, [r7, #4]
 80014be:	7b1b      	ldrb	r3, [r3, #12]
 80014c0:	2b00      	cmp	r3, #0
 80014c2:	d109      	bne.n	80014d8 <HAL_ADC_Init+0xd4>
 80014c4:	687b      	ldr	r3, [r7, #4]
 80014c6:	699b      	ldr	r3, [r3, #24]
 80014c8:	3b01      	subs	r3, #1
 80014ca:	035a      	lsls	r2, r3, #13
 80014cc:	693b      	ldr	r3, [r7, #16]
 80014ce:	4313      	orrs	r3, r2
 80014d0:	f443 6300 	orr.w	r3, r3, #2048	; 0x800
 80014d4:	613b      	str	r3, [r7, #16]
 80014d6:	e00b      	b.n	80014f0 <HAL_ADC_Init+0xec>
 80014d8:	687b      	ldr	r3, [r7, #4]
 80014da:	6a9b      	ldr	r3, [r3, #40]	; 0x28
 80014dc:	f043 0220 	orr.w	r2, r3, #32
 80014e0:	687b      	ldr	r3, [r7, #4]
 80014e2:	629a      	str	r2, [r3, #40]	; 0x28
 80014e4:	687b      	ldr	r3, [r7, #4]
 80014e6:	6adb      	ldr	r3, [r3, #44]	; 0x2c
 80014e8:	f043 0201 	orr.w	r2, r3, #1
 80014ec:	687b      	ldr	r3, [r7, #4]
 80014ee:	62da      	str	r2, [r3, #44]	; 0x2c
 80014f0:	687b      	ldr	r3, [r7, #4]
 80014f2:	681b      	ldr	r3, [r3, #0]
 80014f4:	685b      	ldr	r3, [r3, #4]
 80014f6:	f423 4169 	bic.w	r1, r3, #59648	; 0xe900
 80014fa:	687b      	ldr	r3, [r7, #4]
 80014fc:	681b      	ldr	r3, [r3, #0]
 80014fe:	693a      	ldr	r2, [r7, #16]
 8001500:	430a      	orrs	r2, r1
 8001502:	605a      	str	r2, [r3, #4]
 8001504:	687b      	ldr	r3, [r7, #4]
 8001506:	681b      	ldr	r3, [r3, #0]
 8001508:	689a      	ldr	r2, [r3, #8]
 800150a:	4b28      	ldr	r3, [pc, #160]	; (80015ac <HAL_ADC_Init+0x1a8>)
 800150c:	4013      	ands	r3, r2
 800150e:	687a      	ldr	r2, [r7, #4]
 8001510:	6812      	ldr	r2, [r2, #0]
 8001512:	68b9      	ldr	r1, [r7, #8]
 8001514:	430b      	orrs	r3, r1
 8001516:	6093      	str	r3, [r2, #8]
 8001518:	687b      	ldr	r3, [r7, #4]
 800151a:	689b      	ldr	r3, [r3, #8]
 800151c:	f5b3 7f80 	cmp.w	r3, #256	; 0x100
 8001520:	d003      	beq.n	800152a <HAL_ADC_Init+0x126>
 8001522:	687b      	ldr	r3, [r7, #4]
 8001524:	689b      	ldr	r3, [r3, #8]
 8001526:	2b01      	cmp	r3, #1
 8001528:	d104      	bne.n	8001534 <HAL_ADC_Init+0x130>
 800152a:	687b      	ldr	r3, [r7, #4]
 800152c:	691b      	ldr	r3, [r3, #16]
 800152e:	3b01      	subs	r3, #1
 8001530:	051b      	lsls	r3, r3, #20
 8001532:	60fb      	str	r3, [r7, #12]
 8001534:	687b      	ldr	r3, [r7, #4]
 8001536:	681b      	ldr	r3, [r3, #0]
 8001538:	6adb      	ldr	r3, [r3, #44]	; 0x2c
 800153a:	f423 0170 	bic.w	r1, r3, #15728640	; 0xf00000
 800153e:	687b      	ldr	r3, [r7, #4]
 8001540:	681b      	ldr	r3, [r3, #0]
 8001542:	68fa      	ldr	r2, [r7, #12]
 8001544:	430a      	orrs	r2, r1
 8001546:	62da      	str	r2, [r3, #44]	; 0x2c
 8001548:	687b      	ldr	r3, [r7, #4]
 800154a:	681b      	ldr	r3, [r3, #0]
 800154c:	689a      	ldr	r2, [r3, #8]
 800154e:	4b18      	ldr	r3, [pc, #96]	; (80015b0 <HAL_ADC_Init+0x1ac>)
 8001550:	4013      	ands	r3, r2
 8001552:	68ba      	ldr	r2, [r7, #8]
 8001554:	429a      	cmp	r2, r3
 8001556:	d10b      	bne.n	8001570 <HAL_ADC_Init+0x16c>
 8001558:	687b      	ldr	r3, [r7, #4]
 800155a:	2200      	movs	r2, #0
 800155c:	62da      	str	r2, [r3, #44]	; 0x2c
 800155e:	687b      	ldr	r3, [r7, #4]
 8001560:	6a9b      	ldr	r3, [r3, #40]	; 0x28
 8001562:	f023 0303 	bic.w	r3, r3, #3
 8001566:	f043 0201 	orr.w	r2, r3, #1
 800156a:	687b      	ldr	r3, [r7, #4]
 800156c:	629a      	str	r2, [r3, #40]	; 0x28
 800156e:	e018      	b.n	80015a2 <HAL_ADC_Init+0x19e>
 8001570:	687b      	ldr	r3, [r7, #4]
 8001572:	6a9b      	ldr	r3, [r3, #40]	; 0x28
 8001574:	f023 0312 	bic.w	r3, r3, #18
 8001578:	f043 0210 	orr.w	r2, r3, #16
 800157c:	687b      	ldr	r3, [r7, #4]
 800157e:	629a      	str	r2, [r3, #40]	; 0x28
 8001580:	687b      	ldr	r3, [r7, #4]
 8001582:	6adb      	ldr	r3, [r3, #44]	; 0x2c
 8001584:	f043 0201 	orr.w	r2, r3, #1
 8001588:	687b      	ldr	r3, [r7, #4]
 800158a:	62da      	str	r2, [r3, #44]	; 0x2c
 800158c:	2301      	movs	r3, #1
 800158e:	75fb      	strb	r3, [r7, #23]
 8001590:	e007      	b.n	80015a2 <HAL_ADC_Init+0x19e>
 8001592:	687b      	ldr	r3, [r7, #4]
 8001594:	6a9b      	ldr	r3, [r3, #40]	; 0x28
 8001596:	f043 0210 	orr.w	r2, r3, #16
 800159a:	687b      	ldr	r3, [r7, #4]
 800159c:	629a      	str	r2, [r3, #40]	; 0x28
 800159e:	2301      	movs	r3, #1
 80015a0:	75fb      	strb	r3, [r7, #23]
 80015a2:	7dfb      	ldrb	r3, [r7, #23]
 80015a4:	4618      	mov	r0, r3
 80015a6:	3718      	adds	r7, #24
 80015a8:	46bd      	mov	sp, r7
 80015aa:	bd80      	pop	{r7, pc}
 80015ac:	ffe1f7fd 	.word	0xffe1f7fd
 80015b0:	ff1f0efe 	.word	0xff1f0efe

080015b4 <HAL_ADC_Start_DMA>:
 80015b4:	b580      	push	{r7, lr}
 80015b6:	b086      	sub	sp, #24
 80015b8:	af00      	add	r7, sp, #0
 80015ba:	60f8      	str	r0, [r7, #12]
 80015bc:	60b9      	str	r1, [r7, #8]
 80015be:	607a      	str	r2, [r7, #4]
 80015c0:	2300      	movs	r3, #0
 80015c2:	75fb      	strb	r3, [r7, #23]
 80015c4:	68fb      	ldr	r3, [r7, #12]
 80015c6:	681b      	ldr	r3, [r3, #0]
 80015c8:	4a64      	ldr	r2, [pc, #400]	; (800175c <HAL_ADC_Start_DMA+0x1a8>)
 80015ca:	4293      	cmp	r3, r2
 80015cc:	d004      	beq.n	80015d8 <HAL_ADC_Start_DMA+0x24>
 80015ce:	68fb      	ldr	r3, [r7, #12]
 80015d0:	681b      	ldr	r3, [r3, #0]
 80015d2:	4a63      	ldr	r2, [pc, #396]	; (8001760 <HAL_ADC_Start_DMA+0x1ac>)
 80015d4:	4293      	cmp	r3, r2
 80015d6:	d106      	bne.n	80015e6 <HAL_ADC_Start_DMA+0x32>
 80015d8:	4b60      	ldr	r3, [pc, #384]	; (800175c <HAL_ADC_Start_DMA+0x1a8>)
 80015da:	685b      	ldr	r3, [r3, #4]
 80015dc:	f403 2370 	and.w	r3, r3, #983040	; 0xf0000
 80015e0:	2b00      	cmp	r3, #0
 80015e2:	f040 80b3 	bne.w	800174c <HAL_ADC_Start_DMA+0x198>
 80015e6:	68fb      	ldr	r3, [r7, #12]
 80015e8:	f893 3024 	ldrb.w	r3, [r3, #36]	; 0x24
 80015ec:	2b01      	cmp	r3, #1
 80015ee:	d101      	bne.n	80015f4 <HAL_ADC_Start_DMA+0x40>
 80015f0:	2302      	movs	r3, #2
 80015f2:	e0ae      	b.n	8001752 <HAL_ADC_Start_DMA+0x19e>
 80015f4:	68fb      	ldr	r3, [r7, #12]
 80015f6:	2201      	movs	r2, #1
 80015f8:	f883 2024 	strb.w	r2, [r3, #36]	; 0x24
 80015fc:	68f8      	ldr	r0, [r7, #12]
 80015fe:	f000 f9cb 	bl	8001998 <ADC_Enable>
 8001602:	4603      	mov	r3, r0
 8001604:	75fb      	strb	r3, [r7, #23]
 8001606:	7dfb      	ldrb	r3, [r7, #23]
 8001608:	2b00      	cmp	r3, #0
 800160a:	f040 809a 	bne.w	8001742 <HAL_ADC_Start_DMA+0x18e>
 800160e:	68fb      	ldr	r3, [r7, #12]
 8001610:	6a9b      	ldr	r3, [r3, #40]	; 0x28
 8001612:	f423 6370 	bic.w	r3, r3, #3840	; 0xf00
 8001616:	f023 0301 	bic.w	r3, r3, #1
 800161a:	f443 7280 	orr.w	r2, r3, #256	; 0x100
 800161e:	68fb      	ldr	r3, [r7, #12]
 8001620:	629a      	str	r2, [r3, #40]	; 0x28
 8001622:	68fb      	ldr	r3, [r7, #12]
 8001624:	681b      	ldr	r3, [r3, #0]
 8001626:	4a4e      	ldr	r2, [pc, #312]	; (8001760 <HAL_ADC_Start_DMA+0x1ac>)
 8001628:	4293      	cmp	r3, r2
 800162a:	d105      	bne.n	8001638 <HAL_ADC_Start_DMA+0x84>
 800162c:	4b4b      	ldr	r3, [pc, #300]	; (800175c <HAL_ADC_Start_DMA+0x1a8>)
 800162e:	685b      	ldr	r3, [r3, #4]
 8001630:	f403 2370 	and.w	r3, r3, #983040	; 0xf0000
 8001634:	2b00      	cmp	r3, #0
 8001636:	d115      	bne.n	8001664 <HAL_ADC_Start_DMA+0xb0>
 8001638:	68fb      	ldr	r3, [r7, #12]
 800163a:	6a9b      	ldr	r3, [r3, #40]	; 0x28
 800163c:	f423 1280 	bic.w	r2, r3, #1048576	; 0x100000
 8001640:	68fb      	ldr	r3, [r7, #12]
 8001642:	629a      	str	r2, [r3, #40]	; 0x28
 8001644:	68fb      	ldr	r3, [r7, #12]
 8001646:	681b      	ldr	r3, [r3, #0]
 8001648:	685b      	ldr	r3, [r3, #4]
 800164a:	f403 6380 	and.w	r3, r3, #1024	; 0x400
 800164e:	2b00      	cmp	r3, #0
 8001650:	d026      	beq.n	80016a0 <HAL_ADC_Start_DMA+0xec>
 8001652:	68fb      	ldr	r3, [r7, #12]
 8001654:	6a9b      	ldr	r3, [r3, #40]	; 0x28
 8001656:	f423 5340 	bic.w	r3, r3, #12288	; 0x3000
 800165a:	f443 5280 	orr.w	r2, r3, #4096	; 0x1000
 800165e:	68fb      	ldr	r3, [r7, #12]
 8001660:	629a      	str	r2, [r3, #40]	; 0x28
 8001662:	e01d      	b.n	80016a0 <HAL_ADC_Start_DMA+0xec>
 8001664:	68fb      	ldr	r3, [r7, #12]
 8001666:	6a9b      	ldr	r3, [r3, #40]	; 0x28
 8001668:	f443 1280 	orr.w	r2, r3, #1048576	; 0x100000
 800166c:	68fb      	ldr	r3, [r7, #12]
 800166e:	629a      	str	r2, [r3, #40]	; 0x28
 8001670:	68fb      	ldr	r3, [r7, #12]
 8001672:	681b      	ldr	r3, [r3, #0]
 8001674:	4a39      	ldr	r2, [pc, #228]	; (800175c <HAL_ADC_Start_DMA+0x1a8>)
 8001676:	4293      	cmp	r3, r2
 8001678:	d004      	beq.n	8001684 <HAL_ADC_Start_DMA+0xd0>
 800167a:	68fb      	ldr	r3, [r7, #12]
 800167c:	681b      	ldr	r3, [r3, #0]
 800167e:	4a38      	ldr	r2, [pc, #224]	; (8001760 <HAL_ADC_Start_DMA+0x1ac>)
 8001680:	4293      	cmp	r3, r2
 8001682:	d10d      	bne.n	80016a0 <HAL_ADC_Start_DMA+0xec>
 8001684:	4b35      	ldr	r3, [pc, #212]	; (800175c <HAL_ADC_Start_DMA+0x1a8>)
 8001686:	685b      	ldr	r3, [r3, #4]
 8001688:	f403 6380 	and.w	r3, r3, #1024	; 0x400
 800168c:	2b00      	cmp	r3, #0
 800168e:	d007      	beq.n	80016a0 <HAL_ADC_Start_DMA+0xec>
 8001690:	68fb      	ldr	r3, [r7, #12]
 8001692:	6a9b      	ldr	r3, [r3, #40]	; 0x28
 8001694:	f423 5340 	bic.w	r3, r3, #12288	; 0x3000
 8001698:	f443 5280 	orr.w	r2, r3, #4096	; 0x1000
 800169c:	68fb      	ldr	r3, [r7, #12]
 800169e:	629a      	str	r2, [r3, #40]	; 0x28
 80016a0:	68fb      	ldr	r3, [r7, #12]
 80016a2:	6a9b      	ldr	r3, [r3, #40]	; 0x28
 80016a4:	f403 5380 	and.w	r3, r3, #4096	; 0x1000
 80016a8:	2b00      	cmp	r3, #0
 80016aa:	d006      	beq.n	80016ba <HAL_ADC_Start_DMA+0x106>
 80016ac:	68fb      	ldr	r3, [r7, #12]
 80016ae:	6adb      	ldr	r3, [r3, #44]	; 0x2c
 80016b0:	f023 0206 	bic.w	r2, r3, #6
 80016b4:	68fb      	ldr	r3, [r7, #12]
 80016b6:	62da      	str	r2, [r3, #44]	; 0x2c
 80016b8:	e002      	b.n	80016c0 <HAL_ADC_Start_DMA+0x10c>
 80016ba:	68fb      	ldr	r3, [r7, #12]
 80016bc:	2200      	movs	r2, #0
 80016be:	62da      	str	r2, [r3, #44]	; 0x2c
 80016c0:	68fb      	ldr	r3, [r7, #12]
 80016c2:	2200      	movs	r2, #0
 80016c4:	f883 2024 	strb.w	r2, [r3, #36]	; 0x24
 80016c8:	68fb      	ldr	r3, [r7, #12]
 80016ca:	6a1b      	ldr	r3, [r3, #32]
 80016cc:	4a25      	ldr	r2, [pc, #148]	; (8001764 <HAL_ADC_Start_DMA+0x1b0>)
 80016ce:	629a      	str	r2, [r3, #40]	; 0x28
 80016d0:	68fb      	ldr	r3, [r7, #12]
 80016d2:	6a1b      	ldr	r3, [r3, #32]
 80016d4:	4a24      	ldr	r2, [pc, #144]	; (8001768 <HAL_ADC_Start_DMA+0x1b4>)
 80016d6:	62da      	str	r2, [r3, #44]	; 0x2c
 80016d8:	68fb      	ldr	r3, [r7, #12]
 80016da:	6a1b      	ldr	r3, [r3, #32]
 80016dc:	4a23      	ldr	r2, [pc, #140]	; (800176c <HAL_ADC_Start_DMA+0x1b8>)
 80016de:	631a      	str	r2, [r3, #48]	; 0x30
 80016e0:	68fb      	ldr	r3, [r7, #12]
 80016e2:	681b      	ldr	r3, [r3, #0]
 80016e4:	f06f 0202 	mvn.w	r2, #2
 80016e8:	601a      	str	r2, [r3, #0]
 80016ea:	68fb      	ldr	r3, [r7, #12]
 80016ec:	681b      	ldr	r3, [r3, #0]
 80016ee:	689a      	ldr	r2, [r3, #8]
 80016f0:	68fb      	ldr	r3, [r7, #12]
 80016f2:	681b      	ldr	r3, [r3, #0]
 80016f4:	f442 7280 	orr.w	r2, r2, #256	; 0x100
 80016f8:	609a      	str	r2, [r3, #8]
 80016fa:	68fb      	ldr	r3, [r7, #12]
 80016fc:	6a18      	ldr	r0, [r3, #32]
 80016fe:	68fb      	ldr	r3, [r7, #12]
 8001700:	681b      	ldr	r3, [r3, #0]
 8001702:	334c      	adds	r3, #76	; 0x4c
 8001704:	4619      	mov	r1, r3
 8001706:	68ba      	ldr	r2, [r7, #8]
 8001708:	687b      	ldr	r3, [r7, #4]
 800170a:	f000 fbaf 	bl	8001e6c <HAL_DMA_Start_IT>
 800170e:	68fb      	ldr	r3, [r7, #12]
 8001710:	681b      	ldr	r3, [r3, #0]
 8001712:	689b      	ldr	r3, [r3, #8]
 8001714:	f403 2360 	and.w	r3, r3, #917504	; 0xe0000
 8001718:	f5b3 2f60 	cmp.w	r3, #917504	; 0xe0000
 800171c:	d108      	bne.n	8001730 <HAL_ADC_Start_DMA+0x17c>
 800171e:	68fb      	ldr	r3, [r7, #12]
 8001720:	681b      	ldr	r3, [r3, #0]
 8001722:	689a      	ldr	r2, [r3, #8]
 8001724:	68fb      	ldr	r3, [r7, #12]
 8001726:	681b      	ldr	r3, [r3, #0]
 8001728:	f442 02a0 	orr.w	r2, r2, #5242880	; 0x500000
 800172c:	609a      	str	r2, [r3, #8]
 800172e:	e00f      	b.n	8001750 <HAL_ADC_Start_DMA+0x19c>
 8001730:	68fb      	ldr	r3, [r7, #12]
 8001732:	681b      	ldr	r3, [r3, #0]
 8001734:	689a      	ldr	r2, [r3, #8]
 8001736:	68fb      	ldr	r3, [r7, #12]
 8001738:	681b      	ldr	r3, [r3, #0]
 800173a:	f442 1280 	orr.w	r2, r2, #1048576	; 0x100000
 800173e:	609a      	str	r2, [r3, #8]
 8001740:	e006      	b.n	8001750 <HAL_ADC_Start_DMA+0x19c>
 8001742:	68fb      	ldr	r3, [r7, #12]
 8001744:	2200      	movs	r2, #0
 8001746:	f883 2024 	strb.w	r2, [r3, #36]	; 0x24
 800174a:	e001      	b.n	8001750 <HAL_ADC_Start_DMA+0x19c>
 800174c:	2301      	movs	r3, #1
 800174e:	75fb      	strb	r3, [r7, #23]
 8001750:	7dfb      	ldrb	r3, [r7, #23]
 8001752:	4618      	mov	r0, r3
 8001754:	3718      	adds	r7, #24
 8001756:	46bd      	mov	sp, r7
 8001758:	bd80      	pop	{r7, pc}
 800175a:	bf00      	nop
 800175c:	40012400 	.word	0x40012400
 8001760:	40012800 	.word	0x40012800
 8001764:	08001acf 	.word	0x08001acf
 8001768:	08001b4b 	.word	0x08001b4b
 800176c:	08001b67 	.word	0x08001b67

08001770 <HAL_ADC_ConvCpltCallback>:
 8001770:	b480      	push	{r7}
 8001772:	b083      	sub	sp, #12
 8001774:	af00      	add	r7, sp, #0
 8001776:	6078      	str	r0, [r7, #4]
 8001778:	bf00      	nop
 800177a:	370c      	adds	r7, #12
 800177c:	46bd      	mov	sp, r7
 800177e:	bc80      	pop	{r7}
 8001780:	4770      	bx	lr

08001782 <HAL_ADC_ConvHalfCpltCallback>:
 8001782:	b480      	push	{r7}
 8001784:	b083      	sub	sp, #12
 8001786:	af00      	add	r7, sp, #0
 8001788:	6078      	str	r0, [r7, #4]
 800178a:	bf00      	nop
 800178c:	370c      	adds	r7, #12
 800178e:	46bd      	mov	sp, r7
 8001790:	bc80      	pop	{r7}
 8001792:	4770      	bx	lr

08001794 <HAL_ADC_ErrorCallback>:
 8001794:	b480      	push	{r7}
 8001796:	b083      	sub	sp, #12
 8001798:	af00      	add	r7, sp, #0
 800179a:	6078      	str	r0, [r7, #4]
 800179c:	bf00      	nop
 800179e:	370c      	adds	r7, #12
 80017a0:	46bd      	mov	sp, r7
 80017a2:	bc80      	pop	{r7}
 80017a4:	4770      	bx	lr
	...

080017a8 <HAL_ADC_ConfigChannel>:
 80017a8:	b480      	push	{r7}
 80017aa:	b085      	sub	sp, #20
 80017ac:	af00      	add	r7, sp, #0
 80017ae:	6078      	str	r0, [r7, #4]
 80017b0:	6039      	str	r1, [r7, #0]
 80017b2:	2300      	movs	r3, #0
 80017b4:	73fb      	strb	r3, [r7, #15]
 80017b6:	2300      	movs	r3, #0
 80017b8:	60bb      	str	r3, [r7, #8]
 80017ba:	687b      	ldr	r3, [r7, #4]
 80017bc:	f893 3024 	ldrb.w	r3, [r3, #36]	; 0x24
 80017c0:	2b01      	cmp	r3, #1
 80017c2:	d101      	bne.n	80017c8 <HAL_ADC_ConfigChannel+0x20>
 80017c4:	2302      	movs	r3, #2
 80017c6:	e0dc      	b.n	8001982 <HAL_ADC_ConfigChannel+0x1da>
 80017c8:	687b      	ldr	r3, [r7, #4]
 80017ca:	2201      	movs	r2, #1
 80017cc:	f883 2024 	strb.w	r2, [r3, #36]	; 0x24
 80017d0:	683b      	ldr	r3, [r7, #0]
 80017d2:	685b      	ldr	r3, [r3, #4]
 80017d4:	2b06      	cmp	r3, #6
 80017d6:	d81c      	bhi.n	8001812 <HAL_ADC_ConfigChannel+0x6a>
 80017d8:	687b      	ldr	r3, [r7, #4]
 80017da:	681b      	ldr	r3, [r3, #0]
 80017dc:	6b59      	ldr	r1, [r3, #52]	; 0x34
 80017de:	683b      	ldr	r3, [r7, #0]
 80017e0:	685a      	ldr	r2, [r3, #4]
 80017e2:	4613      	mov	r3, r2
 80017e4:	009b      	lsls	r3, r3, #2
 80017e6:	4413      	add	r3, r2
 80017e8:	3b05      	subs	r3, #5
 80017ea:	221f      	movs	r2, #31
 80017ec:	fa02 f303 	lsl.w	r3, r2, r3
 80017f0:	43db      	mvns	r3, r3
 80017f2:	4019      	ands	r1, r3
 80017f4:	683b      	ldr	r3, [r7, #0]
 80017f6:	6818      	ldr	r0, [r3, #0]
 80017f8:	683b      	ldr	r3, [r7, #0]
 80017fa:	685a      	ldr	r2, [r3, #4]
 80017fc:	4613      	mov	r3, r2
 80017fe:	009b      	lsls	r3, r3, #2
 8001800:	4413      	add	r3, r2
 8001802:	3b05      	subs	r3, #5
 8001804:	fa00 f203 	lsl.w	r2, r0, r3
 8001808:	687b      	ldr	r3, [r7, #4]
 800180a:	681b      	ldr	r3, [r3, #0]
 800180c:	430a      	orrs	r2, r1
 800180e:	635a      	str	r2, [r3, #52]	; 0x34
 8001810:	e03c      	b.n	800188c <HAL_ADC_ConfigChannel+0xe4>
 8001812:	683b      	ldr	r3, [r7, #0]
 8001814:	685b      	ldr	r3, [r3, #4]
 8001816:	2b0c      	cmp	r3, #12
 8001818:	d81c      	bhi.n	8001854 <HAL_ADC_ConfigChannel+0xac>
 800181a:	687b      	ldr	r3, [r7, #4]
 800181c:	681b      	ldr	r3, [r3, #0]
 800181e:	6b19      	ldr	r1, [r3, #48]	; 0x30
 8001820:	683b      	ldr	r3, [r7, #0]
 8001822:	685a      	ldr	r2, [r3, #4]
 8001824:	4613      	mov	r3, r2
 8001826:	009b      	lsls	r3, r3, #2
 8001828:	4413      	add	r3, r2
 800182a:	3b23      	subs	r3, #35	; 0x23
 800182c:	221f      	movs	r2, #31
 800182e:	fa02 f303 	lsl.w	r3, r2, r3
 8001832:	43db      	mvns	r3, r3
 8001834:	4019      	ands	r1, r3
 8001836:	683b      	ldr	r3, [r7, #0]
 8001838:	6818      	ldr	r0, [r3, #0]
 800183a:	683b      	ldr	r3, [r7, #0]
 800183c:	685a      	ldr	r2, [r3, #4]
 800183e:	4613      	mov	r3, r2
 8001840:	009b      	lsls	r3, r3, #2
 8001842:	4413      	add	r3, r2
 8001844:	3b23      	subs	r3, #35	; 0x23
 8001846:	fa00 f203 	lsl.w	r2, r0, r3
 800184a:	687b      	ldr	r3, [r7, #4]
 800184c:	681b      	ldr	r3, [r3, #0]
 800184e:	430a      	orrs	r2, r1
 8001850:	631a      	str	r2, [r3, #48]	; 0x30
 8001852:	e01b      	b.n	800188c <HAL_ADC_ConfigChannel+0xe4>
 8001854:	687b      	ldr	r3, [r7, #4]
 8001856:	681b      	ldr	r3, [r3, #0]
 8001858:	6ad9      	ldr	r1, [r3, #44]	; 0x2c
 800185a:	683b      	ldr	r3, [r7, #0]
 800185c:	685a      	ldr	r2, [r3, #4]
 800185e:	4613      	mov	r3, r2
 8001860:	009b      	lsls	r3, r3, #2
 8001862:	4413      	add	r3, r2
 8001864:	3b41      	subs	r3, #65	; 0x41
 8001866:	221f      	movs	r2, #31
 8001868:	fa02 f303 	lsl.w	r3, r2, r3
 800186c:	43db      	mvns	r3, r3
 800186e:	4019      	ands	r1, r3
 8001870:	683b      	ldr	r3, [r7, #0]
 8001872:	6818      	ldr	r0, [r3, #0]
 8001874:	683b      	ldr	r3, [r7, #0]
 8001876:	685a      	ldr	r2, [r3, #4]
 8001878:	4613      	mov	r3, r2
 800187a:	009b      	lsls	r3, r3, #2
 800187c:	4413      	add	r3, r2
 800187e:	3b41      	subs	r3, #65	; 0x41
 8001880:	fa00 f203 	lsl.w	r2, r0, r3
 8001884:	687b      	ldr	r3, [r7, #4]
 8001886:	681b      	ldr	r3, [r3, #0]
 8001888:	430a      	orrs	r2, r1
 800188a:	62da      	str	r2, [r3, #44]	; 0x2c
 800188c:	683b      	ldr	r3, [r7, #0]
 800188e:	681b      	ldr	r3, [r3, #0]
 8001890:	2b09      	cmp	r3, #9
 8001892:	d91c      	bls.n	80018ce <HAL_ADC_ConfigChannel+0x126>
 8001894:	687b      	ldr	r3, [r7, #4]
 8001896:	681b      	ldr	r3, [r3, #0]
 8001898:	68d9      	ldr	r1, [r3, #12]
 800189a:	683b      	ldr	r3, [r7, #0]
 800189c:	681a      	ldr	r2, [r3, #0]
 800189e:	4613      	mov	r3, r2
 80018a0:	005b      	lsls	r3, r3, #1
 80018a2:	4413      	add	r3, r2
 80018a4:	3b1e      	subs	r3, #30
 80018a6:	2207      	movs	r2, #7
 80018a8:	fa02 f303 	lsl.w	r3, r2, r3
 80018ac:	43db      	mvns	r3, r3
 80018ae:	4019      	ands	r1, r3
 80018b0:	683b      	ldr	r3, [r7, #0]
 80018b2:	6898      	ldr	r0, [r3, #8]
 80018b4:	683b      	ldr	r3, [r7, #0]
 80018b6:	681a      	ldr	r2, [r3, #0]
 80018b8:	4613      	mov	r3, r2
 80018ba:	005b      	lsls	r3, r3, #1
 80018bc:	4413      	add	r3, r2
 80018be:	3b1e      	subs	r3, #30
 80018c0:	fa00 f203 	lsl.w	r2, r0, r3
 80018c4:	687b      	ldr	r3, [r7, #4]
 80018c6:	681b      	ldr	r3, [r3, #0]
 80018c8:	430a      	orrs	r2, r1
 80018ca:	60da      	str	r2, [r3, #12]
 80018cc:	e019      	b.n	8001902 <HAL_ADC_ConfigChannel+0x15a>
 80018ce:	687b      	ldr	r3, [r7, #4]
 80018d0:	681b      	ldr	r3, [r3, #0]
 80018d2:	6919      	ldr	r1, [r3, #16]
 80018d4:	683b      	ldr	r3, [r7, #0]
 80018d6:	681a      	ldr	r2, [r3, #0]
 80018d8:	4613      	mov	r3, r2
 80018da:	005b      	lsls	r3, r3, #1
 80018dc:	4413      	add	r3, r2
 80018de:	2207      	movs	r2, #7
 80018e0:	fa02 f303 	lsl.w	r3, r2, r3
 80018e4:	43db      	mvns	r3, r3
 80018e6:	4019      	ands	r1, r3
 80018e8:	683b      	ldr	r3, [r7, #0]
 80018ea:	6898      	ldr	r0, [r3, #8]
 80018ec:	683b      	ldr	r3, [r7, #0]
 80018ee:	681a      	ldr	r2, [r3, #0]
 80018f0:	4613      	mov	r3, r2
 80018f2:	005b      	lsls	r3, r3, #1
 80018f4:	4413      	add	r3, r2
 80018f6:	fa00 f203 	lsl.w	r2, r0, r3
 80018fa:	687b      	ldr	r3, [r7, #4]
 80018fc:	681b      	ldr	r3, [r3, #0]
 80018fe:	430a      	orrs	r2, r1
 8001900:	611a      	str	r2, [r3, #16]
 8001902:	683b      	ldr	r3, [r7, #0]
 8001904:	681b      	ldr	r3, [r3, #0]
 8001906:	2b10      	cmp	r3, #16
 8001908:	d003      	beq.n	8001912 <HAL_ADC_ConfigChannel+0x16a>
 800190a:	683b      	ldr	r3, [r7, #0]
 800190c:	681b      	ldr	r3, [r3, #0]
 800190e:	2b11      	cmp	r3, #17
 8001910:	d132      	bne.n	8001978 <HAL_ADC_ConfigChannel+0x1d0>
 8001912:	687b      	ldr	r3, [r7, #4]
 8001914:	681b      	ldr	r3, [r3, #0]
 8001916:	4a1d      	ldr	r2, [pc, #116]	; (800198c <HAL_ADC_ConfigChannel+0x1e4>)
 8001918:	4293      	cmp	r3, r2
 800191a:	d125      	bne.n	8001968 <HAL_ADC_ConfigChannel+0x1c0>
 800191c:	687b      	ldr	r3, [r7, #4]
 800191e:	681b      	ldr	r3, [r3, #0]
 8001920:	689b      	ldr	r3, [r3, #8]
 8001922:	f403 0300 	and.w	r3, r3, #8388608	; 0x800000
 8001926:	2b00      	cmp	r3, #0
 8001928:	d126      	bne.n	8001978 <HAL_ADC_ConfigChannel+0x1d0>
 800192a:	687b      	ldr	r3, [r7, #4]
 800192c:	681b      	ldr	r3, [r3, #0]
 800192e:	689a      	ldr	r2, [r3, #8]
 8001930:	687b      	ldr	r3, [r7, #4]
 8001932:	681b      	ldr	r3, [r3, #0]
 8001934:	f442 0200 	orr.w	r2, r2, #8388608	; 0x800000
 8001938:	609a      	str	r2, [r3, #8]
 800193a:	683b      	ldr	r3, [r7, #0]
 800193c:	681b      	ldr	r3, [r3, #0]
 800193e:	2b10      	cmp	r3, #16
 8001940:	d11a      	bne.n	8001978 <HAL_ADC_ConfigChannel+0x1d0>
 8001942:	4b13      	ldr	r3, [pc, #76]	; (8001990 <HAL_ADC_ConfigChannel+0x1e8>)
 8001944:	681b      	ldr	r3, [r3, #0]
 8001946:	4a13      	ldr	r2, [pc, #76]	; (8001994 <HAL_ADC_ConfigChannel+0x1ec>)
 8001948:	fba2 2303 	umull	r2, r3, r2, r3
 800194c:	0c9a      	lsrs	r2, r3, #18
 800194e:	4613      	mov	r3, r2
 8001950:	009b      	lsls	r3, r3, #2
 8001952:	4413      	add	r3, r2
 8001954:	005b      	lsls	r3, r3, #1
 8001956:	60bb      	str	r3, [r7, #8]
 8001958:	e002      	b.n	8001960 <HAL_ADC_ConfigChannel+0x1b8>
 800195a:	68bb      	ldr	r3, [r7, #8]
 800195c:	3b01      	subs	r3, #1
 800195e:	60bb      	str	r3, [r7, #8]
 8001960:	68bb      	ldr	r3, [r7, #8]
 8001962:	2b00      	cmp	r3, #0
 8001964:	d1f9      	bne.n	800195a <HAL_ADC_ConfigChannel+0x1b2>
 8001966:	e007      	b.n	8001978 <HAL_ADC_ConfigChannel+0x1d0>
 8001968:	687b      	ldr	r3, [r7, #4]
 800196a:	6a9b      	ldr	r3, [r3, #40]	; 0x28
 800196c:	f043 0220 	orr.w	r2, r3, #32
 8001970:	687b      	ldr	r3, [r7, #4]
 8001972:	629a      	str	r2, [r3, #40]	; 0x28
 8001974:	2301      	movs	r3, #1
 8001976:	73fb      	strb	r3, [r7, #15]
 8001978:	687b      	ldr	r3, [r7, #4]
 800197a:	2200      	movs	r2, #0
 800197c:	f883 2024 	strb.w	r2, [r3, #36]	; 0x24
 8001980:	7bfb      	ldrb	r3, [r7, #15]
 8001982:	4618      	mov	r0, r3
 8001984:	3714      	adds	r7, #20
 8001986:	46bd      	mov	sp, r7
 8001988:	bc80      	pop	{r7}
 800198a:	4770      	bx	lr
 800198c:	40012400 	.word	0x40012400
 8001990:	20000004 	.word	0x20000004
 8001994:	431bde83 	.word	0x431bde83

08001998 <ADC_Enable>:
 8001998:	b580      	push	{r7, lr}
 800199a:	b084      	sub	sp, #16
 800199c:	af00      	add	r7, sp, #0
 800199e:	6078      	str	r0, [r7, #4]
 80019a0:	2300      	movs	r3, #0
 80019a2:	60fb      	str	r3, [r7, #12]
 80019a4:	2300      	movs	r3, #0
 80019a6:	60bb      	str	r3, [r7, #8]
 80019a8:	687b      	ldr	r3, [r7, #4]
 80019aa:	681b      	ldr	r3, [r3, #0]
 80019ac:	689b      	ldr	r3, [r3, #8]
 80019ae:	f003 0301 	and.w	r3, r3, #1
 80019b2:	2b01      	cmp	r3, #1
 80019b4:	d040      	beq.n	8001a38 <ADC_Enable+0xa0>
 80019b6:	687b      	ldr	r3, [r7, #4]
 80019b8:	681b      	ldr	r3, [r3, #0]
 80019ba:	689a      	ldr	r2, [r3, #8]
 80019bc:	687b      	ldr	r3, [r7, #4]
 80019be:	681b      	ldr	r3, [r3, #0]
 80019c0:	f042 0201 	orr.w	r2, r2, #1
 80019c4:	609a      	str	r2, [r3, #8]
 80019c6:	4b1f      	ldr	r3, [pc, #124]	; (8001a44 <ADC_Enable+0xac>)
 80019c8:	681b      	ldr	r3, [r3, #0]
 80019ca:	4a1f      	ldr	r2, [pc, #124]	; (8001a48 <ADC_Enable+0xb0>)
 80019cc:	fba2 2303 	umull	r2, r3, r2, r3
 80019d0:	0c9b      	lsrs	r3, r3, #18
 80019d2:	60bb      	str	r3, [r7, #8]
 80019d4:	e002      	b.n	80019dc <ADC_Enable+0x44>
 80019d6:	68bb      	ldr	r3, [r7, #8]
 80019d8:	3b01      	subs	r3, #1
 80019da:	60bb      	str	r3, [r7, #8]
 80019dc:	68bb      	ldr	r3, [r7, #8]
 80019de:	2b00      	cmp	r3, #0
 80019e0:	d1f9      	bne.n	80019d6 <ADC_Enable+0x3e>
 80019e2:	f7ff fce1 	bl	80013a8 <HAL_GetTick>
 80019e6:	60f8      	str	r0, [r7, #12]
 80019e8:	e01f      	b.n	8001a2a <ADC_Enable+0x92>
 80019ea:	f7ff fcdd 	bl	80013a8 <HAL_GetTick>
 80019ee:	4602      	mov	r2, r0
 80019f0:	68fb      	ldr	r3, [r7, #12]
 80019f2:	1ad3      	subs	r3, r2, r3
 80019f4:	2b02      	cmp	r3, #2
 80019f6:	d918      	bls.n	8001a2a <ADC_Enable+0x92>
 80019f8:	687b      	ldr	r3, [r7, #4]
 80019fa:	681b      	ldr	r3, [r3, #0]
 80019fc:	689b      	ldr	r3, [r3, #8]
 80019fe:	f003 0301 	and.w	r3, r3, #1
 8001a02:	2b01      	cmp	r3, #1
 8001a04:	d011      	beq.n	8001a2a <ADC_Enable+0x92>
 8001a06:	687b      	ldr	r3, [r7, #4]
 8001a08:	6a9b      	ldr	r3, [r3, #40]	; 0x28
 8001a0a:	f043 0210 	orr.w	r2, r3, #16
 8001a0e:	687b      	ldr	r3, [r7, #4]
 8001a10:	629a      	str	r2, [r3, #40]	; 0x28
 8001a12:	687b      	ldr	r3, [r7, #4]
 8001a14:	6adb      	ldr	r3, [r3, #44]	; 0x2c
 8001a16:	f043 0201 	orr.w	r2, r3, #1
 8001a1a:	687b      	ldr	r3, [r7, #4]
 8001a1c:	62da      	str	r2, [r3, #44]	; 0x2c
 8001a1e:	687b      	ldr	r3, [r7, #4]
 8001a20:	2200      	movs	r2, #0
 8001a22:	f883 2024 	strb.w	r2, [r3, #36]	; 0x24
 8001a26:	2301      	movs	r3, #1
 8001a28:	e007      	b.n	8001a3a <ADC_Enable+0xa2>
 8001a2a:	687b      	ldr	r3, [r7, #4]
 8001a2c:	681b      	ldr	r3, [r3, #0]
 8001a2e:	689b      	ldr	r3, [r3, #8]
 8001a30:	f003 0301 	and.w	r3, r3, #1
 8001a34:	2b01      	cmp	r3, #1
 8001a36:	d1d8      	bne.n	80019ea <ADC_Enable+0x52>
 8001a38:	2300      	movs	r3, #0
 8001a3a:	4618      	mov	r0, r3
 8001a3c:	3710      	adds	r7, #16
 8001a3e:	46bd      	mov	sp, r7
 8001a40:	bd80      	pop	{r7, pc}
 8001a42:	bf00      	nop
 8001a44:	20000004 	.word	0x20000004
 8001a48:	431bde83 	.word	0x431bde83

08001a4c <ADC_ConversionStop_Disable>:
 8001a4c:	b580      	push	{r7, lr}
 8001a4e:	b084      	sub	sp, #16
 8001a50:	af00      	add	r7, sp, #0
 8001a52:	6078      	str	r0, [r7, #4]
 8001a54:	2300      	movs	r3, #0
 8001a56:	60fb      	str	r3, [r7, #12]
 8001a58:	687b      	ldr	r3, [r7, #4]
 8001a5a:	681b      	ldr	r3, [r3, #0]
 8001a5c:	689b      	ldr	r3, [r3, #8]
 8001a5e:	f003 0301 	and.w	r3, r3, #1
 8001a62:	2b01      	cmp	r3, #1
 8001a64:	d12e      	bne.n	8001ac4 <ADC_ConversionStop_Disable+0x78>
 8001a66:	687b      	ldr	r3, [r7, #4]
 8001a68:	681b      	ldr	r3, [r3, #0]
 8001a6a:	689a      	ldr	r2, [r3, #8]
 8001a6c:	687b      	ldr	r3, [r7, #4]
 8001a6e:	681b      	ldr	r3, [r3, #0]
 8001a70:	f022 0201 	bic.w	r2, r2, #1
 8001a74:	609a      	str	r2, [r3, #8]
 8001a76:	f7ff fc97 	bl	80013a8 <HAL_GetTick>
 8001a7a:	60f8      	str	r0, [r7, #12]
 8001a7c:	e01b      	b.n	8001ab6 <ADC_ConversionStop_Disable+0x6a>
 8001a7e:	f7ff fc93 	bl	80013a8 <HAL_GetTick>
 8001a82:	4602      	mov	r2, r0
 8001a84:	68fb      	ldr	r3, [r7, #12]
 8001a86:	1ad3      	subs	r3, r2, r3
 8001a88:	2b02      	cmp	r3, #2
 8001a8a:	d914      	bls.n	8001ab6 <ADC_ConversionStop_Disable+0x6a>
 8001a8c:	687b      	ldr	r3, [r7, #4]
 8001a8e:	681b      	ldr	r3, [r3, #0]
 8001a90:	689b      	ldr	r3, [r3, #8]
 8001a92:	f003 0301 	and.w	r3, r3, #1
 8001a96:	2b01      	cmp	r3, #1
 8001a98:	d10d      	bne.n	8001ab6 <ADC_ConversionStop_Disable+0x6a>
 8001a9a:	687b      	ldr	r3, [r7, #4]
 8001a9c:	6a9b      	ldr	r3, [r3, #40]	; 0x28
 8001a9e:	f043 0210 	orr.w	r2, r3, #16
 8001aa2:	687b      	ldr	r3, [r7, #4]
 8001aa4:	629a      	str	r2, [r3, #40]	; 0x28
 8001aa6:	687b      	ldr	r3, [r7, #4]
 8001aa8:	6adb      	ldr	r3, [r3, #44]	; 0x2c
 8001aaa:	f043 0201 	orr.w	r2, r3, #1
 8001aae:	687b      	ldr	r3, [r7, #4]
 8001ab0:	62da      	str	r2, [r3, #44]	; 0x2c
 8001ab2:	2301      	movs	r3, #1
 8001ab4:	e007      	b.n	8001ac6 <ADC_ConversionStop_Disable+0x7a>
 8001ab6:	687b      	ldr	r3, [r7, #4]
 8001ab8:	681b      	ldr	r3, [r3, #0]
 8001aba:	689b      	ldr	r3, [r3, #8]
 8001abc:	f003 0301 	and.w	r3, r3, #1
 8001ac0:	2b01      	cmp	r3, #1
 8001ac2:	d0dc      	beq.n	8001a7e <ADC_ConversionStop_Disable+0x32>
 8001ac4:	2300      	movs	r3, #0
 8001ac6:	4618      	mov	r0, r3
 8001ac8:	3710      	adds	r7, #16
 8001aca:	46bd      	mov	sp, r7
 8001acc:	bd80      	pop	{r7, pc}

08001ace <ADC_DMAConvCplt>:
 8001ace:	b580      	push	{r7, lr}
 8001ad0:	b084      	sub	sp, #16
 8001ad2:	af00      	add	r7, sp, #0
 8001ad4:	6078      	str	r0, [r7, #4]
 8001ad6:	687b      	ldr	r3, [r7, #4]
 8001ad8:	6a5b      	ldr	r3, [r3, #36]	; 0x24
 8001ada:	60fb      	str	r3, [r7, #12]
 8001adc:	68fb      	ldr	r3, [r7, #12]
 8001ade:	6a9b      	ldr	r3, [r3, #40]	; 0x28
 8001ae0:	f003 0350 	and.w	r3, r3, #80	; 0x50
 8001ae4:	2b00      	cmp	r3, #0
 8001ae6:	d127      	bne.n	8001b38 <ADC_DMAConvCplt+0x6a>
 8001ae8:	68fb      	ldr	r3, [r7, #12]
 8001aea:	6a9b      	ldr	r3, [r3, #40]	; 0x28
 8001aec:	f443 7200 	orr.w	r2, r3, #512	; 0x200
 8001af0:	68fb      	ldr	r3, [r7, #12]
 8001af2:	629a      	str	r2, [r3, #40]	; 0x28
 8001af4:	68fb      	ldr	r3, [r7, #12]
 8001af6:	681b      	ldr	r3, [r3, #0]
 8001af8:	689b      	ldr	r3, [r3, #8]
 8001afa:	f403 2360 	and.w	r3, r3, #917504	; 0xe0000
 8001afe:	f5b3 2f60 	cmp.w	r3, #917504	; 0xe0000
 8001b02:	d115      	bne.n	8001b30 <ADC_DMAConvCplt+0x62>
 8001b04:	68fb      	ldr	r3, [r7, #12]
 8001b06:	7b1b      	ldrb	r3, [r3, #12]
 8001b08:	2b00      	cmp	r3, #0
 8001b0a:	d111      	bne.n	8001b30 <ADC_DMAConvCplt+0x62>
 8001b0c:	68fb      	ldr	r3, [r7, #12]
 8001b0e:	6a9b      	ldr	r3, [r3, #40]	; 0x28
 8001b10:	f423 7280 	bic.w	r2, r3, #256	; 0x100
 8001b14:	68fb      	ldr	r3, [r7, #12]
 8001b16:	629a      	str	r2, [r3, #40]	; 0x28
 8001b18:	68fb      	ldr	r3, [r7, #12]
 8001b1a:	6a9b      	ldr	r3, [r3, #40]	; 0x28
 8001b1c:	f403 5380 	and.w	r3, r3, #4096	; 0x1000
 8001b20:	2b00      	cmp	r3, #0
 8001b22:	d105      	bne.n	8001b30 <ADC_DMAConvCplt+0x62>
 8001b24:	68fb      	ldr	r3, [r7, #12]
 8001b26:	6a9b      	ldr	r3, [r3, #40]	; 0x28
 8001b28:	f043 0201 	orr.w	r2, r3, #1
 8001b2c:	68fb      	ldr	r3, [r7, #12]
 8001b2e:	629a      	str	r2, [r3, #40]	; 0x28
 8001b30:	68f8      	ldr	r0, [r7, #12]
 8001b32:	f7ff fe1d 	bl	8001770 <HAL_ADC_ConvCpltCallback>
 8001b36:	e004      	b.n	8001b42 <ADC_DMAConvCplt+0x74>
 8001b38:	68fb      	ldr	r3, [r7, #12]
 8001b3a:	6a1b      	ldr	r3, [r3, #32]
 8001b3c:	6b1b      	ldr	r3, [r3, #48]	; 0x30
 8001b3e:	6878      	ldr	r0, [r7, #4]
 8001b40:	4798      	blx	r3
 8001b42:	bf00      	nop
 8001b44:	3710      	adds	r7, #16
 8001b46:	46bd      	mov	sp, r7
 8001b48:	bd80      	pop	{r7, pc}

08001b4a <ADC_DMAHalfConvCplt>:
 8001b4a:	b580      	push	{r7, lr}
 8001b4c:	b084      	sub	sp, #16
 8001b4e:	af00      	add	r7, sp, #0
 8001b50:	6078      	str	r0, [r7, #4]
 8001b52:	687b      	ldr	r3, [r7, #4]
 8001b54:	6a5b      	ldr	r3, [r3, #36]	; 0x24
 8001b56:	60fb      	str	r3, [r7, #12]
 8001b58:	68f8      	ldr	r0, [r7, #12]
 8001b5a:	f7ff fe12 	bl	8001782 <HAL_ADC_ConvHalfCpltCallback>
 8001b5e:	bf00      	nop
 8001b60:	3710      	adds	r7, #16
 8001b62:	46bd      	mov	sp, r7
 8001b64:	bd80      	pop	{r7, pc}

08001b66 <ADC_DMAError>:
 8001b66:	b580      	push	{r7, lr}
 8001b68:	b084      	sub	sp, #16
 8001b6a:	af00      	add	r7, sp, #0
 8001b6c:	6078      	str	r0, [r7, #4]
 8001b6e:	687b      	ldr	r3, [r7, #4]
 8001b70:	6a5b      	ldr	r3, [r3, #36]	; 0x24
 8001b72:	60fb      	str	r3, [r7, #12]
 8001b74:	68fb      	ldr	r3, [r7, #12]
 8001b76:	6a9b      	ldr	r3, [r3, #40]	; 0x28
 8001b78:	f043 0240 	orr.w	r2, r3, #64	; 0x40
 8001b7c:	68fb      	ldr	r3, [r7, #12]
 8001b7e:	629a      	str	r2, [r3, #40]	; 0x28
 8001b80:	68fb      	ldr	r3, [r7, #12]
 8001b82:	6adb      	ldr	r3, [r3, #44]	; 0x2c
 8001b84:	f043 0204 	orr.w	r2, r3, #4
 8001b88:	68fb      	ldr	r3, [r7, #12]
 8001b8a:	62da      	str	r2, [r3, #44]	; 0x2c
 8001b8c:	68f8      	ldr	r0, [r7, #12]
 8001b8e:	f7ff fe01 	bl	8001794 <HAL_ADC_ErrorCallback>
 8001b92:	bf00      	nop
 8001b94:	3710      	adds	r7, #16
 8001b96:	46bd      	mov	sp, r7
 8001b98:	bd80      	pop	{r7, pc}
	...

08001b9c <__NVIC_SetPriorityGrouping>:
 8001b9c:	b480      	push	{r7}
 8001b9e:	b085      	sub	sp, #20
 8001ba0:	af00      	add	r7, sp, #0
 8001ba2:	6078      	str	r0, [r7, #4]
 8001ba4:	687b      	ldr	r3, [r7, #4]
 8001ba6:	f003 0307 	and.w	r3, r3, #7
 8001baa:	60fb      	str	r3, [r7, #12]
 8001bac:	4b0c      	ldr	r3, [pc, #48]	; (8001be0 <__NVIC_SetPriorityGrouping+0x44>)
 8001bae:	68db      	ldr	r3, [r3, #12]
 8001bb0:	60bb      	str	r3, [r7, #8]
 8001bb2:	68ba      	ldr	r2, [r7, #8]
 8001bb4:	f64f 03ff 	movw	r3, #63743	; 0xf8ff
 8001bb8:	4013      	ands	r3, r2
 8001bba:	60bb      	str	r3, [r7, #8]
 8001bbc:	68fb      	ldr	r3, [r7, #12]
 8001bbe:	021a      	lsls	r2, r3, #8
 8001bc0:	68bb      	ldr	r3, [r7, #8]
 8001bc2:	4313      	orrs	r3, r2
 8001bc4:	f043 63bf 	orr.w	r3, r3, #100139008	; 0x5f80000
 8001bc8:	f443 3300 	orr.w	r3, r3, #131072	; 0x20000
 8001bcc:	60bb      	str	r3, [r7, #8]
 8001bce:	4a04      	ldr	r2, [pc, #16]	; (8001be0 <__NVIC_SetPriorityGrouping+0x44>)
 8001bd0:	68bb      	ldr	r3, [r7, #8]
 8001bd2:	60d3      	str	r3, [r2, #12]
 8001bd4:	bf00      	nop
 8001bd6:	3714      	adds	r7, #20
 8001bd8:	46bd      	mov	sp, r7
 8001bda:	bc80      	pop	{r7}
 8001bdc:	4770      	bx	lr
 8001bde:	bf00      	nop
 8001be0:	e000ed00 	.word	0xe000ed00

08001be4 <__NVIC_GetPriorityGrouping>:
 8001be4:	b480      	push	{r7}
 8001be6:	af00      	add	r7, sp, #0
 8001be8:	4b04      	ldr	r3, [pc, #16]	; (8001bfc <__NVIC_GetPriorityGrouping+0x18>)
 8001bea:	68db      	ldr	r3, [r3, #12]
 8001bec:	0a1b      	lsrs	r3, r3, #8
 8001bee:	f003 0307 	and.w	r3, r3, #7
 8001bf2:	4618      	mov	r0, r3
 8001bf4:	46bd      	mov	sp, r7
 8001bf6:	bc80      	pop	{r7}
 8001bf8:	4770      	bx	lr
 8001bfa:	bf00      	nop
 8001bfc:	e000ed00 	.word	0xe000ed00

08001c00 <__NVIC_EnableIRQ>:
 8001c00:	b480      	push	{r7}
 8001c02:	b083      	sub	sp, #12
 8001c04:	af00      	add	r7, sp, #0
 8001c06:	4603      	mov	r3, r0
 8001c08:	71fb      	strb	r3, [r7, #7]
 8001c0a:	f997 3007 	ldrsb.w	r3, [r7, #7]
 8001c0e:	2b00      	cmp	r3, #0
 8001c10:	db0b      	blt.n	8001c2a <__NVIC_EnableIRQ+0x2a>
 8001c12:	79fb      	ldrb	r3, [r7, #7]
 8001c14:	f003 021f 	and.w	r2, r3, #31
 8001c18:	4906      	ldr	r1, [pc, #24]	; (8001c34 <__NVIC_EnableIRQ+0x34>)
 8001c1a:	f997 3007 	ldrsb.w	r3, [r7, #7]
 8001c1e:	095b      	lsrs	r3, r3, #5
 8001c20:	2001      	movs	r0, #1
 8001c22:	fa00 f202 	lsl.w	r2, r0, r2
 8001c26:	f841 2023 	str.w	r2, [r1, r3, lsl #2]
 8001c2a:	bf00      	nop
 8001c2c:	370c      	adds	r7, #12
 8001c2e:	46bd      	mov	sp, r7
 8001c30:	bc80      	pop	{r7}
 8001c32:	4770      	bx	lr
 8001c34:	e000e100 	.word	0xe000e100

08001c38 <__NVIC_SetPriority>:
 8001c38:	b480      	push	{r7}
 8001c3a:	b083      	sub	sp, #12
 8001c3c:	af00      	add	r7, sp, #0
 8001c3e:	4603      	mov	r3, r0
 8001c40:	6039      	str	r1, [r7, #0]
 8001c42:	71fb      	strb	r3, [r7, #7]
 8001c44:	f997 3007 	ldrsb.w	r3, [r7, #7]
 8001c48:	2b00      	cmp	r3, #0
 8001c4a:	db0a      	blt.n	8001c62 <__NVIC_SetPriority+0x2a>
 8001c4c:	683b      	ldr	r3, [r7, #0]
 8001c4e:	b2da      	uxtb	r2, r3
 8001c50:	490c      	ldr	r1, [pc, #48]	; (8001c84 <__NVIC_SetPriority+0x4c>)
 8001c52:	f997 3007 	ldrsb.w	r3, [r7, #7]
 8001c56:	0112      	lsls	r2, r2, #4
 8001c58:	b2d2      	uxtb	r2, r2
 8001c5a:	440b      	add	r3, r1
 8001c5c:	f883 2300 	strb.w	r2, [r3, #768]	; 0x300
 8001c60:	e00a      	b.n	8001c78 <__NVIC_SetPriority+0x40>
 8001c62:	683b      	ldr	r3, [r7, #0]
 8001c64:	b2da      	uxtb	r2, r3
 8001c66:	4908      	ldr	r1, [pc, #32]	; (8001c88 <__NVIC_SetPriority+0x50>)
 8001c68:	79fb      	ldrb	r3, [r7, #7]
 8001c6a:	f003 030f 	and.w	r3, r3, #15
 8001c6e:	3b04      	subs	r3, #4
 8001c70:	0112      	lsls	r2, r2, #4
 8001c72:	b2d2      	uxtb	r2, r2
 8001c74:	440b      	add	r3, r1
 8001c76:	761a      	strb	r2, [r3, #24]
 8001c78:	bf00      	nop
 8001c7a:	370c      	adds	r7, #12
 8001c7c:	46bd      	mov	sp, r7
 8001c7e:	bc80      	pop	{r7}
 8001c80:	4770      	bx	lr
 8001c82:	bf00      	nop
 8001c84:	e000e100 	.word	0xe000e100
 8001c88:	e000ed00 	.word	0xe000ed00

08001c8c <NVIC_EncodePriority>:
 8001c8c:	b480      	push	{r7}
 8001c8e:	b089      	sub	sp, #36	; 0x24
 8001c90:	af00      	add	r7, sp, #0
 8001c92:	60f8      	str	r0, [r7, #12]
 8001c94:	60b9      	str	r1, [r7, #8]
 8001c96:	607a      	str	r2, [r7, #4]
 8001c98:	68fb      	ldr	r3, [r7, #12]
 8001c9a:	f003 0307 	and.w	r3, r3, #7
 8001c9e:	61fb      	str	r3, [r7, #28]
 8001ca0:	69fb      	ldr	r3, [r7, #28]
 8001ca2:	f1c3 0307 	rsb	r3, r3, #7
 8001ca6:	2b04      	cmp	r3, #4
 8001ca8:	bf28      	it	cs
 8001caa:	2304      	movcs	r3, #4
 8001cac:	61bb      	str	r3, [r7, #24]
 8001cae:	69fb      	ldr	r3, [r7, #28]
 8001cb0:	3304      	adds	r3, #4
 8001cb2:	2b06      	cmp	r3, #6
 8001cb4:	d902      	bls.n	8001cbc <NVIC_EncodePriority+0x30>
 8001cb6:	69fb      	ldr	r3, [r7, #28]
 8001cb8:	3b03      	subs	r3, #3
 8001cba:	e000      	b.n	8001cbe <NVIC_EncodePriority+0x32>
 8001cbc:	2300      	movs	r3, #0
 8001cbe:	617b      	str	r3, [r7, #20]
 8001cc0:	f04f 32ff 	mov.w	r2, #4294967295
 8001cc4:	69bb      	ldr	r3, [r7, #24]
 8001cc6:	fa02 f303 	lsl.w	r3, r2, r3
 8001cca:	43da      	mvns	r2, r3
 8001ccc:	68bb      	ldr	r3, [r7, #8]
 8001cce:	401a      	ands	r2, r3
 8001cd0:	697b      	ldr	r3, [r7, #20]
 8001cd2:	409a      	lsls	r2, r3
 8001cd4:	f04f 31ff 	mov.w	r1, #4294967295
 8001cd8:	697b      	ldr	r3, [r7, #20]
 8001cda:	fa01 f303 	lsl.w	r3, r1, r3
 8001cde:	43d9      	mvns	r1, r3
 8001ce0:	687b      	ldr	r3, [r7, #4]
 8001ce2:	400b      	ands	r3, r1
 8001ce4:	4313      	orrs	r3, r2
 8001ce6:	4618      	mov	r0, r3
 8001ce8:	3724      	adds	r7, #36	; 0x24
 8001cea:	46bd      	mov	sp, r7
 8001cec:	bc80      	pop	{r7}
 8001cee:	4770      	bx	lr

08001cf0 <SysTick_Config>:
 8001cf0:	b580      	push	{r7, lr}
 8001cf2:	b082      	sub	sp, #8
 8001cf4:	af00      	add	r7, sp, #0
 8001cf6:	6078      	str	r0, [r7, #4]
 8001cf8:	687b      	ldr	r3, [r7, #4]
 8001cfa:	3b01      	subs	r3, #1
 8001cfc:	f1b3 7f80 	cmp.w	r3, #16777216	; 0x1000000
 8001d00:	d301      	bcc.n	8001d06 <SysTick_Config+0x16>
 8001d02:	2301      	movs	r3, #1
 8001d04:	e00f      	b.n	8001d26 <SysTick_Config+0x36>
 8001d06:	4a0a      	ldr	r2, [pc, #40]	; (8001d30 <SysTick_Config+0x40>)
 8001d08:	687b      	ldr	r3, [r7, #4]
 8001d0a:	3b01      	subs	r3, #1
 8001d0c:	6053      	str	r3, [r2, #4]
 8001d0e:	210f      	movs	r1, #15
 8001d10:	f04f 30ff 	mov.w	r0, #4294967295
 8001d14:	f7ff ff90 	bl	8001c38 <__NVIC_SetPriority>
 8001d18:	4b05      	ldr	r3, [pc, #20]	; (8001d30 <SysTick_Config+0x40>)
 8001d1a:	2200      	movs	r2, #0
 8001d1c:	609a      	str	r2, [r3, #8]
 8001d1e:	4b04      	ldr	r3, [pc, #16]	; (8001d30 <SysTick_Config+0x40>)
 8001d20:	2207      	movs	r2, #7
 8001d22:	601a      	str	r2, [r3, #0]
 8001d24:	2300      	movs	r3, #0
 8001d26:	4618      	mov	r0, r3
 8001d28:	3708      	adds	r7, #8
 8001d2a:	46bd      	mov	sp, r7
 8001d2c:	bd80      	pop	{r7, pc}
 8001d2e:	bf00      	nop
 8001d30:	e000e010 	.word	0xe000e010

08001d34 <HAL_NVIC_SetPriorityGrouping>:
 8001d34:	b580      	push	{r7, lr}
 8001d36:	b082      	sub	sp, #8
 8001d38:	af00      	add	r7, sp, #0
 8001d3a:	6078      	str	r0, [r7, #4]
 8001d3c:	6878      	ldr	r0, [r7, #4]
 8001d3e:	f7ff ff2d 	bl	8001b9c <__NVIC_SetPriorityGrouping>
 8001d42:	bf00      	nop
 8001d44:	3708      	adds	r7, #8
 8001d46:	46bd      	mov	sp, r7
 8001d48:	bd80      	pop	{r7, pc}

08001d4a <HAL_NVIC_SetPriority>:
 8001d4a:	b580      	push	{r7, lr}
 8001d4c:	b086      	sub	sp, #24
 8001d4e:	af00      	add	r7, sp, #0
 8001d50:	4603      	mov	r3, r0
 8001d52:	60b9      	str	r1, [r7, #8]
 8001d54:	607a      	str	r2, [r7, #4]
 8001d56:	73fb      	strb	r3, [r7, #15]
 8001d58:	2300      	movs	r3, #0
 8001d5a:	617b      	str	r3, [r7, #20]
 8001d5c:	f7ff ff42 	bl	8001be4 <__NVIC_GetPriorityGrouping>
 8001d60:	6178      	str	r0, [r7, #20]
 8001d62:	687a      	ldr	r2, [r7, #4]
 8001d64:	68b9      	ldr	r1, [r7, #8]
 8001d66:	6978      	ldr	r0, [r7, #20]
 8001d68:	f7ff ff90 	bl	8001c8c <NVIC_EncodePriority>
 8001d6c:	4602      	mov	r2, r0
 8001d6e:	f997 300f 	ldrsb.w	r3, [r7, #15]
 8001d72:	4611      	mov	r1, r2
 8001d74:	4618      	mov	r0, r3
 8001d76:	f7ff ff5f 	bl	8001c38 <__NVIC_SetPriority>
 8001d7a:	bf00      	nop
 8001d7c:	3718      	adds	r7, #24
 8001d7e:	46bd      	mov	sp, r7
 8001d80:	bd80      	pop	{r7, pc}

08001d82 <HAL_NVIC_EnableIRQ>:
 8001d82:	b580      	push	{r7, lr}
 8001d84:	b082      	sub	sp, #8
 8001d86:	af00      	add	r7, sp, #0
 8001d88:	4603      	mov	r3, r0
 8001d8a:	71fb      	strb	r3, [r7, #7]
 8001d8c:	f997 3007 	ldrsb.w	r3, [r7, #7]
 8001d90:	4618      	mov	r0, r3
 8001d92:	f7ff ff35 	bl	8001c00 <__NVIC_EnableIRQ>
 8001d96:	bf00      	nop
 8001d98:	3708      	adds	r7, #8
 8001d9a:	46bd      	mov	sp, r7
 8001d9c:	bd80      	pop	{r7, pc}

08001d9e <HAL_SYSTICK_Config>:
 8001d9e:	b580      	push	{r7, lr}
 8001da0:	b082      	sub	sp, #8
 8001da2:	af00      	add	r7, sp, #0
 8001da4:	6078      	str	r0, [r7, #4]
 8001da6:	6878      	ldr	r0, [r7, #4]
 8001da8:	f7ff ffa2 	bl	8001cf0 <SysTick_Config>
 8001dac:	4603      	mov	r3, r0
 8001dae:	4618      	mov	r0, r3
 8001db0:	3708      	adds	r7, #8
 8001db2:	46bd      	mov	sp, r7
 8001db4:	bd80      	pop	{r7, pc}
	...

08001db8 <HAL_DMA_Init>:
 8001db8:	b480      	push	{r7}
 8001dba:	b085      	sub	sp, #20
 8001dbc:	af00      	add	r7, sp, #0
 8001dbe:	6078      	str	r0, [r7, #4]
 8001dc0:	2300      	movs	r3, #0
 8001dc2:	60fb      	str	r3, [r7, #12]
 8001dc4:	687b      	ldr	r3, [r7, #4]
 8001dc6:	2b00      	cmp	r3, #0
 8001dc8:	d101      	bne.n	8001dce <HAL_DMA_Init+0x16>
 8001dca:	2301      	movs	r3, #1
 8001dcc:	e043      	b.n	8001e56 <HAL_DMA_Init+0x9e>
 8001dce:	687b      	ldr	r3, [r7, #4]
 8001dd0:	681b      	ldr	r3, [r3, #0]
 8001dd2:	461a      	mov	r2, r3
 8001dd4:	4b22      	ldr	r3, [pc, #136]	; (8001e60 <HAL_DMA_Init+0xa8>)
 8001dd6:	4413      	add	r3, r2
 8001dd8:	4a22      	ldr	r2, [pc, #136]	; (8001e64 <HAL_DMA_Init+0xac>)
 8001dda:	fba2 2303 	umull	r2, r3, r2, r3
 8001dde:	091b      	lsrs	r3, r3, #4
 8001de0:	009a      	lsls	r2, r3, #2
 8001de2:	687b      	ldr	r3, [r7, #4]
 8001de4:	641a      	str	r2, [r3, #64]	; 0x40
 8001de6:	687b      	ldr	r3, [r7, #4]
 8001de8:	4a1f      	ldr	r2, [pc, #124]	; (8001e68 <HAL_DMA_Init+0xb0>)
 8001dea:	63da      	str	r2, [r3, #60]	; 0x3c
 8001dec:	687b      	ldr	r3, [r7, #4]
 8001dee:	2202      	movs	r2, #2
 8001df0:	f883 2021 	strb.w	r2, [r3, #33]	; 0x21
 8001df4:	687b      	ldr	r3, [r7, #4]
 8001df6:	681b      	ldr	r3, [r3, #0]
 8001df8:	681b      	ldr	r3, [r3, #0]
 8001dfa:	60fb      	str	r3, [r7, #12]
 8001dfc:	68fb      	ldr	r3, [r7, #12]
 8001dfe:	f423 537f 	bic.w	r3, r3, #16320	; 0x3fc0
 8001e02:	f023 0330 	bic.w	r3, r3, #48	; 0x30
 8001e06:	60fb      	str	r3, [r7, #12]
 8001e08:	687b      	ldr	r3, [r7, #4]
 8001e0a:	685a      	ldr	r2, [r3, #4]
 8001e0c:	687b      	ldr	r3, [r7, #4]
 8001e0e:	689b      	ldr	r3, [r3, #8]
 8001e10:	431a      	orrs	r2, r3
 8001e12:	687b      	ldr	r3, [r7, #4]
 8001e14:	68db      	ldr	r3, [r3, #12]
 8001e16:	431a      	orrs	r2, r3
 8001e18:	687b      	ldr	r3, [r7, #4]
 8001e1a:	691b      	ldr	r3, [r3, #16]
 8001e1c:	431a      	orrs	r2, r3
 8001e1e:	687b      	ldr	r3, [r7, #4]
 8001e20:	695b      	ldr	r3, [r3, #20]
 8001e22:	431a      	orrs	r2, r3
 8001e24:	687b      	ldr	r3, [r7, #4]
 8001e26:	699b      	ldr	r3, [r3, #24]
 8001e28:	431a      	orrs	r2, r3
 8001e2a:	687b      	ldr	r3, [r7, #4]
 8001e2c:	69db      	ldr	r3, [r3, #28]
 8001e2e:	4313      	orrs	r3, r2
 8001e30:	68fa      	ldr	r2, [r7, #12]
 8001e32:	4313      	orrs	r3, r2
 8001e34:	60fb      	str	r3, [r7, #12]
 8001e36:	687b      	ldr	r3, [r7, #4]
 8001e38:	681b      	ldr	r3, [r3, #0]
 8001e3a:	68fa      	ldr	r2, [r7, #12]
 8001e3c:	601a      	str	r2, [r3, #0]
 8001e3e:	687b      	ldr	r3, [r7, #4]
 8001e40:	2200      	movs	r2, #0
 8001e42:	639a      	str	r2, [r3, #56]	; 0x38
 8001e44:	687b      	ldr	r3, [r7, #4]
 8001e46:	2201      	movs	r2, #1
 8001e48:	f883 2021 	strb.w	r2, [r3, #33]	; 0x21
 8001e4c:	687b      	ldr	r3, [r7, #4]
 8001e4e:	2200      	movs	r2, #0
 8001e50:	f883 2020 	strb.w	r2, [r3, #32]
 8001e54:	2300      	movs	r3, #0
 8001e56:	4618      	mov	r0, r3
 8001e58:	3714      	adds	r7, #20
 8001e5a:	46bd      	mov	sp, r7
 8001e5c:	bc80      	pop	{r7}
 8001e5e:	4770      	bx	lr
 8001e60:	bffdfff8 	.word	0xbffdfff8
 8001e64:	cccccccd 	.word	0xcccccccd
 8001e68:	40020000 	.word	0x40020000

08001e6c <HAL_DMA_Start_IT>:
 8001e6c:	b580      	push	{r7, lr}
 8001e6e:	b086      	sub	sp, #24
 8001e70:	af00      	add	r7, sp, #0
 8001e72:	60f8      	str	r0, [r7, #12]
 8001e74:	60b9      	str	r1, [r7, #8]
 8001e76:	607a      	str	r2, [r7, #4]
 8001e78:	603b      	str	r3, [r7, #0]
 8001e7a:	2300      	movs	r3, #0
 8001e7c:	75fb      	strb	r3, [r7, #23]
 8001e7e:	68fb      	ldr	r3, [r7, #12]
 8001e80:	f893 3020 	ldrb.w	r3, [r3, #32]
 8001e84:	2b01      	cmp	r3, #1
 8001e86:	d101      	bne.n	8001e8c <HAL_DMA_Start_IT+0x20>
 8001e88:	2302      	movs	r3, #2
 8001e8a:	e04a      	b.n	8001f22 <HAL_DMA_Start_IT+0xb6>
 8001e8c:	68fb      	ldr	r3, [r7, #12]
 8001e8e:	2201      	movs	r2, #1
 8001e90:	f883 2020 	strb.w	r2, [r3, #32]
 8001e94:	68fb      	ldr	r3, [r7, #12]
 8001e96:	f893 3021 	ldrb.w	r3, [r3, #33]	; 0x21
 8001e9a:	2b01      	cmp	r3, #1
 8001e9c:	d13a      	bne.n	8001f14 <HAL_DMA_Start_IT+0xa8>
 8001e9e:	68fb      	ldr	r3, [r7, #12]
 8001ea0:	2202      	movs	r2, #2
 8001ea2:	f883 2021 	strb.w	r2, [r3, #33]	; 0x21
 8001ea6:	68fb      	ldr	r3, [r7, #12]
 8001ea8:	2200      	movs	r2, #0
 8001eaa:	639a      	str	r2, [r3, #56]	; 0x38
 8001eac:	68fb      	ldr	r3, [r7, #12]
 8001eae:	681b      	ldr	r3, [r3, #0]
 8001eb0:	681a      	ldr	r2, [r3, #0]
 8001eb2:	68fb      	ldr	r3, [r7, #12]
 8001eb4:	681b      	ldr	r3, [r3, #0]
 8001eb6:	f022 0201 	bic.w	r2, r2, #1
 8001eba:	601a      	str	r2, [r3, #0]
 8001ebc:	683b      	ldr	r3, [r7, #0]
 8001ebe:	687a      	ldr	r2, [r7, #4]
 8001ec0:	68b9      	ldr	r1, [r7, #8]
 8001ec2:	68f8      	ldr	r0, [r7, #12]
 8001ec4:	f000 f938 	bl	8002138 <DMA_SetConfig>
 8001ec8:	68fb      	ldr	r3, [r7, #12]
 8001eca:	6adb      	ldr	r3, [r3, #44]	; 0x2c
 8001ecc:	2b00      	cmp	r3, #0
 8001ece:	d008      	beq.n	8001ee2 <HAL_DMA_Start_IT+0x76>
 8001ed0:	68fb      	ldr	r3, [r7, #12]
 8001ed2:	681b      	ldr	r3, [r3, #0]
 8001ed4:	681a      	ldr	r2, [r3, #0]
 8001ed6:	68fb      	ldr	r3, [r7, #12]
 8001ed8:	681b      	ldr	r3, [r3, #0]
 8001eda:	f042 020e 	orr.w	r2, r2, #14
 8001ede:	601a      	str	r2, [r3, #0]
 8001ee0:	e00f      	b.n	8001f02 <HAL_DMA_Start_IT+0x96>
 8001ee2:	68fb      	ldr	r3, [r7, #12]
 8001ee4:	681b      	ldr	r3, [r3, #0]
 8001ee6:	681a      	ldr	r2, [r3, #0]
 8001ee8:	68fb      	ldr	r3, [r7, #12]
 8001eea:	681b      	ldr	r3, [r3, #0]
 8001eec:	f022 0204 	bic.w	r2, r2, #4
 8001ef0:	601a      	str	r2, [r3, #0]
 8001ef2:	68fb      	ldr	r3, [r7, #12]
 8001ef4:	681b      	ldr	r3, [r3, #0]
 8001ef6:	681a      	ldr	r2, [r3, #0]
 8001ef8:	68fb      	ldr	r3, [r7, #12]
 8001efa:	681b      	ldr	r3, [r3, #0]
 8001efc:	f042 020a 	orr.w	r2, r2, #10
 8001f00:	601a      	str	r2, [r3, #0]
 8001f02:	68fb      	ldr	r3, [r7, #12]
 8001f04:	681b      	ldr	r3, [r3, #0]
 8001f06:	681a      	ldr	r2, [r3, #0]
 8001f08:	68fb      	ldr	r3, [r7, #12]
 8001f0a:	681b      	ldr	r3, [r3, #0]
 8001f0c:	f042 0201 	orr.w	r2, r2, #1
 8001f10:	601a      	str	r2, [r3, #0]
 8001f12:	e005      	b.n	8001f20 <HAL_DMA_Start_IT+0xb4>
 8001f14:	68fb      	ldr	r3, [r7, #12]
 8001f16:	2200      	movs	r2, #0
 8001f18:	f883 2020 	strb.w	r2, [r3, #32]
 8001f1c:	2302      	movs	r3, #2
 8001f1e:	75fb      	strb	r3, [r7, #23]
 8001f20:	7dfb      	ldrb	r3, [r7, #23]
 8001f22:	4618      	mov	r0, r3
 8001f24:	3718      	adds	r7, #24
 8001f26:	46bd      	mov	sp, r7
 8001f28:	bd80      	pop	{r7, pc}
	...

08001f2c <HAL_DMA_IRQHandler>:
 8001f2c:	b580      	push	{r7, lr}
 8001f2e:	b084      	sub	sp, #16
 8001f30:	af00      	add	r7, sp, #0
 8001f32:	6078      	str	r0, [r7, #4]
 8001f34:	687b      	ldr	r3, [r7, #4]
 8001f36:	6bdb      	ldr	r3, [r3, #60]	; 0x3c
 8001f38:	681b      	ldr	r3, [r3, #0]
 8001f3a:	60fb      	str	r3, [r7, #12]
 8001f3c:	687b      	ldr	r3, [r7, #4]
 8001f3e:	681b      	ldr	r3, [r3, #0]
 8001f40:	681b      	ldr	r3, [r3, #0]
 8001f42:	60bb      	str	r3, [r7, #8]
 8001f44:	687b      	ldr	r3, [r7, #4]
 8001f46:	6c1b      	ldr	r3, [r3, #64]	; 0x40
 8001f48:	2204      	movs	r2, #4
 8001f4a:	409a      	lsls	r2, r3
 8001f4c:	68fb      	ldr	r3, [r7, #12]
 8001f4e:	4013      	ands	r3, r2
 8001f50:	2b00      	cmp	r3, #0
 8001f52:	d04f      	beq.n	8001ff4 <HAL_DMA_IRQHandler+0xc8>
 8001f54:	68bb      	ldr	r3, [r7, #8]
 8001f56:	f003 0304 	and.w	r3, r3, #4
 8001f5a:	2b00      	cmp	r3, #0
 8001f5c:	d04a      	beq.n	8001ff4 <HAL_DMA_IRQHandler+0xc8>
 8001f5e:	687b      	ldr	r3, [r7, #4]
 8001f60:	681b      	ldr	r3, [r3, #0]
 8001f62:	681b      	ldr	r3, [r3, #0]
 8001f64:	f003 0320 	and.w	r3, r3, #32
 8001f68:	2b00      	cmp	r3, #0
 8001f6a:	d107      	bne.n	8001f7c <HAL_DMA_IRQHandler+0x50>
 8001f6c:	687b      	ldr	r3, [r7, #4]
 8001f6e:	681b      	ldr	r3, [r3, #0]
 8001f70:	681a      	ldr	r2, [r3, #0]
 8001f72:	687b      	ldr	r3, [r7, #4]
 8001f74:	681b      	ldr	r3, [r3, #0]
 8001f76:	f022 0204 	bic.w	r2, r2, #4
 8001f7a:	601a      	str	r2, [r3, #0]
 8001f7c:	687b      	ldr	r3, [r7, #4]
 8001f7e:	681b      	ldr	r3, [r3, #0]
 8001f80:	4a66      	ldr	r2, [pc, #408]	; (800211c <HAL_DMA_IRQHandler+0x1f0>)
 8001f82:	4293      	cmp	r3, r2
 8001f84:	d029      	beq.n	8001fda <HAL_DMA_IRQHandler+0xae>
 8001f86:	687b      	ldr	r3, [r7, #4]
 8001f88:	681b      	ldr	r3, [r3, #0]
 8001f8a:	4a65      	ldr	r2, [pc, #404]	; (8002120 <HAL_DMA_IRQHandler+0x1f4>)
 8001f8c:	4293      	cmp	r3, r2
 8001f8e:	d022      	beq.n	8001fd6 <HAL_DMA_IRQHandler+0xaa>
 8001f90:	687b      	ldr	r3, [r7, #4]
 8001f92:	681b      	ldr	r3, [r3, #0]
 8001f94:	4a63      	ldr	r2, [pc, #396]	; (8002124 <HAL_DMA_IRQHandler+0x1f8>)
 8001f96:	4293      	cmp	r3, r2
 8001f98:	d01a      	beq.n	8001fd0 <HAL_DMA_IRQHandler+0xa4>
 8001f9a:	687b      	ldr	r3, [r7, #4]
 8001f9c:	681b      	ldr	r3, [r3, #0]
 8001f9e:	4a62      	ldr	r2, [pc, #392]	; (8002128 <HAL_DMA_IRQHandler+0x1fc>)
 8001fa0:	4293      	cmp	r3, r2
 8001fa2:	d012      	beq.n	8001fca <HAL_DMA_IRQHandler+0x9e>
 8001fa4:	687b      	ldr	r3, [r7, #4]
 8001fa6:	681b      	ldr	r3, [r3, #0]
 8001fa8:	4a60      	ldr	r2, [pc, #384]	; (800212c <HAL_DMA_IRQHandler+0x200>)
 8001faa:	4293      	cmp	r3, r2
 8001fac:	d00a      	beq.n	8001fc4 <HAL_DMA_IRQHandler+0x98>
 8001fae:	687b      	ldr	r3, [r7, #4]
 8001fb0:	681b      	ldr	r3, [r3, #0]
 8001fb2:	4a5f      	ldr	r2, [pc, #380]	; (8002130 <HAL_DMA_IRQHandler+0x204>)
 8001fb4:	4293      	cmp	r3, r2
 8001fb6:	d102      	bne.n	8001fbe <HAL_DMA_IRQHandler+0x92>
 8001fb8:	f44f 0380 	mov.w	r3, #4194304	; 0x400000
 8001fbc:	e00e      	b.n	8001fdc <HAL_DMA_IRQHandler+0xb0>
 8001fbe:	f04f 6380 	mov.w	r3, #67108864	; 0x4000000
 8001fc2:	e00b      	b.n	8001fdc <HAL_DMA_IRQHandler+0xb0>
 8001fc4:	f44f 2380 	mov.w	r3, #262144	; 0x40000
 8001fc8:	e008      	b.n	8001fdc <HAL_DMA_IRQHandler+0xb0>
 8001fca:	f44f 4380 	mov.w	r3, #16384	; 0x4000
 8001fce:	e005      	b.n	8001fdc <HAL_DMA_IRQHandler+0xb0>
 8001fd0:	f44f 6380 	mov.w	r3, #1024	; 0x400
 8001fd4:	e002      	b.n	8001fdc <HAL_DMA_IRQHandler+0xb0>
 8001fd6:	2340      	movs	r3, #64	; 0x40
 8001fd8:	e000      	b.n	8001fdc <HAL_DMA_IRQHandler+0xb0>
 8001fda:	2304      	movs	r3, #4
 8001fdc:	4a55      	ldr	r2, [pc, #340]	; (8002134 <HAL_DMA_IRQHandler+0x208>)
 8001fde:	6053      	str	r3, [r2, #4]
 8001fe0:	687b      	ldr	r3, [r7, #4]
 8001fe2:	6adb      	ldr	r3, [r3, #44]	; 0x2c
 8001fe4:	2b00      	cmp	r3, #0
 8001fe6:	f000 8094 	beq.w	8002112 <HAL_DMA_IRQHandler+0x1e6>
 8001fea:	687b      	ldr	r3, [r7, #4]
 8001fec:	6adb      	ldr	r3, [r3, #44]	; 0x2c
 8001fee:	6878      	ldr	r0, [r7, #4]
 8001ff0:	4798      	blx	r3
 8001ff2:	e08e      	b.n	8002112 <HAL_DMA_IRQHandler+0x1e6>
 8001ff4:	687b      	ldr	r3, [r7, #4]
 8001ff6:	6c1b      	ldr	r3, [r3, #64]	; 0x40
 8001ff8:	2202      	movs	r2, #2
 8001ffa:	409a      	lsls	r2, r3
 8001ffc:	68fb      	ldr	r3, [r7, #12]
 8001ffe:	4013      	ands	r3, r2
 8002000:	2b00      	cmp	r3, #0
 8002002:	d056      	beq.n	80020b2 <HAL_DMA_IRQHandler+0x186>
 8002004:	68bb      	ldr	r3, [r7, #8]
 8002006:	f003 0302 	and.w	r3, r3, #2
 800200a:	2b00      	cmp	r3, #0
 800200c:	d051      	beq.n	80020b2 <HAL_DMA_IRQHandler+0x186>
 800200e:	687b      	ldr	r3, [r7, #4]
 8002010:	681b      	ldr	r3, [r3, #0]
 8002012:	681b      	ldr	r3, [r3, #0]
 8002014:	f003 0320 	and.w	r3, r3, #32
 8002018:	2b00      	cmp	r3, #0
 800201a:	d10b      	bne.n	8002034 <HAL_DMA_IRQHandler+0x108>
 800201c:	687b      	ldr	r3, [r7, #4]
 800201e:	681b      	ldr	r3, [r3, #0]
 8002020:	681a      	ldr	r2, [r3, #0]
 8002022:	687b      	ldr	r3, [r7, #4]
 8002024:	681b      	ldr	r3, [r3, #0]
 8002026:	f022 020a 	bic.w	r2, r2, #10
 800202a:	601a      	str	r2, [r3, #0]
 800202c:	687b      	ldr	r3, [r7, #4]
 800202e:	2201      	movs	r2, #1
 8002030:	f883 2021 	strb.w	r2, [r3, #33]	; 0x21
 8002034:	687b      	ldr	r3, [r7, #4]
 8002036:	681b      	ldr	r3, [r3, #0]
 8002038:	4a38      	ldr	r2, [pc, #224]	; (800211c <HAL_DMA_IRQHandler+0x1f0>)
 800203a:	4293      	cmp	r3, r2
 800203c:	d029      	beq.n	8002092 <HAL_DMA_IRQHandler+0x166>
 800203e:	687b      	ldr	r3, [r7, #4]
 8002040:	681b      	ldr	r3, [r3, #0]
 8002042:	4a37      	ldr	r2, [pc, #220]	; (8002120 <HAL_DMA_IRQHandler+0x1f4>)
 8002044:	4293      	cmp	r3, r2
 8002046:	d022      	beq.n	800208e <HAL_DMA_IRQHandler+0x162>
 8002048:	687b      	ldr	r3, [r7, #4]
 800204a:	681b      	ldr	r3, [r3, #0]
 800204c:	4a35      	ldr	r2, [pc, #212]	; (8002124 <HAL_DMA_IRQHandler+0x1f8>)
 800204e:	4293      	cmp	r3, r2
 8002050:	d01a      	beq.n	8002088 <HAL_DMA_IRQHandler+0x15c>
 8002052:	687b      	ldr	r3, [r7, #4]
 8002054:	681b      	ldr	r3, [r3, #0]
 8002056:	4a34      	ldr	r2, [pc, #208]	; (8002128 <HAL_DMA_IRQHandler+0x1fc>)
 8002058:	4293      	cmp	r3, r2
 800205a:	d012      	beq.n	8002082 <HAL_DMA_IRQHandler+0x156>
 800205c:	687b      	ldr	r3, [r7, #4]
 800205e:	681b      	ldr	r3, [r3, #0]
 8002060:	4a32      	ldr	r2, [pc, #200]	; (800212c <HAL_DMA_IRQHandler+0x200>)
 8002062:	4293      	cmp	r3, r2
 8002064:	d00a      	beq.n	800207c <HAL_DMA_IRQHandler+0x150>
 8002066:	687b      	ldr	r3, [r7, #4]
 8002068:	681b      	ldr	r3, [r3, #0]
 800206a:	4a31      	ldr	r2, [pc, #196]	; (8002130 <HAL_DMA_IRQHandler+0x204>)
 800206c:	4293      	cmp	r3, r2
 800206e:	d102      	bne.n	8002076 <HAL_DMA_IRQHandler+0x14a>
 8002070:	f44f 1300 	mov.w	r3, #2097152	; 0x200000
 8002074:	e00e      	b.n	8002094 <HAL_DMA_IRQHandler+0x168>
 8002076:	f04f 7300 	mov.w	r3, #33554432	; 0x2000000
 800207a:	e00b      	b.n	8002094 <HAL_DMA_IRQHandler+0x168>
 800207c:	f44f 3300 	mov.w	r3, #131072	; 0x20000
 8002080:	e008      	b.n	8002094 <HAL_DMA_IRQHandler+0x168>
 8002082:	f44f 5300 	mov.w	r3, #8192	; 0x2000
 8002086:	e005      	b.n	8002094 <HAL_DMA_IRQHandler+0x168>
 8002088:	f44f 7300 	mov.w	r3, #512	; 0x200
 800208c:	e002      	b.n	8002094 <HAL_DMA_IRQHandler+0x168>
 800208e:	2320      	movs	r3, #32
 8002090:	e000      	b.n	8002094 <HAL_DMA_IRQHandler+0x168>
 8002092:	2302      	movs	r3, #2
 8002094:	4a27      	ldr	r2, [pc, #156]	; (8002134 <HAL_DMA_IRQHandler+0x208>)
 8002096:	6053      	str	r3, [r2, #4]
 8002098:	687b      	ldr	r3, [r7, #4]
 800209a:	2200      	movs	r2, #0
 800209c:	f883 2020 	strb.w	r2, [r3, #32]
 80020a0:	687b      	ldr	r3, [r7, #4]
 80020a2:	6a9b      	ldr	r3, [r3, #40]	; 0x28
 80020a4:	2b00      	cmp	r3, #0
 80020a6:	d034      	beq.n	8002112 <HAL_DMA_IRQHandler+0x1e6>
 80020a8:	687b      	ldr	r3, [r7, #4]
 80020aa:	6a9b      	ldr	r3, [r3, #40]	; 0x28
 80020ac:	6878      	ldr	r0, [r7, #4]
 80020ae:	4798      	blx	r3
 80020b0:	e02f      	b.n	8002112 <HAL_DMA_IRQHandler+0x1e6>
 80020b2:	687b      	ldr	r3, [r7, #4]
 80020b4:	6c1b      	ldr	r3, [r3, #64]	; 0x40
 80020b6:	2208      	movs	r2, #8
 80020b8:	409a      	lsls	r2, r3
 80020ba:	68fb      	ldr	r3, [r7, #12]
 80020bc:	4013      	ands	r3, r2
 80020be:	2b00      	cmp	r3, #0
 80020c0:	d028      	beq.n	8002114 <HAL_DMA_IRQHandler+0x1e8>
 80020c2:	68bb      	ldr	r3, [r7, #8]
 80020c4:	f003 0308 	and.w	r3, r3, #8
 80020c8:	2b00      	cmp	r3, #0
 80020ca:	d023      	beq.n	8002114 <HAL_DMA_IRQHandler+0x1e8>
 80020cc:	687b      	ldr	r3, [r7, #4]
 80020ce:	681b      	ldr	r3, [r3, #0]
 80020d0:	681a      	ldr	r2, [r3, #0]
 80020d2:	687b      	ldr	r3, [r7, #4]
 80020d4:	681b      	ldr	r3, [r3, #0]
 80020d6:	f022 020e 	bic.w	r2, r2, #14
 80020da:	601a      	str	r2, [r3, #0]
 80020dc:	687b      	ldr	r3, [r7, #4]
 80020de:	6c1a      	ldr	r2, [r3, #64]	; 0x40
 80020e0:	687b      	ldr	r3, [r7, #4]
 80020e2:	6bdb      	ldr	r3, [r3, #60]	; 0x3c
 80020e4:	2101      	movs	r1, #1
 80020e6:	fa01 f202 	lsl.w	r2, r1, r2
 80020ea:	605a      	str	r2, [r3, #4]
 80020ec:	687b      	ldr	r3, [r7, #4]
 80020ee:	2201      	movs	r2, #1
 80020f0:	639a      	str	r2, [r3, #56]	; 0x38
 80020f2:	687b      	ldr	r3, [r7, #4]
 80020f4:	2201      	movs	r2, #1
 80020f6:	f883 2021 	strb.w	r2, [r3, #33]	; 0x21
 80020fa:	687b      	ldr	r3, [r7, #4]
 80020fc:	2200      	movs	r2, #0
 80020fe:	f883 2020 	strb.w	r2, [r3, #32]
 8002102:	687b      	ldr	r3, [r7, #4]
 8002104:	6b1b      	ldr	r3, [r3, #48]	; 0x30
 8002106:	2b00      	cmp	r3, #0
 8002108:	d004      	beq.n	8002114 <HAL_DMA_IRQHandler+0x1e8>
 800210a:	687b      	ldr	r3, [r7, #4]
 800210c:	6b1b      	ldr	r3, [r3, #48]	; 0x30
 800210e:	6878      	ldr	r0, [r7, #4]
 8002110:	4798      	blx	r3
 8002112:	bf00      	nop
 8002114:	bf00      	nop
 8002116:	3710      	adds	r7, #16
 8002118:	46bd      	mov	sp, r7
 800211a:	bd80      	pop	{r7, pc}
 800211c:	40020008 	.word	0x40020008
 8002120:	4002001c 	.word	0x4002001c
 8002124:	40020030 	.word	0x40020030
 8002128:	40020044 	.word	0x40020044
 800212c:	40020058 	.word	0x40020058
 8002130:	4002006c 	.word	0x4002006c
 8002134:	40020000 	.word	0x40020000

08002138 <DMA_SetConfig>:
 8002138:	b480      	push	{r7}
 800213a:	b085      	sub	sp, #20
 800213c:	af00      	add	r7, sp, #0
 800213e:	60f8      	str	r0, [r7, #12]
 8002140:	60b9      	str	r1, [r7, #8]
 8002142:	607a      	str	r2, [r7, #4]
 8002144:	603b      	str	r3, [r7, #0]
 8002146:	68fb      	ldr	r3, [r7, #12]
 8002148:	6c1a      	ldr	r2, [r3, #64]	; 0x40
 800214a:	68fb      	ldr	r3, [r7, #12]
 800214c:	6bdb      	ldr	r3, [r3, #60]	; 0x3c
 800214e:	2101      	movs	r1, #1
 8002150:	fa01 f202 	lsl.w	r2, r1, r2
 8002154:	605a      	str	r2, [r3, #4]
 8002156:	68fb      	ldr	r3, [r7, #12]
 8002158:	681b      	ldr	r3, [r3, #0]
 800215a:	683a      	ldr	r2, [r7, #0]
 800215c:	605a      	str	r2, [r3, #4]
 800215e:	68fb      	ldr	r3, [r7, #12]
 8002160:	685b      	ldr	r3, [r3, #4]
 8002162:	2b10      	cmp	r3, #16
 8002164:	d108      	bne.n	8002178 <DMA_SetConfig+0x40>
 8002166:	68fb      	ldr	r3, [r7, #12]
 8002168:	681b      	ldr	r3, [r3, #0]
 800216a:	687a      	ldr	r2, [r7, #4]
 800216c:	609a      	str	r2, [r3, #8]
 800216e:	68fb      	ldr	r3, [r7, #12]
 8002170:	681b      	ldr	r3, [r3, #0]
 8002172:	68ba      	ldr	r2, [r7, #8]
 8002174:	60da      	str	r2, [r3, #12]
 8002176:	e007      	b.n	8002188 <DMA_SetConfig+0x50>
 8002178:	68fb      	ldr	r3, [r7, #12]
 800217a:	681b      	ldr	r3, [r3, #0]
 800217c:	68ba      	ldr	r2, [r7, #8]
 800217e:	609a      	str	r2, [r3, #8]
 8002180:	68fb      	ldr	r3, [r7, #12]
 8002182:	681b      	ldr	r3, [r3, #0]
 8002184:	687a      	ldr	r2, [r7, #4]
 8002186:	60da      	str	r2, [r3, #12]
 8002188:	bf00      	nop
 800218a:	3714      	adds	r7, #20
 800218c:	46bd      	mov	sp, r7
 800218e:	bc80      	pop	{r7}
 8002190:	4770      	bx	lr
	...

08002194 <HAL_GPIO_Init>:
 8002194:	b480      	push	{r7}
 8002196:	b08b      	sub	sp, #44	; 0x2c
 8002198:	af00      	add	r7, sp, #0
 800219a:	6078      	str	r0, [r7, #4]
 800219c:	6039      	str	r1, [r7, #0]
 800219e:	2300      	movs	r3, #0
 80021a0:	627b      	str	r3, [r7, #36]	; 0x24
 80021a2:	2300      	movs	r3, #0
 80021a4:	623b      	str	r3, [r7, #32]
 80021a6:	e169      	b.n	800247c <HAL_GPIO_Init+0x2e8>
 80021a8:	2201      	movs	r2, #1
 80021aa:	6a7b      	ldr	r3, [r7, #36]	; 0x24
 80021ac:	fa02 f303 	lsl.w	r3, r2, r3
 80021b0:	61fb      	str	r3, [r7, #28]
 80021b2:	683b      	ldr	r3, [r7, #0]
 80021b4:	681b      	ldr	r3, [r3, #0]
 80021b6:	69fa      	ldr	r2, [r7, #28]
 80021b8:	4013      	ands	r3, r2
 80021ba:	61bb      	str	r3, [r7, #24]
 80021bc:	69ba      	ldr	r2, [r7, #24]
 80021be:	69fb      	ldr	r3, [r7, #28]
 80021c0:	429a      	cmp	r2, r3
 80021c2:	f040 8158 	bne.w	8002476 <HAL_GPIO_Init+0x2e2>
 80021c6:	683b      	ldr	r3, [r7, #0]
 80021c8:	685b      	ldr	r3, [r3, #4]
 80021ca:	4a9a      	ldr	r2, [pc, #616]	; (8002434 <HAL_GPIO_Init+0x2a0>)
 80021cc:	4293      	cmp	r3, r2
 80021ce:	d05e      	beq.n	800228e <HAL_GPIO_Init+0xfa>
 80021d0:	4a98      	ldr	r2, [pc, #608]	; (8002434 <HAL_GPIO_Init+0x2a0>)
 80021d2:	4293      	cmp	r3, r2
 80021d4:	d875      	bhi.n	80022c2 <HAL_GPIO_Init+0x12e>
 80021d6:	4a98      	ldr	r2, [pc, #608]	; (8002438 <HAL_GPIO_Init+0x2a4>)
 80021d8:	4293      	cmp	r3, r2
 80021da:	d058      	beq.n	800228e <HAL_GPIO_Init+0xfa>
 80021dc:	4a96      	ldr	r2, [pc, #600]	; (8002438 <HAL_GPIO_Init+0x2a4>)
 80021de:	4293      	cmp	r3, r2
 80021e0:	d86f      	bhi.n	80022c2 <HAL_GPIO_Init+0x12e>
 80021e2:	4a96      	ldr	r2, [pc, #600]	; (800243c <HAL_GPIO_Init+0x2a8>)
 80021e4:	4293      	cmp	r3, r2
 80021e6:	d052      	beq.n	800228e <HAL_GPIO_Init+0xfa>
 80021e8:	4a94      	ldr	r2, [pc, #592]	; (800243c <HAL_GPIO_Init+0x2a8>)
 80021ea:	4293      	cmp	r3, r2
 80021ec:	d869      	bhi.n	80022c2 <HAL_GPIO_Init+0x12e>
 80021ee:	4a94      	ldr	r2, [pc, #592]	; (8002440 <HAL_GPIO_Init+0x2ac>)
 80021f0:	4293      	cmp	r3, r2
 80021f2:	d04c      	beq.n	800228e <HAL_GPIO_Init+0xfa>
 80021f4:	4a92      	ldr	r2, [pc, #584]	; (8002440 <HAL_GPIO_Init+0x2ac>)
 80021f6:	4293      	cmp	r3, r2
 80021f8:	d863      	bhi.n	80022c2 <HAL_GPIO_Init+0x12e>
 80021fa:	4a92      	ldr	r2, [pc, #584]	; (8002444 <HAL_GPIO_Init+0x2b0>)
 80021fc:	4293      	cmp	r3, r2
 80021fe:	d046      	beq.n	800228e <HAL_GPIO_Init+0xfa>
 8002200:	4a90      	ldr	r2, [pc, #576]	; (8002444 <HAL_GPIO_Init+0x2b0>)
 8002202:	4293      	cmp	r3, r2
 8002204:	d85d      	bhi.n	80022c2 <HAL_GPIO_Init+0x12e>
 8002206:	2b12      	cmp	r3, #18
 8002208:	d82a      	bhi.n	8002260 <HAL_GPIO_Init+0xcc>
 800220a:	2b12      	cmp	r3, #18
 800220c:	d859      	bhi.n	80022c2 <HAL_GPIO_Init+0x12e>
 800220e:	a201      	add	r2, pc, #4	; (adr r2, 8002214 <HAL_GPIO_Init+0x80>)
 8002210:	f852 f023 	ldr.w	pc, [r2, r3, lsl #2]
 8002214:	0800228f 	.word	0x0800228f
 8002218:	08002269 	.word	0x08002269
 800221c:	0800227b 	.word	0x0800227b
 8002220:	080022bd 	.word	0x080022bd
 8002224:	080022c3 	.word	0x080022c3
 8002228:	080022c3 	.word	0x080022c3
 800222c:	080022c3 	.word	0x080022c3
 8002230:	080022c3 	.word	0x080022c3
 8002234:	080022c3 	.word	0x080022c3
 8002238:	080022c3 	.word	0x080022c3
 800223c:	080022c3 	.word	0x080022c3
 8002240:	080022c3 	.word	0x080022c3
 8002244:	080022c3 	.word	0x080022c3
 8002248:	080022c3 	.word	0x080022c3
 800224c:	080022c3 	.word	0x080022c3
 8002250:	080022c3 	.word	0x080022c3
 8002254:	080022c3 	.word	0x080022c3
 8002258:	08002271 	.word	0x08002271
 800225c:	08002285 	.word	0x08002285
 8002260:	4a79      	ldr	r2, [pc, #484]	; (8002448 <HAL_GPIO_Init+0x2b4>)
 8002262:	4293      	cmp	r3, r2
 8002264:	d013      	beq.n	800228e <HAL_GPIO_Init+0xfa>
 8002266:	e02c      	b.n	80022c2 <HAL_GPIO_Init+0x12e>
 8002268:	683b      	ldr	r3, [r7, #0]
 800226a:	68db      	ldr	r3, [r3, #12]
 800226c:	623b      	str	r3, [r7, #32]
 800226e:	e029      	b.n	80022c4 <HAL_GPIO_Init+0x130>
 8002270:	683b      	ldr	r3, [r7, #0]
 8002272:	68db      	ldr	r3, [r3, #12]
 8002274:	3304      	adds	r3, #4
 8002276:	623b      	str	r3, [r7, #32]
 8002278:	e024      	b.n	80022c4 <HAL_GPIO_Init+0x130>
 800227a:	683b      	ldr	r3, [r7, #0]
 800227c:	68db      	ldr	r3, [r3, #12]
 800227e:	3308      	adds	r3, #8
 8002280:	623b      	str	r3, [r7, #32]
 8002282:	e01f      	b.n	80022c4 <HAL_GPIO_Init+0x130>
 8002284:	683b      	ldr	r3, [r7, #0]
 8002286:	68db      	ldr	r3, [r3, #12]
 8002288:	330c      	adds	r3, #12
 800228a:	623b      	str	r3, [r7, #32]
 800228c:	e01a      	b.n	80022c4 <HAL_GPIO_Init+0x130>
 800228e:	683b      	ldr	r3, [r7, #0]
 8002290:	689b      	ldr	r3, [r3, #8]
 8002292:	2b00      	cmp	r3, #0
 8002294:	d102      	bne.n	800229c <HAL_GPIO_Init+0x108>
 8002296:	2304      	movs	r3, #4
 8002298:	623b      	str	r3, [r7, #32]
 800229a:	e013      	b.n	80022c4 <HAL_GPIO_Init+0x130>
 800229c:	683b      	ldr	r3, [r7, #0]
 800229e:	689b      	ldr	r3, [r3, #8]
 80022a0:	2b01      	cmp	r3, #1
 80022a2:	d105      	bne.n	80022b0 <HAL_GPIO_Init+0x11c>
 80022a4:	2308      	movs	r3, #8
 80022a6:	623b      	str	r3, [r7, #32]
 80022a8:	687b      	ldr	r3, [r7, #4]
 80022aa:	69fa      	ldr	r2, [r7, #28]
 80022ac:	611a      	str	r2, [r3, #16]
 80022ae:	e009      	b.n	80022c4 <HAL_GPIO_Init+0x130>
 80022b0:	2308      	movs	r3, #8
 80022b2:	623b      	str	r3, [r7, #32]
 80022b4:	687b      	ldr	r3, [r7, #4]
 80022b6:	69fa      	ldr	r2, [r7, #28]
 80022b8:	615a      	str	r2, [r3, #20]
 80022ba:	e003      	b.n	80022c4 <HAL_GPIO_Init+0x130>
 80022bc:	2300      	movs	r3, #0
 80022be:	623b      	str	r3, [r7, #32]
 80022c0:	e000      	b.n	80022c4 <HAL_GPIO_Init+0x130>
 80022c2:	bf00      	nop
 80022c4:	69bb      	ldr	r3, [r7, #24]
 80022c6:	2bff      	cmp	r3, #255	; 0xff
 80022c8:	d801      	bhi.n	80022ce <HAL_GPIO_Init+0x13a>
 80022ca:	687b      	ldr	r3, [r7, #4]
 80022cc:	e001      	b.n	80022d2 <HAL_GPIO_Init+0x13e>
 80022ce:	687b      	ldr	r3, [r7, #4]
 80022d0:	3304      	adds	r3, #4
 80022d2:	617b      	str	r3, [r7, #20]
 80022d4:	69bb      	ldr	r3, [r7, #24]
 80022d6:	2bff      	cmp	r3, #255	; 0xff
 80022d8:	d802      	bhi.n	80022e0 <HAL_GPIO_Init+0x14c>
 80022da:	6a7b      	ldr	r3, [r7, #36]	; 0x24
 80022dc:	009b      	lsls	r3, r3, #2
 80022de:	e002      	b.n	80022e6 <HAL_GPIO_Init+0x152>
 80022e0:	6a7b      	ldr	r3, [r7, #36]	; 0x24
 80022e2:	3b08      	subs	r3, #8
 80022e4:	009b      	lsls	r3, r3, #2
 80022e6:	613b      	str	r3, [r7, #16]
 80022e8:	697b      	ldr	r3, [r7, #20]
 80022ea:	681a      	ldr	r2, [r3, #0]
 80022ec:	210f      	movs	r1, #15
 80022ee:	693b      	ldr	r3, [r7, #16]
 80022f0:	fa01 f303 	lsl.w	r3, r1, r3
 80022f4:	43db      	mvns	r3, r3
 80022f6:	401a      	ands	r2, r3
 80022f8:	6a39      	ldr	r1, [r7, #32]
 80022fa:	693b      	ldr	r3, [r7, #16]
 80022fc:	fa01 f303 	lsl.w	r3, r1, r3
 8002300:	431a      	orrs	r2, r3
 8002302:	697b      	ldr	r3, [r7, #20]
 8002304:	601a      	str	r2, [r3, #0]
 8002306:	683b      	ldr	r3, [r7, #0]
 8002308:	685b      	ldr	r3, [r3, #4]
 800230a:	f003 5380 	and.w	r3, r3, #268435456	; 0x10000000
 800230e:	2b00      	cmp	r3, #0
 8002310:	f000 80b1 	beq.w	8002476 <HAL_GPIO_Init+0x2e2>
 8002314:	4b4d      	ldr	r3, [pc, #308]	; (800244c <HAL_GPIO_Init+0x2b8>)
 8002316:	699b      	ldr	r3, [r3, #24]
 8002318:	4a4c      	ldr	r2, [pc, #304]	; (800244c <HAL_GPIO_Init+0x2b8>)
 800231a:	f043 0301 	orr.w	r3, r3, #1
 800231e:	6193      	str	r3, [r2, #24]
 8002320:	4b4a      	ldr	r3, [pc, #296]	; (800244c <HAL_GPIO_Init+0x2b8>)
 8002322:	699b      	ldr	r3, [r3, #24]
 8002324:	f003 0301 	and.w	r3, r3, #1
 8002328:	60bb      	str	r3, [r7, #8]
 800232a:	68bb      	ldr	r3, [r7, #8]
 800232c:	4a48      	ldr	r2, [pc, #288]	; (8002450 <HAL_GPIO_Init+0x2bc>)
 800232e:	6a7b      	ldr	r3, [r7, #36]	; 0x24
 8002330:	089b      	lsrs	r3, r3, #2
 8002332:	3302      	adds	r3, #2
 8002334:	f852 3023 	ldr.w	r3, [r2, r3, lsl #2]
 8002338:	60fb      	str	r3, [r7, #12]
 800233a:	6a7b      	ldr	r3, [r7, #36]	; 0x24
 800233c:	f003 0303 	and.w	r3, r3, #3
 8002340:	009b      	lsls	r3, r3, #2
 8002342:	220f      	movs	r2, #15
 8002344:	fa02 f303 	lsl.w	r3, r2, r3
 8002348:	43db      	mvns	r3, r3
 800234a:	68fa      	ldr	r2, [r7, #12]
 800234c:	4013      	ands	r3, r2
 800234e:	60fb      	str	r3, [r7, #12]
 8002350:	687b      	ldr	r3, [r7, #4]
 8002352:	4a40      	ldr	r2, [pc, #256]	; (8002454 <HAL_GPIO_Init+0x2c0>)
 8002354:	4293      	cmp	r3, r2
 8002356:	d013      	beq.n	8002380 <HAL_GPIO_Init+0x1ec>
 8002358:	687b      	ldr	r3, [r7, #4]
 800235a:	4a3f      	ldr	r2, [pc, #252]	; (8002458 <HAL_GPIO_Init+0x2c4>)
 800235c:	4293      	cmp	r3, r2
 800235e:	d00d      	beq.n	800237c <HAL_GPIO_Init+0x1e8>
 8002360:	687b      	ldr	r3, [r7, #4]
 8002362:	4a3e      	ldr	r2, [pc, #248]	; (800245c <HAL_GPIO_Init+0x2c8>)
 8002364:	4293      	cmp	r3, r2
 8002366:	d007      	beq.n	8002378 <HAL_GPIO_Init+0x1e4>
 8002368:	687b      	ldr	r3, [r7, #4]
 800236a:	4a3d      	ldr	r2, [pc, #244]	; (8002460 <HAL_GPIO_Init+0x2cc>)
 800236c:	4293      	cmp	r3, r2
 800236e:	d101      	bne.n	8002374 <HAL_GPIO_Init+0x1e0>
 8002370:	2303      	movs	r3, #3
 8002372:	e006      	b.n	8002382 <HAL_GPIO_Init+0x1ee>
 8002374:	2304      	movs	r3, #4
 8002376:	e004      	b.n	8002382 <HAL_GPIO_Init+0x1ee>
 8002378:	2302      	movs	r3, #2
 800237a:	e002      	b.n	8002382 <HAL_GPIO_Init+0x1ee>
 800237c:	2301      	movs	r3, #1
 800237e:	e000      	b.n	8002382 <HAL_GPIO_Init+0x1ee>
 8002380:	2300      	movs	r3, #0
 8002382:	6a7a      	ldr	r2, [r7, #36]	; 0x24
 8002384:	f002 0203 	and.w	r2, r2, #3
 8002388:	0092      	lsls	r2, r2, #2
 800238a:	4093      	lsls	r3, r2
 800238c:	68fa      	ldr	r2, [r7, #12]
 800238e:	4313      	orrs	r3, r2
 8002390:	60fb      	str	r3, [r7, #12]
 8002392:	492f      	ldr	r1, [pc, #188]	; (8002450 <HAL_GPIO_Init+0x2bc>)
 8002394:	6a7b      	ldr	r3, [r7, #36]	; 0x24
 8002396:	089b      	lsrs	r3, r3, #2
 8002398:	3302      	adds	r3, #2
 800239a:	68fa      	ldr	r2, [r7, #12]
 800239c:	f841 2023 	str.w	r2, [r1, r3, lsl #2]
 80023a0:	683b      	ldr	r3, [r7, #0]
 80023a2:	685b      	ldr	r3, [r3, #4]
 80023a4:	f403 3380 	and.w	r3, r3, #65536	; 0x10000
 80023a8:	2b00      	cmp	r3, #0
 80023aa:	d006      	beq.n	80023ba <HAL_GPIO_Init+0x226>
 80023ac:	4b2d      	ldr	r3, [pc, #180]	; (8002464 <HAL_GPIO_Init+0x2d0>)
 80023ae:	681a      	ldr	r2, [r3, #0]
 80023b0:	492c      	ldr	r1, [pc, #176]	; (8002464 <HAL_GPIO_Init+0x2d0>)
 80023b2:	69bb      	ldr	r3, [r7, #24]
 80023b4:	4313      	orrs	r3, r2
 80023b6:	600b      	str	r3, [r1, #0]
 80023b8:	e006      	b.n	80023c8 <HAL_GPIO_Init+0x234>
 80023ba:	4b2a      	ldr	r3, [pc, #168]	; (8002464 <HAL_GPIO_Init+0x2d0>)
 80023bc:	681a      	ldr	r2, [r3, #0]
 80023be:	69bb      	ldr	r3, [r7, #24]
 80023c0:	43db      	mvns	r3, r3
 80023c2:	4928      	ldr	r1, [pc, #160]	; (8002464 <HAL_GPIO_Init+0x2d0>)
 80023c4:	4013      	ands	r3, r2
 80023c6:	600b      	str	r3, [r1, #0]
 80023c8:	683b      	ldr	r3, [r7, #0]
 80023ca:	685b      	ldr	r3, [r3, #4]
 80023cc:	f403 3300 	and.w	r3, r3, #131072	; 0x20000
 80023d0:	2b00      	cmp	r3, #0
 80023d2:	d006      	beq.n	80023e2 <HAL_GPIO_Init+0x24e>
 80023d4:	4b23      	ldr	r3, [pc, #140]	; (8002464 <HAL_GPIO_Init+0x2d0>)
 80023d6:	685a      	ldr	r2, [r3, #4]
 80023d8:	4922      	ldr	r1, [pc, #136]	; (8002464 <HAL_GPIO_Init+0x2d0>)
 80023da:	69bb      	ldr	r3, [r7, #24]
 80023dc:	4313      	orrs	r3, r2
 80023de:	604b      	str	r3, [r1, #4]
 80023e0:	e006      	b.n	80023f0 <HAL_GPIO_Init+0x25c>
 80023e2:	4b20      	ldr	r3, [pc, #128]	; (8002464 <HAL_GPIO_Init+0x2d0>)
 80023e4:	685a      	ldr	r2, [r3, #4]
 80023e6:	69bb      	ldr	r3, [r7, #24]
 80023e8:	43db      	mvns	r3, r3
 80023ea:	491e      	ldr	r1, [pc, #120]	; (8002464 <HAL_GPIO_Init+0x2d0>)
 80023ec:	4013      	ands	r3, r2
 80023ee:	604b      	str	r3, [r1, #4]
 80023f0:	683b      	ldr	r3, [r7, #0]
 80023f2:	685b      	ldr	r3, [r3, #4]
 80023f4:	f403 1380 	and.w	r3, r3, #1048576	; 0x100000
 80023f8:	2b00      	cmp	r3, #0
 80023fa:	d006      	beq.n	800240a <HAL_GPIO_Init+0x276>
 80023fc:	4b19      	ldr	r3, [pc, #100]	; (8002464 <HAL_GPIO_Init+0x2d0>)
 80023fe:	689a      	ldr	r2, [r3, #8]
 8002400:	4918      	ldr	r1, [pc, #96]	; (8002464 <HAL_GPIO_Init+0x2d0>)
 8002402:	69bb      	ldr	r3, [r7, #24]
 8002404:	4313      	orrs	r3, r2
 8002406:	608b      	str	r3, [r1, #8]
 8002408:	e006      	b.n	8002418 <HAL_GPIO_Init+0x284>
 800240a:	4b16      	ldr	r3, [pc, #88]	; (8002464 <HAL_GPIO_Init+0x2d0>)
 800240c:	689a      	ldr	r2, [r3, #8]
 800240e:	69bb      	ldr	r3, [r7, #24]
 8002410:	43db      	mvns	r3, r3
 8002412:	4914      	ldr	r1, [pc, #80]	; (8002464 <HAL_GPIO_Init+0x2d0>)
 8002414:	4013      	ands	r3, r2
 8002416:	608b      	str	r3, [r1, #8]
 8002418:	683b      	ldr	r3, [r7, #0]
 800241a:	685b      	ldr	r3, [r3, #4]
 800241c:	f403 1300 	and.w	r3, r3, #2097152	; 0x200000
 8002420:	2b00      	cmp	r3, #0
 8002422:	d021      	beq.n	8002468 <HAL_GPIO_Init+0x2d4>
 8002424:	4b0f      	ldr	r3, [pc, #60]	; (8002464 <HAL_GPIO_Init+0x2d0>)
 8002426:	68da      	ldr	r2, [r3, #12]
 8002428:	490e      	ldr	r1, [pc, #56]	; (8002464 <HAL_GPIO_Init+0x2d0>)
 800242a:	69bb      	ldr	r3, [r7, #24]
 800242c:	4313      	orrs	r3, r2
 800242e:	60cb      	str	r3, [r1, #12]
 8002430:	e021      	b.n	8002476 <HAL_GPIO_Init+0x2e2>
 8002432:	bf00      	nop
 8002434:	10320000 	.word	0x10320000
 8002438:	10310000 	.word	0x10310000
 800243c:	10220000 	.word	0x10220000
 8002440:	10210000 	.word	0x10210000
 8002444:	10120000 	.word	0x10120000
 8002448:	10110000 	.word	0x10110000
 800244c:	40021000 	.word	0x40021000
 8002450:	40010000 	.word	0x40010000
 8002454:	40010800 	.word	0x40010800
 8002458:	40010c00 	.word	0x40010c00
 800245c:	40011000 	.word	0x40011000
 8002460:	40011400 	.word	0x40011400
 8002464:	40010400 	.word	0x40010400
 8002468:	4b0b      	ldr	r3, [pc, #44]	; (8002498 <HAL_GPIO_Init+0x304>)
 800246a:	68da      	ldr	r2, [r3, #12]
 800246c:	69bb      	ldr	r3, [r7, #24]
 800246e:	43db      	mvns	r3, r3
 8002470:	4909      	ldr	r1, [pc, #36]	; (8002498 <HAL_GPIO_Init+0x304>)
 8002472:	4013      	ands	r3, r2
 8002474:	60cb      	str	r3, [r1, #12]
 8002476:	6a7b      	ldr	r3, [r7, #36]	; 0x24
 8002478:	3301      	adds	r3, #1
 800247a:	627b      	str	r3, [r7, #36]	; 0x24
 800247c:	683b      	ldr	r3, [r7, #0]
 800247e:	681a      	ldr	r2, [r3, #0]
 8002480:	6a7b      	ldr	r3, [r7, #36]	; 0x24
 8002482:	fa22 f303 	lsr.w	r3, r2, r3
 8002486:	2b00      	cmp	r3, #0
 8002488:	f47f ae8e 	bne.w	80021a8 <HAL_GPIO_Init+0x14>
 800248c:	bf00      	nop
 800248e:	bf00      	nop
 8002490:	372c      	adds	r7, #44	; 0x2c
 8002492:	46bd      	mov	sp, r7
 8002494:	bc80      	pop	{r7}
 8002496:	4770      	bx	lr
 8002498:	40010400 	.word	0x40010400

0800249c <HAL_GPIO_WritePin>:
 800249c:	b480      	push	{r7}
 800249e:	b083      	sub	sp, #12
 80024a0:	af00      	add	r7, sp, #0
 80024a2:	6078      	str	r0, [r7, #4]
 80024a4:	460b      	mov	r3, r1
 80024a6:	807b      	strh	r3, [r7, #2]
 80024a8:	4613      	mov	r3, r2
 80024aa:	707b      	strb	r3, [r7, #1]
 80024ac:	787b      	ldrb	r3, [r7, #1]
 80024ae:	2b00      	cmp	r3, #0
 80024b0:	d003      	beq.n	80024ba <HAL_GPIO_WritePin+0x1e>
 80024b2:	887a      	ldrh	r2, [r7, #2]
 80024b4:	687b      	ldr	r3, [r7, #4]
 80024b6:	611a      	str	r2, [r3, #16]
 80024b8:	e003      	b.n	80024c2 <HAL_GPIO_WritePin+0x26>
 80024ba:	887b      	ldrh	r3, [r7, #2]
 80024bc:	041a      	lsls	r2, r3, #16
 80024be:	687b      	ldr	r3, [r7, #4]
 80024c0:	611a      	str	r2, [r3, #16]
 80024c2:	bf00      	nop
 80024c4:	370c      	adds	r7, #12
 80024c6:	46bd      	mov	sp, r7
 80024c8:	bc80      	pop	{r7}
 80024ca:	4770      	bx	lr

080024cc <HAL_GPIO_EXTI_IRQHandler>:
 80024cc:	b580      	push	{r7, lr}
 80024ce:	b082      	sub	sp, #8
 80024d0:	af00      	add	r7, sp, #0
 80024d2:	4603      	mov	r3, r0
 80024d4:	80fb      	strh	r3, [r7, #6]
 80024d6:	4b08      	ldr	r3, [pc, #32]	; (80024f8 <HAL_GPIO_EXTI_IRQHandler+0x2c>)
 80024d8:	695a      	ldr	r2, [r3, #20]
 80024da:	88fb      	ldrh	r3, [r7, #6]
 80024dc:	4013      	ands	r3, r2
 80024de:	2b00      	cmp	r3, #0
 80024e0:	d006      	beq.n	80024f0 <HAL_GPIO_EXTI_IRQHandler+0x24>
 80024e2:	4a05      	ldr	r2, [pc, #20]	; (80024f8 <HAL_GPIO_EXTI_IRQHandler+0x2c>)
 80024e4:	88fb      	ldrh	r3, [r7, #6]
 80024e6:	6153      	str	r3, [r2, #20]
 80024e8:	88fb      	ldrh	r3, [r7, #6]
 80024ea:	4618      	mov	r0, r3
 80024ec:	f7fe fb4a 	bl	8000b84 <HAL_GPIO_EXTI_Callback>
 80024f0:	bf00      	nop
 80024f2:	3708      	adds	r7, #8
 80024f4:	46bd      	mov	sp, r7
 80024f6:	bd80      	pop	{r7, pc}
 80024f8:	40010400 	.word	0x40010400

080024fc <HAL_I2C_Init>:
 80024fc:	b580      	push	{r7, lr}
 80024fe:	b084      	sub	sp, #16
 8002500:	af00      	add	r7, sp, #0
 8002502:	6078      	str	r0, [r7, #4]
 8002504:	687b      	ldr	r3, [r7, #4]
 8002506:	2b00      	cmp	r3, #0
 8002508:	d101      	bne.n	800250e <HAL_I2C_Init+0x12>
 800250a:	2301      	movs	r3, #1
 800250c:	e12b      	b.n	8002766 <HAL_I2C_Init+0x26a>
 800250e:	687b      	ldr	r3, [r7, #4]
 8002510:	f893 303d 	ldrb.w	r3, [r3, #61]	; 0x3d
 8002514:	b2db      	uxtb	r3, r3
 8002516:	2b00      	cmp	r3, #0
 8002518:	d106      	bne.n	8002528 <HAL_I2C_Init+0x2c>
 800251a:	687b      	ldr	r3, [r7, #4]
 800251c:	2200      	movs	r2, #0
 800251e:	f883 203c 	strb.w	r2, [r3, #60]	; 0x3c
 8002522:	6878      	ldr	r0, [r7, #4]
 8002524:	f7fe fc9c 	bl	8000e60 <HAL_I2C_MspInit>
 8002528:	687b      	ldr	r3, [r7, #4]
 800252a:	2224      	movs	r2, #36	; 0x24
 800252c:	f883 203d 	strb.w	r2, [r3, #61]	; 0x3d
 8002530:	687b      	ldr	r3, [r7, #4]
 8002532:	681b      	ldr	r3, [r3, #0]
 8002534:	681a      	ldr	r2, [r3, #0]
 8002536:	687b      	ldr	r3, [r7, #4]
 8002538:	681b      	ldr	r3, [r3, #0]
 800253a:	f022 0201 	bic.w	r2, r2, #1
 800253e:	601a      	str	r2, [r3, #0]
 8002540:	687b      	ldr	r3, [r7, #4]
 8002542:	681b      	ldr	r3, [r3, #0]
 8002544:	681a      	ldr	r2, [r3, #0]
 8002546:	687b      	ldr	r3, [r7, #4]
 8002548:	681b      	ldr	r3, [r3, #0]
 800254a:	f442 4200 	orr.w	r2, r2, #32768	; 0x8000
 800254e:	601a      	str	r2, [r3, #0]
 8002550:	687b      	ldr	r3, [r7, #4]
 8002552:	681b      	ldr	r3, [r3, #0]
 8002554:	681a      	ldr	r2, [r3, #0]
 8002556:	687b      	ldr	r3, [r7, #4]
 8002558:	681b      	ldr	r3, [r3, #0]
 800255a:	f422 4200 	bic.w	r2, r2, #32768	; 0x8000
 800255e:	601a      	str	r2, [r3, #0]
 8002560:	f000 ffea 	bl	8003538 <HAL_RCC_GetPCLK1Freq>
 8002564:	60f8      	str	r0, [r7, #12]
 8002566:	687b      	ldr	r3, [r7, #4]
 8002568:	685b      	ldr	r3, [r3, #4]
 800256a:	4a81      	ldr	r2, [pc, #516]	; (8002770 <HAL_I2C_Init+0x274>)
 800256c:	4293      	cmp	r3, r2
 800256e:	d807      	bhi.n	8002580 <HAL_I2C_Init+0x84>
 8002570:	68fb      	ldr	r3, [r7, #12]
 8002572:	4a80      	ldr	r2, [pc, #512]	; (8002774 <HAL_I2C_Init+0x278>)
 8002574:	4293      	cmp	r3, r2
 8002576:	bf94      	ite	ls
 8002578:	2301      	movls	r3, #1
 800257a:	2300      	movhi	r3, #0
 800257c:	b2db      	uxtb	r3, r3
 800257e:	e006      	b.n	800258e <HAL_I2C_Init+0x92>
 8002580:	68fb      	ldr	r3, [r7, #12]
 8002582:	4a7d      	ldr	r2, [pc, #500]	; (8002778 <HAL_I2C_Init+0x27c>)
 8002584:	4293      	cmp	r3, r2
 8002586:	bf94      	ite	ls
 8002588:	2301      	movls	r3, #1
 800258a:	2300      	movhi	r3, #0
 800258c:	b2db      	uxtb	r3, r3
 800258e:	2b00      	cmp	r3, #0
 8002590:	d001      	beq.n	8002596 <HAL_I2C_Init+0x9a>
 8002592:	2301      	movs	r3, #1
 8002594:	e0e7      	b.n	8002766 <HAL_I2C_Init+0x26a>
 8002596:	68fb      	ldr	r3, [r7, #12]
 8002598:	4a78      	ldr	r2, [pc, #480]	; (800277c <HAL_I2C_Init+0x280>)
 800259a:	fba2 2303 	umull	r2, r3, r2, r3
 800259e:	0c9b      	lsrs	r3, r3, #18
 80025a0:	60bb      	str	r3, [r7, #8]
 80025a2:	687b      	ldr	r3, [r7, #4]
 80025a4:	681b      	ldr	r3, [r3, #0]
 80025a6:	685b      	ldr	r3, [r3, #4]
 80025a8:	f023 013f 	bic.w	r1, r3, #63	; 0x3f
 80025ac:	687b      	ldr	r3, [r7, #4]
 80025ae:	681b      	ldr	r3, [r3, #0]
 80025b0:	68ba      	ldr	r2, [r7, #8]
 80025b2:	430a      	orrs	r2, r1
 80025b4:	605a      	str	r2, [r3, #4]
 80025b6:	687b      	ldr	r3, [r7, #4]
 80025b8:	681b      	ldr	r3, [r3, #0]
 80025ba:	6a1b      	ldr	r3, [r3, #32]
 80025bc:	f023 013f 	bic.w	r1, r3, #63	; 0x3f
 80025c0:	687b      	ldr	r3, [r7, #4]
 80025c2:	685b      	ldr	r3, [r3, #4]
 80025c4:	4a6a      	ldr	r2, [pc, #424]	; (8002770 <HAL_I2C_Init+0x274>)
 80025c6:	4293      	cmp	r3, r2
 80025c8:	d802      	bhi.n	80025d0 <HAL_I2C_Init+0xd4>
 80025ca:	68bb      	ldr	r3, [r7, #8]
 80025cc:	3301      	adds	r3, #1
 80025ce:	e009      	b.n	80025e4 <HAL_I2C_Init+0xe8>
 80025d0:	68bb      	ldr	r3, [r7, #8]
 80025d2:	f44f 7296 	mov.w	r2, #300	; 0x12c
 80025d6:	fb02 f303 	mul.w	r3, r2, r3
 80025da:	4a69      	ldr	r2, [pc, #420]	; (8002780 <HAL_I2C_Init+0x284>)
 80025dc:	fba2 2303 	umull	r2, r3, r2, r3
 80025e0:	099b      	lsrs	r3, r3, #6
 80025e2:	3301      	adds	r3, #1
 80025e4:	687a      	ldr	r2, [r7, #4]
 80025e6:	6812      	ldr	r2, [r2, #0]
 80025e8:	430b      	orrs	r3, r1
 80025ea:	6213      	str	r3, [r2, #32]
 80025ec:	687b      	ldr	r3, [r7, #4]
 80025ee:	681b      	ldr	r3, [r3, #0]
 80025f0:	69db      	ldr	r3, [r3, #28]
 80025f2:	f423 424f 	bic.w	r2, r3, #52992	; 0xcf00
 80025f6:	f022 02ff 	bic.w	r2, r2, #255	; 0xff
 80025fa:	687b      	ldr	r3, [r7, #4]
 80025fc:	685b      	ldr	r3, [r3, #4]
 80025fe:	495c      	ldr	r1, [pc, #368]	; (8002770 <HAL_I2C_Init+0x274>)
 8002600:	428b      	cmp	r3, r1
 8002602:	d819      	bhi.n	8002638 <HAL_I2C_Init+0x13c>
 8002604:	68fb      	ldr	r3, [r7, #12]
 8002606:	1e59      	subs	r1, r3, #1
 8002608:	687b      	ldr	r3, [r7, #4]
 800260a:	685b      	ldr	r3, [r3, #4]
 800260c:	005b      	lsls	r3, r3, #1
 800260e:	fbb1 f3f3 	udiv	r3, r1, r3
 8002612:	1c59      	adds	r1, r3, #1
 8002614:	f640 73fc 	movw	r3, #4092	; 0xffc
 8002618:	400b      	ands	r3, r1
 800261a:	2b00      	cmp	r3, #0
 800261c:	d00a      	beq.n	8002634 <HAL_I2C_Init+0x138>
 800261e:	68fb      	ldr	r3, [r7, #12]
 8002620:	1e59      	subs	r1, r3, #1
 8002622:	687b      	ldr	r3, [r7, #4]
 8002624:	685b      	ldr	r3, [r3, #4]
 8002626:	005b      	lsls	r3, r3, #1
 8002628:	fbb1 f3f3 	udiv	r3, r1, r3
 800262c:	3301      	adds	r3, #1
 800262e:	f3c3 030b 	ubfx	r3, r3, #0, #12
 8002632:	e051      	b.n	80026d8 <HAL_I2C_Init+0x1dc>
 8002634:	2304      	movs	r3, #4
 8002636:	e04f      	b.n	80026d8 <HAL_I2C_Init+0x1dc>
 8002638:	687b      	ldr	r3, [r7, #4]
 800263a:	689b      	ldr	r3, [r3, #8]
 800263c:	2b00      	cmp	r3, #0
 800263e:	d111      	bne.n	8002664 <HAL_I2C_Init+0x168>
 8002640:	68fb      	ldr	r3, [r7, #12]
 8002642:	1e58      	subs	r0, r3, #1
 8002644:	687b      	ldr	r3, [r7, #4]
 8002646:	6859      	ldr	r1, [r3, #4]
 8002648:	460b      	mov	r3, r1
 800264a:	005b      	lsls	r3, r3, #1
 800264c:	440b      	add	r3, r1
 800264e:	fbb0 f3f3 	udiv	r3, r0, r3
 8002652:	3301      	adds	r3, #1
 8002654:	f3c3 030b 	ubfx	r3, r3, #0, #12
 8002658:	2b00      	cmp	r3, #0
 800265a:	bf0c      	ite	eq
 800265c:	2301      	moveq	r3, #1
 800265e:	2300      	movne	r3, #0
 8002660:	b2db      	uxtb	r3, r3
 8002662:	e012      	b.n	800268a <HAL_I2C_Init+0x18e>
 8002664:	68fb      	ldr	r3, [r7, #12]
 8002666:	1e58      	subs	r0, r3, #1
 8002668:	687b      	ldr	r3, [r7, #4]
 800266a:	6859      	ldr	r1, [r3, #4]
 800266c:	460b      	mov	r3, r1
 800266e:	009b      	lsls	r3, r3, #2
 8002670:	440b      	add	r3, r1
 8002672:	0099      	lsls	r1, r3, #2
 8002674:	440b      	add	r3, r1
 8002676:	fbb0 f3f3 	udiv	r3, r0, r3
 800267a:	3301      	adds	r3, #1
 800267c:	f3c3 030b 	ubfx	r3, r3, #0, #12
 8002680:	2b00      	cmp	r3, #0
 8002682:	bf0c      	ite	eq
 8002684:	2301      	moveq	r3, #1
 8002686:	2300      	movne	r3, #0
 8002688:	b2db      	uxtb	r3, r3
 800268a:	2b00      	cmp	r3, #0
 800268c:	d001      	beq.n	8002692 <HAL_I2C_Init+0x196>
 800268e:	2301      	movs	r3, #1
 8002690:	e022      	b.n	80026d8 <HAL_I2C_Init+0x1dc>
 8002692:	687b      	ldr	r3, [r7, #4]
 8002694:	689b      	ldr	r3, [r3, #8]
 8002696:	2b00      	cmp	r3, #0
 8002698:	d10e      	bne.n	80026b8 <HAL_I2C_Init+0x1bc>
 800269a:	68fb      	ldr	r3, [r7, #12]
 800269c:	1e58      	subs	r0, r3, #1
 800269e:	687b      	ldr	r3, [r7, #4]
 80026a0:	6859      	ldr	r1, [r3, #4]
 80026a2:	460b      	mov	r3, r1
 80026a4:	005b      	lsls	r3, r3, #1
 80026a6:	440b      	add	r3, r1
 80026a8:	fbb0 f3f3 	udiv	r3, r0, r3
 80026ac:	3301      	adds	r3, #1
 80026ae:	f3c3 030b 	ubfx	r3, r3, #0, #12
 80026b2:	f443 4300 	orr.w	r3, r3, #32768	; 0x8000
 80026b6:	e00f      	b.n	80026d8 <HAL_I2C_Init+0x1dc>
 80026b8:	68fb      	ldr	r3, [r7, #12]
 80026ba:	1e58      	subs	r0, r3, #1
 80026bc:	687b      	ldr	r3, [r7, #4]
 80026be:	6859      	ldr	r1, [r3, #4]
 80026c0:	460b      	mov	r3, r1
 80026c2:	009b      	lsls	r3, r3, #2
 80026c4:	440b      	add	r3, r1
 80026c6:	0099      	lsls	r1, r3, #2
 80026c8:	440b      	add	r3, r1
 80026ca:	fbb0 f3f3 	udiv	r3, r0, r3
 80026ce:	3301      	adds	r3, #1
 80026d0:	f3c3 030b 	ubfx	r3, r3, #0, #12
 80026d4:	f443 4340 	orr.w	r3, r3, #49152	; 0xc000
 80026d8:	6879      	ldr	r1, [r7, #4]
 80026da:	6809      	ldr	r1, [r1, #0]
 80026dc:	4313      	orrs	r3, r2
 80026de:	61cb      	str	r3, [r1, #28]
 80026e0:	687b      	ldr	r3, [r7, #4]
 80026e2:	681b      	ldr	r3, [r3, #0]
 80026e4:	681b      	ldr	r3, [r3, #0]
 80026e6:	f023 01c0 	bic.w	r1, r3, #192	; 0xc0
 80026ea:	687b      	ldr	r3, [r7, #4]
 80026ec:	69da      	ldr	r2, [r3, #28]
 80026ee:	687b      	ldr	r3, [r7, #4]
 80026f0:	6a1b      	ldr	r3, [r3, #32]
 80026f2:	431a      	orrs	r2, r3
 80026f4:	687b      	ldr	r3, [r7, #4]
 80026f6:	681b      	ldr	r3, [r3, #0]
 80026f8:	430a      	orrs	r2, r1
 80026fa:	601a      	str	r2, [r3, #0]
 80026fc:	687b      	ldr	r3, [r7, #4]
 80026fe:	681b      	ldr	r3, [r3, #0]
 8002700:	689b      	ldr	r3, [r3, #8]
 8002702:	f423 4303 	bic.w	r3, r3, #33536	; 0x8300
 8002706:	f023 03ff 	bic.w	r3, r3, #255	; 0xff
 800270a:	687a      	ldr	r2, [r7, #4]
 800270c:	6911      	ldr	r1, [r2, #16]
 800270e:	687a      	ldr	r2, [r7, #4]
 8002710:	68d2      	ldr	r2, [r2, #12]
 8002712:	4311      	orrs	r1, r2
 8002714:	687a      	ldr	r2, [r7, #4]
 8002716:	6812      	ldr	r2, [r2, #0]
 8002718:	430b      	orrs	r3, r1
 800271a:	6093      	str	r3, [r2, #8]
 800271c:	687b      	ldr	r3, [r7, #4]
 800271e:	681b      	ldr	r3, [r3, #0]
 8002720:	68db      	ldr	r3, [r3, #12]
 8002722:	f023 01ff 	bic.w	r1, r3, #255	; 0xff
 8002726:	687b      	ldr	r3, [r7, #4]
 8002728:	695a      	ldr	r2, [r3, #20]
 800272a:	687b      	ldr	r3, [r7, #4]
 800272c:	699b      	ldr	r3, [r3, #24]
 800272e:	431a      	orrs	r2, r3
 8002730:	687b      	ldr	r3, [r7, #4]
 8002732:	681b      	ldr	r3, [r3, #0]
 8002734:	430a      	orrs	r2, r1
 8002736:	60da      	str	r2, [r3, #12]
 8002738:	687b      	ldr	r3, [r7, #4]
 800273a:	681b      	ldr	r3, [r3, #0]
 800273c:	681a      	ldr	r2, [r3, #0]
 800273e:	687b      	ldr	r3, [r7, #4]
 8002740:	681b      	ldr	r3, [r3, #0]
 8002742:	f042 0201 	orr.w	r2, r2, #1
 8002746:	601a      	str	r2, [r3, #0]
 8002748:	687b      	ldr	r3, [r7, #4]
 800274a:	2200      	movs	r2, #0
 800274c:	641a      	str	r2, [r3, #64]	; 0x40
 800274e:	687b      	ldr	r3, [r7, #4]
 8002750:	2220      	movs	r2, #32
 8002752:	f883 203d 	strb.w	r2, [r3, #61]	; 0x3d
 8002756:	687b      	ldr	r3, [r7, #4]
 8002758:	2200      	movs	r2, #0
 800275a:	631a      	str	r2, [r3, #48]	; 0x30
 800275c:	687b      	ldr	r3, [r7, #4]
 800275e:	2200      	movs	r2, #0
 8002760:	f883 203e 	strb.w	r2, [r3, #62]	; 0x3e
 8002764:	2300      	movs	r3, #0
 8002766:	4618      	mov	r0, r3
 8002768:	3710      	adds	r7, #16
 800276a:	46bd      	mov	sp, r7
 800276c:	bd80      	pop	{r7, pc}
 800276e:	bf00      	nop
 8002770:	000186a0 	.word	0x000186a0
 8002774:	001e847f 	.word	0x001e847f
 8002778:	003d08ff 	.word	0x003d08ff
 800277c:	431bde83 	.word	0x431bde83
 8002780:	10624dd3 	.word	0x10624dd3

08002784 <HAL_I2C_Master_Transmit>:
 8002784:	b580      	push	{r7, lr}
 8002786:	b088      	sub	sp, #32
 8002788:	af02      	add	r7, sp, #8
 800278a:	60f8      	str	r0, [r7, #12]
 800278c:	607a      	str	r2, [r7, #4]
 800278e:	461a      	mov	r2, r3
 8002790:	460b      	mov	r3, r1
 8002792:	817b      	strh	r3, [r7, #10]
 8002794:	4613      	mov	r3, r2
 8002796:	813b      	strh	r3, [r7, #8]
 8002798:	f7fe fe06 	bl	80013a8 <HAL_GetTick>
 800279c:	6178      	str	r0, [r7, #20]
 800279e:	68fb      	ldr	r3, [r7, #12]
 80027a0:	f893 303d 	ldrb.w	r3, [r3, #61]	; 0x3d
 80027a4:	b2db      	uxtb	r3, r3
 80027a6:	2b20      	cmp	r3, #32
 80027a8:	f040 80e0 	bne.w	800296c <HAL_I2C_Master_Transmit+0x1e8>
 80027ac:	697b      	ldr	r3, [r7, #20]
 80027ae:	9300      	str	r3, [sp, #0]
 80027b0:	2319      	movs	r3, #25
 80027b2:	2201      	movs	r2, #1
 80027b4:	4970      	ldr	r1, [pc, #448]	; (8002978 <HAL_I2C_Master_Transmit+0x1f4>)
 80027b6:	68f8      	ldr	r0, [r7, #12]
 80027b8:	f000 f964 	bl	8002a84 <I2C_WaitOnFlagUntilTimeout>
 80027bc:	4603      	mov	r3, r0
 80027be:	2b00      	cmp	r3, #0
 80027c0:	d001      	beq.n	80027c6 <HAL_I2C_Master_Transmit+0x42>
 80027c2:	2302      	movs	r3, #2
 80027c4:	e0d3      	b.n	800296e <HAL_I2C_Master_Transmit+0x1ea>
 80027c6:	68fb      	ldr	r3, [r7, #12]
 80027c8:	f893 303c 	ldrb.w	r3, [r3, #60]	; 0x3c
 80027cc:	2b01      	cmp	r3, #1
 80027ce:	d101      	bne.n	80027d4 <HAL_I2C_Master_Transmit+0x50>
 80027d0:	2302      	movs	r3, #2
 80027d2:	e0cc      	b.n	800296e <HAL_I2C_Master_Transmit+0x1ea>
 80027d4:	68fb      	ldr	r3, [r7, #12]
 80027d6:	2201      	movs	r2, #1
 80027d8:	f883 203c 	strb.w	r2, [r3, #60]	; 0x3c
 80027dc:	68fb      	ldr	r3, [r7, #12]
 80027de:	681b      	ldr	r3, [r3, #0]
 80027e0:	681b      	ldr	r3, [r3, #0]
 80027e2:	f003 0301 	and.w	r3, r3, #1
 80027e6:	2b01      	cmp	r3, #1
 80027e8:	d007      	beq.n	80027fa <HAL_I2C_Master_Transmit+0x76>
 80027ea:	68fb      	ldr	r3, [r7, #12]
 80027ec:	681b      	ldr	r3, [r3, #0]
 80027ee:	681a      	ldr	r2, [r3, #0]
 80027f0:	68fb      	ldr	r3, [r7, #12]
 80027f2:	681b      	ldr	r3, [r3, #0]
 80027f4:	f042 0201 	orr.w	r2, r2, #1
 80027f8:	601a      	str	r2, [r3, #0]
 80027fa:	68fb      	ldr	r3, [r7, #12]
 80027fc:	681b      	ldr	r3, [r3, #0]
 80027fe:	681a      	ldr	r2, [r3, #0]
 8002800:	68fb      	ldr	r3, [r7, #12]
 8002802:	681b      	ldr	r3, [r3, #0]
 8002804:	f422 6200 	bic.w	r2, r2, #2048	; 0x800
 8002808:	601a      	str	r2, [r3, #0]
 800280a:	68fb      	ldr	r3, [r7, #12]
 800280c:	2221      	movs	r2, #33	; 0x21
 800280e:	f883 203d 	strb.w	r2, [r3, #61]	; 0x3d
 8002812:	68fb      	ldr	r3, [r7, #12]
 8002814:	2210      	movs	r2, #16
 8002816:	f883 203e 	strb.w	r2, [r3, #62]	; 0x3e
 800281a:	68fb      	ldr	r3, [r7, #12]
 800281c:	2200      	movs	r2, #0
 800281e:	641a      	str	r2, [r3, #64]	; 0x40
 8002820:	68fb      	ldr	r3, [r7, #12]
 8002822:	687a      	ldr	r2, [r7, #4]
 8002824:	625a      	str	r2, [r3, #36]	; 0x24
 8002826:	68fb      	ldr	r3, [r7, #12]
 8002828:	893a      	ldrh	r2, [r7, #8]
 800282a:	855a      	strh	r2, [r3, #42]	; 0x2a
 800282c:	68fb      	ldr	r3, [r7, #12]
 800282e:	8d5b      	ldrh	r3, [r3, #42]	; 0x2a
 8002830:	b29a      	uxth	r2, r3
 8002832:	68fb      	ldr	r3, [r7, #12]
 8002834:	851a      	strh	r2, [r3, #40]	; 0x28
 8002836:	68fb      	ldr	r3, [r7, #12]
 8002838:	4a50      	ldr	r2, [pc, #320]	; (800297c <HAL_I2C_Master_Transmit+0x1f8>)
 800283a:	62da      	str	r2, [r3, #44]	; 0x2c
 800283c:	8979      	ldrh	r1, [r7, #10]
 800283e:	697b      	ldr	r3, [r7, #20]
 8002840:	6a3a      	ldr	r2, [r7, #32]
 8002842:	68f8      	ldr	r0, [r7, #12]
 8002844:	f000 f89c 	bl	8002980 <I2C_MasterRequestWrite>
 8002848:	4603      	mov	r3, r0
 800284a:	2b00      	cmp	r3, #0
 800284c:	d001      	beq.n	8002852 <HAL_I2C_Master_Transmit+0xce>
 800284e:	2301      	movs	r3, #1
 8002850:	e08d      	b.n	800296e <HAL_I2C_Master_Transmit+0x1ea>
 8002852:	2300      	movs	r3, #0
 8002854:	613b      	str	r3, [r7, #16]
 8002856:	68fb      	ldr	r3, [r7, #12]
 8002858:	681b      	ldr	r3, [r3, #0]
 800285a:	695b      	ldr	r3, [r3, #20]
 800285c:	613b      	str	r3, [r7, #16]
 800285e:	68fb      	ldr	r3, [r7, #12]
 8002860:	681b      	ldr	r3, [r3, #0]
 8002862:	699b      	ldr	r3, [r3, #24]
 8002864:	613b      	str	r3, [r7, #16]
 8002866:	693b      	ldr	r3, [r7, #16]
 8002868:	e066      	b.n	8002938 <HAL_I2C_Master_Transmit+0x1b4>
 800286a:	697a      	ldr	r2, [r7, #20]
 800286c:	6a39      	ldr	r1, [r7, #32]
 800286e:	68f8      	ldr	r0, [r7, #12]
 8002870:	f000 f9de 	bl	8002c30 <I2C_WaitOnTXEFlagUntilTimeout>
 8002874:	4603      	mov	r3, r0
 8002876:	2b00      	cmp	r3, #0
 8002878:	d00d      	beq.n	8002896 <HAL_I2C_Master_Transmit+0x112>
 800287a:	68fb      	ldr	r3, [r7, #12]
 800287c:	6c1b      	ldr	r3, [r3, #64]	; 0x40
 800287e:	2b04      	cmp	r3, #4
 8002880:	d107      	bne.n	8002892 <HAL_I2C_Master_Transmit+0x10e>
 8002882:	68fb      	ldr	r3, [r7, #12]
 8002884:	681b      	ldr	r3, [r3, #0]
 8002886:	681a      	ldr	r2, [r3, #0]
 8002888:	68fb      	ldr	r3, [r7, #12]
 800288a:	681b      	ldr	r3, [r3, #0]
 800288c:	f442 7200 	orr.w	r2, r2, #512	; 0x200
 8002890:	601a      	str	r2, [r3, #0]
 8002892:	2301      	movs	r3, #1
 8002894:	e06b      	b.n	800296e <HAL_I2C_Master_Transmit+0x1ea>
 8002896:	68fb      	ldr	r3, [r7, #12]
 8002898:	6a5b      	ldr	r3, [r3, #36]	; 0x24
 800289a:	781a      	ldrb	r2, [r3, #0]
 800289c:	68fb      	ldr	r3, [r7, #12]
 800289e:	681b      	ldr	r3, [r3, #0]
 80028a0:	611a      	str	r2, [r3, #16]
 80028a2:	68fb      	ldr	r3, [r7, #12]
 80028a4:	6a5b      	ldr	r3, [r3, #36]	; 0x24
 80028a6:	1c5a      	adds	r2, r3, #1
 80028a8:	68fb      	ldr	r3, [r7, #12]
 80028aa:	625a      	str	r2, [r3, #36]	; 0x24
 80028ac:	68fb      	ldr	r3, [r7, #12]
 80028ae:	8d5b      	ldrh	r3, [r3, #42]	; 0x2a
 80028b0:	b29b      	uxth	r3, r3
 80028b2:	3b01      	subs	r3, #1
 80028b4:	b29a      	uxth	r2, r3
 80028b6:	68fb      	ldr	r3, [r7, #12]
 80028b8:	855a      	strh	r2, [r3, #42]	; 0x2a
 80028ba:	68fb      	ldr	r3, [r7, #12]
 80028bc:	8d1b      	ldrh	r3, [r3, #40]	; 0x28
 80028be:	3b01      	subs	r3, #1
 80028c0:	b29a      	uxth	r2, r3
 80028c2:	68fb      	ldr	r3, [r7, #12]
 80028c4:	851a      	strh	r2, [r3, #40]	; 0x28
 80028c6:	68fb      	ldr	r3, [r7, #12]
 80028c8:	681b      	ldr	r3, [r3, #0]
 80028ca:	695b      	ldr	r3, [r3, #20]
 80028cc:	f003 0304 	and.w	r3, r3, #4
 80028d0:	2b04      	cmp	r3, #4
 80028d2:	d11b      	bne.n	800290c <HAL_I2C_Master_Transmit+0x188>
 80028d4:	68fb      	ldr	r3, [r7, #12]
 80028d6:	8d1b      	ldrh	r3, [r3, #40]	; 0x28
 80028d8:	2b00      	cmp	r3, #0
 80028da:	d017      	beq.n	800290c <HAL_I2C_Master_Transmit+0x188>
 80028dc:	68fb      	ldr	r3, [r7, #12]
 80028de:	6a5b      	ldr	r3, [r3, #36]	; 0x24
 80028e0:	781a      	ldrb	r2, [r3, #0]
 80028e2:	68fb      	ldr	r3, [r7, #12]
 80028e4:	681b      	ldr	r3, [r3, #0]
 80028e6:	611a      	str	r2, [r3, #16]
 80028e8:	68fb      	ldr	r3, [r7, #12]
 80028ea:	6a5b      	ldr	r3, [r3, #36]	; 0x24
 80028ec:	1c5a      	adds	r2, r3, #1
 80028ee:	68fb      	ldr	r3, [r7, #12]
 80028f0:	625a      	str	r2, [r3, #36]	; 0x24
 80028f2:	68fb      	ldr	r3, [r7, #12]
 80028f4:	8d5b      	ldrh	r3, [r3, #42]	; 0x2a
 80028f6:	b29b      	uxth	r3, r3
 80028f8:	3b01      	subs	r3, #1
 80028fa:	b29a      	uxth	r2, r3
 80028fc:	68fb      	ldr	r3, [r7, #12]
 80028fe:	855a      	strh	r2, [r3, #42]	; 0x2a
 8002900:	68fb      	ldr	r3, [r7, #12]
 8002902:	8d1b      	ldrh	r3, [r3, #40]	; 0x28
 8002904:	3b01      	subs	r3, #1
 8002906:	b29a      	uxth	r2, r3
 8002908:	68fb      	ldr	r3, [r7, #12]
 800290a:	851a      	strh	r2, [r3, #40]	; 0x28
 800290c:	697a      	ldr	r2, [r7, #20]
 800290e:	6a39      	ldr	r1, [r7, #32]
 8002910:	68f8      	ldr	r0, [r7, #12]
 8002912:	f000 f9ce 	bl	8002cb2 <I2C_WaitOnBTFFlagUntilTimeout>
 8002916:	4603      	mov	r3, r0
 8002918:	2b00      	cmp	r3, #0
 800291a:	d00d      	beq.n	8002938 <HAL_I2C_Master_Transmit+0x1b4>
 800291c:	68fb      	ldr	r3, [r7, #12]
 800291e:	6c1b      	ldr	r3, [r3, #64]	; 0x40
 8002920:	2b04      	cmp	r3, #4
 8002922:	d107      	bne.n	8002934 <HAL_I2C_Master_Transmit+0x1b0>
 8002924:	68fb      	ldr	r3, [r7, #12]
 8002926:	681b      	ldr	r3, [r3, #0]
 8002928:	681a      	ldr	r2, [r3, #0]
 800292a:	68fb      	ldr	r3, [r7, #12]
 800292c:	681b      	ldr	r3, [r3, #0]
 800292e:	f442 7200 	orr.w	r2, r2, #512	; 0x200
 8002932:	601a      	str	r2, [r3, #0]
 8002934:	2301      	movs	r3, #1
 8002936:	e01a      	b.n	800296e <HAL_I2C_Master_Transmit+0x1ea>
 8002938:	68fb      	ldr	r3, [r7, #12]
 800293a:	8d1b      	ldrh	r3, [r3, #40]	; 0x28
 800293c:	2b00      	cmp	r3, #0
 800293e:	d194      	bne.n	800286a <HAL_I2C_Master_Transmit+0xe6>
 8002940:	68fb      	ldr	r3, [r7, #12]
 8002942:	681b      	ldr	r3, [r3, #0]
 8002944:	681a      	ldr	r2, [r3, #0]
 8002946:	68fb      	ldr	r3, [r7, #12]
 8002948:	681b      	ldr	r3, [r3, #0]
 800294a:	f442 7200 	orr.w	r2, r2, #512	; 0x200
 800294e:	601a      	str	r2, [r3, #0]
 8002950:	68fb      	ldr	r3, [r7, #12]
 8002952:	2220      	movs	r2, #32
 8002954:	f883 203d 	strb.w	r2, [r3, #61]	; 0x3d
 8002958:	68fb      	ldr	r3, [r7, #12]
 800295a:	2200      	movs	r2, #0
 800295c:	f883 203e 	strb.w	r2, [r3, #62]	; 0x3e
 8002960:	68fb      	ldr	r3, [r7, #12]
 8002962:	2200      	movs	r2, #0
 8002964:	f883 203c 	strb.w	r2, [r3, #60]	; 0x3c
 8002968:	2300      	movs	r3, #0
 800296a:	e000      	b.n	800296e <HAL_I2C_Master_Transmit+0x1ea>
 800296c:	2302      	movs	r3, #2
 800296e:	4618      	mov	r0, r3
 8002970:	3718      	adds	r7, #24
 8002972:	46bd      	mov	sp, r7
 8002974:	bd80      	pop	{r7, pc}
 8002976:	bf00      	nop
 8002978:	00100002 	.word	0x00100002
 800297c:	ffff0000 	.word	0xffff0000

08002980 <I2C_MasterRequestWrite>:
 8002980:	b580      	push	{r7, lr}
 8002982:	b088      	sub	sp, #32
 8002984:	af02      	add	r7, sp, #8
 8002986:	60f8      	str	r0, [r7, #12]
 8002988:	607a      	str	r2, [r7, #4]
 800298a:	603b      	str	r3, [r7, #0]
 800298c:	460b      	mov	r3, r1
 800298e:	817b      	strh	r3, [r7, #10]
 8002990:	68fb      	ldr	r3, [r7, #12]
 8002992:	6adb      	ldr	r3, [r3, #44]	; 0x2c
 8002994:	617b      	str	r3, [r7, #20]
 8002996:	697b      	ldr	r3, [r7, #20]
 8002998:	2b08      	cmp	r3, #8
 800299a:	d006      	beq.n	80029aa <I2C_MasterRequestWrite+0x2a>
 800299c:	697b      	ldr	r3, [r7, #20]
 800299e:	2b01      	cmp	r3, #1
 80029a0:	d003      	beq.n	80029aa <I2C_MasterRequestWrite+0x2a>
 80029a2:	697b      	ldr	r3, [r7, #20]
 80029a4:	f513 3f80 	cmn.w	r3, #65536	; 0x10000
 80029a8:	d108      	bne.n	80029bc <I2C_MasterRequestWrite+0x3c>
 80029aa:	68fb      	ldr	r3, [r7, #12]
 80029ac:	681b      	ldr	r3, [r3, #0]
 80029ae:	681a      	ldr	r2, [r3, #0]
 80029b0:	68fb      	ldr	r3, [r7, #12]
 80029b2:	681b      	ldr	r3, [r3, #0]
 80029b4:	f442 7280 	orr.w	r2, r2, #256	; 0x100
 80029b8:	601a      	str	r2, [r3, #0]
 80029ba:	e00b      	b.n	80029d4 <I2C_MasterRequestWrite+0x54>
 80029bc:	68fb      	ldr	r3, [r7, #12]
 80029be:	6b1b      	ldr	r3, [r3, #48]	; 0x30
 80029c0:	2b12      	cmp	r3, #18
 80029c2:	d107      	bne.n	80029d4 <I2C_MasterRequestWrite+0x54>
 80029c4:	68fb      	ldr	r3, [r7, #12]
 80029c6:	681b      	ldr	r3, [r3, #0]
 80029c8:	681a      	ldr	r2, [r3, #0]
 80029ca:	68fb      	ldr	r3, [r7, #12]
 80029cc:	681b      	ldr	r3, [r3, #0]
 80029ce:	f442 7280 	orr.w	r2, r2, #256	; 0x100
 80029d2:	601a      	str	r2, [r3, #0]
 80029d4:	683b      	ldr	r3, [r7, #0]
 80029d6:	9300      	str	r3, [sp, #0]
 80029d8:	687b      	ldr	r3, [r7, #4]
 80029da:	2200      	movs	r2, #0
 80029dc:	f04f 1101 	mov.w	r1, #65537	; 0x10001
 80029e0:	68f8      	ldr	r0, [r7, #12]
 80029e2:	f000 f84f 	bl	8002a84 <I2C_WaitOnFlagUntilTimeout>
 80029e6:	4603      	mov	r3, r0
 80029e8:	2b00      	cmp	r3, #0
 80029ea:	d00d      	beq.n	8002a08 <I2C_MasterRequestWrite+0x88>
 80029ec:	68fb      	ldr	r3, [r7, #12]
 80029ee:	681b      	ldr	r3, [r3, #0]
 80029f0:	681b      	ldr	r3, [r3, #0]
 80029f2:	f403 7380 	and.w	r3, r3, #256	; 0x100
 80029f6:	f5b3 7f80 	cmp.w	r3, #256	; 0x100
 80029fa:	d103      	bne.n	8002a04 <I2C_MasterRequestWrite+0x84>
 80029fc:	68fb      	ldr	r3, [r7, #12]
 80029fe:	f44f 7200 	mov.w	r2, #512	; 0x200
 8002a02:	641a      	str	r2, [r3, #64]	; 0x40
 8002a04:	2303      	movs	r3, #3
 8002a06:	e035      	b.n	8002a74 <I2C_MasterRequestWrite+0xf4>
 8002a08:	68fb      	ldr	r3, [r7, #12]
 8002a0a:	691b      	ldr	r3, [r3, #16]
 8002a0c:	f5b3 4f80 	cmp.w	r3, #16384	; 0x4000
 8002a10:	d108      	bne.n	8002a24 <I2C_MasterRequestWrite+0xa4>
 8002a12:	897b      	ldrh	r3, [r7, #10]
 8002a14:	b2db      	uxtb	r3, r3
 8002a16:	461a      	mov	r2, r3
 8002a18:	68fb      	ldr	r3, [r7, #12]
 8002a1a:	681b      	ldr	r3, [r3, #0]
 8002a1c:	f002 02fe 	and.w	r2, r2, #254	; 0xfe
 8002a20:	611a      	str	r2, [r3, #16]
 8002a22:	e01b      	b.n	8002a5c <I2C_MasterRequestWrite+0xdc>
 8002a24:	897b      	ldrh	r3, [r7, #10]
 8002a26:	11db      	asrs	r3, r3, #7
 8002a28:	b2db      	uxtb	r3, r3
 8002a2a:	f003 0306 	and.w	r3, r3, #6
 8002a2e:	b2db      	uxtb	r3, r3
 8002a30:	f063 030f 	orn	r3, r3, #15
 8002a34:	b2da      	uxtb	r2, r3
 8002a36:	68fb      	ldr	r3, [r7, #12]
 8002a38:	681b      	ldr	r3, [r3, #0]
 8002a3a:	611a      	str	r2, [r3, #16]
 8002a3c:	683b      	ldr	r3, [r7, #0]
 8002a3e:	687a      	ldr	r2, [r7, #4]
 8002a40:	490e      	ldr	r1, [pc, #56]	; (8002a7c <I2C_MasterRequestWrite+0xfc>)
 8002a42:	68f8      	ldr	r0, [r7, #12]
 8002a44:	f000 f875 	bl	8002b32 <I2C_WaitOnMasterAddressFlagUntilTimeout>
 8002a48:	4603      	mov	r3, r0
 8002a4a:	2b00      	cmp	r3, #0
 8002a4c:	d001      	beq.n	8002a52 <I2C_MasterRequestWrite+0xd2>
 8002a4e:	2301      	movs	r3, #1
 8002a50:	e010      	b.n	8002a74 <I2C_MasterRequestWrite+0xf4>
 8002a52:	897b      	ldrh	r3, [r7, #10]
 8002a54:	b2da      	uxtb	r2, r3
 8002a56:	68fb      	ldr	r3, [r7, #12]
 8002a58:	681b      	ldr	r3, [r3, #0]
 8002a5a:	611a      	str	r2, [r3, #16]
 8002a5c:	683b      	ldr	r3, [r7, #0]
 8002a5e:	687a      	ldr	r2, [r7, #4]
 8002a60:	4907      	ldr	r1, [pc, #28]	; (8002a80 <I2C_MasterRequestWrite+0x100>)
 8002a62:	68f8      	ldr	r0, [r7, #12]
 8002a64:	f000 f865 	bl	8002b32 <I2C_WaitOnMasterAddressFlagUntilTimeout>
 8002a68:	4603      	mov	r3, r0
 8002a6a:	2b00      	cmp	r3, #0
 8002a6c:	d001      	beq.n	8002a72 <I2C_MasterRequestWrite+0xf2>
 8002a6e:	2301      	movs	r3, #1
 8002a70:	e000      	b.n	8002a74 <I2C_MasterRequestWrite+0xf4>
 8002a72:	2300      	movs	r3, #0
 8002a74:	4618      	mov	r0, r3
 8002a76:	3718      	adds	r7, #24
 8002a78:	46bd      	mov	sp, r7
 8002a7a:	bd80      	pop	{r7, pc}
 8002a7c:	00010008 	.word	0x00010008
 8002a80:	00010002 	.word	0x00010002

08002a84 <I2C_WaitOnFlagUntilTimeout>:
 8002a84:	b580      	push	{r7, lr}
 8002a86:	b084      	sub	sp, #16
 8002a88:	af00      	add	r7, sp, #0
 8002a8a:	60f8      	str	r0, [r7, #12]
 8002a8c:	60b9      	str	r1, [r7, #8]
 8002a8e:	603b      	str	r3, [r7, #0]
 8002a90:	4613      	mov	r3, r2
 8002a92:	71fb      	strb	r3, [r7, #7]
 8002a94:	e025      	b.n	8002ae2 <I2C_WaitOnFlagUntilTimeout+0x5e>
 8002a96:	683b      	ldr	r3, [r7, #0]
 8002a98:	f1b3 3fff 	cmp.w	r3, #4294967295
 8002a9c:	d021      	beq.n	8002ae2 <I2C_WaitOnFlagUntilTimeout+0x5e>
 8002a9e:	f7fe fc83 	bl	80013a8 <HAL_GetTick>
 8002aa2:	4602      	mov	r2, r0
 8002aa4:	69bb      	ldr	r3, [r7, #24]
 8002aa6:	1ad3      	subs	r3, r2, r3
 8002aa8:	683a      	ldr	r2, [r7, #0]
 8002aaa:	429a      	cmp	r2, r3
 8002aac:	d302      	bcc.n	8002ab4 <I2C_WaitOnFlagUntilTimeout+0x30>
 8002aae:	683b      	ldr	r3, [r7, #0]
 8002ab0:	2b00      	cmp	r3, #0
 8002ab2:	d116      	bne.n	8002ae2 <I2C_WaitOnFlagUntilTimeout+0x5e>
 8002ab4:	68fb      	ldr	r3, [r7, #12]
 8002ab6:	2200      	movs	r2, #0
 8002ab8:	631a      	str	r2, [r3, #48]	; 0x30
 8002aba:	68fb      	ldr	r3, [r7, #12]
 8002abc:	2220      	movs	r2, #32
 8002abe:	f883 203d 	strb.w	r2, [r3, #61]	; 0x3d
 8002ac2:	68fb      	ldr	r3, [r7, #12]
 8002ac4:	2200      	movs	r2, #0
 8002ac6:	f883 203e 	strb.w	r2, [r3, #62]	; 0x3e
 8002aca:	68fb      	ldr	r3, [r7, #12]
 8002acc:	6c1b      	ldr	r3, [r3, #64]	; 0x40
 8002ace:	f043 0220 	orr.w	r2, r3, #32
 8002ad2:	68fb      	ldr	r3, [r7, #12]
 8002ad4:	641a      	str	r2, [r3, #64]	; 0x40
 8002ad6:	68fb      	ldr	r3, [r7, #12]
 8002ad8:	2200      	movs	r2, #0
 8002ada:	f883 203c 	strb.w	r2, [r3, #60]	; 0x3c
 8002ade:	2301      	movs	r3, #1
 8002ae0:	e023      	b.n	8002b2a <I2C_WaitOnFlagUntilTimeout+0xa6>
 8002ae2:	68bb      	ldr	r3, [r7, #8]
 8002ae4:	0c1b      	lsrs	r3, r3, #16
 8002ae6:	b2db      	uxtb	r3, r3
 8002ae8:	2b01      	cmp	r3, #1
 8002aea:	d10d      	bne.n	8002b08 <I2C_WaitOnFlagUntilTimeout+0x84>
 8002aec:	68fb      	ldr	r3, [r7, #12]
 8002aee:	681b      	ldr	r3, [r3, #0]
 8002af0:	695b      	ldr	r3, [r3, #20]
 8002af2:	43da      	mvns	r2, r3
 8002af4:	68bb      	ldr	r3, [r7, #8]
 8002af6:	4013      	ands	r3, r2
 8002af8:	b29b      	uxth	r3, r3
 8002afa:	2b00      	cmp	r3, #0
 8002afc:	bf0c      	ite	eq
 8002afe:	2301      	moveq	r3, #1
 8002b00:	2300      	movne	r3, #0
 8002b02:	b2db      	uxtb	r3, r3
 8002b04:	461a      	mov	r2, r3
 8002b06:	e00c      	b.n	8002b22 <I2C_WaitOnFlagUntilTimeout+0x9e>
 8002b08:	68fb      	ldr	r3, [r7, #12]
 8002b0a:	681b      	ldr	r3, [r3, #0]
 8002b0c:	699b      	ldr	r3, [r3, #24]
 8002b0e:	43da      	mvns	r2, r3
 8002b10:	68bb      	ldr	r3, [r7, #8]
 8002b12:	4013      	ands	r3, r2
 8002b14:	b29b      	uxth	r3, r3
 8002b16:	2b00      	cmp	r3, #0
 8002b18:	bf0c      	ite	eq
 8002b1a:	2301      	moveq	r3, #1
 8002b1c:	2300      	movne	r3, #0
 8002b1e:	b2db      	uxtb	r3, r3
 8002b20:	461a      	mov	r2, r3
 8002b22:	79fb      	ldrb	r3, [r7, #7]
 8002b24:	429a      	cmp	r2, r3
 8002b26:	d0b6      	beq.n	8002a96 <I2C_WaitOnFlagUntilTimeout+0x12>
 8002b28:	2300      	movs	r3, #0
 8002b2a:	4618      	mov	r0, r3
 8002b2c:	3710      	adds	r7, #16
 8002b2e:	46bd      	mov	sp, r7
 8002b30:	bd80      	pop	{r7, pc}

08002b32 <I2C_WaitOnMasterAddressFlagUntilTimeout>:
 8002b32:	b580      	push	{r7, lr}
 8002b34:	b084      	sub	sp, #16
 8002b36:	af00      	add	r7, sp, #0
 8002b38:	60f8      	str	r0, [r7, #12]
 8002b3a:	60b9      	str	r1, [r7, #8]
 8002b3c:	607a      	str	r2, [r7, #4]
 8002b3e:	603b      	str	r3, [r7, #0]
 8002b40:	e051      	b.n	8002be6 <I2C_WaitOnMasterAddressFlagUntilTimeout+0xb4>
 8002b42:	68fb      	ldr	r3, [r7, #12]
 8002b44:	681b      	ldr	r3, [r3, #0]
 8002b46:	695b      	ldr	r3, [r3, #20]
 8002b48:	f403 6380 	and.w	r3, r3, #1024	; 0x400
 8002b4c:	f5b3 6f80 	cmp.w	r3, #1024	; 0x400
 8002b50:	d123      	bne.n	8002b9a <I2C_WaitOnMasterAddressFlagUntilTimeout+0x68>
 8002b52:	68fb      	ldr	r3, [r7, #12]
 8002b54:	681b      	ldr	r3, [r3, #0]
 8002b56:	681a      	ldr	r2, [r3, #0]
 8002b58:	68fb      	ldr	r3, [r7, #12]
 8002b5a:	681b      	ldr	r3, [r3, #0]
 8002b5c:	f442 7200 	orr.w	r2, r2, #512	; 0x200
 8002b60:	601a      	str	r2, [r3, #0]
 8002b62:	68fb      	ldr	r3, [r7, #12]
 8002b64:	681b      	ldr	r3, [r3, #0]
 8002b66:	f46f 6280 	mvn.w	r2, #1024	; 0x400
 8002b6a:	615a      	str	r2, [r3, #20]
 8002b6c:	68fb      	ldr	r3, [r7, #12]
 8002b6e:	2200      	movs	r2, #0
 8002b70:	631a      	str	r2, [r3, #48]	; 0x30
 8002b72:	68fb      	ldr	r3, [r7, #12]
 8002b74:	2220      	movs	r2, #32
 8002b76:	f883 203d 	strb.w	r2, [r3, #61]	; 0x3d
 8002b7a:	68fb      	ldr	r3, [r7, #12]
 8002b7c:	2200      	movs	r2, #0
 8002b7e:	f883 203e 	strb.w	r2, [r3, #62]	; 0x3e
 8002b82:	68fb      	ldr	r3, [r7, #12]
 8002b84:	6c1b      	ldr	r3, [r3, #64]	; 0x40
 8002b86:	f043 0204 	orr.w	r2, r3, #4
 8002b8a:	68fb      	ldr	r3, [r7, #12]
 8002b8c:	641a      	str	r2, [r3, #64]	; 0x40
 8002b8e:	68fb      	ldr	r3, [r7, #12]
 8002b90:	2200      	movs	r2, #0
 8002b92:	f883 203c 	strb.w	r2, [r3, #60]	; 0x3c
 8002b96:	2301      	movs	r3, #1
 8002b98:	e046      	b.n	8002c28 <I2C_WaitOnMasterAddressFlagUntilTimeout+0xf6>
 8002b9a:	687b      	ldr	r3, [r7, #4]
 8002b9c:	f1b3 3fff 	cmp.w	r3, #4294967295
 8002ba0:	d021      	beq.n	8002be6 <I2C_WaitOnMasterAddressFlagUntilTimeout+0xb4>
 8002ba2:	f7fe fc01 	bl	80013a8 <HAL_GetTick>
 8002ba6:	4602      	mov	r2, r0
 8002ba8:	683b      	ldr	r3, [r7, #0]
 8002baa:	1ad3      	subs	r3, r2, r3
 8002bac:	687a      	ldr	r2, [r7, #4]
 8002bae:	429a      	cmp	r2, r3
 8002bb0:	d302      	bcc.n	8002bb8 <I2C_WaitOnMasterAddressFlagUntilTimeout+0x86>
 8002bb2:	687b      	ldr	r3, [r7, #4]
 8002bb4:	2b00      	cmp	r3, #0
 8002bb6:	d116      	bne.n	8002be6 <I2C_WaitOnMasterAddressFlagUntilTimeout+0xb4>
 8002bb8:	68fb      	ldr	r3, [r7, #12]
 8002bba:	2200      	movs	r2, #0
 8002bbc:	631a      	str	r2, [r3, #48]	; 0x30
 8002bbe:	68fb      	ldr	r3, [r7, #12]
 8002bc0:	2220      	movs	r2, #32
 8002bc2:	f883 203d 	strb.w	r2, [r3, #61]	; 0x3d
 8002bc6:	68fb      	ldr	r3, [r7, #12]
 8002bc8:	2200      	movs	r2, #0
 8002bca:	f883 203e 	strb.w	r2, [r3, #62]	; 0x3e
 8002bce:	68fb      	ldr	r3, [r7, #12]
 8002bd0:	6c1b      	ldr	r3, [r3, #64]	; 0x40
 8002bd2:	f043 0220 	orr.w	r2, r3, #32
 8002bd6:	68fb      	ldr	r3, [r7, #12]
 8002bd8:	641a      	str	r2, [r3, #64]	; 0x40
 8002bda:	68fb      	ldr	r3, [r7, #12]
 8002bdc:	2200      	movs	r2, #0
 8002bde:	f883 203c 	strb.w	r2, [r3, #60]	; 0x3c
 8002be2:	2301      	movs	r3, #1
 8002be4:	e020      	b.n	8002c28 <I2C_WaitOnMasterAddressFlagUntilTimeout+0xf6>
 8002be6:	68bb      	ldr	r3, [r7, #8]
 8002be8:	0c1b      	lsrs	r3, r3, #16
 8002bea:	b2db      	uxtb	r3, r3
 8002bec:	2b01      	cmp	r3, #1
 8002bee:	d10c      	bne.n	8002c0a <I2C_WaitOnMasterAddressFlagUntilTimeout+0xd8>
 8002bf0:	68fb      	ldr	r3, [r7, #12]
 8002bf2:	681b      	ldr	r3, [r3, #0]
 8002bf4:	695b      	ldr	r3, [r3, #20]
 8002bf6:	43da      	mvns	r2, r3
 8002bf8:	68bb      	ldr	r3, [r7, #8]
 8002bfa:	4013      	ands	r3, r2
 8002bfc:	b29b      	uxth	r3, r3
 8002bfe:	2b00      	cmp	r3, #0
 8002c00:	bf14      	ite	ne
 8002c02:	2301      	movne	r3, #1
 8002c04:	2300      	moveq	r3, #0
 8002c06:	b2db      	uxtb	r3, r3
 8002c08:	e00b      	b.n	8002c22 <I2C_WaitOnMasterAddressFlagUntilTimeout+0xf0>
 8002c0a:	68fb      	ldr	r3, [r7, #12]
 8002c0c:	681b      	ldr	r3, [r3, #0]
 8002c0e:	699b      	ldr	r3, [r3, #24]
 8002c10:	43da      	mvns	r2, r3
 8002c12:	68bb      	ldr	r3, [r7, #8]
 8002c14:	4013      	ands	r3, r2
 8002c16:	b29b      	uxth	r3, r3
 8002c18:	2b00      	cmp	r3, #0
 8002c1a:	bf14      	ite	ne
 8002c1c:	2301      	movne	r3, #1
 8002c1e:	2300      	moveq	r3, #0
 8002c20:	b2db      	uxtb	r3, r3
 8002c22:	2b00      	cmp	r3, #0
 8002c24:	d18d      	bne.n	8002b42 <I2C_WaitOnMasterAddressFlagUntilTimeout+0x10>
 8002c26:	2300      	movs	r3, #0
 8002c28:	4618      	mov	r0, r3
 8002c2a:	3710      	adds	r7, #16
 8002c2c:	46bd      	mov	sp, r7
 8002c2e:	bd80      	pop	{r7, pc}

08002c30 <I2C_WaitOnTXEFlagUntilTimeout>:
 8002c30:	b580      	push	{r7, lr}
 8002c32:	b084      	sub	sp, #16
 8002c34:	af00      	add	r7, sp, #0
 8002c36:	60f8      	str	r0, [r7, #12]
 8002c38:	60b9      	str	r1, [r7, #8]
 8002c3a:	607a      	str	r2, [r7, #4]
 8002c3c:	e02d      	b.n	8002c9a <I2C_WaitOnTXEFlagUntilTimeout+0x6a>
 8002c3e:	68f8      	ldr	r0, [r7, #12]
 8002c40:	f000 f878 	bl	8002d34 <I2C_IsAcknowledgeFailed>
 8002c44:	4603      	mov	r3, r0
 8002c46:	2b00      	cmp	r3, #0
 8002c48:	d001      	beq.n	8002c4e <I2C_WaitOnTXEFlagUntilTimeout+0x1e>
 8002c4a:	2301      	movs	r3, #1
 8002c4c:	e02d      	b.n	8002caa <I2C_WaitOnTXEFlagUntilTimeout+0x7a>
 8002c4e:	68bb      	ldr	r3, [r7, #8]
 8002c50:	f1b3 3fff 	cmp.w	r3, #4294967295
 8002c54:	d021      	beq.n	8002c9a <I2C_WaitOnTXEFlagUntilTimeout+0x6a>
 8002c56:	f7fe fba7 	bl	80013a8 <HAL_GetTick>
 8002c5a:	4602      	mov	r2, r0
 8002c5c:	687b      	ldr	r3, [r7, #4]
 8002c5e:	1ad3      	subs	r3, r2, r3
 8002c60:	68ba      	ldr	r2, [r7, #8]
 8002c62:	429a      	cmp	r2, r3
 8002c64:	d302      	bcc.n	8002c6c <I2C_WaitOnTXEFlagUntilTimeout+0x3c>
 8002c66:	68bb      	ldr	r3, [r7, #8]
 8002c68:	2b00      	cmp	r3, #0
 8002c6a:	d116      	bne.n	8002c9a <I2C_WaitOnTXEFlagUntilTimeout+0x6a>
 8002c6c:	68fb      	ldr	r3, [r7, #12]
 8002c6e:	2200      	movs	r2, #0
 8002c70:	631a      	str	r2, [r3, #48]	; 0x30
 8002c72:	68fb      	ldr	r3, [r7, #12]
 8002c74:	2220      	movs	r2, #32
 8002c76:	f883 203d 	strb.w	r2, [r3, #61]	; 0x3d
 8002c7a:	68fb      	ldr	r3, [r7, #12]
 8002c7c:	2200      	movs	r2, #0
 8002c7e:	f883 203e 	strb.w	r2, [r3, #62]	; 0x3e
 8002c82:	68fb      	ldr	r3, [r7, #12]
 8002c84:	6c1b      	ldr	r3, [r3, #64]	; 0x40
 8002c86:	f043 0220 	orr.w	r2, r3, #32
 8002c8a:	68fb      	ldr	r3, [r7, #12]
 8002c8c:	641a      	str	r2, [r3, #64]	; 0x40
 8002c8e:	68fb      	ldr	r3, [r7, #12]
 8002c90:	2200      	movs	r2, #0
 8002c92:	f883 203c 	strb.w	r2, [r3, #60]	; 0x3c
 8002c96:	2301      	movs	r3, #1
 8002c98:	e007      	b.n	8002caa <I2C_WaitOnTXEFlagUntilTimeout+0x7a>
 8002c9a:	68fb      	ldr	r3, [r7, #12]
 8002c9c:	681b      	ldr	r3, [r3, #0]
 8002c9e:	695b      	ldr	r3, [r3, #20]
 8002ca0:	f003 0380 	and.w	r3, r3, #128	; 0x80
 8002ca4:	2b80      	cmp	r3, #128	; 0x80
 8002ca6:	d1ca      	bne.n	8002c3e <I2C_WaitOnTXEFlagUntilTimeout+0xe>
 8002ca8:	2300      	movs	r3, #0
 8002caa:	4618      	mov	r0, r3
 8002cac:	3710      	adds	r7, #16
 8002cae:	46bd      	mov	sp, r7
 8002cb0:	bd80      	pop	{r7, pc}

08002cb2 <I2C_WaitOnBTFFlagUntilTimeout>:
 8002cb2:	b580      	push	{r7, lr}
 8002cb4:	b084      	sub	sp, #16
 8002cb6:	af00      	add	r7, sp, #0
 8002cb8:	60f8      	str	r0, [r7, #12]
 8002cba:	60b9      	str	r1, [r7, #8]
 8002cbc:	607a      	str	r2, [r7, #4]
 8002cbe:	e02d      	b.n	8002d1c <I2C_WaitOnBTFFlagUntilTimeout+0x6a>
 8002cc0:	68f8      	ldr	r0, [r7, #12]
 8002cc2:	f000 f837 	bl	8002d34 <I2C_IsAcknowledgeFailed>
 8002cc6:	4603      	mov	r3, r0
 8002cc8:	2b00      	cmp	r3, #0
 8002cca:	d001      	beq.n	8002cd0 <I2C_WaitOnBTFFlagUntilTimeout+0x1e>
 8002ccc:	2301      	movs	r3, #1
 8002cce:	e02d      	b.n	8002d2c <I2C_WaitOnBTFFlagUntilTimeout+0x7a>
 8002cd0:	68bb      	ldr	r3, [r7, #8]
 8002cd2:	f1b3 3fff 	cmp.w	r3, #4294967295
 8002cd6:	d021      	beq.n	8002d1c <I2C_WaitOnBTFFlagUntilTimeout+0x6a>
 8002cd8:	f7fe fb66 	bl	80013a8 <HAL_GetTick>
 8002cdc:	4602      	mov	r2, r0
 8002cde:	687b      	ldr	r3, [r7, #4]
 8002ce0:	1ad3      	subs	r3, r2, r3
 8002ce2:	68ba      	ldr	r2, [r7, #8]
 8002ce4:	429a      	cmp	r2, r3
 8002ce6:	d302      	bcc.n	8002cee <I2C_WaitOnBTFFlagUntilTimeout+0x3c>
 8002ce8:	68bb      	ldr	r3, [r7, #8]
 8002cea:	2b00      	cmp	r3, #0
 8002cec:	d116      	bne.n	8002d1c <I2C_WaitOnBTFFlagUntilTimeout+0x6a>
 8002cee:	68fb      	ldr	r3, [r7, #12]
 8002cf0:	2200      	movs	r2, #0
 8002cf2:	631a      	str	r2, [r3, #48]	; 0x30
 8002cf4:	68fb      	ldr	r3, [r7, #12]
 8002cf6:	2220      	movs	r2, #32
 8002cf8:	f883 203d 	strb.w	r2, [r3, #61]	; 0x3d
 8002cfc:	68fb      	ldr	r3, [r7, #12]
 8002cfe:	2200      	movs	r2, #0
 8002d00:	f883 203e 	strb.w	r2, [r3, #62]	; 0x3e
 8002d04:	68fb      	ldr	r3, [r7, #12]
 8002d06:	6c1b      	ldr	r3, [r3, #64]	; 0x40
 8002d08:	f043 0220 	orr.w	r2, r3, #32
 8002d0c:	68fb      	ldr	r3, [r7, #12]
 8002d0e:	641a      	str	r2, [r3, #64]	; 0x40
 8002d10:	68fb      	ldr	r3, [r7, #12]
 8002d12:	2200      	movs	r2, #0
 8002d14:	f883 203c 	strb.w	r2, [r3, #60]	; 0x3c
 8002d18:	2301      	movs	r3, #1
 8002d1a:	e007      	b.n	8002d2c <I2C_WaitOnBTFFlagUntilTimeout+0x7a>
 8002d1c:	68fb      	ldr	r3, [r7, #12]
 8002d1e:	681b      	ldr	r3, [r3, #0]
 8002d20:	695b      	ldr	r3, [r3, #20]
 8002d22:	f003 0304 	and.w	r3, r3, #4
 8002d26:	2b04      	cmp	r3, #4
 8002d28:	d1ca      	bne.n	8002cc0 <I2C_WaitOnBTFFlagUntilTimeout+0xe>
 8002d2a:	2300      	movs	r3, #0
 8002d2c:	4618      	mov	r0, r3
 8002d2e:	3710      	adds	r7, #16
 8002d30:	46bd      	mov	sp, r7
 8002d32:	bd80      	pop	{r7, pc}

08002d34 <I2C_IsAcknowledgeFailed>:
 8002d34:	b480      	push	{r7}
 8002d36:	b083      	sub	sp, #12
 8002d38:	af00      	add	r7, sp, #0
 8002d3a:	6078      	str	r0, [r7, #4]
 8002d3c:	687b      	ldr	r3, [r7, #4]
 8002d3e:	681b      	ldr	r3, [r3, #0]
 8002d40:	695b      	ldr	r3, [r3, #20]
 8002d42:	f403 6380 	and.w	r3, r3, #1024	; 0x400
 8002d46:	f5b3 6f80 	cmp.w	r3, #1024	; 0x400
 8002d4a:	d11b      	bne.n	8002d84 <I2C_IsAcknowledgeFailed+0x50>
 8002d4c:	687b      	ldr	r3, [r7, #4]
 8002d4e:	681b      	ldr	r3, [r3, #0]
 8002d50:	f46f 6280 	mvn.w	r2, #1024	; 0x400
 8002d54:	615a      	str	r2, [r3, #20]
 8002d56:	687b      	ldr	r3, [r7, #4]
 8002d58:	2200      	movs	r2, #0
 8002d5a:	631a      	str	r2, [r3, #48]	; 0x30
 8002d5c:	687b      	ldr	r3, [r7, #4]
 8002d5e:	2220      	movs	r2, #32
 8002d60:	f883 203d 	strb.w	r2, [r3, #61]	; 0x3d
 8002d64:	687b      	ldr	r3, [r7, #4]
 8002d66:	2200      	movs	r2, #0
 8002d68:	f883 203e 	strb.w	r2, [r3, #62]	; 0x3e
 8002d6c:	687b      	ldr	r3, [r7, #4]
 8002d6e:	6c1b      	ldr	r3, [r3, #64]	; 0x40
 8002d70:	f043 0204 	orr.w	r2, r3, #4
 8002d74:	687b      	ldr	r3, [r7, #4]
 8002d76:	641a      	str	r2, [r3, #64]	; 0x40
 8002d78:	687b      	ldr	r3, [r7, #4]
 8002d7a:	2200      	movs	r2, #0
 8002d7c:	f883 203c 	strb.w	r2, [r3, #60]	; 0x3c
 8002d80:	2301      	movs	r3, #1
 8002d82:	e000      	b.n	8002d86 <I2C_IsAcknowledgeFailed+0x52>
 8002d84:	2300      	movs	r3, #0
 8002d86:	4618      	mov	r0, r3
 8002d88:	370c      	adds	r7, #12
 8002d8a:	46bd      	mov	sp, r7
 8002d8c:	bc80      	pop	{r7}
 8002d8e:	4770      	bx	lr

08002d90 <HAL_RCC_OscConfig>:
 8002d90:	b580      	push	{r7, lr}
 8002d92:	b086      	sub	sp, #24
 8002d94:	af00      	add	r7, sp, #0
 8002d96:	6078      	str	r0, [r7, #4]
 8002d98:	687b      	ldr	r3, [r7, #4]
 8002d9a:	2b00      	cmp	r3, #0
 8002d9c:	d101      	bne.n	8002da2 <HAL_RCC_OscConfig+0x12>
 8002d9e:	2301      	movs	r3, #1
 8002da0:	e272      	b.n	8003288 <HAL_RCC_OscConfig+0x4f8>
 8002da2:	687b      	ldr	r3, [r7, #4]
 8002da4:	681b      	ldr	r3, [r3, #0]
 8002da6:	f003 0301 	and.w	r3, r3, #1
 8002daa:	2b00      	cmp	r3, #0
 8002dac:	f000 8087 	beq.w	8002ebe <HAL_RCC_OscConfig+0x12e>
 8002db0:	4b92      	ldr	r3, [pc, #584]	; (8002ffc <HAL_RCC_OscConfig+0x26c>)
 8002db2:	685b      	ldr	r3, [r3, #4]
 8002db4:	f003 030c 	and.w	r3, r3, #12
 8002db8:	2b04      	cmp	r3, #4
 8002dba:	d00c      	beq.n	8002dd6 <HAL_RCC_OscConfig+0x46>
 8002dbc:	4b8f      	ldr	r3, [pc, #572]	; (8002ffc <HAL_RCC_OscConfig+0x26c>)
 8002dbe:	685b      	ldr	r3, [r3, #4]
 8002dc0:	f003 030c 	and.w	r3, r3, #12
 8002dc4:	2b08      	cmp	r3, #8
 8002dc6:	d112      	bne.n	8002dee <HAL_RCC_OscConfig+0x5e>
 8002dc8:	4b8c      	ldr	r3, [pc, #560]	; (8002ffc <HAL_RCC_OscConfig+0x26c>)
 8002dca:	685b      	ldr	r3, [r3, #4]
 8002dcc:	f403 3380 	and.w	r3, r3, #65536	; 0x10000
 8002dd0:	f5b3 3f80 	cmp.w	r3, #65536	; 0x10000
 8002dd4:	d10b      	bne.n	8002dee <HAL_RCC_OscConfig+0x5e>
 8002dd6:	4b89      	ldr	r3, [pc, #548]	; (8002ffc <HAL_RCC_OscConfig+0x26c>)
 8002dd8:	681b      	ldr	r3, [r3, #0]
 8002dda:	f403 3300 	and.w	r3, r3, #131072	; 0x20000
 8002dde:	2b00      	cmp	r3, #0
 8002de0:	d06c      	beq.n	8002ebc <HAL_RCC_OscConfig+0x12c>
 8002de2:	687b      	ldr	r3, [r7, #4]
 8002de4:	685b      	ldr	r3, [r3, #4]
 8002de6:	2b00      	cmp	r3, #0
 8002de8:	d168      	bne.n	8002ebc <HAL_RCC_OscConfig+0x12c>
 8002dea:	2301      	movs	r3, #1
 8002dec:	e24c      	b.n	8003288 <HAL_RCC_OscConfig+0x4f8>
 8002dee:	687b      	ldr	r3, [r7, #4]
 8002df0:	685b      	ldr	r3, [r3, #4]
 8002df2:	f5b3 3f80 	cmp.w	r3, #65536	; 0x10000
 8002df6:	d106      	bne.n	8002e06 <HAL_RCC_OscConfig+0x76>
 8002df8:	4b80      	ldr	r3, [pc, #512]	; (8002ffc <HAL_RCC_OscConfig+0x26c>)
 8002dfa:	681b      	ldr	r3, [r3, #0]
 8002dfc:	4a7f      	ldr	r2, [pc, #508]	; (8002ffc <HAL_RCC_OscConfig+0x26c>)
 8002dfe:	f443 3380 	orr.w	r3, r3, #65536	; 0x10000
 8002e02:	6013      	str	r3, [r2, #0]
 8002e04:	e02e      	b.n	8002e64 <HAL_RCC_OscConfig+0xd4>
 8002e06:	687b      	ldr	r3, [r7, #4]
 8002e08:	685b      	ldr	r3, [r3, #4]
 8002e0a:	2b00      	cmp	r3, #0
 8002e0c:	d10c      	bne.n	8002e28 <HAL_RCC_OscConfig+0x98>
 8002e0e:	4b7b      	ldr	r3, [pc, #492]	; (8002ffc <HAL_RCC_OscConfig+0x26c>)
 8002e10:	681b      	ldr	r3, [r3, #0]
 8002e12:	4a7a      	ldr	r2, [pc, #488]	; (8002ffc <HAL_RCC_OscConfig+0x26c>)
 8002e14:	f423 3380 	bic.w	r3, r3, #65536	; 0x10000
 8002e18:	6013      	str	r3, [r2, #0]
 8002e1a:	4b78      	ldr	r3, [pc, #480]	; (8002ffc <HAL_RCC_OscConfig+0x26c>)
 8002e1c:	681b      	ldr	r3, [r3, #0]
 8002e1e:	4a77      	ldr	r2, [pc, #476]	; (8002ffc <HAL_RCC_OscConfig+0x26c>)
 8002e20:	f423 2380 	bic.w	r3, r3, #262144	; 0x40000
 8002e24:	6013      	str	r3, [r2, #0]
 8002e26:	e01d      	b.n	8002e64 <HAL_RCC_OscConfig+0xd4>
 8002e28:	687b      	ldr	r3, [r7, #4]
 8002e2a:	685b      	ldr	r3, [r3, #4]
 8002e2c:	f5b3 2fa0 	cmp.w	r3, #327680	; 0x50000
 8002e30:	d10c      	bne.n	8002e4c <HAL_RCC_OscConfig+0xbc>
 8002e32:	4b72      	ldr	r3, [pc, #456]	; (8002ffc <HAL_RCC_OscConfig+0x26c>)
 8002e34:	681b      	ldr	r3, [r3, #0]
 8002e36:	4a71      	ldr	r2, [pc, #452]	; (8002ffc <HAL_RCC_OscConfig+0x26c>)
 8002e38:	f443 2380 	orr.w	r3, r3, #262144	; 0x40000
 8002e3c:	6013      	str	r3, [r2, #0]
 8002e3e:	4b6f      	ldr	r3, [pc, #444]	; (8002ffc <HAL_RCC_OscConfig+0x26c>)
 8002e40:	681b      	ldr	r3, [r3, #0]
 8002e42:	4a6e      	ldr	r2, [pc, #440]	; (8002ffc <HAL_RCC_OscConfig+0x26c>)
 8002e44:	f443 3380 	orr.w	r3, r3, #65536	; 0x10000
 8002e48:	6013      	str	r3, [r2, #0]
 8002e4a:	e00b      	b.n	8002e64 <HAL_RCC_OscConfig+0xd4>
 8002e4c:	4b6b      	ldr	r3, [pc, #428]	; (8002ffc <HAL_RCC_OscConfig+0x26c>)
 8002e4e:	681b      	ldr	r3, [r3, #0]
 8002e50:	4a6a      	ldr	r2, [pc, #424]	; (8002ffc <HAL_RCC_OscConfig+0x26c>)
 8002e52:	f423 3380 	bic.w	r3, r3, #65536	; 0x10000
 8002e56:	6013      	str	r3, [r2, #0]
 8002e58:	4b68      	ldr	r3, [pc, #416]	; (8002ffc <HAL_RCC_OscConfig+0x26c>)
 8002e5a:	681b      	ldr	r3, [r3, #0]
 8002e5c:	4a67      	ldr	r2, [pc, #412]	; (8002ffc <HAL_RCC_OscConfig+0x26c>)
 8002e5e:	f423 2380 	bic.w	r3, r3, #262144	; 0x40000
 8002e62:	6013      	str	r3, [r2, #0]
 8002e64:	687b      	ldr	r3, [r7, #4]
 8002e66:	685b      	ldr	r3, [r3, #4]
 8002e68:	2b00      	cmp	r3, #0
 8002e6a:	d013      	beq.n	8002e94 <HAL_RCC_OscConfig+0x104>
 8002e6c:	f7fe fa9c 	bl	80013a8 <HAL_GetTick>
 8002e70:	6138      	str	r0, [r7, #16]
 8002e72:	e008      	b.n	8002e86 <HAL_RCC_OscConfig+0xf6>
 8002e74:	f7fe fa98 	bl	80013a8 <HAL_GetTick>
 8002e78:	4602      	mov	r2, r0
 8002e7a:	693b      	ldr	r3, [r7, #16]
 8002e7c:	1ad3      	subs	r3, r2, r3
 8002e7e:	2b64      	cmp	r3, #100	; 0x64
 8002e80:	d901      	bls.n	8002e86 <HAL_RCC_OscConfig+0xf6>
 8002e82:	2303      	movs	r3, #3
 8002e84:	e200      	b.n	8003288 <HAL_RCC_OscConfig+0x4f8>
 8002e86:	4b5d      	ldr	r3, [pc, #372]	; (8002ffc <HAL_RCC_OscConfig+0x26c>)
 8002e88:	681b      	ldr	r3, [r3, #0]
 8002e8a:	f403 3300 	and.w	r3, r3, #131072	; 0x20000
 8002e8e:	2b00      	cmp	r3, #0
 8002e90:	d0f0      	beq.n	8002e74 <HAL_RCC_OscConfig+0xe4>
 8002e92:	e014      	b.n	8002ebe <HAL_RCC_OscConfig+0x12e>
 8002e94:	f7fe fa88 	bl	80013a8 <HAL_GetTick>
 8002e98:	6138      	str	r0, [r7, #16]
 8002e9a:	e008      	b.n	8002eae <HAL_RCC_OscConfig+0x11e>
 8002e9c:	f7fe fa84 	bl	80013a8 <HAL_GetTick>
 8002ea0:	4602      	mov	r2, r0
 8002ea2:	693b      	ldr	r3, [r7, #16]
 8002ea4:	1ad3      	subs	r3, r2, r3
 8002ea6:	2b64      	cmp	r3, #100	; 0x64
 8002ea8:	d901      	bls.n	8002eae <HAL_RCC_OscConfig+0x11e>
 8002eaa:	2303      	movs	r3, #3
 8002eac:	e1ec      	b.n	8003288 <HAL_RCC_OscConfig+0x4f8>
 8002eae:	4b53      	ldr	r3, [pc, #332]	; (8002ffc <HAL_RCC_OscConfig+0x26c>)
 8002eb0:	681b      	ldr	r3, [r3, #0]
 8002eb2:	f403 3300 	and.w	r3, r3, #131072	; 0x20000
 8002eb6:	2b00      	cmp	r3, #0
 8002eb8:	d1f0      	bne.n	8002e9c <HAL_RCC_OscConfig+0x10c>
 8002eba:	e000      	b.n	8002ebe <HAL_RCC_OscConfig+0x12e>
 8002ebc:	bf00      	nop
 8002ebe:	687b      	ldr	r3, [r7, #4]
 8002ec0:	681b      	ldr	r3, [r3, #0]
 8002ec2:	f003 0302 	and.w	r3, r3, #2
 8002ec6:	2b00      	cmp	r3, #0
 8002ec8:	d063      	beq.n	8002f92 <HAL_RCC_OscConfig+0x202>
 8002eca:	4b4c      	ldr	r3, [pc, #304]	; (8002ffc <HAL_RCC_OscConfig+0x26c>)
 8002ecc:	685b      	ldr	r3, [r3, #4]
 8002ece:	f003 030c 	and.w	r3, r3, #12
 8002ed2:	2b00      	cmp	r3, #0
 8002ed4:	d00b      	beq.n	8002eee <HAL_RCC_OscConfig+0x15e>
 8002ed6:	4b49      	ldr	r3, [pc, #292]	; (8002ffc <HAL_RCC_OscConfig+0x26c>)
 8002ed8:	685b      	ldr	r3, [r3, #4]
 8002eda:	f003 030c 	and.w	r3, r3, #12
 8002ede:	2b08      	cmp	r3, #8
 8002ee0:	d11c      	bne.n	8002f1c <HAL_RCC_OscConfig+0x18c>
 8002ee2:	4b46      	ldr	r3, [pc, #280]	; (8002ffc <HAL_RCC_OscConfig+0x26c>)
 8002ee4:	685b      	ldr	r3, [r3, #4]
 8002ee6:	f403 3380 	and.w	r3, r3, #65536	; 0x10000
 8002eea:	2b00      	cmp	r3, #0
 8002eec:	d116      	bne.n	8002f1c <HAL_RCC_OscConfig+0x18c>
 8002eee:	4b43      	ldr	r3, [pc, #268]	; (8002ffc <HAL_RCC_OscConfig+0x26c>)
 8002ef0:	681b      	ldr	r3, [r3, #0]
 8002ef2:	f003 0302 	and.w	r3, r3, #2
 8002ef6:	2b00      	cmp	r3, #0
 8002ef8:	d005      	beq.n	8002f06 <HAL_RCC_OscConfig+0x176>
 8002efa:	687b      	ldr	r3, [r7, #4]
 8002efc:	691b      	ldr	r3, [r3, #16]
 8002efe:	2b01      	cmp	r3, #1
 8002f00:	d001      	beq.n	8002f06 <HAL_RCC_OscConfig+0x176>
 8002f02:	2301      	movs	r3, #1
 8002f04:	e1c0      	b.n	8003288 <HAL_RCC_OscConfig+0x4f8>
 8002f06:	4b3d      	ldr	r3, [pc, #244]	; (8002ffc <HAL_RCC_OscConfig+0x26c>)
 8002f08:	681b      	ldr	r3, [r3, #0]
 8002f0a:	f023 02f8 	bic.w	r2, r3, #248	; 0xf8
 8002f0e:	687b      	ldr	r3, [r7, #4]
 8002f10:	695b      	ldr	r3, [r3, #20]
 8002f12:	00db      	lsls	r3, r3, #3
 8002f14:	4939      	ldr	r1, [pc, #228]	; (8002ffc <HAL_RCC_OscConfig+0x26c>)
 8002f16:	4313      	orrs	r3, r2
 8002f18:	600b      	str	r3, [r1, #0]
 8002f1a:	e03a      	b.n	8002f92 <HAL_RCC_OscConfig+0x202>
 8002f1c:	687b      	ldr	r3, [r7, #4]
 8002f1e:	691b      	ldr	r3, [r3, #16]
 8002f20:	2b00      	cmp	r3, #0
 8002f22:	d020      	beq.n	8002f66 <HAL_RCC_OscConfig+0x1d6>
 8002f24:	4b36      	ldr	r3, [pc, #216]	; (8003000 <HAL_RCC_OscConfig+0x270>)
 8002f26:	2201      	movs	r2, #1
 8002f28:	601a      	str	r2, [r3, #0]
 8002f2a:	f7fe fa3d 	bl	80013a8 <HAL_GetTick>
 8002f2e:	6138      	str	r0, [r7, #16]
 8002f30:	e008      	b.n	8002f44 <HAL_RCC_OscConfig+0x1b4>
 8002f32:	f7fe fa39 	bl	80013a8 <HAL_GetTick>
 8002f36:	4602      	mov	r2, r0
 8002f38:	693b      	ldr	r3, [r7, #16]
 8002f3a:	1ad3      	subs	r3, r2, r3
 8002f3c:	2b02      	cmp	r3, #2
 8002f3e:	d901      	bls.n	8002f44 <HAL_RCC_OscConfig+0x1b4>
 8002f40:	2303      	movs	r3, #3
 8002f42:	e1a1      	b.n	8003288 <HAL_RCC_OscConfig+0x4f8>
 8002f44:	4b2d      	ldr	r3, [pc, #180]	; (8002ffc <HAL_RCC_OscConfig+0x26c>)
 8002f46:	681b      	ldr	r3, [r3, #0]
 8002f48:	f003 0302 	and.w	r3, r3, #2
 8002f4c:	2b00      	cmp	r3, #0
 8002f4e:	d0f0      	beq.n	8002f32 <HAL_RCC_OscConfig+0x1a2>
 8002f50:	4b2a      	ldr	r3, [pc, #168]	; (8002ffc <HAL_RCC_OscConfig+0x26c>)
 8002f52:	681b      	ldr	r3, [r3, #0]
 8002f54:	f023 02f8 	bic.w	r2, r3, #248	; 0xf8
 8002f58:	687b      	ldr	r3, [r7, #4]
 8002f5a:	695b      	ldr	r3, [r3, #20]
 8002f5c:	00db      	lsls	r3, r3, #3
 8002f5e:	4927      	ldr	r1, [pc, #156]	; (8002ffc <HAL_RCC_OscConfig+0x26c>)
 8002f60:	4313      	orrs	r3, r2
 8002f62:	600b      	str	r3, [r1, #0]
 8002f64:	e015      	b.n	8002f92 <HAL_RCC_OscConfig+0x202>
 8002f66:	4b26      	ldr	r3, [pc, #152]	; (8003000 <HAL_RCC_OscConfig+0x270>)
 8002f68:	2200      	movs	r2, #0
 8002f6a:	601a      	str	r2, [r3, #0]
 8002f6c:	f7fe fa1c 	bl	80013a8 <HAL_GetTick>
 8002f70:	6138      	str	r0, [r7, #16]
 8002f72:	e008      	b.n	8002f86 <HAL_RCC_OscConfig+0x1f6>
 8002f74:	f7fe fa18 	bl	80013a8 <HAL_GetTick>
 8002f78:	4602      	mov	r2, r0
 8002f7a:	693b      	ldr	r3, [r7, #16]
 8002f7c:	1ad3      	subs	r3, r2, r3
 8002f7e:	2b02      	cmp	r3, #2
 8002f80:	d901      	bls.n	8002f86 <HAL_RCC_OscConfig+0x1f6>
 8002f82:	2303      	movs	r3, #3
 8002f84:	e180      	b.n	8003288 <HAL_RCC_OscConfig+0x4f8>
 8002f86:	4b1d      	ldr	r3, [pc, #116]	; (8002ffc <HAL_RCC_OscConfig+0x26c>)
 8002f88:	681b      	ldr	r3, [r3, #0]
 8002f8a:	f003 0302 	and.w	r3, r3, #2
 8002f8e:	2b00      	cmp	r3, #0
 8002f90:	d1f0      	bne.n	8002f74 <HAL_RCC_OscConfig+0x1e4>
 8002f92:	687b      	ldr	r3, [r7, #4]
 8002f94:	681b      	ldr	r3, [r3, #0]
 8002f96:	f003 0308 	and.w	r3, r3, #8
 8002f9a:	2b00      	cmp	r3, #0
 8002f9c:	d03a      	beq.n	8003014 <HAL_RCC_OscConfig+0x284>
 8002f9e:	687b      	ldr	r3, [r7, #4]
 8002fa0:	699b      	ldr	r3, [r3, #24]
 8002fa2:	2b00      	cmp	r3, #0
 8002fa4:	d019      	beq.n	8002fda <HAL_RCC_OscConfig+0x24a>
 8002fa6:	4b17      	ldr	r3, [pc, #92]	; (8003004 <HAL_RCC_OscConfig+0x274>)
 8002fa8:	2201      	movs	r2, #1
 8002faa:	601a      	str	r2, [r3, #0]
 8002fac:	f7fe f9fc 	bl	80013a8 <HAL_GetTick>
 8002fb0:	6138      	str	r0, [r7, #16]
 8002fb2:	e008      	b.n	8002fc6 <HAL_RCC_OscConfig+0x236>
 8002fb4:	f7fe f9f8 	bl	80013a8 <HAL_GetTick>
 8002fb8:	4602      	mov	r2, r0
 8002fba:	693b      	ldr	r3, [r7, #16]
 8002fbc:	1ad3      	subs	r3, r2, r3
 8002fbe:	2b02      	cmp	r3, #2
 8002fc0:	d901      	bls.n	8002fc6 <HAL_RCC_OscConfig+0x236>
 8002fc2:	2303      	movs	r3, #3
 8002fc4:	e160      	b.n	8003288 <HAL_RCC_OscConfig+0x4f8>
 8002fc6:	4b0d      	ldr	r3, [pc, #52]	; (8002ffc <HAL_RCC_OscConfig+0x26c>)
 8002fc8:	6a5b      	ldr	r3, [r3, #36]	; 0x24
 8002fca:	f003 0302 	and.w	r3, r3, #2
 8002fce:	2b00      	cmp	r3, #0
 8002fd0:	d0f0      	beq.n	8002fb4 <HAL_RCC_OscConfig+0x224>
 8002fd2:	2001      	movs	r0, #1
 8002fd4:	f000 fad8 	bl	8003588 <RCC_Delay>
 8002fd8:	e01c      	b.n	8003014 <HAL_RCC_OscConfig+0x284>
 8002fda:	4b0a      	ldr	r3, [pc, #40]	; (8003004 <HAL_RCC_OscConfig+0x274>)
 8002fdc:	2200      	movs	r2, #0
 8002fde:	601a      	str	r2, [r3, #0]
 8002fe0:	f7fe f9e2 	bl	80013a8 <HAL_GetTick>
 8002fe4:	6138      	str	r0, [r7, #16]
 8002fe6:	e00f      	b.n	8003008 <HAL_RCC_OscConfig+0x278>
 8002fe8:	f7fe f9de 	bl	80013a8 <HAL_GetTick>
 8002fec:	4602      	mov	r2, r0
 8002fee:	693b      	ldr	r3, [r7, #16]
 8002ff0:	1ad3      	subs	r3, r2, r3
 8002ff2:	2b02      	cmp	r3, #2
 8002ff4:	d908      	bls.n	8003008 <HAL_RCC_OscConfig+0x278>
 8002ff6:	2303      	movs	r3, #3
 8002ff8:	e146      	b.n	8003288 <HAL_RCC_OscConfig+0x4f8>
 8002ffa:	bf00      	nop
 8002ffc:	40021000 	.word	0x40021000
 8003000:	42420000 	.word	0x42420000
 8003004:	42420480 	.word	0x42420480
 8003008:	4b92      	ldr	r3, [pc, #584]	; (8003254 <HAL_RCC_OscConfig+0x4c4>)
 800300a:	6a5b      	ldr	r3, [r3, #36]	; 0x24
 800300c:	f003 0302 	and.w	r3, r3, #2
 8003010:	2b00      	cmp	r3, #0
 8003012:	d1e9      	bne.n	8002fe8 <HAL_RCC_OscConfig+0x258>
 8003014:	687b      	ldr	r3, [r7, #4]
 8003016:	681b      	ldr	r3, [r3, #0]
 8003018:	f003 0304 	and.w	r3, r3, #4
 800301c:	2b00      	cmp	r3, #0
 800301e:	f000 80a6 	beq.w	800316e <HAL_RCC_OscConfig+0x3de>
 8003022:	2300      	movs	r3, #0
 8003024:	75fb      	strb	r3, [r7, #23]
 8003026:	4b8b      	ldr	r3, [pc, #556]	; (8003254 <HAL_RCC_OscConfig+0x4c4>)
 8003028:	69db      	ldr	r3, [r3, #28]
 800302a:	f003 5380 	and.w	r3, r3, #268435456	; 0x10000000
 800302e:	2b00      	cmp	r3, #0
 8003030:	d10d      	bne.n	800304e <HAL_RCC_OscConfig+0x2be>
 8003032:	4b88      	ldr	r3, [pc, #544]	; (8003254 <HAL_RCC_OscConfig+0x4c4>)
 8003034:	69db      	ldr	r3, [r3, #28]
 8003036:	4a87      	ldr	r2, [pc, #540]	; (8003254 <HAL_RCC_OscConfig+0x4c4>)
 8003038:	f043 5380 	orr.w	r3, r3, #268435456	; 0x10000000
 800303c:	61d3      	str	r3, [r2, #28]
 800303e:	4b85      	ldr	r3, [pc, #532]	; (8003254 <HAL_RCC_OscConfig+0x4c4>)
 8003040:	69db      	ldr	r3, [r3, #28]
 8003042:	f003 5380 	and.w	r3, r3, #268435456	; 0x10000000
 8003046:	60bb      	str	r3, [r7, #8]
 8003048:	68bb      	ldr	r3, [r7, #8]
 800304a:	2301      	movs	r3, #1
 800304c:	75fb      	strb	r3, [r7, #23]
 800304e:	4b82      	ldr	r3, [pc, #520]	; (8003258 <HAL_RCC_OscConfig+0x4c8>)
 8003050:	681b      	ldr	r3, [r3, #0]
 8003052:	f403 7380 	and.w	r3, r3, #256	; 0x100
 8003056:	2b00      	cmp	r3, #0
 8003058:	d118      	bne.n	800308c <HAL_RCC_OscConfig+0x2fc>
 800305a:	4b7f      	ldr	r3, [pc, #508]	; (8003258 <HAL_RCC_OscConfig+0x4c8>)
 800305c:	681b      	ldr	r3, [r3, #0]
 800305e:	4a7e      	ldr	r2, [pc, #504]	; (8003258 <HAL_RCC_OscConfig+0x4c8>)
 8003060:	f443 7380 	orr.w	r3, r3, #256	; 0x100
 8003064:	6013      	str	r3, [r2, #0]
 8003066:	f7fe f99f 	bl	80013a8 <HAL_GetTick>
 800306a:	6138      	str	r0, [r7, #16]
 800306c:	e008      	b.n	8003080 <HAL_RCC_OscConfig+0x2f0>
 800306e:	f7fe f99b 	bl	80013a8 <HAL_GetTick>
 8003072:	4602      	mov	r2, r0
 8003074:	693b      	ldr	r3, [r7, #16]
 8003076:	1ad3      	subs	r3, r2, r3
 8003078:	2b64      	cmp	r3, #100	; 0x64
 800307a:	d901      	bls.n	8003080 <HAL_RCC_OscConfig+0x2f0>
 800307c:	2303      	movs	r3, #3
 800307e:	e103      	b.n	8003288 <HAL_RCC_OscConfig+0x4f8>
 8003080:	4b75      	ldr	r3, [pc, #468]	; (8003258 <HAL_RCC_OscConfig+0x4c8>)
 8003082:	681b      	ldr	r3, [r3, #0]
 8003084:	f403 7380 	and.w	r3, r3, #256	; 0x100
 8003088:	2b00      	cmp	r3, #0
 800308a:	d0f0      	beq.n	800306e <HAL_RCC_OscConfig+0x2de>
 800308c:	687b      	ldr	r3, [r7, #4]
 800308e:	68db      	ldr	r3, [r3, #12]
 8003090:	2b01      	cmp	r3, #1
 8003092:	d106      	bne.n	80030a2 <HAL_RCC_OscConfig+0x312>
 8003094:	4b6f      	ldr	r3, [pc, #444]	; (8003254 <HAL_RCC_OscConfig+0x4c4>)
 8003096:	6a1b      	ldr	r3, [r3, #32]
 8003098:	4a6e      	ldr	r2, [pc, #440]	; (8003254 <HAL_RCC_OscConfig+0x4c4>)
 800309a:	f043 0301 	orr.w	r3, r3, #1
 800309e:	6213      	str	r3, [r2, #32]
 80030a0:	e02d      	b.n	80030fe <HAL_RCC_OscConfig+0x36e>
 80030a2:	687b      	ldr	r3, [r7, #4]
 80030a4:	68db      	ldr	r3, [r3, #12]
 80030a6:	2b00      	cmp	r3, #0
 80030a8:	d10c      	bne.n	80030c4 <HAL_RCC_OscConfig+0x334>
 80030aa:	4b6a      	ldr	r3, [pc, #424]	; (8003254 <HAL_RCC_OscConfig+0x4c4>)
 80030ac:	6a1b      	ldr	r3, [r3, #32]
 80030ae:	4a69      	ldr	r2, [pc, #420]	; (8003254 <HAL_RCC_OscConfig+0x4c4>)
 80030b0:	f023 0301 	bic.w	r3, r3, #1
 80030b4:	6213      	str	r3, [r2, #32]
 80030b6:	4b67      	ldr	r3, [pc, #412]	; (8003254 <HAL_RCC_OscConfig+0x4c4>)
 80030b8:	6a1b      	ldr	r3, [r3, #32]
 80030ba:	4a66      	ldr	r2, [pc, #408]	; (8003254 <HAL_RCC_OscConfig+0x4c4>)
 80030bc:	f023 0304 	bic.w	r3, r3, #4
 80030c0:	6213      	str	r3, [r2, #32]
 80030c2:	e01c      	b.n	80030fe <HAL_RCC_OscConfig+0x36e>
 80030c4:	687b      	ldr	r3, [r7, #4]
 80030c6:	68db      	ldr	r3, [r3, #12]
 80030c8:	2b05      	cmp	r3, #5
 80030ca:	d10c      	bne.n	80030e6 <HAL_RCC_OscConfig+0x356>
 80030cc:	4b61      	ldr	r3, [pc, #388]	; (8003254 <HAL_RCC_OscConfig+0x4c4>)
 80030ce:	6a1b      	ldr	r3, [r3, #32]
 80030d0:	4a60      	ldr	r2, [pc, #384]	; (8003254 <HAL_RCC_OscConfig+0x4c4>)
 80030d2:	f043 0304 	orr.w	r3, r3, #4
 80030d6:	6213      	str	r3, [r2, #32]
 80030d8:	4b5e      	ldr	r3, [pc, #376]	; (8003254 <HAL_RCC_OscConfig+0x4c4>)
 80030da:	6a1b      	ldr	r3, [r3, #32]
 80030dc:	4a5d      	ldr	r2, [pc, #372]	; (8003254 <HAL_RCC_OscConfig+0x4c4>)
 80030de:	f043 0301 	orr.w	r3, r3, #1
 80030e2:	6213      	str	r3, [r2, #32]
 80030e4:	e00b      	b.n	80030fe <HAL_RCC_OscConfig+0x36e>
 80030e6:	4b5b      	ldr	r3, [pc, #364]	; (8003254 <HAL_RCC_OscConfig+0x4c4>)
 80030e8:	6a1b      	ldr	r3, [r3, #32]
 80030ea:	4a5a      	ldr	r2, [pc, #360]	; (8003254 <HAL_RCC_OscConfig+0x4c4>)
 80030ec:	f023 0301 	bic.w	r3, r3, #1
 80030f0:	6213      	str	r3, [r2, #32]
 80030f2:	4b58      	ldr	r3, [pc, #352]	; (8003254 <HAL_RCC_OscConfig+0x4c4>)
 80030f4:	6a1b      	ldr	r3, [r3, #32]
 80030f6:	4a57      	ldr	r2, [pc, #348]	; (8003254 <HAL_RCC_OscConfig+0x4c4>)
 80030f8:	f023 0304 	bic.w	r3, r3, #4
 80030fc:	6213      	str	r3, [r2, #32]
 80030fe:	687b      	ldr	r3, [r7, #4]
 8003100:	68db      	ldr	r3, [r3, #12]
 8003102:	2b00      	cmp	r3, #0
 8003104:	d015      	beq.n	8003132 <HAL_RCC_OscConfig+0x3a2>
 8003106:	f7fe f94f 	bl	80013a8 <HAL_GetTick>
 800310a:	6138      	str	r0, [r7, #16]
 800310c:	e00a      	b.n	8003124 <HAL_RCC_OscConfig+0x394>
 800310e:	f7fe f94b 	bl	80013a8 <HAL_GetTick>
 8003112:	4602      	mov	r2, r0
 8003114:	693b      	ldr	r3, [r7, #16]
 8003116:	1ad3      	subs	r3, r2, r3
 8003118:	f241 3288 	movw	r2, #5000	; 0x1388
 800311c:	4293      	cmp	r3, r2
 800311e:	d901      	bls.n	8003124 <HAL_RCC_OscConfig+0x394>
 8003120:	2303      	movs	r3, #3
 8003122:	e0b1      	b.n	8003288 <HAL_RCC_OscConfig+0x4f8>
 8003124:	4b4b      	ldr	r3, [pc, #300]	; (8003254 <HAL_RCC_OscConfig+0x4c4>)
 8003126:	6a1b      	ldr	r3, [r3, #32]
 8003128:	f003 0302 	and.w	r3, r3, #2
 800312c:	2b00      	cmp	r3, #0
 800312e:	d0ee      	beq.n	800310e <HAL_RCC_OscConfig+0x37e>
 8003130:	e014      	b.n	800315c <HAL_RCC_OscConfig+0x3cc>
 8003132:	f7fe f939 	bl	80013a8 <HAL_GetTick>
 8003136:	6138      	str	r0, [r7, #16]
 8003138:	e00a      	b.n	8003150 <HAL_RCC_OscConfig+0x3c0>
 800313a:	f7fe f935 	bl	80013a8 <HAL_GetTick>
 800313e:	4602      	mov	r2, r0
 8003140:	693b      	ldr	r3, [r7, #16]
 8003142:	1ad3      	subs	r3, r2, r3
 8003144:	f241 3288 	movw	r2, #5000	; 0x1388
 8003148:	4293      	cmp	r3, r2
 800314a:	d901      	bls.n	8003150 <HAL_RCC_OscConfig+0x3c0>
 800314c:	2303      	movs	r3, #3
 800314e:	e09b      	b.n	8003288 <HAL_RCC_OscConfig+0x4f8>
 8003150:	4b40      	ldr	r3, [pc, #256]	; (8003254 <HAL_RCC_OscConfig+0x4c4>)
 8003152:	6a1b      	ldr	r3, [r3, #32]
 8003154:	f003 0302 	and.w	r3, r3, #2
 8003158:	2b00      	cmp	r3, #0
 800315a:	d1ee      	bne.n	800313a <HAL_RCC_OscConfig+0x3aa>
 800315c:	7dfb      	ldrb	r3, [r7, #23]
 800315e:	2b01      	cmp	r3, #1
 8003160:	d105      	bne.n	800316e <HAL_RCC_OscConfig+0x3de>
 8003162:	4b3c      	ldr	r3, [pc, #240]	; (8003254 <HAL_RCC_OscConfig+0x4c4>)
 8003164:	69db      	ldr	r3, [r3, #28]
 8003166:	4a3b      	ldr	r2, [pc, #236]	; (8003254 <HAL_RCC_OscConfig+0x4c4>)
 8003168:	f023 5380 	bic.w	r3, r3, #268435456	; 0x10000000
 800316c:	61d3      	str	r3, [r2, #28]
 800316e:	687b      	ldr	r3, [r7, #4]
 8003170:	69db      	ldr	r3, [r3, #28]
 8003172:	2b00      	cmp	r3, #0
 8003174:	f000 8087 	beq.w	8003286 <HAL_RCC_OscConfig+0x4f6>
 8003178:	4b36      	ldr	r3, [pc, #216]	; (8003254 <HAL_RCC_OscConfig+0x4c4>)
 800317a:	685b      	ldr	r3, [r3, #4]
 800317c:	f003 030c 	and.w	r3, r3, #12
 8003180:	2b08      	cmp	r3, #8
 8003182:	d061      	beq.n	8003248 <HAL_RCC_OscConfig+0x4b8>
 8003184:	687b      	ldr	r3, [r7, #4]
 8003186:	69db      	ldr	r3, [r3, #28]
 8003188:	2b02      	cmp	r3, #2
 800318a:	d146      	bne.n	800321a <HAL_RCC_OscConfig+0x48a>
 800318c:	4b33      	ldr	r3, [pc, #204]	; (800325c <HAL_RCC_OscConfig+0x4cc>)
 800318e:	2200      	movs	r2, #0
 8003190:	601a      	str	r2, [r3, #0]
 8003192:	f7fe f909 	bl	80013a8 <HAL_GetTick>
 8003196:	6138      	str	r0, [r7, #16]
 8003198:	e008      	b.n	80031ac <HAL_RCC_OscConfig+0x41c>
 800319a:	f7fe f905 	bl	80013a8 <HAL_GetTick>
 800319e:	4602      	mov	r2, r0
 80031a0:	693b      	ldr	r3, [r7, #16]
 80031a2:	1ad3      	subs	r3, r2, r3
 80031a4:	2b02      	cmp	r3, #2
 80031a6:	d901      	bls.n	80031ac <HAL_RCC_OscConfig+0x41c>
 80031a8:	2303      	movs	r3, #3
 80031aa:	e06d      	b.n	8003288 <HAL_RCC_OscConfig+0x4f8>
 80031ac:	4b29      	ldr	r3, [pc, #164]	; (8003254 <HAL_RCC_OscConfig+0x4c4>)
 80031ae:	681b      	ldr	r3, [r3, #0]
 80031b0:	f003 7300 	and.w	r3, r3, #33554432	; 0x2000000
 80031b4:	2b00      	cmp	r3, #0
 80031b6:	d1f0      	bne.n	800319a <HAL_RCC_OscConfig+0x40a>
 80031b8:	687b      	ldr	r3, [r7, #4]
 80031ba:	6a1b      	ldr	r3, [r3, #32]
 80031bc:	f5b3 3f80 	cmp.w	r3, #65536	; 0x10000
 80031c0:	d108      	bne.n	80031d4 <HAL_RCC_OscConfig+0x444>
 80031c2:	4b24      	ldr	r3, [pc, #144]	; (8003254 <HAL_RCC_OscConfig+0x4c4>)
 80031c4:	685b      	ldr	r3, [r3, #4]
 80031c6:	f423 3200 	bic.w	r2, r3, #131072	; 0x20000
 80031ca:	687b      	ldr	r3, [r7, #4]
 80031cc:	689b      	ldr	r3, [r3, #8]
 80031ce:	4921      	ldr	r1, [pc, #132]	; (8003254 <HAL_RCC_OscConfig+0x4c4>)
 80031d0:	4313      	orrs	r3, r2
 80031d2:	604b      	str	r3, [r1, #4]
 80031d4:	4b1f      	ldr	r3, [pc, #124]	; (8003254 <HAL_RCC_OscConfig+0x4c4>)
 80031d6:	685b      	ldr	r3, [r3, #4]
 80031d8:	f423 1274 	bic.w	r2, r3, #3997696	; 0x3d0000
 80031dc:	687b      	ldr	r3, [r7, #4]
 80031de:	6a19      	ldr	r1, [r3, #32]
 80031e0:	687b      	ldr	r3, [r7, #4]
 80031e2:	6a5b      	ldr	r3, [r3, #36]	; 0x24
 80031e4:	430b      	orrs	r3, r1
 80031e6:	491b      	ldr	r1, [pc, #108]	; (8003254 <HAL_RCC_OscConfig+0x4c4>)
 80031e8:	4313      	orrs	r3, r2
 80031ea:	604b      	str	r3, [r1, #4]
 80031ec:	4b1b      	ldr	r3, [pc, #108]	; (800325c <HAL_RCC_OscConfig+0x4cc>)
 80031ee:	2201      	movs	r2, #1
 80031f0:	601a      	str	r2, [r3, #0]
 80031f2:	f7fe f8d9 	bl	80013a8 <HAL_GetTick>
 80031f6:	6138      	str	r0, [r7, #16]
 80031f8:	e008      	b.n	800320c <HAL_RCC_OscConfig+0x47c>
 80031fa:	f7fe f8d5 	bl	80013a8 <HAL_GetTick>
 80031fe:	4602      	mov	r2, r0
 8003200:	693b      	ldr	r3, [r7, #16]
 8003202:	1ad3      	subs	r3, r2, r3
 8003204:	2b02      	cmp	r3, #2
 8003206:	d901      	bls.n	800320c <HAL_RCC_OscConfig+0x47c>
 8003208:	2303      	movs	r3, #3
 800320a:	e03d      	b.n	8003288 <HAL_RCC_OscConfig+0x4f8>
 800320c:	4b11      	ldr	r3, [pc, #68]	; (8003254 <HAL_RCC_OscConfig+0x4c4>)
 800320e:	681b      	ldr	r3, [r3, #0]
 8003210:	f003 7300 	and.w	r3, r3, #33554432	; 0x2000000
 8003214:	2b00      	cmp	r3, #0
 8003216:	d0f0      	beq.n	80031fa <HAL_RCC_OscConfig+0x46a>
 8003218:	e035      	b.n	8003286 <HAL_RCC_OscConfig+0x4f6>
 800321a:	4b10      	ldr	r3, [pc, #64]	; (800325c <HAL_RCC_OscConfig+0x4cc>)
 800321c:	2200      	movs	r2, #0
 800321e:	601a      	str	r2, [r3, #0]
 8003220:	f7fe f8c2 	bl	80013a8 <HAL_GetTick>
 8003224:	6138      	str	r0, [r7, #16]
 8003226:	e008      	b.n	800323a <HAL_RCC_OscConfig+0x4aa>
 8003228:	f7fe f8be 	bl	80013a8 <HAL_GetTick>
 800322c:	4602      	mov	r2, r0
 800322e:	693b      	ldr	r3, [r7, #16]
 8003230:	1ad3      	subs	r3, r2, r3
 8003232:	2b02      	cmp	r3, #2
 8003234:	d901      	bls.n	800323a <HAL_RCC_OscConfig+0x4aa>
 8003236:	2303      	movs	r3, #3
 8003238:	e026      	b.n	8003288 <HAL_RCC_OscConfig+0x4f8>
 800323a:	4b06      	ldr	r3, [pc, #24]	; (8003254 <HAL_RCC_OscConfig+0x4c4>)
 800323c:	681b      	ldr	r3, [r3, #0]
 800323e:	f003 7300 	and.w	r3, r3, #33554432	; 0x2000000
 8003242:	2b00      	cmp	r3, #0
 8003244:	d1f0      	bne.n	8003228 <HAL_RCC_OscConfig+0x498>
 8003246:	e01e      	b.n	8003286 <HAL_RCC_OscConfig+0x4f6>
 8003248:	687b      	ldr	r3, [r7, #4]
 800324a:	69db      	ldr	r3, [r3, #28]
 800324c:	2b01      	cmp	r3, #1
 800324e:	d107      	bne.n	8003260 <HAL_RCC_OscConfig+0x4d0>
 8003250:	2301      	movs	r3, #1
 8003252:	e019      	b.n	8003288 <HAL_RCC_OscConfig+0x4f8>
 8003254:	40021000 	.word	0x40021000
 8003258:	40007000 	.word	0x40007000
 800325c:	42420060 	.word	0x42420060
 8003260:	4b0b      	ldr	r3, [pc, #44]	; (8003290 <HAL_RCC_OscConfig+0x500>)
 8003262:	685b      	ldr	r3, [r3, #4]
 8003264:	60fb      	str	r3, [r7, #12]
 8003266:	68fb      	ldr	r3, [r7, #12]
 8003268:	f403 3280 	and.w	r2, r3, #65536	; 0x10000
 800326c:	687b      	ldr	r3, [r7, #4]
 800326e:	6a1b      	ldr	r3, [r3, #32]
 8003270:	429a      	cmp	r2, r3
 8003272:	d106      	bne.n	8003282 <HAL_RCC_OscConfig+0x4f2>
 8003274:	68fb      	ldr	r3, [r7, #12]
 8003276:	f403 1270 	and.w	r2, r3, #3932160	; 0x3c0000
 800327a:	687b      	ldr	r3, [r7, #4]
 800327c:	6a5b      	ldr	r3, [r3, #36]	; 0x24
 800327e:	429a      	cmp	r2, r3
 8003280:	d001      	beq.n	8003286 <HAL_RCC_OscConfig+0x4f6>
 8003282:	2301      	movs	r3, #1
 8003284:	e000      	b.n	8003288 <HAL_RCC_OscConfig+0x4f8>
 8003286:	2300      	movs	r3, #0
 8003288:	4618      	mov	r0, r3
 800328a:	3718      	adds	r7, #24
 800328c:	46bd      	mov	sp, r7
 800328e:	bd80      	pop	{r7, pc}
 8003290:	40021000 	.word	0x40021000

08003294 <HAL_RCC_ClockConfig>:
 8003294:	b580      	push	{r7, lr}
 8003296:	b084      	sub	sp, #16
 8003298:	af00      	add	r7, sp, #0
 800329a:	6078      	str	r0, [r7, #4]
 800329c:	6039      	str	r1, [r7, #0]
 800329e:	687b      	ldr	r3, [r7, #4]
 80032a0:	2b00      	cmp	r3, #0
 80032a2:	d101      	bne.n	80032a8 <HAL_RCC_ClockConfig+0x14>
 80032a4:	2301      	movs	r3, #1
 80032a6:	e0d0      	b.n	800344a <HAL_RCC_ClockConfig+0x1b6>
 80032a8:	4b6a      	ldr	r3, [pc, #424]	; (8003454 <HAL_RCC_ClockConfig+0x1c0>)
 80032aa:	681b      	ldr	r3, [r3, #0]
 80032ac:	f003 0307 	and.w	r3, r3, #7
 80032b0:	683a      	ldr	r2, [r7, #0]
 80032b2:	429a      	cmp	r2, r3
 80032b4:	d910      	bls.n	80032d8 <HAL_RCC_ClockConfig+0x44>
 80032b6:	4b67      	ldr	r3, [pc, #412]	; (8003454 <HAL_RCC_ClockConfig+0x1c0>)
 80032b8:	681b      	ldr	r3, [r3, #0]
 80032ba:	f023 0207 	bic.w	r2, r3, #7
 80032be:	4965      	ldr	r1, [pc, #404]	; (8003454 <HAL_RCC_ClockConfig+0x1c0>)
 80032c0:	683b      	ldr	r3, [r7, #0]
 80032c2:	4313      	orrs	r3, r2
 80032c4:	600b      	str	r3, [r1, #0]
 80032c6:	4b63      	ldr	r3, [pc, #396]	; (8003454 <HAL_RCC_ClockConfig+0x1c0>)
 80032c8:	681b      	ldr	r3, [r3, #0]
 80032ca:	f003 0307 	and.w	r3, r3, #7
 80032ce:	683a      	ldr	r2, [r7, #0]
 80032d0:	429a      	cmp	r2, r3
 80032d2:	d001      	beq.n	80032d8 <HAL_RCC_ClockConfig+0x44>
 80032d4:	2301      	movs	r3, #1
 80032d6:	e0b8      	b.n	800344a <HAL_RCC_ClockConfig+0x1b6>
 80032d8:	687b      	ldr	r3, [r7, #4]
 80032da:	681b      	ldr	r3, [r3, #0]
 80032dc:	f003 0302 	and.w	r3, r3, #2
 80032e0:	2b00      	cmp	r3, #0
 80032e2:	d020      	beq.n	8003326 <HAL_RCC_ClockConfig+0x92>
 80032e4:	687b      	ldr	r3, [r7, #4]
 80032e6:	681b      	ldr	r3, [r3, #0]
 80032e8:	f003 0304 	and.w	r3, r3, #4
 80032ec:	2b00      	cmp	r3, #0
 80032ee:	d005      	beq.n	80032fc <HAL_RCC_ClockConfig+0x68>
 80032f0:	4b59      	ldr	r3, [pc, #356]	; (8003458 <HAL_RCC_ClockConfig+0x1c4>)
 80032f2:	685b      	ldr	r3, [r3, #4]
 80032f4:	4a58      	ldr	r2, [pc, #352]	; (8003458 <HAL_RCC_ClockConfig+0x1c4>)
 80032f6:	f443 63e0 	orr.w	r3, r3, #1792	; 0x700
 80032fa:	6053      	str	r3, [r2, #4]
 80032fc:	687b      	ldr	r3, [r7, #4]
 80032fe:	681b      	ldr	r3, [r3, #0]
 8003300:	f003 0308 	and.w	r3, r3, #8
 8003304:	2b00      	cmp	r3, #0
 8003306:	d005      	beq.n	8003314 <HAL_RCC_ClockConfig+0x80>
 8003308:	4b53      	ldr	r3, [pc, #332]	; (8003458 <HAL_RCC_ClockConfig+0x1c4>)
 800330a:	685b      	ldr	r3, [r3, #4]
 800330c:	4a52      	ldr	r2, [pc, #328]	; (8003458 <HAL_RCC_ClockConfig+0x1c4>)
 800330e:	f443 5360 	orr.w	r3, r3, #14336	; 0x3800
 8003312:	6053      	str	r3, [r2, #4]
 8003314:	4b50      	ldr	r3, [pc, #320]	; (8003458 <HAL_RCC_ClockConfig+0x1c4>)
 8003316:	685b      	ldr	r3, [r3, #4]
 8003318:	f023 02f0 	bic.w	r2, r3, #240	; 0xf0
 800331c:	687b      	ldr	r3, [r7, #4]
 800331e:	689b      	ldr	r3, [r3, #8]
 8003320:	494d      	ldr	r1, [pc, #308]	; (8003458 <HAL_RCC_ClockConfig+0x1c4>)
 8003322:	4313      	orrs	r3, r2
 8003324:	604b      	str	r3, [r1, #4]
 8003326:	687b      	ldr	r3, [r7, #4]
 8003328:	681b      	ldr	r3, [r3, #0]
 800332a:	f003 0301 	and.w	r3, r3, #1
 800332e:	2b00      	cmp	r3, #0
 8003330:	d040      	beq.n	80033b4 <HAL_RCC_ClockConfig+0x120>
 8003332:	687b      	ldr	r3, [r7, #4]
 8003334:	685b      	ldr	r3, [r3, #4]
 8003336:	2b01      	cmp	r3, #1
 8003338:	d107      	bne.n	800334a <HAL_RCC_ClockConfig+0xb6>
 800333a:	4b47      	ldr	r3, [pc, #284]	; (8003458 <HAL_RCC_ClockConfig+0x1c4>)
 800333c:	681b      	ldr	r3, [r3, #0]
 800333e:	f403 3300 	and.w	r3, r3, #131072	; 0x20000
 8003342:	2b00      	cmp	r3, #0
 8003344:	d115      	bne.n	8003372 <HAL_RCC_ClockConfig+0xde>
 8003346:	2301      	movs	r3, #1
 8003348:	e07f      	b.n	800344a <HAL_RCC_ClockConfig+0x1b6>
 800334a:	687b      	ldr	r3, [r7, #4]
 800334c:	685b      	ldr	r3, [r3, #4]
 800334e:	2b02      	cmp	r3, #2
 8003350:	d107      	bne.n	8003362 <HAL_RCC_ClockConfig+0xce>
 8003352:	4b41      	ldr	r3, [pc, #260]	; (8003458 <HAL_RCC_ClockConfig+0x1c4>)
 8003354:	681b      	ldr	r3, [r3, #0]
 8003356:	f003 7300 	and.w	r3, r3, #33554432	; 0x2000000
 800335a:	2b00      	cmp	r3, #0
 800335c:	d109      	bne.n	8003372 <HAL_RCC_ClockConfig+0xde>
 800335e:	2301      	movs	r3, #1
 8003360:	e073      	b.n	800344a <HAL_RCC_ClockConfig+0x1b6>
 8003362:	4b3d      	ldr	r3, [pc, #244]	; (8003458 <HAL_RCC_ClockConfig+0x1c4>)
 8003364:	681b      	ldr	r3, [r3, #0]
 8003366:	f003 0302 	and.w	r3, r3, #2
 800336a:	2b00      	cmp	r3, #0
 800336c:	d101      	bne.n	8003372 <HAL_RCC_ClockConfig+0xde>
 800336e:	2301      	movs	r3, #1
 8003370:	e06b      	b.n	800344a <HAL_RCC_ClockConfig+0x1b6>
 8003372:	4b39      	ldr	r3, [pc, #228]	; (8003458 <HAL_RCC_ClockConfig+0x1c4>)
 8003374:	685b      	ldr	r3, [r3, #4]
 8003376:	f023 0203 	bic.w	r2, r3, #3
 800337a:	687b      	ldr	r3, [r7, #4]
 800337c:	685b      	ldr	r3, [r3, #4]
 800337e:	4936      	ldr	r1, [pc, #216]	; (8003458 <HAL_RCC_ClockConfig+0x1c4>)
 8003380:	4313      	orrs	r3, r2
 8003382:	604b      	str	r3, [r1, #4]
 8003384:	f7fe f810 	bl	80013a8 <HAL_GetTick>
 8003388:	60f8      	str	r0, [r7, #12]
 800338a:	e00a      	b.n	80033a2 <HAL_RCC_ClockConfig+0x10e>
 800338c:	f7fe f80c 	bl	80013a8 <HAL_GetTick>
 8003390:	4602      	mov	r2, r0
 8003392:	68fb      	ldr	r3, [r7, #12]
 8003394:	1ad3      	subs	r3, r2, r3
 8003396:	f241 3288 	movw	r2, #5000	; 0x1388
 800339a:	4293      	cmp	r3, r2
 800339c:	d901      	bls.n	80033a2 <HAL_RCC_ClockConfig+0x10e>
 800339e:	2303      	movs	r3, #3
 80033a0:	e053      	b.n	800344a <HAL_RCC_ClockConfig+0x1b6>
 80033a2:	4b2d      	ldr	r3, [pc, #180]	; (8003458 <HAL_RCC_ClockConfig+0x1c4>)
 80033a4:	685b      	ldr	r3, [r3, #4]
 80033a6:	f003 020c 	and.w	r2, r3, #12
 80033aa:	687b      	ldr	r3, [r7, #4]
 80033ac:	685b      	ldr	r3, [r3, #4]
 80033ae:	009b      	lsls	r3, r3, #2
 80033b0:	429a      	cmp	r2, r3
 80033b2:	d1eb      	bne.n	800338c <HAL_RCC_ClockConfig+0xf8>
 80033b4:	4b27      	ldr	r3, [pc, #156]	; (8003454 <HAL_RCC_ClockConfig+0x1c0>)
 80033b6:	681b      	ldr	r3, [r3, #0]
 80033b8:	f003 0307 	and.w	r3, r3, #7
 80033bc:	683a      	ldr	r2, [r7, #0]
 80033be:	429a      	cmp	r2, r3
 80033c0:	d210      	bcs.n	80033e4 <HAL_RCC_ClockConfig+0x150>
 80033c2:	4b24      	ldr	r3, [pc, #144]	; (8003454 <HAL_RCC_ClockConfig+0x1c0>)
 80033c4:	681b      	ldr	r3, [r3, #0]
 80033c6:	f023 0207 	bic.w	r2, r3, #7
 80033ca:	4922      	ldr	r1, [pc, #136]	; (8003454 <HAL_RCC_ClockConfig+0x1c0>)
 80033cc:	683b      	ldr	r3, [r7, #0]
 80033ce:	4313      	orrs	r3, r2
 80033d0:	600b      	str	r3, [r1, #0]
 80033d2:	4b20      	ldr	r3, [pc, #128]	; (8003454 <HAL_RCC_ClockConfig+0x1c0>)
 80033d4:	681b      	ldr	r3, [r3, #0]
 80033d6:	f003 0307 	and.w	r3, r3, #7
 80033da:	683a      	ldr	r2, [r7, #0]
 80033dc:	429a      	cmp	r2, r3
 80033de:	d001      	beq.n	80033e4 <HAL_RCC_ClockConfig+0x150>
 80033e0:	2301      	movs	r3, #1
 80033e2:	e032      	b.n	800344a <HAL_RCC_ClockConfig+0x1b6>
 80033e4:	687b      	ldr	r3, [r7, #4]
 80033e6:	681b      	ldr	r3, [r3, #0]
 80033e8:	f003 0304 	and.w	r3, r3, #4
 80033ec:	2b00      	cmp	r3, #0
 80033ee:	d008      	beq.n	8003402 <HAL_RCC_ClockConfig+0x16e>
 80033f0:	4b19      	ldr	r3, [pc, #100]	; (8003458 <HAL_RCC_ClockConfig+0x1c4>)
 80033f2:	685b      	ldr	r3, [r3, #4]
 80033f4:	f423 62e0 	bic.w	r2, r3, #1792	; 0x700
 80033f8:	687b      	ldr	r3, [r7, #4]
 80033fa:	68db      	ldr	r3, [r3, #12]
 80033fc:	4916      	ldr	r1, [pc, #88]	; (8003458 <HAL_RCC_ClockConfig+0x1c4>)
 80033fe:	4313      	orrs	r3, r2
 8003400:	604b      	str	r3, [r1, #4]
 8003402:	687b      	ldr	r3, [r7, #4]
 8003404:	681b      	ldr	r3, [r3, #0]
 8003406:	f003 0308 	and.w	r3, r3, #8
 800340a:	2b00      	cmp	r3, #0
 800340c:	d009      	beq.n	8003422 <HAL_RCC_ClockConfig+0x18e>
 800340e:	4b12      	ldr	r3, [pc, #72]	; (8003458 <HAL_RCC_ClockConfig+0x1c4>)
 8003410:	685b      	ldr	r3, [r3, #4]
 8003412:	f423 5260 	bic.w	r2, r3, #14336	; 0x3800
 8003416:	687b      	ldr	r3, [r7, #4]
 8003418:	691b      	ldr	r3, [r3, #16]
 800341a:	00db      	lsls	r3, r3, #3
 800341c:	490e      	ldr	r1, [pc, #56]	; (8003458 <HAL_RCC_ClockConfig+0x1c4>)
 800341e:	4313      	orrs	r3, r2
 8003420:	604b      	str	r3, [r1, #4]
 8003422:	f000 f821 	bl	8003468 <HAL_RCC_GetSysClockFreq>
 8003426:	4602      	mov	r2, r0
 8003428:	4b0b      	ldr	r3, [pc, #44]	; (8003458 <HAL_RCC_ClockConfig+0x1c4>)
 800342a:	685b      	ldr	r3, [r3, #4]
 800342c:	091b      	lsrs	r3, r3, #4
 800342e:	f003 030f 	and.w	r3, r3, #15
 8003432:	490a      	ldr	r1, [pc, #40]	; (800345c <HAL_RCC_ClockConfig+0x1c8>)
 8003434:	5ccb      	ldrb	r3, [r1, r3]
 8003436:	fa22 f303 	lsr.w	r3, r2, r3
 800343a:	4a09      	ldr	r2, [pc, #36]	; (8003460 <HAL_RCC_ClockConfig+0x1cc>)
 800343c:	6013      	str	r3, [r2, #0]
 800343e:	4b09      	ldr	r3, [pc, #36]	; (8003464 <HAL_RCC_ClockConfig+0x1d0>)
 8003440:	681b      	ldr	r3, [r3, #0]
 8003442:	4618      	mov	r0, r3
 8003444:	f7fd ff6e 	bl	8001324 <HAL_InitTick>
 8003448:	2300      	movs	r3, #0
 800344a:	4618      	mov	r0, r3
 800344c:	3710      	adds	r7, #16
 800344e:	46bd      	mov	sp, r7
 8003450:	bd80      	pop	{r7, pc}
 8003452:	bf00      	nop
 8003454:	40022000 	.word	0x40022000
 8003458:	40021000 	.word	0x40021000
 800345c:	080062ac 	.word	0x080062ac
 8003460:	20000004 	.word	0x20000004
 8003464:	20000008 	.word	0x20000008

08003468 <HAL_RCC_GetSysClockFreq>:
 8003468:	b490      	push	{r4, r7}
 800346a:	b08a      	sub	sp, #40	; 0x28
 800346c:	af00      	add	r7, sp, #0
 800346e:	4b29      	ldr	r3, [pc, #164]	; (8003514 <HAL_RCC_GetSysClockFreq+0xac>)
 8003470:	1d3c      	adds	r4, r7, #4
 8003472:	cb0f      	ldmia	r3, {r0, r1, r2, r3}
 8003474:	e884 000f 	stmia.w	r4, {r0, r1, r2, r3}
 8003478:	f240 2301 	movw	r3, #513	; 0x201
 800347c:	803b      	strh	r3, [r7, #0]
 800347e:	2300      	movs	r3, #0
 8003480:	61fb      	str	r3, [r7, #28]
 8003482:	2300      	movs	r3, #0
 8003484:	61bb      	str	r3, [r7, #24]
 8003486:	2300      	movs	r3, #0
 8003488:	627b      	str	r3, [r7, #36]	; 0x24
 800348a:	2300      	movs	r3, #0
 800348c:	617b      	str	r3, [r7, #20]
 800348e:	2300      	movs	r3, #0
 8003490:	623b      	str	r3, [r7, #32]
 8003492:	4b21      	ldr	r3, [pc, #132]	; (8003518 <HAL_RCC_GetSysClockFreq+0xb0>)
 8003494:	685b      	ldr	r3, [r3, #4]
 8003496:	61fb      	str	r3, [r7, #28]
 8003498:	69fb      	ldr	r3, [r7, #28]
 800349a:	f003 030c 	and.w	r3, r3, #12
 800349e:	2b04      	cmp	r3, #4
 80034a0:	d002      	beq.n	80034a8 <HAL_RCC_GetSysClockFreq+0x40>
 80034a2:	2b08      	cmp	r3, #8
 80034a4:	d003      	beq.n	80034ae <HAL_RCC_GetSysClockFreq+0x46>
 80034a6:	e02b      	b.n	8003500 <HAL_RCC_GetSysClockFreq+0x98>
 80034a8:	4b1c      	ldr	r3, [pc, #112]	; (800351c <HAL_RCC_GetSysClockFreq+0xb4>)
 80034aa:	623b      	str	r3, [r7, #32]
 80034ac:	e02b      	b.n	8003506 <HAL_RCC_GetSysClockFreq+0x9e>
 80034ae:	69fb      	ldr	r3, [r7, #28]
 80034b0:	0c9b      	lsrs	r3, r3, #18
 80034b2:	f003 030f 	and.w	r3, r3, #15
 80034b6:	3328      	adds	r3, #40	; 0x28
 80034b8:	443b      	add	r3, r7
 80034ba:	f813 3c24 	ldrb.w	r3, [r3, #-36]
 80034be:	617b      	str	r3, [r7, #20]
 80034c0:	69fb      	ldr	r3, [r7, #28]
 80034c2:	f403 3380 	and.w	r3, r3, #65536	; 0x10000
 80034c6:	2b00      	cmp	r3, #0
 80034c8:	d012      	beq.n	80034f0 <HAL_RCC_GetSysClockFreq+0x88>
 80034ca:	4b13      	ldr	r3, [pc, #76]	; (8003518 <HAL_RCC_GetSysClockFreq+0xb0>)
 80034cc:	685b      	ldr	r3, [r3, #4]
 80034ce:	0c5b      	lsrs	r3, r3, #17
 80034d0:	f003 0301 	and.w	r3, r3, #1
 80034d4:	3328      	adds	r3, #40	; 0x28
 80034d6:	443b      	add	r3, r7
 80034d8:	f813 3c28 	ldrb.w	r3, [r3, #-40]
 80034dc:	61bb      	str	r3, [r7, #24]
 80034de:	697b      	ldr	r3, [r7, #20]
 80034e0:	4a0e      	ldr	r2, [pc, #56]	; (800351c <HAL_RCC_GetSysClockFreq+0xb4>)
 80034e2:	fb03 f202 	mul.w	r2, r3, r2
 80034e6:	69bb      	ldr	r3, [r7, #24]
 80034e8:	fbb2 f3f3 	udiv	r3, r2, r3
 80034ec:	627b      	str	r3, [r7, #36]	; 0x24
 80034ee:	e004      	b.n	80034fa <HAL_RCC_GetSysClockFreq+0x92>
 80034f0:	697b      	ldr	r3, [r7, #20]
 80034f2:	4a0b      	ldr	r2, [pc, #44]	; (8003520 <HAL_RCC_GetSysClockFreq+0xb8>)
 80034f4:	fb02 f303 	mul.w	r3, r2, r3
 80034f8:	627b      	str	r3, [r7, #36]	; 0x24
 80034fa:	6a7b      	ldr	r3, [r7, #36]	; 0x24
 80034fc:	623b      	str	r3, [r7, #32]
 80034fe:	e002      	b.n	8003506 <HAL_RCC_GetSysClockFreq+0x9e>
 8003500:	4b06      	ldr	r3, [pc, #24]	; (800351c <HAL_RCC_GetSysClockFreq+0xb4>)
 8003502:	623b      	str	r3, [r7, #32]
 8003504:	bf00      	nop
 8003506:	6a3b      	ldr	r3, [r7, #32]
 8003508:	4618      	mov	r0, r3
 800350a:	3728      	adds	r7, #40	; 0x28
 800350c:	46bd      	mov	sp, r7
 800350e:	bc90      	pop	{r4, r7}
 8003510:	4770      	bx	lr
 8003512:	bf00      	nop
 8003514:	0800629c 	.word	0x0800629c
 8003518:	40021000 	.word	0x40021000
 800351c:	007a1200 	.word	0x007a1200
 8003520:	003d0900 	.word	0x003d0900

08003524 <HAL_RCC_GetHCLKFreq>:
 8003524:	b480      	push	{r7}
 8003526:	af00      	add	r7, sp, #0
 8003528:	4b02      	ldr	r3, [pc, #8]	; (8003534 <HAL_RCC_GetHCLKFreq+0x10>)
 800352a:	681b      	ldr	r3, [r3, #0]
 800352c:	4618      	mov	r0, r3
 800352e:	46bd      	mov	sp, r7
 8003530:	bc80      	pop	{r7}
 8003532:	4770      	bx	lr
 8003534:	20000004 	.word	0x20000004

08003538 <HAL_RCC_GetPCLK1Freq>:
 8003538:	b580      	push	{r7, lr}
 800353a:	af00      	add	r7, sp, #0
 800353c:	f7ff fff2 	bl	8003524 <HAL_RCC_GetHCLKFreq>
 8003540:	4602      	mov	r2, r0
 8003542:	4b05      	ldr	r3, [pc, #20]	; (8003558 <HAL_RCC_GetPCLK1Freq+0x20>)
 8003544:	685b      	ldr	r3, [r3, #4]
 8003546:	0a1b      	lsrs	r3, r3, #8
 8003548:	f003 0307 	and.w	r3, r3, #7
 800354c:	4903      	ldr	r1, [pc, #12]	; (800355c <HAL_RCC_GetPCLK1Freq+0x24>)
 800354e:	5ccb      	ldrb	r3, [r1, r3]
 8003550:	fa22 f303 	lsr.w	r3, r2, r3
 8003554:	4618      	mov	r0, r3
 8003556:	bd80      	pop	{r7, pc}
 8003558:	40021000 	.word	0x40021000
 800355c:	080062bc 	.word	0x080062bc

08003560 <HAL_RCC_GetPCLK2Freq>:
 8003560:	b580      	push	{r7, lr}
 8003562:	af00      	add	r7, sp, #0
 8003564:	f7ff ffde 	bl	8003524 <HAL_RCC_GetHCLKFreq>
 8003568:	4602      	mov	r2, r0
 800356a:	4b05      	ldr	r3, [pc, #20]	; (8003580 <HAL_RCC_GetPCLK2Freq+0x20>)
 800356c:	685b      	ldr	r3, [r3, #4]
 800356e:	0adb      	lsrs	r3, r3, #11
 8003570:	f003 0307 	and.w	r3, r3, #7
 8003574:	4903      	ldr	r1, [pc, #12]	; (8003584 <HAL_RCC_GetPCLK2Freq+0x24>)
 8003576:	5ccb      	ldrb	r3, [r1, r3]
 8003578:	fa22 f303 	lsr.w	r3, r2, r3
 800357c:	4618      	mov	r0, r3
 800357e:	bd80      	pop	{r7, pc}
 8003580:	40021000 	.word	0x40021000
 8003584:	080062bc 	.word	0x080062bc

08003588 <RCC_Delay>:
 8003588:	b480      	push	{r7}
 800358a:	b085      	sub	sp, #20
 800358c:	af00      	add	r7, sp, #0
 800358e:	6078      	str	r0, [r7, #4]
 8003590:	4b0a      	ldr	r3, [pc, #40]	; (80035bc <RCC_Delay+0x34>)
 8003592:	681b      	ldr	r3, [r3, #0]
 8003594:	4a0a      	ldr	r2, [pc, #40]	; (80035c0 <RCC_Delay+0x38>)
 8003596:	fba2 2303 	umull	r2, r3, r2, r3
 800359a:	0a5b      	lsrs	r3, r3, #9
 800359c:	687a      	ldr	r2, [r7, #4]
 800359e:	fb02 f303 	mul.w	r3, r2, r3
 80035a2:	60fb      	str	r3, [r7, #12]
 80035a4:	bf00      	nop
 80035a6:	68fb      	ldr	r3, [r7, #12]
 80035a8:	1e5a      	subs	r2, r3, #1
 80035aa:	60fa      	str	r2, [r7, #12]
 80035ac:	2b00      	cmp	r3, #0
 80035ae:	d1f9      	bne.n	80035a4 <RCC_Delay+0x1c>
 80035b0:	bf00      	nop
 80035b2:	bf00      	nop
 80035b4:	3714      	adds	r7, #20
 80035b6:	46bd      	mov	sp, r7
 80035b8:	bc80      	pop	{r7}
 80035ba:	4770      	bx	lr
 80035bc:	20000004 	.word	0x20000004
 80035c0:	10624dd3 	.word	0x10624dd3

080035c4 <HAL_RCCEx_PeriphCLKConfig>:
 80035c4:	b580      	push	{r7, lr}
 80035c6:	b086      	sub	sp, #24
 80035c8:	af00      	add	r7, sp, #0
 80035ca:	6078      	str	r0, [r7, #4]
 80035cc:	2300      	movs	r3, #0
 80035ce:	613b      	str	r3, [r7, #16]
 80035d0:	2300      	movs	r3, #0
 80035d2:	60fb      	str	r3, [r7, #12]
 80035d4:	687b      	ldr	r3, [r7, #4]
 80035d6:	681b      	ldr	r3, [r3, #0]
 80035d8:	f003 0301 	and.w	r3, r3, #1
 80035dc:	2b00      	cmp	r3, #0
 80035de:	d07d      	beq.n	80036dc <HAL_RCCEx_PeriphCLKConfig+0x118>
 80035e0:	2300      	movs	r3, #0
 80035e2:	75fb      	strb	r3, [r7, #23]
 80035e4:	4b4f      	ldr	r3, [pc, #316]	; (8003724 <HAL_RCCEx_PeriphCLKConfig+0x160>)
 80035e6:	69db      	ldr	r3, [r3, #28]
 80035e8:	f003 5380 	and.w	r3, r3, #268435456	; 0x10000000
 80035ec:	2b00      	cmp	r3, #0
 80035ee:	d10d      	bne.n	800360c <HAL_RCCEx_PeriphCLKConfig+0x48>
 80035f0:	4b4c      	ldr	r3, [pc, #304]	; (8003724 <HAL_RCCEx_PeriphCLKConfig+0x160>)
 80035f2:	69db      	ldr	r3, [r3, #28]
 80035f4:	4a4b      	ldr	r2, [pc, #300]	; (8003724 <HAL_RCCEx_PeriphCLKConfig+0x160>)
 80035f6:	f043 5380 	orr.w	r3, r3, #268435456	; 0x10000000
 80035fa:	61d3      	str	r3, [r2, #28]
 80035fc:	4b49      	ldr	r3, [pc, #292]	; (8003724 <HAL_RCCEx_PeriphCLKConfig+0x160>)
 80035fe:	69db      	ldr	r3, [r3, #28]
 8003600:	f003 5380 	and.w	r3, r3, #268435456	; 0x10000000
 8003604:	60bb      	str	r3, [r7, #8]
 8003606:	68bb      	ldr	r3, [r7, #8]
 8003608:	2301      	movs	r3, #1
 800360a:	75fb      	strb	r3, [r7, #23]
 800360c:	4b46      	ldr	r3, [pc, #280]	; (8003728 <HAL_RCCEx_PeriphCLKConfig+0x164>)
 800360e:	681b      	ldr	r3, [r3, #0]
 8003610:	f403 7380 	and.w	r3, r3, #256	; 0x100
 8003614:	2b00      	cmp	r3, #0
 8003616:	d118      	bne.n	800364a <HAL_RCCEx_PeriphCLKConfig+0x86>
 8003618:	4b43      	ldr	r3, [pc, #268]	; (8003728 <HAL_RCCEx_PeriphCLKConfig+0x164>)
 800361a:	681b      	ldr	r3, [r3, #0]
 800361c:	4a42      	ldr	r2, [pc, #264]	; (8003728 <HAL_RCCEx_PeriphCLKConfig+0x164>)
 800361e:	f443 7380 	orr.w	r3, r3, #256	; 0x100
 8003622:	6013      	str	r3, [r2, #0]
 8003624:	f7fd fec0 	bl	80013a8 <HAL_GetTick>
 8003628:	6138      	str	r0, [r7, #16]
 800362a:	e008      	b.n	800363e <HAL_RCCEx_PeriphCLKConfig+0x7a>
 800362c:	f7fd febc 	bl	80013a8 <HAL_GetTick>
 8003630:	4602      	mov	r2, r0
 8003632:	693b      	ldr	r3, [r7, #16]
 8003634:	1ad3      	subs	r3, r2, r3
 8003636:	2b64      	cmp	r3, #100	; 0x64
 8003638:	d901      	bls.n	800363e <HAL_RCCEx_PeriphCLKConfig+0x7a>
 800363a:	2303      	movs	r3, #3
 800363c:	e06d      	b.n	800371a <HAL_RCCEx_PeriphCLKConfig+0x156>
 800363e:	4b3a      	ldr	r3, [pc, #232]	; (8003728 <HAL_RCCEx_PeriphCLKConfig+0x164>)
 8003640:	681b      	ldr	r3, [r3, #0]
 8003642:	f403 7380 	and.w	r3, r3, #256	; 0x100
 8003646:	2b00      	cmp	r3, #0
 8003648:	d0f0      	beq.n	800362c <HAL_RCCEx_PeriphCLKConfig+0x68>
 800364a:	4b36      	ldr	r3, [pc, #216]	; (8003724 <HAL_RCCEx_PeriphCLKConfig+0x160>)
 800364c:	6a1b      	ldr	r3, [r3, #32]
 800364e:	f403 7340 	and.w	r3, r3, #768	; 0x300
 8003652:	60fb      	str	r3, [r7, #12]
 8003654:	68fb      	ldr	r3, [r7, #12]
 8003656:	2b00      	cmp	r3, #0
 8003658:	d02e      	beq.n	80036b8 <HAL_RCCEx_PeriphCLKConfig+0xf4>
 800365a:	687b      	ldr	r3, [r7, #4]
 800365c:	685b      	ldr	r3, [r3, #4]
 800365e:	f403 7340 	and.w	r3, r3, #768	; 0x300
 8003662:	68fa      	ldr	r2, [r7, #12]
 8003664:	429a      	cmp	r2, r3
 8003666:	d027      	beq.n	80036b8 <HAL_RCCEx_PeriphCLKConfig+0xf4>
 8003668:	4b2e      	ldr	r3, [pc, #184]	; (8003724 <HAL_RCCEx_PeriphCLKConfig+0x160>)
 800366a:	6a1b      	ldr	r3, [r3, #32]
 800366c:	f423 7340 	bic.w	r3, r3, #768	; 0x300
 8003670:	60fb      	str	r3, [r7, #12]
 8003672:	4b2e      	ldr	r3, [pc, #184]	; (800372c <HAL_RCCEx_PeriphCLKConfig+0x168>)
 8003674:	2201      	movs	r2, #1
 8003676:	601a      	str	r2, [r3, #0]
 8003678:	4b2c      	ldr	r3, [pc, #176]	; (800372c <HAL_RCCEx_PeriphCLKConfig+0x168>)
 800367a:	2200      	movs	r2, #0
 800367c:	601a      	str	r2, [r3, #0]
 800367e:	4a29      	ldr	r2, [pc, #164]	; (8003724 <HAL_RCCEx_PeriphCLKConfig+0x160>)
 8003680:	68fb      	ldr	r3, [r7, #12]
 8003682:	6213      	str	r3, [r2, #32]
 8003684:	68fb      	ldr	r3, [r7, #12]
 8003686:	f003 0301 	and.w	r3, r3, #1
 800368a:	2b00      	cmp	r3, #0
 800368c:	d014      	beq.n	80036b8 <HAL_RCCEx_PeriphCLKConfig+0xf4>
 800368e:	f7fd fe8b 	bl	80013a8 <HAL_GetTick>
 8003692:	6138      	str	r0, [r7, #16]
 8003694:	e00a      	b.n	80036ac <HAL_RCCEx_PeriphCLKConfig+0xe8>
 8003696:	f7fd fe87 	bl	80013a8 <HAL_GetTick>
 800369a:	4602      	mov	r2, r0
 800369c:	693b      	ldr	r3, [r7, #16]
 800369e:	1ad3      	subs	r3, r2, r3
 80036a0:	f241 3288 	movw	r2, #5000	; 0x1388
 80036a4:	4293      	cmp	r3, r2
 80036a6:	d901      	bls.n	80036ac <HAL_RCCEx_PeriphCLKConfig+0xe8>
 80036a8:	2303      	movs	r3, #3
 80036aa:	e036      	b.n	800371a <HAL_RCCEx_PeriphCLKConfig+0x156>
 80036ac:	4b1d      	ldr	r3, [pc, #116]	; (8003724 <HAL_RCCEx_PeriphCLKConfig+0x160>)
 80036ae:	6a1b      	ldr	r3, [r3, #32]
 80036b0:	f003 0302 	and.w	r3, r3, #2
 80036b4:	2b00      	cmp	r3, #0
 80036b6:	d0ee      	beq.n	8003696 <HAL_RCCEx_PeriphCLKConfig+0xd2>
 80036b8:	4b1a      	ldr	r3, [pc, #104]	; (8003724 <HAL_RCCEx_PeriphCLKConfig+0x160>)
 80036ba:	6a1b      	ldr	r3, [r3, #32]
 80036bc:	f423 7240 	bic.w	r2, r3, #768	; 0x300
 80036c0:	687b      	ldr	r3, [r7, #4]
 80036c2:	685b      	ldr	r3, [r3, #4]
 80036c4:	4917      	ldr	r1, [pc, #92]	; (8003724 <HAL_RCCEx_PeriphCLKConfig+0x160>)
 80036c6:	4313      	orrs	r3, r2
 80036c8:	620b      	str	r3, [r1, #32]
 80036ca:	7dfb      	ldrb	r3, [r7, #23]
 80036cc:	2b01      	cmp	r3, #1
 80036ce:	d105      	bne.n	80036dc <HAL_RCCEx_PeriphCLKConfig+0x118>
 80036d0:	4b14      	ldr	r3, [pc, #80]	; (8003724 <HAL_RCCEx_PeriphCLKConfig+0x160>)
 80036d2:	69db      	ldr	r3, [r3, #28]
 80036d4:	4a13      	ldr	r2, [pc, #76]	; (8003724 <HAL_RCCEx_PeriphCLKConfig+0x160>)
 80036d6:	f023 5380 	bic.w	r3, r3, #268435456	; 0x10000000
 80036da:	61d3      	str	r3, [r2, #28]
 80036dc:	687b      	ldr	r3, [r7, #4]
 80036de:	681b      	ldr	r3, [r3, #0]
 80036e0:	f003 0302 	and.w	r3, r3, #2
 80036e4:	2b00      	cmp	r3, #0
 80036e6:	d008      	beq.n	80036fa <HAL_RCCEx_PeriphCLKConfig+0x136>
 80036e8:	4b0e      	ldr	r3, [pc, #56]	; (8003724 <HAL_RCCEx_PeriphCLKConfig+0x160>)
 80036ea:	685b      	ldr	r3, [r3, #4]
 80036ec:	f423 4240 	bic.w	r2, r3, #49152	; 0xc000
 80036f0:	687b      	ldr	r3, [r7, #4]
 80036f2:	689b      	ldr	r3, [r3, #8]
 80036f4:	490b      	ldr	r1, [pc, #44]	; (8003724 <HAL_RCCEx_PeriphCLKConfig+0x160>)
 80036f6:	4313      	orrs	r3, r2
 80036f8:	604b      	str	r3, [r1, #4]
 80036fa:	687b      	ldr	r3, [r7, #4]
 80036fc:	681b      	ldr	r3, [r3, #0]
 80036fe:	f003 0310 	and.w	r3, r3, #16
 8003702:	2b00      	cmp	r3, #0
 8003704:	d008      	beq.n	8003718 <HAL_RCCEx_PeriphCLKConfig+0x154>
 8003706:	4b07      	ldr	r3, [pc, #28]	; (8003724 <HAL_RCCEx_PeriphCLKConfig+0x160>)
 8003708:	685b      	ldr	r3, [r3, #4]
 800370a:	f423 0280 	bic.w	r2, r3, #4194304	; 0x400000
 800370e:	687b      	ldr	r3, [r7, #4]
 8003710:	68db      	ldr	r3, [r3, #12]
 8003712:	4904      	ldr	r1, [pc, #16]	; (8003724 <HAL_RCCEx_PeriphCLKConfig+0x160>)
 8003714:	4313      	orrs	r3, r2
 8003716:	604b      	str	r3, [r1, #4]
 8003718:	2300      	movs	r3, #0
 800371a:	4618      	mov	r0, r3
 800371c:	3718      	adds	r7, #24
 800371e:	46bd      	mov	sp, r7
 8003720:	bd80      	pop	{r7, pc}
 8003722:	bf00      	nop
 8003724:	40021000 	.word	0x40021000
 8003728:	40007000 	.word	0x40007000
 800372c:	42420440 	.word	0x42420440

08003730 <HAL_TIM_Base_Init>:
 8003730:	b580      	push	{r7, lr}
 8003732:	b082      	sub	sp, #8
 8003734:	af00      	add	r7, sp, #0
 8003736:	6078      	str	r0, [r7, #4]
 8003738:	687b      	ldr	r3, [r7, #4]
 800373a:	2b00      	cmp	r3, #0
 800373c:	d101      	bne.n	8003742 <HAL_TIM_Base_Init+0x12>
 800373e:	2301      	movs	r3, #1
 8003740:	e041      	b.n	80037c6 <HAL_TIM_Base_Init+0x96>
 8003742:	687b      	ldr	r3, [r7, #4]
 8003744:	f893 303d 	ldrb.w	r3, [r3, #61]	; 0x3d
 8003748:	b2db      	uxtb	r3, r3
 800374a:	2b00      	cmp	r3, #0
 800374c:	d106      	bne.n	800375c <HAL_TIM_Base_Init+0x2c>
 800374e:	687b      	ldr	r3, [r7, #4]
 8003750:	2200      	movs	r2, #0
 8003752:	f883 203c 	strb.w	r2, [r3, #60]	; 0x3c
 8003756:	6878      	ldr	r0, [r7, #4]
 8003758:	f7fd fbc0 	bl	8000edc <HAL_TIM_Base_MspInit>
 800375c:	687b      	ldr	r3, [r7, #4]
 800375e:	2202      	movs	r2, #2
 8003760:	f883 203d 	strb.w	r2, [r3, #61]	; 0x3d
 8003764:	687b      	ldr	r3, [r7, #4]
 8003766:	681a      	ldr	r2, [r3, #0]
 8003768:	687b      	ldr	r3, [r7, #4]
 800376a:	3304      	adds	r3, #4
 800376c:	4619      	mov	r1, r3
 800376e:	4610      	mov	r0, r2
 8003770:	f000 fe96 	bl	80044a0 <TIM_Base_SetConfig>
 8003774:	687b      	ldr	r3, [r7, #4]
 8003776:	2201      	movs	r2, #1
 8003778:	f883 2046 	strb.w	r2, [r3, #70]	; 0x46
 800377c:	687b      	ldr	r3, [r7, #4]
 800377e:	2201      	movs	r2, #1
 8003780:	f883 203e 	strb.w	r2, [r3, #62]	; 0x3e
 8003784:	687b      	ldr	r3, [r7, #4]
 8003786:	2201      	movs	r2, #1
 8003788:	f883 203f 	strb.w	r2, [r3, #63]	; 0x3f
 800378c:	687b      	ldr	r3, [r7, #4]
 800378e:	2201      	movs	r2, #1
 8003790:	f883 2040 	strb.w	r2, [r3, #64]	; 0x40
 8003794:	687b      	ldr	r3, [r7, #4]
 8003796:	2201      	movs	r2, #1
 8003798:	f883 2041 	strb.w	r2, [r3, #65]	; 0x41
 800379c:	687b      	ldr	r3, [r7, #4]
 800379e:	2201      	movs	r2, #1
 80037a0:	f883 2042 	strb.w	r2, [r3, #66]	; 0x42
 80037a4:	687b      	ldr	r3, [r7, #4]
 80037a6:	2201      	movs	r2, #1
 80037a8:	f883 2043 	strb.w	r2, [r3, #67]	; 0x43
 80037ac:	687b      	ldr	r3, [r7, #4]
 80037ae:	2201      	movs	r2, #1
 80037b0:	f883 2044 	strb.w	r2, [r3, #68]	; 0x44
 80037b4:	687b      	ldr	r3, [r7, #4]
 80037b6:	2201      	movs	r2, #1
 80037b8:	f883 2045 	strb.w	r2, [r3, #69]	; 0x45
 80037bc:	687b      	ldr	r3, [r7, #4]
 80037be:	2201      	movs	r2, #1
 80037c0:	f883 203d 	strb.w	r2, [r3, #61]	; 0x3d
 80037c4:	2300      	movs	r3, #0
 80037c6:	4618      	mov	r0, r3
 80037c8:	3708      	adds	r7, #8
 80037ca:	46bd      	mov	sp, r7
 80037cc:	bd80      	pop	{r7, pc}
	...

080037d0 <HAL_TIM_Base_Start_IT>:
 80037d0:	b480      	push	{r7}
 80037d2:	b085      	sub	sp, #20
 80037d4:	af00      	add	r7, sp, #0
 80037d6:	6078      	str	r0, [r7, #4]
 80037d8:	687b      	ldr	r3, [r7, #4]
 80037da:	f893 303d 	ldrb.w	r3, [r3, #61]	; 0x3d
 80037de:	b2db      	uxtb	r3, r3
 80037e0:	2b01      	cmp	r3, #1
 80037e2:	d001      	beq.n	80037e8 <HAL_TIM_Base_Start_IT+0x18>
 80037e4:	2301      	movs	r3, #1
 80037e6:	e03a      	b.n	800385e <HAL_TIM_Base_Start_IT+0x8e>
 80037e8:	687b      	ldr	r3, [r7, #4]
 80037ea:	2202      	movs	r2, #2
 80037ec:	f883 203d 	strb.w	r2, [r3, #61]	; 0x3d
 80037f0:	687b      	ldr	r3, [r7, #4]
 80037f2:	681b      	ldr	r3, [r3, #0]
 80037f4:	68da      	ldr	r2, [r3, #12]
 80037f6:	687b      	ldr	r3, [r7, #4]
 80037f8:	681b      	ldr	r3, [r3, #0]
 80037fa:	f042 0201 	orr.w	r2, r2, #1
 80037fe:	60da      	str	r2, [r3, #12]
 8003800:	687b      	ldr	r3, [r7, #4]
 8003802:	681b      	ldr	r3, [r3, #0]
 8003804:	4a18      	ldr	r2, [pc, #96]	; (8003868 <HAL_TIM_Base_Start_IT+0x98>)
 8003806:	4293      	cmp	r3, r2
 8003808:	d00e      	beq.n	8003828 <HAL_TIM_Base_Start_IT+0x58>
 800380a:	687b      	ldr	r3, [r7, #4]
 800380c:	681b      	ldr	r3, [r3, #0]
 800380e:	f1b3 4f80 	cmp.w	r3, #1073741824	; 0x40000000
 8003812:	d009      	beq.n	8003828 <HAL_TIM_Base_Start_IT+0x58>
 8003814:	687b      	ldr	r3, [r7, #4]
 8003816:	681b      	ldr	r3, [r3, #0]
 8003818:	4a14      	ldr	r2, [pc, #80]	; (800386c <HAL_TIM_Base_Start_IT+0x9c>)
 800381a:	4293      	cmp	r3, r2
 800381c:	d004      	beq.n	8003828 <HAL_TIM_Base_Start_IT+0x58>
 800381e:	687b      	ldr	r3, [r7, #4]
 8003820:	681b      	ldr	r3, [r3, #0]
 8003822:	4a13      	ldr	r2, [pc, #76]	; (8003870 <HAL_TIM_Base_Start_IT+0xa0>)
 8003824:	4293      	cmp	r3, r2
 8003826:	d111      	bne.n	800384c <HAL_TIM_Base_Start_IT+0x7c>
 8003828:	687b      	ldr	r3, [r7, #4]
 800382a:	681b      	ldr	r3, [r3, #0]
 800382c:	689b      	ldr	r3, [r3, #8]
 800382e:	f003 0307 	and.w	r3, r3, #7
 8003832:	60fb      	str	r3, [r7, #12]
 8003834:	68fb      	ldr	r3, [r7, #12]
 8003836:	2b06      	cmp	r3, #6
 8003838:	d010      	beq.n	800385c <HAL_TIM_Base_Start_IT+0x8c>
 800383a:	687b      	ldr	r3, [r7, #4]
 800383c:	681b      	ldr	r3, [r3, #0]
 800383e:	681a      	ldr	r2, [r3, #0]
 8003840:	687b      	ldr	r3, [r7, #4]
 8003842:	681b      	ldr	r3, [r3, #0]
 8003844:	f042 0201 	orr.w	r2, r2, #1
 8003848:	601a      	str	r2, [r3, #0]
 800384a:	e007      	b.n	800385c <HAL_TIM_Base_Start_IT+0x8c>
 800384c:	687b      	ldr	r3, [r7, #4]
 800384e:	681b      	ldr	r3, [r3, #0]
 8003850:	681a      	ldr	r2, [r3, #0]
 8003852:	687b      	ldr	r3, [r7, #4]
 8003854:	681b      	ldr	r3, [r3, #0]
 8003856:	f042 0201 	orr.w	r2, r2, #1
 800385a:	601a      	str	r2, [r3, #0]
 800385c:	2300      	movs	r3, #0
 800385e:	4618      	mov	r0, r3
 8003860:	3714      	adds	r7, #20
 8003862:	46bd      	mov	sp, r7
 8003864:	bc80      	pop	{r7}
 8003866:	4770      	bx	lr
 8003868:	40012c00 	.word	0x40012c00
 800386c:	40000400 	.word	0x40000400
 8003870:	40000800 	.word	0x40000800

08003874 <HAL_TIM_OC_Init>:
 8003874:	b580      	push	{r7, lr}
 8003876:	b082      	sub	sp, #8
 8003878:	af00      	add	r7, sp, #0
 800387a:	6078      	str	r0, [r7, #4]
 800387c:	687b      	ldr	r3, [r7, #4]
 800387e:	2b00      	cmp	r3, #0
 8003880:	d101      	bne.n	8003886 <HAL_TIM_OC_Init+0x12>
 8003882:	2301      	movs	r3, #1
 8003884:	e041      	b.n	800390a <HAL_TIM_OC_Init+0x96>
 8003886:	687b      	ldr	r3, [r7, #4]
 8003888:	f893 303d 	ldrb.w	r3, [r3, #61]	; 0x3d
 800388c:	b2db      	uxtb	r3, r3
 800388e:	2b00      	cmp	r3, #0
 8003890:	d106      	bne.n	80038a0 <HAL_TIM_OC_Init+0x2c>
 8003892:	687b      	ldr	r3, [r7, #4]
 8003894:	2200      	movs	r2, #0
 8003896:	f883 203c 	strb.w	r2, [r3, #60]	; 0x3c
 800389a:	6878      	ldr	r0, [r7, #4]
 800389c:	f000 f839 	bl	8003912 <HAL_TIM_OC_MspInit>
 80038a0:	687b      	ldr	r3, [r7, #4]
 80038a2:	2202      	movs	r2, #2
 80038a4:	f883 203d 	strb.w	r2, [r3, #61]	; 0x3d
 80038a8:	687b      	ldr	r3, [r7, #4]
 80038aa:	681a      	ldr	r2, [r3, #0]
 80038ac:	687b      	ldr	r3, [r7, #4]
 80038ae:	3304      	adds	r3, #4
 80038b0:	4619      	mov	r1, r3
 80038b2:	4610      	mov	r0, r2
 80038b4:	f000 fdf4 	bl	80044a0 <TIM_Base_SetConfig>
 80038b8:	687b      	ldr	r3, [r7, #4]
 80038ba:	2201      	movs	r2, #1
 80038bc:	f883 2046 	strb.w	r2, [r3, #70]	; 0x46
 80038c0:	687b      	ldr	r3, [r7, #4]
 80038c2:	2201      	movs	r2, #1
 80038c4:	f883 203e 	strb.w	r2, [r3, #62]	; 0x3e
 80038c8:	687b      	ldr	r3, [r7, #4]
 80038ca:	2201      	movs	r2, #1
 80038cc:	f883 203f 	strb.w	r2, [r3, #63]	; 0x3f
 80038d0:	687b      	ldr	r3, [r7, #4]
 80038d2:	2201      	movs	r2, #1
 80038d4:	f883 2040 	strb.w	r2, [r3, #64]	; 0x40
 80038d8:	687b      	ldr	r3, [r7, #4]
 80038da:	2201      	movs	r2, #1
 80038dc:	f883 2041 	strb.w	r2, [r3, #65]	; 0x41
 80038e0:	687b      	ldr	r3, [r7, #4]
 80038e2:	2201      	movs	r2, #1
 80038e4:	f883 2042 	strb.w	r2, [r3, #66]	; 0x42
 80038e8:	687b      	ldr	r3, [r7, #4]
 80038ea:	2201      	movs	r2, #1
 80038ec:	f883 2043 	strb.w	r2, [r3, #67]	; 0x43
 80038f0:	687b      	ldr	r3, [r7, #4]
 80038f2:	2201      	movs	r2, #1
 80038f4:	f883 2044 	strb.w	r2, [r3, #68]	; 0x44
 80038f8:	687b      	ldr	r3, [r7, #4]
 80038fa:	2201      	movs	r2, #1
 80038fc:	f883 2045 	strb.w	r2, [r3, #69]	; 0x45
 8003900:	687b      	ldr	r3, [r7, #4]
 8003902:	2201      	movs	r2, #1
 8003904:	f883 203d 	strb.w	r2, [r3, #61]	; 0x3d
 8003908:	2300      	movs	r3, #0
 800390a:	4618      	mov	r0, r3
 800390c:	3708      	adds	r7, #8
 800390e:	46bd      	mov	sp, r7
 8003910:	bd80      	pop	{r7, pc}

08003912 <HAL_TIM_OC_MspInit>:
 8003912:	b480      	push	{r7}
 8003914:	b083      	sub	sp, #12
 8003916:	af00      	add	r7, sp, #0
 8003918:	6078      	str	r0, [r7, #4]
 800391a:	bf00      	nop
 800391c:	370c      	adds	r7, #12
 800391e:	46bd      	mov	sp, r7
 8003920:	bc80      	pop	{r7}
 8003922:	4770      	bx	lr

08003924 <HAL_TIM_OC_Start_IT>:
 8003924:	b580      	push	{r7, lr}
 8003926:	b084      	sub	sp, #16
 8003928:	af00      	add	r7, sp, #0
 800392a:	6078      	str	r0, [r7, #4]
 800392c:	6039      	str	r1, [r7, #0]
 800392e:	683b      	ldr	r3, [r7, #0]
 8003930:	2b00      	cmp	r3, #0
 8003932:	d109      	bne.n	8003948 <HAL_TIM_OC_Start_IT+0x24>
 8003934:	687b      	ldr	r3, [r7, #4]
 8003936:	f893 303e 	ldrb.w	r3, [r3, #62]	; 0x3e
 800393a:	b2db      	uxtb	r3, r3
 800393c:	2b01      	cmp	r3, #1
 800393e:	bf14      	ite	ne
 8003940:	2301      	movne	r3, #1
 8003942:	2300      	moveq	r3, #0
 8003944:	b2db      	uxtb	r3, r3
 8003946:	e022      	b.n	800398e <HAL_TIM_OC_Start_IT+0x6a>
 8003948:	683b      	ldr	r3, [r7, #0]
 800394a:	2b04      	cmp	r3, #4
 800394c:	d109      	bne.n	8003962 <HAL_TIM_OC_Start_IT+0x3e>
 800394e:	687b      	ldr	r3, [r7, #4]
 8003950:	f893 303f 	ldrb.w	r3, [r3, #63]	; 0x3f
 8003954:	b2db      	uxtb	r3, r3
 8003956:	2b01      	cmp	r3, #1
 8003958:	bf14      	ite	ne
 800395a:	2301      	movne	r3, #1
 800395c:	2300      	moveq	r3, #0
 800395e:	b2db      	uxtb	r3, r3
 8003960:	e015      	b.n	800398e <HAL_TIM_OC_Start_IT+0x6a>
 8003962:	683b      	ldr	r3, [r7, #0]
 8003964:	2b08      	cmp	r3, #8
 8003966:	d109      	bne.n	800397c <HAL_TIM_OC_Start_IT+0x58>
 8003968:	687b      	ldr	r3, [r7, #4]
 800396a:	f893 3040 	ldrb.w	r3, [r3, #64]	; 0x40
 800396e:	b2db      	uxtb	r3, r3
 8003970:	2b01      	cmp	r3, #1
 8003972:	bf14      	ite	ne
 8003974:	2301      	movne	r3, #1
 8003976:	2300      	moveq	r3, #0
 8003978:	b2db      	uxtb	r3, r3
 800397a:	e008      	b.n	800398e <HAL_TIM_OC_Start_IT+0x6a>
 800397c:	687b      	ldr	r3, [r7, #4]
 800397e:	f893 3041 	ldrb.w	r3, [r3, #65]	; 0x41
 8003982:	b2db      	uxtb	r3, r3
 8003984:	2b01      	cmp	r3, #1
 8003986:	bf14      	ite	ne
 8003988:	2301      	movne	r3, #1
 800398a:	2300      	moveq	r3, #0
 800398c:	b2db      	uxtb	r3, r3
 800398e:	2b00      	cmp	r3, #0
 8003990:	d001      	beq.n	8003996 <HAL_TIM_OC_Start_IT+0x72>
 8003992:	2301      	movs	r3, #1
 8003994:	e0a4      	b.n	8003ae0 <HAL_TIM_OC_Start_IT+0x1bc>
 8003996:	683b      	ldr	r3, [r7, #0]
 8003998:	2b00      	cmp	r3, #0
 800399a:	d104      	bne.n	80039a6 <HAL_TIM_OC_Start_IT+0x82>
 800399c:	687b      	ldr	r3, [r7, #4]
 800399e:	2202      	movs	r2, #2
 80039a0:	f883 203e 	strb.w	r2, [r3, #62]	; 0x3e
 80039a4:	e013      	b.n	80039ce <HAL_TIM_OC_Start_IT+0xaa>
 80039a6:	683b      	ldr	r3, [r7, #0]
 80039a8:	2b04      	cmp	r3, #4
 80039aa:	d104      	bne.n	80039b6 <HAL_TIM_OC_Start_IT+0x92>
 80039ac:	687b      	ldr	r3, [r7, #4]
 80039ae:	2202      	movs	r2, #2
 80039b0:	f883 203f 	strb.w	r2, [r3, #63]	; 0x3f
 80039b4:	e00b      	b.n	80039ce <HAL_TIM_OC_Start_IT+0xaa>
 80039b6:	683b      	ldr	r3, [r7, #0]
 80039b8:	2b08      	cmp	r3, #8
 80039ba:	d104      	bne.n	80039c6 <HAL_TIM_OC_Start_IT+0xa2>
 80039bc:	687b      	ldr	r3, [r7, #4]
 80039be:	2202      	movs	r2, #2
 80039c0:	f883 2040 	strb.w	r2, [r3, #64]	; 0x40
 80039c4:	e003      	b.n	80039ce <HAL_TIM_OC_Start_IT+0xaa>
 80039c6:	687b      	ldr	r3, [r7, #4]
 80039c8:	2202      	movs	r2, #2
 80039ca:	f883 2041 	strb.w	r2, [r3, #65]	; 0x41
 80039ce:	683b      	ldr	r3, [r7, #0]
 80039d0:	2b0c      	cmp	r3, #12
 80039d2:	d841      	bhi.n	8003a58 <HAL_TIM_OC_Start_IT+0x134>
 80039d4:	a201      	add	r2, pc, #4	; (adr r2, 80039dc <HAL_TIM_OC_Start_IT+0xb8>)
 80039d6:	f852 f023 	ldr.w	pc, [r2, r3, lsl #2]
 80039da:	bf00      	nop
 80039dc:	08003a11 	.word	0x08003a11
 80039e0:	08003a59 	.word	0x08003a59
 80039e4:	08003a59 	.word	0x08003a59
 80039e8:	08003a59 	.word	0x08003a59
 80039ec:	08003a23 	.word	0x08003a23
 80039f0:	08003a59 	.word	0x08003a59
 80039f4:	08003a59 	.word	0x08003a59
 80039f8:	08003a59 	.word	0x08003a59
 80039fc:	08003a35 	.word	0x08003a35
 8003a00:	08003a59 	.word	0x08003a59
 8003a04:	08003a59 	.word	0x08003a59
 8003a08:	08003a59 	.word	0x08003a59
 8003a0c:	08003a47 	.word	0x08003a47
 8003a10:	687b      	ldr	r3, [r7, #4]
 8003a12:	681b      	ldr	r3, [r3, #0]
 8003a14:	68da      	ldr	r2, [r3, #12]
 8003a16:	687b      	ldr	r3, [r7, #4]
 8003a18:	681b      	ldr	r3, [r3, #0]
 8003a1a:	f042 0202 	orr.w	r2, r2, #2
 8003a1e:	60da      	str	r2, [r3, #12]
 8003a20:	e01b      	b.n	8003a5a <HAL_TIM_OC_Start_IT+0x136>
 8003a22:	687b      	ldr	r3, [r7, #4]
 8003a24:	681b      	ldr	r3, [r3, #0]
 8003a26:	68da      	ldr	r2, [r3, #12]
 8003a28:	687b      	ldr	r3, [r7, #4]
 8003a2a:	681b      	ldr	r3, [r3, #0]
 8003a2c:	f042 0204 	orr.w	r2, r2, #4
 8003a30:	60da      	str	r2, [r3, #12]
 8003a32:	e012      	b.n	8003a5a <HAL_TIM_OC_Start_IT+0x136>
 8003a34:	687b      	ldr	r3, [r7, #4]
 8003a36:	681b      	ldr	r3, [r3, #0]
 8003a38:	68da      	ldr	r2, [r3, #12]
 8003a3a:	687b      	ldr	r3, [r7, #4]
 8003a3c:	681b      	ldr	r3, [r3, #0]
 8003a3e:	f042 0208 	orr.w	r2, r2, #8
 8003a42:	60da      	str	r2, [r3, #12]
 8003a44:	e009      	b.n	8003a5a <HAL_TIM_OC_Start_IT+0x136>
 8003a46:	687b      	ldr	r3, [r7, #4]
 8003a48:	681b      	ldr	r3, [r3, #0]
 8003a4a:	68da      	ldr	r2, [r3, #12]
 8003a4c:	687b      	ldr	r3, [r7, #4]
 8003a4e:	681b      	ldr	r3, [r3, #0]
 8003a50:	f042 0210 	orr.w	r2, r2, #16
 8003a54:	60da      	str	r2, [r3, #12]
 8003a56:	e000      	b.n	8003a5a <HAL_TIM_OC_Start_IT+0x136>
 8003a58:	bf00      	nop
 8003a5a:	687b      	ldr	r3, [r7, #4]
 8003a5c:	681b      	ldr	r3, [r3, #0]
 8003a5e:	2201      	movs	r2, #1
 8003a60:	6839      	ldr	r1, [r7, #0]
 8003a62:	4618      	mov	r0, r3
 8003a64:	f000 ff9c 	bl	80049a0 <TIM_CCxChannelCmd>
 8003a68:	687b      	ldr	r3, [r7, #4]
 8003a6a:	681b      	ldr	r3, [r3, #0]
 8003a6c:	4a1e      	ldr	r2, [pc, #120]	; (8003ae8 <HAL_TIM_OC_Start_IT+0x1c4>)
 8003a6e:	4293      	cmp	r3, r2
 8003a70:	d107      	bne.n	8003a82 <HAL_TIM_OC_Start_IT+0x15e>
 8003a72:	687b      	ldr	r3, [r7, #4]
 8003a74:	681b      	ldr	r3, [r3, #0]
 8003a76:	6c5a      	ldr	r2, [r3, #68]	; 0x44
 8003a78:	687b      	ldr	r3, [r7, #4]
 8003a7a:	681b      	ldr	r3, [r3, #0]
 8003a7c:	f442 4200 	orr.w	r2, r2, #32768	; 0x8000
 8003a80:	645a      	str	r2, [r3, #68]	; 0x44
 8003a82:	687b      	ldr	r3, [r7, #4]
 8003a84:	681b      	ldr	r3, [r3, #0]
 8003a86:	4a18      	ldr	r2, [pc, #96]	; (8003ae8 <HAL_TIM_OC_Start_IT+0x1c4>)
 8003a88:	4293      	cmp	r3, r2
 8003a8a:	d00e      	beq.n	8003aaa <HAL_TIM_OC_Start_IT+0x186>
 8003a8c:	687b      	ldr	r3, [r7, #4]
 8003a8e:	681b      	ldr	r3, [r3, #0]
 8003a90:	f1b3 4f80 	cmp.w	r3, #1073741824	; 0x40000000
 8003a94:	d009      	beq.n	8003aaa <HAL_TIM_OC_Start_IT+0x186>
 8003a96:	687b      	ldr	r3, [r7, #4]
 8003a98:	681b      	ldr	r3, [r3, #0]
 8003a9a:	4a14      	ldr	r2, [pc, #80]	; (8003aec <HAL_TIM_OC_Start_IT+0x1c8>)
 8003a9c:	4293      	cmp	r3, r2
 8003a9e:	d004      	beq.n	8003aaa <HAL_TIM_OC_Start_IT+0x186>
 8003aa0:	687b      	ldr	r3, [r7, #4]
 8003aa2:	681b      	ldr	r3, [r3, #0]
 8003aa4:	4a12      	ldr	r2, [pc, #72]	; (8003af0 <HAL_TIM_OC_Start_IT+0x1cc>)
 8003aa6:	4293      	cmp	r3, r2
 8003aa8:	d111      	bne.n	8003ace <HAL_TIM_OC_Start_IT+0x1aa>
 8003aaa:	687b      	ldr	r3, [r7, #4]
 8003aac:	681b      	ldr	r3, [r3, #0]
 8003aae:	689b      	ldr	r3, [r3, #8]
 8003ab0:	f003 0307 	and.w	r3, r3, #7
 8003ab4:	60fb      	str	r3, [r7, #12]
 8003ab6:	68fb      	ldr	r3, [r7, #12]
 8003ab8:	2b06      	cmp	r3, #6
 8003aba:	d010      	beq.n	8003ade <HAL_TIM_OC_Start_IT+0x1ba>
 8003abc:	687b      	ldr	r3, [r7, #4]
 8003abe:	681b      	ldr	r3, [r3, #0]
 8003ac0:	681a      	ldr	r2, [r3, #0]
 8003ac2:	687b      	ldr	r3, [r7, #4]
 8003ac4:	681b      	ldr	r3, [r3, #0]
 8003ac6:	f042 0201 	orr.w	r2, r2, #1
 8003aca:	601a      	str	r2, [r3, #0]
 8003acc:	e007      	b.n	8003ade <HAL_TIM_OC_Start_IT+0x1ba>
 8003ace:	687b      	ldr	r3, [r7, #4]
 8003ad0:	681b      	ldr	r3, [r3, #0]
 8003ad2:	681a      	ldr	r2, [r3, #0]
 8003ad4:	687b      	ldr	r3, [r7, #4]
 8003ad6:	681b      	ldr	r3, [r3, #0]
 8003ad8:	f042 0201 	orr.w	r2, r2, #1
 8003adc:	601a      	str	r2, [r3, #0]
 8003ade:	2300      	movs	r3, #0
 8003ae0:	4618      	mov	r0, r3
 8003ae2:	3710      	adds	r7, #16
 8003ae4:	46bd      	mov	sp, r7
 8003ae6:	bd80      	pop	{r7, pc}
 8003ae8:	40012c00 	.word	0x40012c00
 8003aec:	40000400 	.word	0x40000400
 8003af0:	40000800 	.word	0x40000800

08003af4 <HAL_TIM_PWM_Init>:
 8003af4:	b580      	push	{r7, lr}
 8003af6:	b082      	sub	sp, #8
 8003af8:	af00      	add	r7, sp, #0
 8003afa:	6078      	str	r0, [r7, #4]
 8003afc:	687b      	ldr	r3, [r7, #4]
 8003afe:	2b00      	cmp	r3, #0
 8003b00:	d101      	bne.n	8003b06 <HAL_TIM_PWM_Init+0x12>
 8003b02:	2301      	movs	r3, #1
 8003b04:	e041      	b.n	8003b8a <HAL_TIM_PWM_Init+0x96>
 8003b06:	687b      	ldr	r3, [r7, #4]
 8003b08:	f893 303d 	ldrb.w	r3, [r3, #61]	; 0x3d
 8003b0c:	b2db      	uxtb	r3, r3
 8003b0e:	2b00      	cmp	r3, #0
 8003b10:	d106      	bne.n	8003b20 <HAL_TIM_PWM_Init+0x2c>
 8003b12:	687b      	ldr	r3, [r7, #4]
 8003b14:	2200      	movs	r2, #0
 8003b16:	f883 203c 	strb.w	r2, [r3, #60]	; 0x3c
 8003b1a:	6878      	ldr	r0, [r7, #4]
 8003b1c:	f000 f839 	bl	8003b92 <HAL_TIM_PWM_MspInit>
 8003b20:	687b      	ldr	r3, [r7, #4]
 8003b22:	2202      	movs	r2, #2
 8003b24:	f883 203d 	strb.w	r2, [r3, #61]	; 0x3d
 8003b28:	687b      	ldr	r3, [r7, #4]
 8003b2a:	681a      	ldr	r2, [r3, #0]
 8003b2c:	687b      	ldr	r3, [r7, #4]
 8003b2e:	3304      	adds	r3, #4
 8003b30:	4619      	mov	r1, r3
 8003b32:	4610      	mov	r0, r2
 8003b34:	f000 fcb4 	bl	80044a0 <TIM_Base_SetConfig>
 8003b38:	687b      	ldr	r3, [r7, #4]
 8003b3a:	2201      	movs	r2, #1
 8003b3c:	f883 2046 	strb.w	r2, [r3, #70]	; 0x46
 8003b40:	687b      	ldr	r3, [r7, #4]
 8003b42:	2201      	movs	r2, #1
 8003b44:	f883 203e 	strb.w	r2, [r3, #62]	; 0x3e
 8003b48:	687b      	ldr	r3, [r7, #4]
 8003b4a:	2201      	movs	r2, #1
 8003b4c:	f883 203f 	strb.w	r2, [r3, #63]	; 0x3f
 8003b50:	687b      	ldr	r3, [r7, #4]
 8003b52:	2201      	movs	r2, #1
 8003b54:	f883 2040 	strb.w	r2, [r3, #64]	; 0x40
 8003b58:	687b      	ldr	r3, [r7, #4]
 8003b5a:	2201      	movs	r2, #1
 8003b5c:	f883 2041 	strb.w	r2, [r3, #65]	; 0x41
 8003b60:	687b      	ldr	r3, [r7, #4]
 8003b62:	2201      	movs	r2, #1
 8003b64:	f883 2042 	strb.w	r2, [r3, #66]	; 0x42
 8003b68:	687b      	ldr	r3, [r7, #4]
 8003b6a:	2201      	movs	r2, #1
 8003b6c:	f883 2043 	strb.w	r2, [r3, #67]	; 0x43
 8003b70:	687b      	ldr	r3, [r7, #4]
 8003b72:	2201      	movs	r2, #1
 8003b74:	f883 2044 	strb.w	r2, [r3, #68]	; 0x44
 8003b78:	687b      	ldr	r3, [r7, #4]
 8003b7a:	2201      	movs	r2, #1
 8003b7c:	f883 2045 	strb.w	r2, [r3, #69]	; 0x45
 8003b80:	687b      	ldr	r3, [r7, #4]
 8003b82:	2201      	movs	r2, #1
 8003b84:	f883 203d 	strb.w	r2, [r3, #61]	; 0x3d
 8003b88:	2300      	movs	r3, #0
 8003b8a:	4618      	mov	r0, r3
 8003b8c:	3708      	adds	r7, #8
 8003b8e:	46bd      	mov	sp, r7
 8003b90:	bd80      	pop	{r7, pc}

08003b92 <HAL_TIM_PWM_MspInit>:
 8003b92:	b480      	push	{r7}
 8003b94:	b083      	sub	sp, #12
 8003b96:	af00      	add	r7, sp, #0
 8003b98:	6078      	str	r0, [r7, #4]
 8003b9a:	bf00      	nop
 8003b9c:	370c      	adds	r7, #12
 8003b9e:	46bd      	mov	sp, r7
 8003ba0:	bc80      	pop	{r7}
 8003ba2:	4770      	bx	lr

08003ba4 <HAL_TIM_PWM_Start>:
 8003ba4:	b580      	push	{r7, lr}
 8003ba6:	b084      	sub	sp, #16
 8003ba8:	af00      	add	r7, sp, #0
 8003baa:	6078      	str	r0, [r7, #4]
 8003bac:	6039      	str	r1, [r7, #0]
 8003bae:	683b      	ldr	r3, [r7, #0]
 8003bb0:	2b00      	cmp	r3, #0
 8003bb2:	d109      	bne.n	8003bc8 <HAL_TIM_PWM_Start+0x24>
 8003bb4:	687b      	ldr	r3, [r7, #4]
 8003bb6:	f893 303e 	ldrb.w	r3, [r3, #62]	; 0x3e
 8003bba:	b2db      	uxtb	r3, r3
 8003bbc:	2b01      	cmp	r3, #1
 8003bbe:	bf14      	ite	ne
 8003bc0:	2301      	movne	r3, #1
 8003bc2:	2300      	moveq	r3, #0
 8003bc4:	b2db      	uxtb	r3, r3
 8003bc6:	e022      	b.n	8003c0e <HAL_TIM_PWM_Start+0x6a>
 8003bc8:	683b      	ldr	r3, [r7, #0]
 8003bca:	2b04      	cmp	r3, #4
 8003bcc:	d109      	bne.n	8003be2 <HAL_TIM_PWM_Start+0x3e>
 8003bce:	687b      	ldr	r3, [r7, #4]
 8003bd0:	f893 303f 	ldrb.w	r3, [r3, #63]	; 0x3f
 8003bd4:	b2db      	uxtb	r3, r3
 8003bd6:	2b01      	cmp	r3, #1
 8003bd8:	bf14      	ite	ne
 8003bda:	2301      	movne	r3, #1
 8003bdc:	2300      	moveq	r3, #0
 8003bde:	b2db      	uxtb	r3, r3
 8003be0:	e015      	b.n	8003c0e <HAL_TIM_PWM_Start+0x6a>
 8003be2:	683b      	ldr	r3, [r7, #0]
 8003be4:	2b08      	cmp	r3, #8
 8003be6:	d109      	bne.n	8003bfc <HAL_TIM_PWM_Start+0x58>
 8003be8:	687b      	ldr	r3, [r7, #4]
 8003bea:	f893 3040 	ldrb.w	r3, [r3, #64]	; 0x40
 8003bee:	b2db      	uxtb	r3, r3
 8003bf0:	2b01      	cmp	r3, #1
 8003bf2:	bf14      	ite	ne
 8003bf4:	2301      	movne	r3, #1
 8003bf6:	2300      	moveq	r3, #0
 8003bf8:	b2db      	uxtb	r3, r3
 8003bfa:	e008      	b.n	8003c0e <HAL_TIM_PWM_Start+0x6a>
 8003bfc:	687b      	ldr	r3, [r7, #4]
 8003bfe:	f893 3041 	ldrb.w	r3, [r3, #65]	; 0x41
 8003c02:	b2db      	uxtb	r3, r3
 8003c04:	2b01      	cmp	r3, #1
 8003c06:	bf14      	ite	ne
 8003c08:	2301      	movne	r3, #1
 8003c0a:	2300      	moveq	r3, #0
 8003c0c:	b2db      	uxtb	r3, r3
 8003c0e:	2b00      	cmp	r3, #0
 8003c10:	d001      	beq.n	8003c16 <HAL_TIM_PWM_Start+0x72>
 8003c12:	2301      	movs	r3, #1
 8003c14:	e05e      	b.n	8003cd4 <HAL_TIM_PWM_Start+0x130>
 8003c16:	683b      	ldr	r3, [r7, #0]
 8003c18:	2b00      	cmp	r3, #0
 8003c1a:	d104      	bne.n	8003c26 <HAL_TIM_PWM_Start+0x82>
 8003c1c:	687b      	ldr	r3, [r7, #4]
 8003c1e:	2202      	movs	r2, #2
 8003c20:	f883 203e 	strb.w	r2, [r3, #62]	; 0x3e
 8003c24:	e013      	b.n	8003c4e <HAL_TIM_PWM_Start+0xaa>
 8003c26:	683b      	ldr	r3, [r7, #0]
 8003c28:	2b04      	cmp	r3, #4
 8003c2a:	d104      	bne.n	8003c36 <HAL_TIM_PWM_Start+0x92>
 8003c2c:	687b      	ldr	r3, [r7, #4]
 8003c2e:	2202      	movs	r2, #2
 8003c30:	f883 203f 	strb.w	r2, [r3, #63]	; 0x3f
 8003c34:	e00b      	b.n	8003c4e <HAL_TIM_PWM_Start+0xaa>
 8003c36:	683b      	ldr	r3, [r7, #0]
 8003c38:	2b08      	cmp	r3, #8
 8003c3a:	d104      	bne.n	8003c46 <HAL_TIM_PWM_Start+0xa2>
 8003c3c:	687b      	ldr	r3, [r7, #4]
 8003c3e:	2202      	movs	r2, #2
 8003c40:	f883 2040 	strb.w	r2, [r3, #64]	; 0x40
 8003c44:	e003      	b.n	8003c4e <HAL_TIM_PWM_Start+0xaa>
 8003c46:	687b      	ldr	r3, [r7, #4]
 8003c48:	2202      	movs	r2, #2
 8003c4a:	f883 2041 	strb.w	r2, [r3, #65]	; 0x41
 8003c4e:	687b      	ldr	r3, [r7, #4]
 8003c50:	681b      	ldr	r3, [r3, #0]
 8003c52:	2201      	movs	r2, #1
 8003c54:	6839      	ldr	r1, [r7, #0]
 8003c56:	4618      	mov	r0, r3
 8003c58:	f000 fea2 	bl	80049a0 <TIM_CCxChannelCmd>
 8003c5c:	687b      	ldr	r3, [r7, #4]
 8003c5e:	681b      	ldr	r3, [r3, #0]
 8003c60:	4a1e      	ldr	r2, [pc, #120]	; (8003cdc <HAL_TIM_PWM_Start+0x138>)
 8003c62:	4293      	cmp	r3, r2
 8003c64:	d107      	bne.n	8003c76 <HAL_TIM_PWM_Start+0xd2>
 8003c66:	687b      	ldr	r3, [r7, #4]
 8003c68:	681b      	ldr	r3, [r3, #0]
 8003c6a:	6c5a      	ldr	r2, [r3, #68]	; 0x44
 8003c6c:	687b      	ldr	r3, [r7, #4]
 8003c6e:	681b      	ldr	r3, [r3, #0]
 8003c70:	f442 4200 	orr.w	r2, r2, #32768	; 0x8000
 8003c74:	645a      	str	r2, [r3, #68]	; 0x44
 8003c76:	687b      	ldr	r3, [r7, #4]
 8003c78:	681b      	ldr	r3, [r3, #0]
 8003c7a:	4a18      	ldr	r2, [pc, #96]	; (8003cdc <HAL_TIM_PWM_Start+0x138>)
 8003c7c:	4293      	cmp	r3, r2
 8003c7e:	d00e      	beq.n	8003c9e <HAL_TIM_PWM_Start+0xfa>
 8003c80:	687b      	ldr	r3, [r7, #4]
 8003c82:	681b      	ldr	r3, [r3, #0]
 8003c84:	f1b3 4f80 	cmp.w	r3, #1073741824	; 0x40000000
 8003c88:	d009      	beq.n	8003c9e <HAL_TIM_PWM_Start+0xfa>
 8003c8a:	687b      	ldr	r3, [r7, #4]
 8003c8c:	681b      	ldr	r3, [r3, #0]
 8003c8e:	4a14      	ldr	r2, [pc, #80]	; (8003ce0 <HAL_TIM_PWM_Start+0x13c>)
 8003c90:	4293      	cmp	r3, r2
 8003c92:	d004      	beq.n	8003c9e <HAL_TIM_PWM_Start+0xfa>
 8003c94:	687b      	ldr	r3, [r7, #4]
 8003c96:	681b      	ldr	r3, [r3, #0]
 8003c98:	4a12      	ldr	r2, [pc, #72]	; (8003ce4 <HAL_TIM_PWM_Start+0x140>)
 8003c9a:	4293      	cmp	r3, r2
 8003c9c:	d111      	bne.n	8003cc2 <HAL_TIM_PWM_Start+0x11e>
 8003c9e:	687b      	ldr	r3, [r7, #4]
 8003ca0:	681b      	ldr	r3, [r3, #0]
 8003ca2:	689b      	ldr	r3, [r3, #8]
 8003ca4:	f003 0307 	and.w	r3, r3, #7
 8003ca8:	60fb      	str	r3, [r7, #12]
 8003caa:	68fb      	ldr	r3, [r7, #12]
 8003cac:	2b06      	cmp	r3, #6
 8003cae:	d010      	beq.n	8003cd2 <HAL_TIM_PWM_Start+0x12e>
 8003cb0:	687b      	ldr	r3, [r7, #4]
 8003cb2:	681b      	ldr	r3, [r3, #0]
 8003cb4:	681a      	ldr	r2, [r3, #0]
 8003cb6:	687b      	ldr	r3, [r7, #4]
 8003cb8:	681b      	ldr	r3, [r3, #0]
 8003cba:	f042 0201 	orr.w	r2, r2, #1
 8003cbe:	601a      	str	r2, [r3, #0]
 8003cc0:	e007      	b.n	8003cd2 <HAL_TIM_PWM_Start+0x12e>
 8003cc2:	687b      	ldr	r3, [r7, #4]
 8003cc4:	681b      	ldr	r3, [r3, #0]
 8003cc6:	681a      	ldr	r2, [r3, #0]
 8003cc8:	687b      	ldr	r3, [r7, #4]
 8003cca:	681b      	ldr	r3, [r3, #0]
 8003ccc:	f042 0201 	orr.w	r2, r2, #1
 8003cd0:	601a      	str	r2, [r3, #0]
 8003cd2:	2300      	movs	r3, #0
 8003cd4:	4618      	mov	r0, r3
 8003cd6:	3710      	adds	r7, #16
 8003cd8:	46bd      	mov	sp, r7
 8003cda:	bd80      	pop	{r7, pc}
 8003cdc:	40012c00 	.word	0x40012c00
 8003ce0:	40000400 	.word	0x40000400
 8003ce4:	40000800 	.word	0x40000800

08003ce8 <HAL_TIM_PWM_Start_IT>:
 8003ce8:	b580      	push	{r7, lr}
 8003cea:	b084      	sub	sp, #16
 8003cec:	af00      	add	r7, sp, #0
 8003cee:	6078      	str	r0, [r7, #4]
 8003cf0:	6039      	str	r1, [r7, #0]
 8003cf2:	683b      	ldr	r3, [r7, #0]
 8003cf4:	2b00      	cmp	r3, #0
 8003cf6:	d109      	bne.n	8003d0c <HAL_TIM_PWM_Start_IT+0x24>
 8003cf8:	687b      	ldr	r3, [r7, #4]
 8003cfa:	f893 303e 	ldrb.w	r3, [r3, #62]	; 0x3e
 8003cfe:	b2db      	uxtb	r3, r3
 8003d00:	2b01      	cmp	r3, #1
 8003d02:	bf14      	ite	ne
 8003d04:	2301      	movne	r3, #1
 8003d06:	2300      	moveq	r3, #0
 8003d08:	b2db      	uxtb	r3, r3
 8003d0a:	e022      	b.n	8003d52 <HAL_TIM_PWM_Start_IT+0x6a>
 8003d0c:	683b      	ldr	r3, [r7, #0]
 8003d0e:	2b04      	cmp	r3, #4
 8003d10:	d109      	bne.n	8003d26 <HAL_TIM_PWM_Start_IT+0x3e>
 8003d12:	687b      	ldr	r3, [r7, #4]
 8003d14:	f893 303f 	ldrb.w	r3, [r3, #63]	; 0x3f
 8003d18:	b2db      	uxtb	r3, r3
 8003d1a:	2b01      	cmp	r3, #1
 8003d1c:	bf14      	ite	ne
 8003d1e:	2301      	movne	r3, #1
 8003d20:	2300      	moveq	r3, #0
 8003d22:	b2db      	uxtb	r3, r3
 8003d24:	e015      	b.n	8003d52 <HAL_TIM_PWM_Start_IT+0x6a>
 8003d26:	683b      	ldr	r3, [r7, #0]
 8003d28:	2b08      	cmp	r3, #8
 8003d2a:	d109      	bne.n	8003d40 <HAL_TIM_PWM_Start_IT+0x58>
 8003d2c:	687b      	ldr	r3, [r7, #4]
 8003d2e:	f893 3040 	ldrb.w	r3, [r3, #64]	; 0x40
 8003d32:	b2db      	uxtb	r3, r3
 8003d34:	2b01      	cmp	r3, #1
 8003d36:	bf14      	ite	ne
 8003d38:	2301      	movne	r3, #1
 8003d3a:	2300      	moveq	r3, #0
 8003d3c:	b2db      	uxtb	r3, r3
 8003d3e:	e008      	b.n	8003d52 <HAL_TIM_PWM_Start_IT+0x6a>
 8003d40:	687b      	ldr	r3, [r7, #4]
 8003d42:	f893 3041 	ldrb.w	r3, [r3, #65]	; 0x41
 8003d46:	b2db      	uxtb	r3, r3
 8003d48:	2b01      	cmp	r3, #1
 8003d4a:	bf14      	ite	ne
 8003d4c:	2301      	movne	r3, #1
 8003d4e:	2300      	moveq	r3, #0
 8003d50:	b2db      	uxtb	r3, r3
 8003d52:	2b00      	cmp	r3, #0
 8003d54:	d001      	beq.n	8003d5a <HAL_TIM_PWM_Start_IT+0x72>
 8003d56:	2301      	movs	r3, #1
 8003d58:	e0a4      	b.n	8003ea4 <HAL_TIM_PWM_Start_IT+0x1bc>
 8003d5a:	683b      	ldr	r3, [r7, #0]
 8003d5c:	2b00      	cmp	r3, #0
 8003d5e:	d104      	bne.n	8003d6a <HAL_TIM_PWM_Start_IT+0x82>
 8003d60:	687b      	ldr	r3, [r7, #4]
 8003d62:	2202      	movs	r2, #2
 8003d64:	f883 203e 	strb.w	r2, [r3, #62]	; 0x3e
 8003d68:	e013      	b.n	8003d92 <HAL_TIM_PWM_Start_IT+0xaa>
 8003d6a:	683b      	ldr	r3, [r7, #0]
 8003d6c:	2b04      	cmp	r3, #4
 8003d6e:	d104      	bne.n	8003d7a <HAL_TIM_PWM_Start_IT+0x92>
 8003d70:	687b      	ldr	r3, [r7, #4]
 8003d72:	2202      	movs	r2, #2
 8003d74:	f883 203f 	strb.w	r2, [r3, #63]	; 0x3f
 8003d78:	e00b      	b.n	8003d92 <HAL_TIM_PWM_Start_IT+0xaa>
 8003d7a:	683b      	ldr	r3, [r7, #0]
 8003d7c:	2b08      	cmp	r3, #8
 8003d7e:	d104      	bne.n	8003d8a <HAL_TIM_PWM_Start_IT+0xa2>
 8003d80:	687b      	ldr	r3, [r7, #4]
 8003d82:	2202      	movs	r2, #2
 8003d84:	f883 2040 	strb.w	r2, [r3, #64]	; 0x40
 8003d88:	e003      	b.n	8003d92 <HAL_TIM_PWM_Start_IT+0xaa>
 8003d8a:	687b      	ldr	r3, [r7, #4]
 8003d8c:	2202      	movs	r2, #2
 8003d8e:	f883 2041 	strb.w	r2, [r3, #65]	; 0x41
 8003d92:	683b      	ldr	r3, [r7, #0]
 8003d94:	2b0c      	cmp	r3, #12
 8003d96:	d841      	bhi.n	8003e1c <HAL_TIM_PWM_Start_IT+0x134>
 8003d98:	a201      	add	r2, pc, #4	; (adr r2, 8003da0 <HAL_TIM_PWM_Start_IT+0xb8>)
 8003d9a:	f852 f023 	ldr.w	pc, [r2, r3, lsl #2]
 8003d9e:	bf00      	nop
 8003da0:	08003dd5 	.word	0x08003dd5
 8003da4:	08003e1d 	.word	0x08003e1d
 8003da8:	08003e1d 	.word	0x08003e1d
 8003dac:	08003e1d 	.word	0x08003e1d
 8003db0:	08003de7 	.word	0x08003de7
 8003db4:	08003e1d 	.word	0x08003e1d
 8003db8:	08003e1d 	.word	0x08003e1d
 8003dbc:	08003e1d 	.word	0x08003e1d
 8003dc0:	08003df9 	.word	0x08003df9
 8003dc4:	08003e1d 	.word	0x08003e1d
 8003dc8:	08003e1d 	.word	0x08003e1d
 8003dcc:	08003e1d 	.word	0x08003e1d
 8003dd0:	08003e0b 	.word	0x08003e0b
 8003dd4:	687b      	ldr	r3, [r7, #4]
 8003dd6:	681b      	ldr	r3, [r3, #0]
 8003dd8:	68da      	ldr	r2, [r3, #12]
 8003dda:	687b      	ldr	r3, [r7, #4]
 8003ddc:	681b      	ldr	r3, [r3, #0]
 8003dde:	f042 0202 	orr.w	r2, r2, #2
 8003de2:	60da      	str	r2, [r3, #12]
 8003de4:	e01b      	b.n	8003e1e <HAL_TIM_PWM_Start_IT+0x136>
 8003de6:	687b      	ldr	r3, [r7, #4]
 8003de8:	681b      	ldr	r3, [r3, #0]
 8003dea:	68da      	ldr	r2, [r3, #12]
 8003dec:	687b      	ldr	r3, [r7, #4]
 8003dee:	681b      	ldr	r3, [r3, #0]
 8003df0:	f042 0204 	orr.w	r2, r2, #4
 8003df4:	60da      	str	r2, [r3, #12]
 8003df6:	e012      	b.n	8003e1e <HAL_TIM_PWM_Start_IT+0x136>
 8003df8:	687b      	ldr	r3, [r7, #4]
 8003dfa:	681b      	ldr	r3, [r3, #0]
 8003dfc:	68da      	ldr	r2, [r3, #12]
 8003dfe:	687b      	ldr	r3, [r7, #4]
 8003e00:	681b      	ldr	r3, [r3, #0]
 8003e02:	f042 0208 	orr.w	r2, r2, #8
 8003e06:	60da      	str	r2, [r3, #12]
 8003e08:	e009      	b.n	8003e1e <HAL_TIM_PWM_Start_IT+0x136>
 8003e0a:	687b      	ldr	r3, [r7, #4]
 8003e0c:	681b      	ldr	r3, [r3, #0]
 8003e0e:	68da      	ldr	r2, [r3, #12]
 8003e10:	687b      	ldr	r3, [r7, #4]
 8003e12:	681b      	ldr	r3, [r3, #0]
 8003e14:	f042 0210 	orr.w	r2, r2, #16
 8003e18:	60da      	str	r2, [r3, #12]
 8003e1a:	e000      	b.n	8003e1e <HAL_TIM_PWM_Start_IT+0x136>
 8003e1c:	bf00      	nop
 8003e1e:	687b      	ldr	r3, [r7, #4]
 8003e20:	681b      	ldr	r3, [r3, #0]
 8003e22:	2201      	movs	r2, #1
 8003e24:	6839      	ldr	r1, [r7, #0]
 8003e26:	4618      	mov	r0, r3
 8003e28:	f000 fdba 	bl	80049a0 <TIM_CCxChannelCmd>
 8003e2c:	687b      	ldr	r3, [r7, #4]
 8003e2e:	681b      	ldr	r3, [r3, #0]
 8003e30:	4a1e      	ldr	r2, [pc, #120]	; (8003eac <HAL_TIM_PWM_Start_IT+0x1c4>)
 8003e32:	4293      	cmp	r3, r2
 8003e34:	d107      	bne.n	8003e46 <HAL_TIM_PWM_Start_IT+0x15e>
 8003e36:	687b      	ldr	r3, [r7, #4]
 8003e38:	681b      	ldr	r3, [r3, #0]
 8003e3a:	6c5a      	ldr	r2, [r3, #68]	; 0x44
 8003e3c:	687b      	ldr	r3, [r7, #4]
 8003e3e:	681b      	ldr	r3, [r3, #0]
 8003e40:	f442 4200 	orr.w	r2, r2, #32768	; 0x8000
 8003e44:	645a      	str	r2, [r3, #68]	; 0x44
 8003e46:	687b      	ldr	r3, [r7, #4]
 8003e48:	681b      	ldr	r3, [r3, #0]
 8003e4a:	4a18      	ldr	r2, [pc, #96]	; (8003eac <HAL_TIM_PWM_Start_IT+0x1c4>)
 8003e4c:	4293      	cmp	r3, r2
 8003e4e:	d00e      	beq.n	8003e6e <HAL_TIM_PWM_Start_IT+0x186>
 8003e50:	687b      	ldr	r3, [r7, #4]
 8003e52:	681b      	ldr	r3, [r3, #0]
 8003e54:	f1b3 4f80 	cmp.w	r3, #1073741824	; 0x40000000
 8003e58:	d009      	beq.n	8003e6e <HAL_TIM_PWM_Start_IT+0x186>
 8003e5a:	687b      	ldr	r3, [r7, #4]
 8003e5c:	681b      	ldr	r3, [r3, #0]
 8003e5e:	4a14      	ldr	r2, [pc, #80]	; (8003eb0 <HAL_TIM_PWM_Start_IT+0x1c8>)
 8003e60:	4293      	cmp	r3, r2
 8003e62:	d004      	beq.n	8003e6e <HAL_TIM_PWM_Start_IT+0x186>
 8003e64:	687b      	ldr	r3, [r7, #4]
 8003e66:	681b      	ldr	r3, [r3, #0]
 8003e68:	4a12      	ldr	r2, [pc, #72]	; (8003eb4 <HAL_TIM_PWM_Start_IT+0x1cc>)
 8003e6a:	4293      	cmp	r3, r2
 8003e6c:	d111      	bne.n	8003e92 <HAL_TIM_PWM_Start_IT+0x1aa>
 8003e6e:	687b      	ldr	r3, [r7, #4]
 8003e70:	681b      	ldr	r3, [r3, #0]
 8003e72:	689b      	ldr	r3, [r3, #8]
 8003e74:	f003 0307 	and.w	r3, r3, #7
 8003e78:	60fb      	str	r3, [r7, #12]
 8003e7a:	68fb      	ldr	r3, [r7, #12]
 8003e7c:	2b06      	cmp	r3, #6
 8003e7e:	d010      	beq.n	8003ea2 <HAL_TIM_PWM_Start_IT+0x1ba>
 8003e80:	687b      	ldr	r3, [r7, #4]
 8003e82:	681b      	ldr	r3, [r3, #0]
 8003e84:	681a      	ldr	r2, [r3, #0]
 8003e86:	687b      	ldr	r3, [r7, #4]
 8003e88:	681b      	ldr	r3, [r3, #0]
 8003e8a:	f042 0201 	orr.w	r2, r2, #1
 8003e8e:	601a      	str	r2, [r3, #0]
 8003e90:	e007      	b.n	8003ea2 <HAL_TIM_PWM_Start_IT+0x1ba>
 8003e92:	687b      	ldr	r3, [r7, #4]
 8003e94:	681b      	ldr	r3, [r3, #0]
 8003e96:	681a      	ldr	r2, [r3, #0]
 8003e98:	687b      	ldr	r3, [r7, #4]
 8003e9a:	681b      	ldr	r3, [r3, #0]
 8003e9c:	f042 0201 	orr.w	r2, r2, #1
 8003ea0:	601a      	str	r2, [r3, #0]
 8003ea2:	2300      	movs	r3, #0
 8003ea4:	4618      	mov	r0, r3
 8003ea6:	3710      	adds	r7, #16
 8003ea8:	46bd      	mov	sp, r7
 8003eaa:	bd80      	pop	{r7, pc}
 8003eac:	40012c00 	.word	0x40012c00
 8003eb0:	40000400 	.word	0x40000400
 8003eb4:	40000800 	.word	0x40000800

08003eb8 <HAL_TIM_IRQHandler>:
 8003eb8:	b580      	push	{r7, lr}
 8003eba:	b082      	sub	sp, #8
 8003ebc:	af00      	add	r7, sp, #0
 8003ebe:	6078      	str	r0, [r7, #4]
 8003ec0:	687b      	ldr	r3, [r7, #4]
 8003ec2:	681b      	ldr	r3, [r3, #0]
 8003ec4:	691b      	ldr	r3, [r3, #16]
 8003ec6:	f003 0302 	and.w	r3, r3, #2
 8003eca:	2b02      	cmp	r3, #2
 8003ecc:	d122      	bne.n	8003f14 <HAL_TIM_IRQHandler+0x5c>
 8003ece:	687b      	ldr	r3, [r7, #4]
 8003ed0:	681b      	ldr	r3, [r3, #0]
 8003ed2:	68db      	ldr	r3, [r3, #12]
 8003ed4:	f003 0302 	and.w	r3, r3, #2
 8003ed8:	2b02      	cmp	r3, #2
 8003eda:	d11b      	bne.n	8003f14 <HAL_TIM_IRQHandler+0x5c>
 8003edc:	687b      	ldr	r3, [r7, #4]
 8003ede:	681b      	ldr	r3, [r3, #0]
 8003ee0:	f06f 0202 	mvn.w	r2, #2
 8003ee4:	611a      	str	r2, [r3, #16]
 8003ee6:	687b      	ldr	r3, [r7, #4]
 8003ee8:	2201      	movs	r2, #1
 8003eea:	771a      	strb	r2, [r3, #28]
 8003eec:	687b      	ldr	r3, [r7, #4]
 8003eee:	681b      	ldr	r3, [r3, #0]
 8003ef0:	699b      	ldr	r3, [r3, #24]
 8003ef2:	f003 0303 	and.w	r3, r3, #3
 8003ef6:	2b00      	cmp	r3, #0
 8003ef8:	d003      	beq.n	8003f02 <HAL_TIM_IRQHandler+0x4a>
 8003efa:	6878      	ldr	r0, [r7, #4]
 8003efc:	f000 fabe 	bl	800447c <HAL_TIM_IC_CaptureCallback>
 8003f00:	e005      	b.n	8003f0e <HAL_TIM_IRQHandler+0x56>
 8003f02:	6878      	ldr	r0, [r7, #4]
 8003f04:	f7fc feb0 	bl	8000c68 <HAL_TIM_OC_DelayElapsedCallback>
 8003f08:	6878      	ldr	r0, [r7, #4]
 8003f0a:	f7fc fec9 	bl	8000ca0 <HAL_TIM_PWM_PulseFinishedCallback>
 8003f0e:	687b      	ldr	r3, [r7, #4]
 8003f10:	2200      	movs	r2, #0
 8003f12:	771a      	strb	r2, [r3, #28]
 8003f14:	687b      	ldr	r3, [r7, #4]
 8003f16:	681b      	ldr	r3, [r3, #0]
 8003f18:	691b      	ldr	r3, [r3, #16]
 8003f1a:	f003 0304 	and.w	r3, r3, #4
 8003f1e:	2b04      	cmp	r3, #4
 8003f20:	d122      	bne.n	8003f68 <HAL_TIM_IRQHandler+0xb0>
 8003f22:	687b      	ldr	r3, [r7, #4]
 8003f24:	681b      	ldr	r3, [r3, #0]
 8003f26:	68db      	ldr	r3, [r3, #12]
 8003f28:	f003 0304 	and.w	r3, r3, #4
 8003f2c:	2b04      	cmp	r3, #4
 8003f2e:	d11b      	bne.n	8003f68 <HAL_TIM_IRQHandler+0xb0>
 8003f30:	687b      	ldr	r3, [r7, #4]
 8003f32:	681b      	ldr	r3, [r3, #0]
 8003f34:	f06f 0204 	mvn.w	r2, #4
 8003f38:	611a      	str	r2, [r3, #16]
 8003f3a:	687b      	ldr	r3, [r7, #4]
 8003f3c:	2202      	movs	r2, #2
 8003f3e:	771a      	strb	r2, [r3, #28]
 8003f40:	687b      	ldr	r3, [r7, #4]
 8003f42:	681b      	ldr	r3, [r3, #0]
 8003f44:	699b      	ldr	r3, [r3, #24]
 8003f46:	f403 7340 	and.w	r3, r3, #768	; 0x300
 8003f4a:	2b00      	cmp	r3, #0
 8003f4c:	d003      	beq.n	8003f56 <HAL_TIM_IRQHandler+0x9e>
 8003f4e:	6878      	ldr	r0, [r7, #4]
 8003f50:	f000 fa94 	bl	800447c <HAL_TIM_IC_CaptureCallback>
 8003f54:	e005      	b.n	8003f62 <HAL_TIM_IRQHandler+0xaa>
 8003f56:	6878      	ldr	r0, [r7, #4]
 8003f58:	f7fc fe86 	bl	8000c68 <HAL_TIM_OC_DelayElapsedCallback>
 8003f5c:	6878      	ldr	r0, [r7, #4]
 8003f5e:	f7fc fe9f 	bl	8000ca0 <HAL_TIM_PWM_PulseFinishedCallback>
 8003f62:	687b      	ldr	r3, [r7, #4]
 8003f64:	2200      	movs	r2, #0
 8003f66:	771a      	strb	r2, [r3, #28]
 8003f68:	687b      	ldr	r3, [r7, #4]
 8003f6a:	681b      	ldr	r3, [r3, #0]
 8003f6c:	691b      	ldr	r3, [r3, #16]
 8003f6e:	f003 0308 	and.w	r3, r3, #8
 8003f72:	2b08      	cmp	r3, #8
 8003f74:	d122      	bne.n	8003fbc <HAL_TIM_IRQHandler+0x104>
 8003f76:	687b      	ldr	r3, [r7, #4]
 8003f78:	681b      	ldr	r3, [r3, #0]
 8003f7a:	68db      	ldr	r3, [r3, #12]
 8003f7c:	f003 0308 	and.w	r3, r3, #8
 8003f80:	2b08      	cmp	r3, #8
 8003f82:	d11b      	bne.n	8003fbc <HAL_TIM_IRQHandler+0x104>
 8003f84:	687b      	ldr	r3, [r7, #4]
 8003f86:	681b      	ldr	r3, [r3, #0]
 8003f88:	f06f 0208 	mvn.w	r2, #8
 8003f8c:	611a      	str	r2, [r3, #16]
 8003f8e:	687b      	ldr	r3, [r7, #4]
 8003f90:	2204      	movs	r2, #4
 8003f92:	771a      	strb	r2, [r3, #28]
 8003f94:	687b      	ldr	r3, [r7, #4]
 8003f96:	681b      	ldr	r3, [r3, #0]
 8003f98:	69db      	ldr	r3, [r3, #28]
 8003f9a:	f003 0303 	and.w	r3, r3, #3
 8003f9e:	2b00      	cmp	r3, #0
 8003fa0:	d003      	beq.n	8003faa <HAL_TIM_IRQHandler+0xf2>
 8003fa2:	6878      	ldr	r0, [r7, #4]
 8003fa4:	f000 fa6a 	bl	800447c <HAL_TIM_IC_CaptureCallback>
 8003fa8:	e005      	b.n	8003fb6 <HAL_TIM_IRQHandler+0xfe>
 8003faa:	6878      	ldr	r0, [r7, #4]
 8003fac:	f7fc fe5c 	bl	8000c68 <HAL_TIM_OC_DelayElapsedCallback>
 8003fb0:	6878      	ldr	r0, [r7, #4]
 8003fb2:	f7fc fe75 	bl	8000ca0 <HAL_TIM_PWM_PulseFinishedCallback>
 8003fb6:	687b      	ldr	r3, [r7, #4]
 8003fb8:	2200      	movs	r2, #0
 8003fba:	771a      	strb	r2, [r3, #28]
 8003fbc:	687b      	ldr	r3, [r7, #4]
 8003fbe:	681b      	ldr	r3, [r3, #0]
 8003fc0:	691b      	ldr	r3, [r3, #16]
 8003fc2:	f003 0310 	and.w	r3, r3, #16
 8003fc6:	2b10      	cmp	r3, #16
 8003fc8:	d122      	bne.n	8004010 <HAL_TIM_IRQHandler+0x158>
 8003fca:	687b      	ldr	r3, [r7, #4]
 8003fcc:	681b      	ldr	r3, [r3, #0]
 8003fce:	68db      	ldr	r3, [r3, #12]
 8003fd0:	f003 0310 	and.w	r3, r3, #16
 8003fd4:	2b10      	cmp	r3, #16
 8003fd6:	d11b      	bne.n	8004010 <HAL_TIM_IRQHandler+0x158>
 8003fd8:	687b      	ldr	r3, [r7, #4]
 8003fda:	681b      	ldr	r3, [r3, #0]
 8003fdc:	f06f 0210 	mvn.w	r2, #16
 8003fe0:	611a      	str	r2, [r3, #16]
 8003fe2:	687b      	ldr	r3, [r7, #4]
 8003fe4:	2208      	movs	r2, #8
 8003fe6:	771a      	strb	r2, [r3, #28]
 8003fe8:	687b      	ldr	r3, [r7, #4]
 8003fea:	681b      	ldr	r3, [r3, #0]
 8003fec:	69db      	ldr	r3, [r3, #28]
 8003fee:	f403 7340 	and.w	r3, r3, #768	; 0x300
 8003ff2:	2b00      	cmp	r3, #0
 8003ff4:	d003      	beq.n	8003ffe <HAL_TIM_IRQHandler+0x146>
 8003ff6:	6878      	ldr	r0, [r7, #4]
 8003ff8:	f000 fa40 	bl	800447c <HAL_TIM_IC_CaptureCallback>
 8003ffc:	e005      	b.n	800400a <HAL_TIM_IRQHandler+0x152>
 8003ffe:	6878      	ldr	r0, [r7, #4]
 8004000:	f7fc fe32 	bl	8000c68 <HAL_TIM_OC_DelayElapsedCallback>
 8004004:	6878      	ldr	r0, [r7, #4]
 8004006:	f7fc fe4b 	bl	8000ca0 <HAL_TIM_PWM_PulseFinishedCallback>
 800400a:	687b      	ldr	r3, [r7, #4]
 800400c:	2200      	movs	r2, #0
 800400e:	771a      	strb	r2, [r3, #28]
 8004010:	687b      	ldr	r3, [r7, #4]
 8004012:	681b      	ldr	r3, [r3, #0]
 8004014:	691b      	ldr	r3, [r3, #16]
 8004016:	f003 0301 	and.w	r3, r3, #1
 800401a:	2b01      	cmp	r3, #1
 800401c:	d10e      	bne.n	800403c <HAL_TIM_IRQHandler+0x184>
 800401e:	687b      	ldr	r3, [r7, #4]
 8004020:	681b      	ldr	r3, [r3, #0]
 8004022:	68db      	ldr	r3, [r3, #12]
 8004024:	f003 0301 	and.w	r3, r3, #1
 8004028:	2b01      	cmp	r3, #1
 800402a:	d107      	bne.n	800403c <HAL_TIM_IRQHandler+0x184>
 800402c:	687b      	ldr	r3, [r7, #4]
 800402e:	681b      	ldr	r3, [r3, #0]
 8004030:	f06f 0201 	mvn.w	r2, #1
 8004034:	611a      	str	r2, [r3, #16]
 8004036:	6878      	ldr	r0, [r7, #4]
 8004038:	f7fc fdce 	bl	8000bd8 <HAL_TIM_PeriodElapsedCallback>
 800403c:	687b      	ldr	r3, [r7, #4]
 800403e:	681b      	ldr	r3, [r3, #0]
 8004040:	691b      	ldr	r3, [r3, #16]
 8004042:	f003 0380 	and.w	r3, r3, #128	; 0x80
 8004046:	2b80      	cmp	r3, #128	; 0x80
 8004048:	d10e      	bne.n	8004068 <HAL_TIM_IRQHandler+0x1b0>
 800404a:	687b      	ldr	r3, [r7, #4]
 800404c:	681b      	ldr	r3, [r3, #0]
 800404e:	68db      	ldr	r3, [r3, #12]
 8004050:	f003 0380 	and.w	r3, r3, #128	; 0x80
 8004054:	2b80      	cmp	r3, #128	; 0x80
 8004056:	d107      	bne.n	8004068 <HAL_TIM_IRQHandler+0x1b0>
 8004058:	687b      	ldr	r3, [r7, #4]
 800405a:	681b      	ldr	r3, [r3, #0]
 800405c:	f06f 0280 	mvn.w	r2, #128	; 0x80
 8004060:	611a      	str	r2, [r3, #16]
 8004062:	6878      	ldr	r0, [r7, #4]
 8004064:	f000 fd78 	bl	8004b58 <HAL_TIMEx_BreakCallback>
 8004068:	687b      	ldr	r3, [r7, #4]
 800406a:	681b      	ldr	r3, [r3, #0]
 800406c:	691b      	ldr	r3, [r3, #16]
 800406e:	f003 0340 	and.w	r3, r3, #64	; 0x40
 8004072:	2b40      	cmp	r3, #64	; 0x40
 8004074:	d10e      	bne.n	8004094 <HAL_TIM_IRQHandler+0x1dc>
 8004076:	687b      	ldr	r3, [r7, #4]
 8004078:	681b      	ldr	r3, [r3, #0]
 800407a:	68db      	ldr	r3, [r3, #12]
 800407c:	f003 0340 	and.w	r3, r3, #64	; 0x40
 8004080:	2b40      	cmp	r3, #64	; 0x40
 8004082:	d107      	bne.n	8004094 <HAL_TIM_IRQHandler+0x1dc>
 8004084:	687b      	ldr	r3, [r7, #4]
 8004086:	681b      	ldr	r3, [r3, #0]
 8004088:	f06f 0240 	mvn.w	r2, #64	; 0x40
 800408c:	611a      	str	r2, [r3, #16]
 800408e:	6878      	ldr	r0, [r7, #4]
 8004090:	f000 f9fd 	bl	800448e <HAL_TIM_TriggerCallback>
 8004094:	687b      	ldr	r3, [r7, #4]
 8004096:	681b      	ldr	r3, [r3, #0]
 8004098:	691b      	ldr	r3, [r3, #16]
 800409a:	f003 0320 	and.w	r3, r3, #32
 800409e:	2b20      	cmp	r3, #32
 80040a0:	d10e      	bne.n	80040c0 <HAL_TIM_IRQHandler+0x208>
 80040a2:	687b      	ldr	r3, [r7, #4]
 80040a4:	681b      	ldr	r3, [r3, #0]
 80040a6:	68db      	ldr	r3, [r3, #12]
 80040a8:	f003 0320 	and.w	r3, r3, #32
 80040ac:	2b20      	cmp	r3, #32
 80040ae:	d107      	bne.n	80040c0 <HAL_TIM_IRQHandler+0x208>
 80040b0:	687b      	ldr	r3, [r7, #4]
 80040b2:	681b      	ldr	r3, [r3, #0]
 80040b4:	f06f 0220 	mvn.w	r2, #32
 80040b8:	611a      	str	r2, [r3, #16]
 80040ba:	6878      	ldr	r0, [r7, #4]
 80040bc:	f000 fd43 	bl	8004b46 <HAL_TIMEx_CommutCallback>
 80040c0:	bf00      	nop
 80040c2:	3708      	adds	r7, #8
 80040c4:	46bd      	mov	sp, r7
 80040c6:	bd80      	pop	{r7, pc}

080040c8 <HAL_TIM_OC_ConfigChannel>:
 80040c8:	b580      	push	{r7, lr}
 80040ca:	b084      	sub	sp, #16
 80040cc:	af00      	add	r7, sp, #0
 80040ce:	60f8      	str	r0, [r7, #12]
 80040d0:	60b9      	str	r1, [r7, #8]
 80040d2:	607a      	str	r2, [r7, #4]
 80040d4:	68fb      	ldr	r3, [r7, #12]
 80040d6:	f893 303c 	ldrb.w	r3, [r3, #60]	; 0x3c
 80040da:	2b01      	cmp	r3, #1
 80040dc:	d101      	bne.n	80040e2 <HAL_TIM_OC_ConfigChannel+0x1a>
 80040de:	2302      	movs	r3, #2
 80040e0:	e046      	b.n	8004170 <HAL_TIM_OC_ConfigChannel+0xa8>
 80040e2:	68fb      	ldr	r3, [r7, #12]
 80040e4:	2201      	movs	r2, #1
 80040e6:	f883 203c 	strb.w	r2, [r3, #60]	; 0x3c
 80040ea:	687b      	ldr	r3, [r7, #4]
 80040ec:	2b0c      	cmp	r3, #12
 80040ee:	d839      	bhi.n	8004164 <HAL_TIM_OC_ConfigChannel+0x9c>
 80040f0:	a201      	add	r2, pc, #4	; (adr r2, 80040f8 <HAL_TIM_OC_ConfigChannel+0x30>)
 80040f2:	f852 f023 	ldr.w	pc, [r2, r3, lsl #2]
 80040f6:	bf00      	nop
 80040f8:	0800412d 	.word	0x0800412d
 80040fc:	08004165 	.word	0x08004165
 8004100:	08004165 	.word	0x08004165
 8004104:	08004165 	.word	0x08004165
 8004108:	0800413b 	.word	0x0800413b
 800410c:	08004165 	.word	0x08004165
 8004110:	08004165 	.word	0x08004165
 8004114:	08004165 	.word	0x08004165
 8004118:	08004149 	.word	0x08004149
 800411c:	08004165 	.word	0x08004165
 8004120:	08004165 	.word	0x08004165
 8004124:	08004165 	.word	0x08004165
 8004128:	08004157 	.word	0x08004157
 800412c:	68fb      	ldr	r3, [r7, #12]
 800412e:	681b      	ldr	r3, [r3, #0]
 8004130:	68b9      	ldr	r1, [r7, #8]
 8004132:	4618      	mov	r0, r3
 8004134:	f000 fa16 	bl	8004564 <TIM_OC1_SetConfig>
 8004138:	e015      	b.n	8004166 <HAL_TIM_OC_ConfigChannel+0x9e>
 800413a:	68fb      	ldr	r3, [r7, #12]
 800413c:	681b      	ldr	r3, [r3, #0]
 800413e:	68b9      	ldr	r1, [r7, #8]
 8004140:	4618      	mov	r0, r3
 8004142:	f000 fa75 	bl	8004630 <TIM_OC2_SetConfig>
 8004146:	e00e      	b.n	8004166 <HAL_TIM_OC_ConfigChannel+0x9e>
 8004148:	68fb      	ldr	r3, [r7, #12]
 800414a:	681b      	ldr	r3, [r3, #0]
 800414c:	68b9      	ldr	r1, [r7, #8]
 800414e:	4618      	mov	r0, r3
 8004150:	f000 fad8 	bl	8004704 <TIM_OC3_SetConfig>
 8004154:	e007      	b.n	8004166 <HAL_TIM_OC_ConfigChannel+0x9e>
 8004156:	68fb      	ldr	r3, [r7, #12]
 8004158:	681b      	ldr	r3, [r3, #0]
 800415a:	68b9      	ldr	r1, [r7, #8]
 800415c:	4618      	mov	r0, r3
 800415e:	f000 fb3b 	bl	80047d8 <TIM_OC4_SetConfig>
 8004162:	e000      	b.n	8004166 <HAL_TIM_OC_ConfigChannel+0x9e>
 8004164:	bf00      	nop
 8004166:	68fb      	ldr	r3, [r7, #12]
 8004168:	2200      	movs	r2, #0
 800416a:	f883 203c 	strb.w	r2, [r3, #60]	; 0x3c
 800416e:	2300      	movs	r3, #0
 8004170:	4618      	mov	r0, r3
 8004172:	3710      	adds	r7, #16
 8004174:	46bd      	mov	sp, r7
 8004176:	bd80      	pop	{r7, pc}

08004178 <HAL_TIM_PWM_ConfigChannel>:
 8004178:	b580      	push	{r7, lr}
 800417a:	b084      	sub	sp, #16
 800417c:	af00      	add	r7, sp, #0
 800417e:	60f8      	str	r0, [r7, #12]
 8004180:	60b9      	str	r1, [r7, #8]
 8004182:	607a      	str	r2, [r7, #4]
 8004184:	68fb      	ldr	r3, [r7, #12]
 8004186:	f893 303c 	ldrb.w	r3, [r3, #60]	; 0x3c
 800418a:	2b01      	cmp	r3, #1
 800418c:	d101      	bne.n	8004192 <HAL_TIM_PWM_ConfigChannel+0x1a>
 800418e:	2302      	movs	r3, #2
 8004190:	e0ac      	b.n	80042ec <HAL_TIM_PWM_ConfigChannel+0x174>
 8004192:	68fb      	ldr	r3, [r7, #12]
 8004194:	2201      	movs	r2, #1
 8004196:	f883 203c 	strb.w	r2, [r3, #60]	; 0x3c
 800419a:	687b      	ldr	r3, [r7, #4]
 800419c:	2b0c      	cmp	r3, #12
 800419e:	f200 809f 	bhi.w	80042e0 <HAL_TIM_PWM_ConfigChannel+0x168>
 80041a2:	a201      	add	r2, pc, #4	; (adr r2, 80041a8 <HAL_TIM_PWM_ConfigChannel+0x30>)
 80041a4:	f852 f023 	ldr.w	pc, [r2, r3, lsl #2]
 80041a8:	080041dd 	.word	0x080041dd
 80041ac:	080042e1 	.word	0x080042e1
 80041b0:	080042e1 	.word	0x080042e1
 80041b4:	080042e1 	.word	0x080042e1
 80041b8:	0800421d 	.word	0x0800421d
 80041bc:	080042e1 	.word	0x080042e1
 80041c0:	080042e1 	.word	0x080042e1
 80041c4:	080042e1 	.word	0x080042e1
 80041c8:	0800425f 	.word	0x0800425f
 80041cc:	080042e1 	.word	0x080042e1
 80041d0:	080042e1 	.word	0x080042e1
 80041d4:	080042e1 	.word	0x080042e1
 80041d8:	0800429f 	.word	0x0800429f
 80041dc:	68fb      	ldr	r3, [r7, #12]
 80041de:	681b      	ldr	r3, [r3, #0]
 80041e0:	68b9      	ldr	r1, [r7, #8]
 80041e2:	4618      	mov	r0, r3
 80041e4:	f000 f9be 	bl	8004564 <TIM_OC1_SetConfig>
 80041e8:	68fb      	ldr	r3, [r7, #12]
 80041ea:	681b      	ldr	r3, [r3, #0]
 80041ec:	699a      	ldr	r2, [r3, #24]
 80041ee:	68fb      	ldr	r3, [r7, #12]
 80041f0:	681b      	ldr	r3, [r3, #0]
 80041f2:	f042 0208 	orr.w	r2, r2, #8
 80041f6:	619a      	str	r2, [r3, #24]
 80041f8:	68fb      	ldr	r3, [r7, #12]
 80041fa:	681b      	ldr	r3, [r3, #0]
 80041fc:	699a      	ldr	r2, [r3, #24]
 80041fe:	68fb      	ldr	r3, [r7, #12]
 8004200:	681b      	ldr	r3, [r3, #0]
 8004202:	f022 0204 	bic.w	r2, r2, #4
 8004206:	619a      	str	r2, [r3, #24]
 8004208:	68fb      	ldr	r3, [r7, #12]
 800420a:	681b      	ldr	r3, [r3, #0]
 800420c:	6999      	ldr	r1, [r3, #24]
 800420e:	68bb      	ldr	r3, [r7, #8]
 8004210:	691a      	ldr	r2, [r3, #16]
 8004212:	68fb      	ldr	r3, [r7, #12]
 8004214:	681b      	ldr	r3, [r3, #0]
 8004216:	430a      	orrs	r2, r1
 8004218:	619a      	str	r2, [r3, #24]
 800421a:	e062      	b.n	80042e2 <HAL_TIM_PWM_ConfigChannel+0x16a>
 800421c:	68fb      	ldr	r3, [r7, #12]
 800421e:	681b      	ldr	r3, [r3, #0]
 8004220:	68b9      	ldr	r1, [r7, #8]
 8004222:	4618      	mov	r0, r3
 8004224:	f000 fa04 	bl	8004630 <TIM_OC2_SetConfig>
 8004228:	68fb      	ldr	r3, [r7, #12]
 800422a:	681b      	ldr	r3, [r3, #0]
 800422c:	699a      	ldr	r2, [r3, #24]
 800422e:	68fb      	ldr	r3, [r7, #12]
 8004230:	681b      	ldr	r3, [r3, #0]
 8004232:	f442 6200 	orr.w	r2, r2, #2048	; 0x800
 8004236:	619a      	str	r2, [r3, #24]
 8004238:	68fb      	ldr	r3, [r7, #12]
 800423a:	681b      	ldr	r3, [r3, #0]
 800423c:	699a      	ldr	r2, [r3, #24]
 800423e:	68fb      	ldr	r3, [r7, #12]
 8004240:	681b      	ldr	r3, [r3, #0]
 8004242:	f422 6280 	bic.w	r2, r2, #1024	; 0x400
 8004246:	619a      	str	r2, [r3, #24]
 8004248:	68fb      	ldr	r3, [r7, #12]
 800424a:	681b      	ldr	r3, [r3, #0]
 800424c:	6999      	ldr	r1, [r3, #24]
 800424e:	68bb      	ldr	r3, [r7, #8]
 8004250:	691b      	ldr	r3, [r3, #16]
 8004252:	021a      	lsls	r2, r3, #8
 8004254:	68fb      	ldr	r3, [r7, #12]
 8004256:	681b      	ldr	r3, [r3, #0]
 8004258:	430a      	orrs	r2, r1
 800425a:	619a      	str	r2, [r3, #24]
 800425c:	e041      	b.n	80042e2 <HAL_TIM_PWM_ConfigChannel+0x16a>
 800425e:	68fb      	ldr	r3, [r7, #12]
 8004260:	681b      	ldr	r3, [r3, #0]
 8004262:	68b9      	ldr	r1, [r7, #8]
 8004264:	4618      	mov	r0, r3
 8004266:	f000 fa4d 	bl	8004704 <TIM_OC3_SetConfig>
 800426a:	68fb      	ldr	r3, [r7, #12]
 800426c:	681b      	ldr	r3, [r3, #0]
 800426e:	69da      	ldr	r2, [r3, #28]
 8004270:	68fb      	ldr	r3, [r7, #12]
 8004272:	681b      	ldr	r3, [r3, #0]
 8004274:	f042 0208 	orr.w	r2, r2, #8
 8004278:	61da      	str	r2, [r3, #28]
 800427a:	68fb      	ldr	r3, [r7, #12]
 800427c:	681b      	ldr	r3, [r3, #0]
 800427e:	69da      	ldr	r2, [r3, #28]
 8004280:	68fb      	ldr	r3, [r7, #12]
 8004282:	681b      	ldr	r3, [r3, #0]
 8004284:	f022 0204 	bic.w	r2, r2, #4
 8004288:	61da      	str	r2, [r3, #28]
 800428a:	68fb      	ldr	r3, [r7, #12]
 800428c:	681b      	ldr	r3, [r3, #0]
 800428e:	69d9      	ldr	r1, [r3, #28]
 8004290:	68bb      	ldr	r3, [r7, #8]
 8004292:	691a      	ldr	r2, [r3, #16]
 8004294:	68fb      	ldr	r3, [r7, #12]
 8004296:	681b      	ldr	r3, [r3, #0]
 8004298:	430a      	orrs	r2, r1
 800429a:	61da      	str	r2, [r3, #28]
 800429c:	e021      	b.n	80042e2 <HAL_TIM_PWM_ConfigChannel+0x16a>
 800429e:	68fb      	ldr	r3, [r7, #12]
 80042a0:	681b      	ldr	r3, [r3, #0]
 80042a2:	68b9      	ldr	r1, [r7, #8]
 80042a4:	4618      	mov	r0, r3
 80042a6:	f000 fa97 	bl	80047d8 <TIM_OC4_SetConfig>
 80042aa:	68fb      	ldr	r3, [r7, #12]
 80042ac:	681b      	ldr	r3, [r3, #0]
 80042ae:	69da      	ldr	r2, [r3, #28]
 80042b0:	68fb      	ldr	r3, [r7, #12]
 80042b2:	681b      	ldr	r3, [r3, #0]
 80042b4:	f442 6200 	orr.w	r2, r2, #2048	; 0x800
 80042b8:	61da      	str	r2, [r3, #28]
 80042ba:	68fb      	ldr	r3, [r7, #12]
 80042bc:	681b      	ldr	r3, [r3, #0]
 80042be:	69da      	ldr	r2, [r3, #28]
 80042c0:	68fb      	ldr	r3, [r7, #12]
 80042c2:	681b      	ldr	r3, [r3, #0]
 80042c4:	f422 6280 	bic.w	r2, r2, #1024	; 0x400
 80042c8:	61da      	str	r2, [r3, #28]
 80042ca:	68fb      	ldr	r3, [r7, #12]
 80042cc:	681b      	ldr	r3, [r3, #0]
 80042ce:	69d9      	ldr	r1, [r3, #28]
 80042d0:	68bb      	ldr	r3, [r7, #8]
 80042d2:	691b      	ldr	r3, [r3, #16]
 80042d4:	021a      	lsls	r2, r3, #8
 80042d6:	68fb      	ldr	r3, [r7, #12]
 80042d8:	681b      	ldr	r3, [r3, #0]
 80042da:	430a      	orrs	r2, r1
 80042dc:	61da      	str	r2, [r3, #28]
 80042de:	e000      	b.n	80042e2 <HAL_TIM_PWM_ConfigChannel+0x16a>
 80042e0:	bf00      	nop
 80042e2:	68fb      	ldr	r3, [r7, #12]
 80042e4:	2200      	movs	r2, #0
 80042e6:	f883 203c 	strb.w	r2, [r3, #60]	; 0x3c
 80042ea:	2300      	movs	r3, #0
 80042ec:	4618      	mov	r0, r3
 80042ee:	3710      	adds	r7, #16
 80042f0:	46bd      	mov	sp, r7
 80042f2:	bd80      	pop	{r7, pc}

080042f4 <HAL_TIM_ConfigClockSource>:
 80042f4:	b580      	push	{r7, lr}
 80042f6:	b084      	sub	sp, #16
 80042f8:	af00      	add	r7, sp, #0
 80042fa:	6078      	str	r0, [r7, #4]
 80042fc:	6039      	str	r1, [r7, #0]
 80042fe:	687b      	ldr	r3, [r7, #4]
 8004300:	f893 303c 	ldrb.w	r3, [r3, #60]	; 0x3c
 8004304:	2b01      	cmp	r3, #1
 8004306:	d101      	bne.n	800430c <HAL_TIM_ConfigClockSource+0x18>
 8004308:	2302      	movs	r3, #2
 800430a:	e0b3      	b.n	8004474 <HAL_TIM_ConfigClockSource+0x180>
 800430c:	687b      	ldr	r3, [r7, #4]
 800430e:	2201      	movs	r2, #1
 8004310:	f883 203c 	strb.w	r2, [r3, #60]	; 0x3c
 8004314:	687b      	ldr	r3, [r7, #4]
 8004316:	2202      	movs	r2, #2
 8004318:	f883 203d 	strb.w	r2, [r3, #61]	; 0x3d
 800431c:	687b      	ldr	r3, [r7, #4]
 800431e:	681b      	ldr	r3, [r3, #0]
 8004320:	689b      	ldr	r3, [r3, #8]
 8004322:	60fb      	str	r3, [r7, #12]
 8004324:	68fb      	ldr	r3, [r7, #12]
 8004326:	f023 0377 	bic.w	r3, r3, #119	; 0x77
 800432a:	60fb      	str	r3, [r7, #12]
 800432c:	68fb      	ldr	r3, [r7, #12]
 800432e:	f423 437f 	bic.w	r3, r3, #65280	; 0xff00
 8004332:	60fb      	str	r3, [r7, #12]
 8004334:	687b      	ldr	r3, [r7, #4]
 8004336:	681b      	ldr	r3, [r3, #0]
 8004338:	68fa      	ldr	r2, [r7, #12]
 800433a:	609a      	str	r2, [r3, #8]
 800433c:	683b      	ldr	r3, [r7, #0]
 800433e:	681b      	ldr	r3, [r3, #0]
 8004340:	f5b3 5f00 	cmp.w	r3, #8192	; 0x2000
 8004344:	d03e      	beq.n	80043c4 <HAL_TIM_ConfigClockSource+0xd0>
 8004346:	f5b3 5f00 	cmp.w	r3, #8192	; 0x2000
 800434a:	f200 8087 	bhi.w	800445c <HAL_TIM_ConfigClockSource+0x168>
 800434e:	f5b3 5f80 	cmp.w	r3, #4096	; 0x1000
 8004352:	f000 8085 	beq.w	8004460 <HAL_TIM_ConfigClockSource+0x16c>
 8004356:	f5b3 5f80 	cmp.w	r3, #4096	; 0x1000
 800435a:	d87f      	bhi.n	800445c <HAL_TIM_ConfigClockSource+0x168>
 800435c:	2b70      	cmp	r3, #112	; 0x70
 800435e:	d01a      	beq.n	8004396 <HAL_TIM_ConfigClockSource+0xa2>
 8004360:	2b70      	cmp	r3, #112	; 0x70
 8004362:	d87b      	bhi.n	800445c <HAL_TIM_ConfigClockSource+0x168>
 8004364:	2b60      	cmp	r3, #96	; 0x60
 8004366:	d050      	beq.n	800440a <HAL_TIM_ConfigClockSource+0x116>
 8004368:	2b60      	cmp	r3, #96	; 0x60
 800436a:	d877      	bhi.n	800445c <HAL_TIM_ConfigClockSource+0x168>
 800436c:	2b50      	cmp	r3, #80	; 0x50
 800436e:	d03c      	beq.n	80043ea <HAL_TIM_ConfigClockSource+0xf6>
 8004370:	2b50      	cmp	r3, #80	; 0x50
 8004372:	d873      	bhi.n	800445c <HAL_TIM_ConfigClockSource+0x168>
 8004374:	2b40      	cmp	r3, #64	; 0x40
 8004376:	d058      	beq.n	800442a <HAL_TIM_ConfigClockSource+0x136>
 8004378:	2b40      	cmp	r3, #64	; 0x40
 800437a:	d86f      	bhi.n	800445c <HAL_TIM_ConfigClockSource+0x168>
 800437c:	2b30      	cmp	r3, #48	; 0x30
 800437e:	d064      	beq.n	800444a <HAL_TIM_ConfigClockSource+0x156>
 8004380:	2b30      	cmp	r3, #48	; 0x30
 8004382:	d86b      	bhi.n	800445c <HAL_TIM_ConfigClockSource+0x168>
 8004384:	2b20      	cmp	r3, #32
 8004386:	d060      	beq.n	800444a <HAL_TIM_ConfigClockSource+0x156>
 8004388:	2b20      	cmp	r3, #32
 800438a:	d867      	bhi.n	800445c <HAL_TIM_ConfigClockSource+0x168>
 800438c:	2b00      	cmp	r3, #0
 800438e:	d05c      	beq.n	800444a <HAL_TIM_ConfigClockSource+0x156>
 8004390:	2b10      	cmp	r3, #16
 8004392:	d05a      	beq.n	800444a <HAL_TIM_ConfigClockSource+0x156>
 8004394:	e062      	b.n	800445c <HAL_TIM_ConfigClockSource+0x168>
 8004396:	687b      	ldr	r3, [r7, #4]
 8004398:	6818      	ldr	r0, [r3, #0]
 800439a:	683b      	ldr	r3, [r7, #0]
 800439c:	6899      	ldr	r1, [r3, #8]
 800439e:	683b      	ldr	r3, [r7, #0]
 80043a0:	685a      	ldr	r2, [r3, #4]
 80043a2:	683b      	ldr	r3, [r7, #0]
 80043a4:	68db      	ldr	r3, [r3, #12]
 80043a6:	f000 fadc 	bl	8004962 <TIM_ETR_SetConfig>
 80043aa:	687b      	ldr	r3, [r7, #4]
 80043ac:	681b      	ldr	r3, [r3, #0]
 80043ae:	689b      	ldr	r3, [r3, #8]
 80043b0:	60fb      	str	r3, [r7, #12]
 80043b2:	68fb      	ldr	r3, [r7, #12]
 80043b4:	f043 0377 	orr.w	r3, r3, #119	; 0x77
 80043b8:	60fb      	str	r3, [r7, #12]
 80043ba:	687b      	ldr	r3, [r7, #4]
 80043bc:	681b      	ldr	r3, [r3, #0]
 80043be:	68fa      	ldr	r2, [r7, #12]
 80043c0:	609a      	str	r2, [r3, #8]
 80043c2:	e04e      	b.n	8004462 <HAL_TIM_ConfigClockSource+0x16e>
 80043c4:	687b      	ldr	r3, [r7, #4]
 80043c6:	6818      	ldr	r0, [r3, #0]
 80043c8:	683b      	ldr	r3, [r7, #0]
 80043ca:	6899      	ldr	r1, [r3, #8]
 80043cc:	683b      	ldr	r3, [r7, #0]
 80043ce:	685a      	ldr	r2, [r3, #4]
 80043d0:	683b      	ldr	r3, [r7, #0]
 80043d2:	68db      	ldr	r3, [r3, #12]
 80043d4:	f000 fac5 	bl	8004962 <TIM_ETR_SetConfig>
 80043d8:	687b      	ldr	r3, [r7, #4]
 80043da:	681b      	ldr	r3, [r3, #0]
 80043dc:	689a      	ldr	r2, [r3, #8]
 80043de:	687b      	ldr	r3, [r7, #4]
 80043e0:	681b      	ldr	r3, [r3, #0]
 80043e2:	f442 4280 	orr.w	r2, r2, #16384	; 0x4000
 80043e6:	609a      	str	r2, [r3, #8]
 80043e8:	e03b      	b.n	8004462 <HAL_TIM_ConfigClockSource+0x16e>
 80043ea:	687b      	ldr	r3, [r7, #4]
 80043ec:	6818      	ldr	r0, [r3, #0]
 80043ee:	683b      	ldr	r3, [r7, #0]
 80043f0:	6859      	ldr	r1, [r3, #4]
 80043f2:	683b      	ldr	r3, [r7, #0]
 80043f4:	68db      	ldr	r3, [r3, #12]
 80043f6:	461a      	mov	r2, r3
 80043f8:	f000 fa3c 	bl	8004874 <TIM_TI1_ConfigInputStage>
 80043fc:	687b      	ldr	r3, [r7, #4]
 80043fe:	681b      	ldr	r3, [r3, #0]
 8004400:	2150      	movs	r1, #80	; 0x50
 8004402:	4618      	mov	r0, r3
 8004404:	f000 fa93 	bl	800492e <TIM_ITRx_SetConfig>
 8004408:	e02b      	b.n	8004462 <HAL_TIM_ConfigClockSource+0x16e>
 800440a:	687b      	ldr	r3, [r7, #4]
 800440c:	6818      	ldr	r0, [r3, #0]
 800440e:	683b      	ldr	r3, [r7, #0]
 8004410:	6859      	ldr	r1, [r3, #4]
 8004412:	683b      	ldr	r3, [r7, #0]
 8004414:	68db      	ldr	r3, [r3, #12]
 8004416:	461a      	mov	r2, r3
 8004418:	f000 fa5a 	bl	80048d0 <TIM_TI2_ConfigInputStage>
 800441c:	687b      	ldr	r3, [r7, #4]
 800441e:	681b      	ldr	r3, [r3, #0]
 8004420:	2160      	movs	r1, #96	; 0x60
 8004422:	4618      	mov	r0, r3
 8004424:	f000 fa83 	bl	800492e <TIM_ITRx_SetConfig>
 8004428:	e01b      	b.n	8004462 <HAL_TIM_ConfigClockSource+0x16e>
 800442a:	687b      	ldr	r3, [r7, #4]
 800442c:	6818      	ldr	r0, [r3, #0]
 800442e:	683b      	ldr	r3, [r7, #0]
 8004430:	6859      	ldr	r1, [r3, #4]
 8004432:	683b      	ldr	r3, [r7, #0]
 8004434:	68db      	ldr	r3, [r3, #12]
 8004436:	461a      	mov	r2, r3
 8004438:	f000 fa1c 	bl	8004874 <TIM_TI1_ConfigInputStage>
 800443c:	687b      	ldr	r3, [r7, #4]
 800443e:	681b      	ldr	r3, [r3, #0]
 8004440:	2140      	movs	r1, #64	; 0x40
 8004442:	4618      	mov	r0, r3
 8004444:	f000 fa73 	bl	800492e <TIM_ITRx_SetConfig>
 8004448:	e00b      	b.n	8004462 <HAL_TIM_ConfigClockSource+0x16e>
 800444a:	687b      	ldr	r3, [r7, #4]
 800444c:	681a      	ldr	r2, [r3, #0]
 800444e:	683b      	ldr	r3, [r7, #0]
 8004450:	681b      	ldr	r3, [r3, #0]
 8004452:	4619      	mov	r1, r3
 8004454:	4610      	mov	r0, r2
 8004456:	f000 fa6a 	bl	800492e <TIM_ITRx_SetConfig>
 800445a:	e002      	b.n	8004462 <HAL_TIM_ConfigClockSource+0x16e>
 800445c:	bf00      	nop
 800445e:	e000      	b.n	8004462 <HAL_TIM_ConfigClockSource+0x16e>
 8004460:	bf00      	nop
 8004462:	687b      	ldr	r3, [r7, #4]
 8004464:	2201      	movs	r2, #1
 8004466:	f883 203d 	strb.w	r2, [r3, #61]	; 0x3d
 800446a:	687b      	ldr	r3, [r7, #4]
 800446c:	2200      	movs	r2, #0
 800446e:	f883 203c 	strb.w	r2, [r3, #60]	; 0x3c
 8004472:	2300      	movs	r3, #0
 8004474:	4618      	mov	r0, r3
 8004476:	3710      	adds	r7, #16
 8004478:	46bd      	mov	sp, r7
 800447a:	bd80      	pop	{r7, pc}

0800447c <HAL_TIM_IC_CaptureCallback>:
 800447c:	b480      	push	{r7}
 800447e:	b083      	sub	sp, #12
 8004480:	af00      	add	r7, sp, #0
 8004482:	6078      	str	r0, [r7, #4]
 8004484:	bf00      	nop
 8004486:	370c      	adds	r7, #12
 8004488:	46bd      	mov	sp, r7
 800448a:	bc80      	pop	{r7}
 800448c:	4770      	bx	lr

0800448e <HAL_TIM_TriggerCallback>:
 800448e:	b480      	push	{r7}
 8004490:	b083      	sub	sp, #12
 8004492:	af00      	add	r7, sp, #0
 8004494:	6078      	str	r0, [r7, #4]
 8004496:	bf00      	nop
 8004498:	370c      	adds	r7, #12
 800449a:	46bd      	mov	sp, r7
 800449c:	bc80      	pop	{r7}
 800449e:	4770      	bx	lr

080044a0 <TIM_Base_SetConfig>:
 80044a0:	b480      	push	{r7}
 80044a2:	b085      	sub	sp, #20
 80044a4:	af00      	add	r7, sp, #0
 80044a6:	6078      	str	r0, [r7, #4]
 80044a8:	6039      	str	r1, [r7, #0]
 80044aa:	687b      	ldr	r3, [r7, #4]
 80044ac:	681b      	ldr	r3, [r3, #0]
 80044ae:	60fb      	str	r3, [r7, #12]
 80044b0:	687b      	ldr	r3, [r7, #4]
 80044b2:	4a29      	ldr	r2, [pc, #164]	; (8004558 <TIM_Base_SetConfig+0xb8>)
 80044b4:	4293      	cmp	r3, r2
 80044b6:	d00b      	beq.n	80044d0 <TIM_Base_SetConfig+0x30>
 80044b8:	687b      	ldr	r3, [r7, #4]
 80044ba:	f1b3 4f80 	cmp.w	r3, #1073741824	; 0x40000000
 80044be:	d007      	beq.n	80044d0 <TIM_Base_SetConfig+0x30>
 80044c0:	687b      	ldr	r3, [r7, #4]
 80044c2:	4a26      	ldr	r2, [pc, #152]	; (800455c <TIM_Base_SetConfig+0xbc>)
 80044c4:	4293      	cmp	r3, r2
 80044c6:	d003      	beq.n	80044d0 <TIM_Base_SetConfig+0x30>
 80044c8:	687b      	ldr	r3, [r7, #4]
 80044ca:	4a25      	ldr	r2, [pc, #148]	; (8004560 <TIM_Base_SetConfig+0xc0>)
 80044cc:	4293      	cmp	r3, r2
 80044ce:	d108      	bne.n	80044e2 <TIM_Base_SetConfig+0x42>
 80044d0:	68fb      	ldr	r3, [r7, #12]
 80044d2:	f023 0370 	bic.w	r3, r3, #112	; 0x70
 80044d6:	60fb      	str	r3, [r7, #12]
 80044d8:	683b      	ldr	r3, [r7, #0]
 80044da:	685b      	ldr	r3, [r3, #4]
 80044dc:	68fa      	ldr	r2, [r7, #12]
 80044de:	4313      	orrs	r3, r2
 80044e0:	60fb      	str	r3, [r7, #12]
 80044e2:	687b      	ldr	r3, [r7, #4]
 80044e4:	4a1c      	ldr	r2, [pc, #112]	; (8004558 <TIM_Base_SetConfig+0xb8>)
 80044e6:	4293      	cmp	r3, r2
 80044e8:	d00b      	beq.n	8004502 <TIM_Base_SetConfig+0x62>
 80044ea:	687b      	ldr	r3, [r7, #4]
 80044ec:	f1b3 4f80 	cmp.w	r3, #1073741824	; 0x40000000
 80044f0:	d007      	beq.n	8004502 <TIM_Base_SetConfig+0x62>
 80044f2:	687b      	ldr	r3, [r7, #4]
 80044f4:	4a19      	ldr	r2, [pc, #100]	; (800455c <TIM_Base_SetConfig+0xbc>)
 80044f6:	4293      	cmp	r3, r2
 80044f8:	d003      	beq.n	8004502 <TIM_Base_SetConfig+0x62>
 80044fa:	687b      	ldr	r3, [r7, #4]
 80044fc:	4a18      	ldr	r2, [pc, #96]	; (8004560 <TIM_Base_SetConfig+0xc0>)
 80044fe:	4293      	cmp	r3, r2
 8004500:	d108      	bne.n	8004514 <TIM_Base_SetConfig+0x74>
 8004502:	68fb      	ldr	r3, [r7, #12]
 8004504:	f423 7340 	bic.w	r3, r3, #768	; 0x300
 8004508:	60fb      	str	r3, [r7, #12]
 800450a:	683b      	ldr	r3, [r7, #0]
 800450c:	68db      	ldr	r3, [r3, #12]
 800450e:	68fa      	ldr	r2, [r7, #12]
 8004510:	4313      	orrs	r3, r2
 8004512:	60fb      	str	r3, [r7, #12]
 8004514:	68fb      	ldr	r3, [r7, #12]
 8004516:	f023 0280 	bic.w	r2, r3, #128	; 0x80
 800451a:	683b      	ldr	r3, [r7, #0]
 800451c:	695b      	ldr	r3, [r3, #20]
 800451e:	4313      	orrs	r3, r2
 8004520:	60fb      	str	r3, [r7, #12]
 8004522:	687b      	ldr	r3, [r7, #4]
 8004524:	68fa      	ldr	r2, [r7, #12]
 8004526:	601a      	str	r2, [r3, #0]
 8004528:	683b      	ldr	r3, [r7, #0]
 800452a:	689a      	ldr	r2, [r3, #8]
 800452c:	687b      	ldr	r3, [r7, #4]
 800452e:	62da      	str	r2, [r3, #44]	; 0x2c
 8004530:	683b      	ldr	r3, [r7, #0]
 8004532:	681a      	ldr	r2, [r3, #0]
 8004534:	687b      	ldr	r3, [r7, #4]
 8004536:	629a      	str	r2, [r3, #40]	; 0x28
 8004538:	687b      	ldr	r3, [r7, #4]
 800453a:	4a07      	ldr	r2, [pc, #28]	; (8004558 <TIM_Base_SetConfig+0xb8>)
 800453c:	4293      	cmp	r3, r2
 800453e:	d103      	bne.n	8004548 <TIM_Base_SetConfig+0xa8>
 8004540:	683b      	ldr	r3, [r7, #0]
 8004542:	691a      	ldr	r2, [r3, #16]
 8004544:	687b      	ldr	r3, [r7, #4]
 8004546:	631a      	str	r2, [r3, #48]	; 0x30
 8004548:	687b      	ldr	r3, [r7, #4]
 800454a:	2201      	movs	r2, #1
 800454c:	615a      	str	r2, [r3, #20]
 800454e:	bf00      	nop
 8004550:	3714      	adds	r7, #20
 8004552:	46bd      	mov	sp, r7
 8004554:	bc80      	pop	{r7}
 8004556:	4770      	bx	lr
 8004558:	40012c00 	.word	0x40012c00
 800455c:	40000400 	.word	0x40000400
 8004560:	40000800 	.word	0x40000800

08004564 <TIM_OC1_SetConfig>:
 8004564:	b480      	push	{r7}
 8004566:	b087      	sub	sp, #28
 8004568:	af00      	add	r7, sp, #0
 800456a:	6078      	str	r0, [r7, #4]
 800456c:	6039      	str	r1, [r7, #0]
 800456e:	687b      	ldr	r3, [r7, #4]
 8004570:	6a1b      	ldr	r3, [r3, #32]
 8004572:	f023 0201 	bic.w	r2, r3, #1
 8004576:	687b      	ldr	r3, [r7, #4]
 8004578:	621a      	str	r2, [r3, #32]
 800457a:	687b      	ldr	r3, [r7, #4]
 800457c:	6a1b      	ldr	r3, [r3, #32]
 800457e:	617b      	str	r3, [r7, #20]
 8004580:	687b      	ldr	r3, [r7, #4]
 8004582:	685b      	ldr	r3, [r3, #4]
 8004584:	613b      	str	r3, [r7, #16]
 8004586:	687b      	ldr	r3, [r7, #4]
 8004588:	699b      	ldr	r3, [r3, #24]
 800458a:	60fb      	str	r3, [r7, #12]
 800458c:	68fb      	ldr	r3, [r7, #12]
 800458e:	f023 0370 	bic.w	r3, r3, #112	; 0x70
 8004592:	60fb      	str	r3, [r7, #12]
 8004594:	68fb      	ldr	r3, [r7, #12]
 8004596:	f023 0303 	bic.w	r3, r3, #3
 800459a:	60fb      	str	r3, [r7, #12]
 800459c:	683b      	ldr	r3, [r7, #0]
 800459e:	681b      	ldr	r3, [r3, #0]
 80045a0:	68fa      	ldr	r2, [r7, #12]
 80045a2:	4313      	orrs	r3, r2
 80045a4:	60fb      	str	r3, [r7, #12]
 80045a6:	697b      	ldr	r3, [r7, #20]
 80045a8:	f023 0302 	bic.w	r3, r3, #2
 80045ac:	617b      	str	r3, [r7, #20]
 80045ae:	683b      	ldr	r3, [r7, #0]
 80045b0:	689b      	ldr	r3, [r3, #8]
 80045b2:	697a      	ldr	r2, [r7, #20]
 80045b4:	4313      	orrs	r3, r2
 80045b6:	617b      	str	r3, [r7, #20]
 80045b8:	687b      	ldr	r3, [r7, #4]
 80045ba:	4a1c      	ldr	r2, [pc, #112]	; (800462c <TIM_OC1_SetConfig+0xc8>)
 80045bc:	4293      	cmp	r3, r2
 80045be:	d10c      	bne.n	80045da <TIM_OC1_SetConfig+0x76>
 80045c0:	697b      	ldr	r3, [r7, #20]
 80045c2:	f023 0308 	bic.w	r3, r3, #8
 80045c6:	617b      	str	r3, [r7, #20]
 80045c8:	683b      	ldr	r3, [r7, #0]
 80045ca:	68db      	ldr	r3, [r3, #12]
 80045cc:	697a      	ldr	r2, [r7, #20]
 80045ce:	4313      	orrs	r3, r2
 80045d0:	617b      	str	r3, [r7, #20]
 80045d2:	697b      	ldr	r3, [r7, #20]
 80045d4:	f023 0304 	bic.w	r3, r3, #4
 80045d8:	617b      	str	r3, [r7, #20]
 80045da:	687b      	ldr	r3, [r7, #4]
 80045dc:	4a13      	ldr	r2, [pc, #76]	; (800462c <TIM_OC1_SetConfig+0xc8>)
 80045de:	4293      	cmp	r3, r2
 80045e0:	d111      	bne.n	8004606 <TIM_OC1_SetConfig+0xa2>
 80045e2:	693b      	ldr	r3, [r7, #16]
 80045e4:	f423 7380 	bic.w	r3, r3, #256	; 0x100
 80045e8:	613b      	str	r3, [r7, #16]
 80045ea:	693b      	ldr	r3, [r7, #16]
 80045ec:	f423 7300 	bic.w	r3, r3, #512	; 0x200
 80045f0:	613b      	str	r3, [r7, #16]
 80045f2:	683b      	ldr	r3, [r7, #0]
 80045f4:	695b      	ldr	r3, [r3, #20]
 80045f6:	693a      	ldr	r2, [r7, #16]
 80045f8:	4313      	orrs	r3, r2
 80045fa:	613b      	str	r3, [r7, #16]
 80045fc:	683b      	ldr	r3, [r7, #0]
 80045fe:	699b      	ldr	r3, [r3, #24]
 8004600:	693a      	ldr	r2, [r7, #16]
 8004602:	4313      	orrs	r3, r2
 8004604:	613b      	str	r3, [r7, #16]
 8004606:	687b      	ldr	r3, [r7, #4]
 8004608:	693a      	ldr	r2, [r7, #16]
 800460a:	605a      	str	r2, [r3, #4]
 800460c:	687b      	ldr	r3, [r7, #4]
 800460e:	68fa      	ldr	r2, [r7, #12]
 8004610:	619a      	str	r2, [r3, #24]
 8004612:	683b      	ldr	r3, [r7, #0]
 8004614:	685a      	ldr	r2, [r3, #4]
 8004616:	687b      	ldr	r3, [r7, #4]
 8004618:	635a      	str	r2, [r3, #52]	; 0x34
 800461a:	687b      	ldr	r3, [r7, #4]
 800461c:	697a      	ldr	r2, [r7, #20]
 800461e:	621a      	str	r2, [r3, #32]
 8004620:	bf00      	nop
 8004622:	371c      	adds	r7, #28
 8004624:	46bd      	mov	sp, r7
 8004626:	bc80      	pop	{r7}
 8004628:	4770      	bx	lr
 800462a:	bf00      	nop
 800462c:	40012c00 	.word	0x40012c00

08004630 <TIM_OC2_SetConfig>:
 8004630:	b480      	push	{r7}
 8004632:	b087      	sub	sp, #28
 8004634:	af00      	add	r7, sp, #0
 8004636:	6078      	str	r0, [r7, #4]
 8004638:	6039      	str	r1, [r7, #0]
 800463a:	687b      	ldr	r3, [r7, #4]
 800463c:	6a1b      	ldr	r3, [r3, #32]
 800463e:	f023 0210 	bic.w	r2, r3, #16
 8004642:	687b      	ldr	r3, [r7, #4]
 8004644:	621a      	str	r2, [r3, #32]
 8004646:	687b      	ldr	r3, [r7, #4]
 8004648:	6a1b      	ldr	r3, [r3, #32]
 800464a:	617b      	str	r3, [r7, #20]
 800464c:	687b      	ldr	r3, [r7, #4]
 800464e:	685b      	ldr	r3, [r3, #4]
 8004650:	613b      	str	r3, [r7, #16]
 8004652:	687b      	ldr	r3, [r7, #4]
 8004654:	699b      	ldr	r3, [r3, #24]
 8004656:	60fb      	str	r3, [r7, #12]
 8004658:	68fb      	ldr	r3, [r7, #12]
 800465a:	f423 43e0 	bic.w	r3, r3, #28672	; 0x7000
 800465e:	60fb      	str	r3, [r7, #12]
 8004660:	68fb      	ldr	r3, [r7, #12]
 8004662:	f423 7340 	bic.w	r3, r3, #768	; 0x300
 8004666:	60fb      	str	r3, [r7, #12]
 8004668:	683b      	ldr	r3, [r7, #0]
 800466a:	681b      	ldr	r3, [r3, #0]
 800466c:	021b      	lsls	r3, r3, #8
 800466e:	68fa      	ldr	r2, [r7, #12]
 8004670:	4313      	orrs	r3, r2
 8004672:	60fb      	str	r3, [r7, #12]
 8004674:	697b      	ldr	r3, [r7, #20]
 8004676:	f023 0320 	bic.w	r3, r3, #32
 800467a:	617b      	str	r3, [r7, #20]
 800467c:	683b      	ldr	r3, [r7, #0]
 800467e:	689b      	ldr	r3, [r3, #8]
 8004680:	011b      	lsls	r3, r3, #4
 8004682:	697a      	ldr	r2, [r7, #20]
 8004684:	4313      	orrs	r3, r2
 8004686:	617b      	str	r3, [r7, #20]
 8004688:	687b      	ldr	r3, [r7, #4]
 800468a:	4a1d      	ldr	r2, [pc, #116]	; (8004700 <TIM_OC2_SetConfig+0xd0>)
 800468c:	4293      	cmp	r3, r2
 800468e:	d10d      	bne.n	80046ac <TIM_OC2_SetConfig+0x7c>
 8004690:	697b      	ldr	r3, [r7, #20]
 8004692:	f023 0380 	bic.w	r3, r3, #128	; 0x80
 8004696:	617b      	str	r3, [r7, #20]
 8004698:	683b      	ldr	r3, [r7, #0]
 800469a:	68db      	ldr	r3, [r3, #12]
 800469c:	011b      	lsls	r3, r3, #4
 800469e:	697a      	ldr	r2, [r7, #20]
 80046a0:	4313      	orrs	r3, r2
 80046a2:	617b      	str	r3, [r7, #20]
 80046a4:	697b      	ldr	r3, [r7, #20]
 80046a6:	f023 0340 	bic.w	r3, r3, #64	; 0x40
 80046aa:	617b      	str	r3, [r7, #20]
 80046ac:	687b      	ldr	r3, [r7, #4]
 80046ae:	4a14      	ldr	r2, [pc, #80]	; (8004700 <TIM_OC2_SetConfig+0xd0>)
 80046b0:	4293      	cmp	r3, r2
 80046b2:	d113      	bne.n	80046dc <TIM_OC2_SetConfig+0xac>
 80046b4:	693b      	ldr	r3, [r7, #16]
 80046b6:	f423 6380 	bic.w	r3, r3, #1024	; 0x400
 80046ba:	613b      	str	r3, [r7, #16]
 80046bc:	693b      	ldr	r3, [r7, #16]
 80046be:	f423 6300 	bic.w	r3, r3, #2048	; 0x800
 80046c2:	613b      	str	r3, [r7, #16]
 80046c4:	683b      	ldr	r3, [r7, #0]
 80046c6:	695b      	ldr	r3, [r3, #20]
 80046c8:	009b      	lsls	r3, r3, #2
 80046ca:	693a      	ldr	r2, [r7, #16]
 80046cc:	4313      	orrs	r3, r2
 80046ce:	613b      	str	r3, [r7, #16]
 80046d0:	683b      	ldr	r3, [r7, #0]
 80046d2:	699b      	ldr	r3, [r3, #24]
 80046d4:	009b      	lsls	r3, r3, #2
 80046d6:	693a      	ldr	r2, [r7, #16]
 80046d8:	4313      	orrs	r3, r2
 80046da:	613b      	str	r3, [r7, #16]
 80046dc:	687b      	ldr	r3, [r7, #4]
 80046de:	693a      	ldr	r2, [r7, #16]
 80046e0:	605a      	str	r2, [r3, #4]
 80046e2:	687b      	ldr	r3, [r7, #4]
 80046e4:	68fa      	ldr	r2, [r7, #12]
 80046e6:	619a      	str	r2, [r3, #24]
 80046e8:	683b      	ldr	r3, [r7, #0]
 80046ea:	685a      	ldr	r2, [r3, #4]
 80046ec:	687b      	ldr	r3, [r7, #4]
 80046ee:	639a      	str	r2, [r3, #56]	; 0x38
 80046f0:	687b      	ldr	r3, [r7, #4]
 80046f2:	697a      	ldr	r2, [r7, #20]
 80046f4:	621a      	str	r2, [r3, #32]
 80046f6:	bf00      	nop
 80046f8:	371c      	adds	r7, #28
 80046fa:	46bd      	mov	sp, r7
 80046fc:	bc80      	pop	{r7}
 80046fe:	4770      	bx	lr
 8004700:	40012c00 	.word	0x40012c00

08004704 <TIM_OC3_SetConfig>:
 8004704:	b480      	push	{r7}
 8004706:	b087      	sub	sp, #28
 8004708:	af00      	add	r7, sp, #0
 800470a:	6078      	str	r0, [r7, #4]
 800470c:	6039      	str	r1, [r7, #0]
 800470e:	687b      	ldr	r3, [r7, #4]
 8004710:	6a1b      	ldr	r3, [r3, #32]
 8004712:	f423 7280 	bic.w	r2, r3, #256	; 0x100
 8004716:	687b      	ldr	r3, [r7, #4]
 8004718:	621a      	str	r2, [r3, #32]
 800471a:	687b      	ldr	r3, [r7, #4]
 800471c:	6a1b      	ldr	r3, [r3, #32]
 800471e:	617b      	str	r3, [r7, #20]
 8004720:	687b      	ldr	r3, [r7, #4]
 8004722:	685b      	ldr	r3, [r3, #4]
 8004724:	613b      	str	r3, [r7, #16]
 8004726:	687b      	ldr	r3, [r7, #4]
 8004728:	69db      	ldr	r3, [r3, #28]
 800472a:	60fb      	str	r3, [r7, #12]
 800472c:	68fb      	ldr	r3, [r7, #12]
 800472e:	f023 0370 	bic.w	r3, r3, #112	; 0x70
 8004732:	60fb      	str	r3, [r7, #12]
 8004734:	68fb      	ldr	r3, [r7, #12]
 8004736:	f023 0303 	bic.w	r3, r3, #3
 800473a:	60fb      	str	r3, [r7, #12]
 800473c:	683b      	ldr	r3, [r7, #0]
 800473e:	681b      	ldr	r3, [r3, #0]
 8004740:	68fa      	ldr	r2, [r7, #12]
 8004742:	4313      	orrs	r3, r2
 8004744:	60fb      	str	r3, [r7, #12]
 8004746:	697b      	ldr	r3, [r7, #20]
 8004748:	f423 7300 	bic.w	r3, r3, #512	; 0x200
 800474c:	617b      	str	r3, [r7, #20]
 800474e:	683b      	ldr	r3, [r7, #0]
 8004750:	689b      	ldr	r3, [r3, #8]
 8004752:	021b      	lsls	r3, r3, #8
 8004754:	697a      	ldr	r2, [r7, #20]
 8004756:	4313      	orrs	r3, r2
 8004758:	617b      	str	r3, [r7, #20]
 800475a:	687b      	ldr	r3, [r7, #4]
 800475c:	4a1d      	ldr	r2, [pc, #116]	; (80047d4 <TIM_OC3_SetConfig+0xd0>)
 800475e:	4293      	cmp	r3, r2
 8004760:	d10d      	bne.n	800477e <TIM_OC3_SetConfig+0x7a>
 8004762:	697b      	ldr	r3, [r7, #20]
 8004764:	f423 6300 	bic.w	r3, r3, #2048	; 0x800
 8004768:	617b      	str	r3, [r7, #20]
 800476a:	683b      	ldr	r3, [r7, #0]
 800476c:	68db      	ldr	r3, [r3, #12]
 800476e:	021b      	lsls	r3, r3, #8
 8004770:	697a      	ldr	r2, [r7, #20]
 8004772:	4313      	orrs	r3, r2
 8004774:	617b      	str	r3, [r7, #20]
 8004776:	697b      	ldr	r3, [r7, #20]
 8004778:	f423 6380 	bic.w	r3, r3, #1024	; 0x400
 800477c:	617b      	str	r3, [r7, #20]
 800477e:	687b      	ldr	r3, [r7, #4]
 8004780:	4a14      	ldr	r2, [pc, #80]	; (80047d4 <TIM_OC3_SetConfig+0xd0>)
 8004782:	4293      	cmp	r3, r2
 8004784:	d113      	bne.n	80047ae <TIM_OC3_SetConfig+0xaa>
 8004786:	693b      	ldr	r3, [r7, #16]
 8004788:	f423 5380 	bic.w	r3, r3, #4096	; 0x1000
 800478c:	613b      	str	r3, [r7, #16]
 800478e:	693b      	ldr	r3, [r7, #16]
 8004790:	f423 5300 	bic.w	r3, r3, #8192	; 0x2000
 8004794:	613b      	str	r3, [r7, #16]
 8004796:	683b      	ldr	r3, [r7, #0]
 8004798:	695b      	ldr	r3, [r3, #20]
 800479a:	011b      	lsls	r3, r3, #4
 800479c:	693a      	ldr	r2, [r7, #16]
 800479e:	4313      	orrs	r3, r2
 80047a0:	613b      	str	r3, [r7, #16]
 80047a2:	683b      	ldr	r3, [r7, #0]
 80047a4:	699b      	ldr	r3, [r3, #24]
 80047a6:	011b      	lsls	r3, r3, #4
 80047a8:	693a      	ldr	r2, [r7, #16]
 80047aa:	4313      	orrs	r3, r2
 80047ac:	613b      	str	r3, [r7, #16]
 80047ae:	687b      	ldr	r3, [r7, #4]
 80047b0:	693a      	ldr	r2, [r7, #16]
 80047b2:	605a      	str	r2, [r3, #4]
 80047b4:	687b      	ldr	r3, [r7, #4]
 80047b6:	68fa      	ldr	r2, [r7, #12]
 80047b8:	61da      	str	r2, [r3, #28]
 80047ba:	683b      	ldr	r3, [r7, #0]
 80047bc:	685a      	ldr	r2, [r3, #4]
 80047be:	687b      	ldr	r3, [r7, #4]
 80047c0:	63da      	str	r2, [r3, #60]	; 0x3c
 80047c2:	687b      	ldr	r3, [r7, #4]
 80047c4:	697a      	ldr	r2, [r7, #20]
 80047c6:	621a      	str	r2, [r3, #32]
 80047c8:	bf00      	nop
 80047ca:	371c      	adds	r7, #28
 80047cc:	46bd      	mov	sp, r7
 80047ce:	bc80      	pop	{r7}
 80047d0:	4770      	bx	lr
 80047d2:	bf00      	nop
 80047d4:	40012c00 	.word	0x40012c00

080047d8 <TIM_OC4_SetConfig>:
 80047d8:	b480      	push	{r7}
 80047da:	b087      	sub	sp, #28
 80047dc:	af00      	add	r7, sp, #0
 80047de:	6078      	str	r0, [r7, #4]
 80047e0:	6039      	str	r1, [r7, #0]
 80047e2:	687b      	ldr	r3, [r7, #4]
 80047e4:	6a1b      	ldr	r3, [r3, #32]
 80047e6:	f423 5280 	bic.w	r2, r3, #4096	; 0x1000
 80047ea:	687b      	ldr	r3, [r7, #4]
 80047ec:	621a      	str	r2, [r3, #32]
 80047ee:	687b      	ldr	r3, [r7, #4]
 80047f0:	6a1b      	ldr	r3, [r3, #32]
 80047f2:	613b      	str	r3, [r7, #16]
 80047f4:	687b      	ldr	r3, [r7, #4]
 80047f6:	685b      	ldr	r3, [r3, #4]
 80047f8:	617b      	str	r3, [r7, #20]
 80047fa:	687b      	ldr	r3, [r7, #4]
 80047fc:	69db      	ldr	r3, [r3, #28]
 80047fe:	60fb      	str	r3, [r7, #12]
 8004800:	68fb      	ldr	r3, [r7, #12]
 8004802:	f423 43e0 	bic.w	r3, r3, #28672	; 0x7000
 8004806:	60fb      	str	r3, [r7, #12]
 8004808:	68fb      	ldr	r3, [r7, #12]
 800480a:	f423 7340 	bic.w	r3, r3, #768	; 0x300
 800480e:	60fb      	str	r3, [r7, #12]
 8004810:	683b      	ldr	r3, [r7, #0]
 8004812:	681b      	ldr	r3, [r3, #0]
 8004814:	021b      	lsls	r3, r3, #8
 8004816:	68fa      	ldr	r2, [r7, #12]
 8004818:	4313      	orrs	r3, r2
 800481a:	60fb      	str	r3, [r7, #12]
 800481c:	693b      	ldr	r3, [r7, #16]
 800481e:	f423 5300 	bic.w	r3, r3, #8192	; 0x2000
 8004822:	613b      	str	r3, [r7, #16]
 8004824:	683b      	ldr	r3, [r7, #0]
 8004826:	689b      	ldr	r3, [r3, #8]
 8004828:	031b      	lsls	r3, r3, #12
 800482a:	693a      	ldr	r2, [r7, #16]
 800482c:	4313      	orrs	r3, r2
 800482e:	613b      	str	r3, [r7, #16]
 8004830:	687b      	ldr	r3, [r7, #4]
 8004832:	4a0f      	ldr	r2, [pc, #60]	; (8004870 <TIM_OC4_SetConfig+0x98>)
 8004834:	4293      	cmp	r3, r2
 8004836:	d109      	bne.n	800484c <TIM_OC4_SetConfig+0x74>
 8004838:	697b      	ldr	r3, [r7, #20]
 800483a:	f423 4380 	bic.w	r3, r3, #16384	; 0x4000
 800483e:	617b      	str	r3, [r7, #20]
 8004840:	683b      	ldr	r3, [r7, #0]
 8004842:	695b      	ldr	r3, [r3, #20]
 8004844:	019b      	lsls	r3, r3, #6
 8004846:	697a      	ldr	r2, [r7, #20]
 8004848:	4313      	orrs	r3, r2
 800484a:	617b      	str	r3, [r7, #20]
 800484c:	687b      	ldr	r3, [r7, #4]
 800484e:	697a      	ldr	r2, [r7, #20]
 8004850:	605a      	str	r2, [r3, #4]
 8004852:	687b      	ldr	r3, [r7, #4]
 8004854:	68fa      	ldr	r2, [r7, #12]
 8004856:	61da      	str	r2, [r3, #28]
 8004858:	683b      	ldr	r3, [r7, #0]
 800485a:	685a      	ldr	r2, [r3, #4]
 800485c:	687b      	ldr	r3, [r7, #4]
 800485e:	641a      	str	r2, [r3, #64]	; 0x40
 8004860:	687b      	ldr	r3, [r7, #4]
 8004862:	693a      	ldr	r2, [r7, #16]
 8004864:	621a      	str	r2, [r3, #32]
 8004866:	bf00      	nop
 8004868:	371c      	adds	r7, #28
 800486a:	46bd      	mov	sp, r7
 800486c:	bc80      	pop	{r7}
 800486e:	4770      	bx	lr
 8004870:	40012c00 	.word	0x40012c00

08004874 <TIM_TI1_ConfigInputStage>:
 8004874:	b480      	push	{r7}
 8004876:	b087      	sub	sp, #28
 8004878:	af00      	add	r7, sp, #0
 800487a:	60f8      	str	r0, [r7, #12]
 800487c:	60b9      	str	r1, [r7, #8]
 800487e:	607a      	str	r2, [r7, #4]
 8004880:	68fb      	ldr	r3, [r7, #12]
 8004882:	6a1b      	ldr	r3, [r3, #32]
 8004884:	617b      	str	r3, [r7, #20]
 8004886:	68fb      	ldr	r3, [r7, #12]
 8004888:	6a1b      	ldr	r3, [r3, #32]
 800488a:	f023 0201 	bic.w	r2, r3, #1
 800488e:	68fb      	ldr	r3, [r7, #12]
 8004890:	621a      	str	r2, [r3, #32]
 8004892:	68fb      	ldr	r3, [r7, #12]
 8004894:	699b      	ldr	r3, [r3, #24]
 8004896:	613b      	str	r3, [r7, #16]
 8004898:	693b      	ldr	r3, [r7, #16]
 800489a:	f023 03f0 	bic.w	r3, r3, #240	; 0xf0
 800489e:	613b      	str	r3, [r7, #16]
 80048a0:	687b      	ldr	r3, [r7, #4]
 80048a2:	011b      	lsls	r3, r3, #4
 80048a4:	693a      	ldr	r2, [r7, #16]
 80048a6:	4313      	orrs	r3, r2
 80048a8:	613b      	str	r3, [r7, #16]
 80048aa:	697b      	ldr	r3, [r7, #20]
 80048ac:	f023 030a 	bic.w	r3, r3, #10
 80048b0:	617b      	str	r3, [r7, #20]
 80048b2:	697a      	ldr	r2, [r7, #20]
 80048b4:	68bb      	ldr	r3, [r7, #8]
 80048b6:	4313      	orrs	r3, r2
 80048b8:	617b      	str	r3, [r7, #20]
 80048ba:	68fb      	ldr	r3, [r7, #12]
 80048bc:	693a      	ldr	r2, [r7, #16]
 80048be:	619a      	str	r2, [r3, #24]
 80048c0:	68fb      	ldr	r3, [r7, #12]
 80048c2:	697a      	ldr	r2, [r7, #20]
 80048c4:	621a      	str	r2, [r3, #32]
 80048c6:	bf00      	nop
 80048c8:	371c      	adds	r7, #28
 80048ca:	46bd      	mov	sp, r7
 80048cc:	bc80      	pop	{r7}
 80048ce:	4770      	bx	lr

080048d0 <TIM_TI2_ConfigInputStage>:
 80048d0:	b480      	push	{r7}
 80048d2:	b087      	sub	sp, #28
 80048d4:	af00      	add	r7, sp, #0
 80048d6:	60f8      	str	r0, [r7, #12]
 80048d8:	60b9      	str	r1, [r7, #8]
 80048da:	607a      	str	r2, [r7, #4]
 80048dc:	68fb      	ldr	r3, [r7, #12]
 80048de:	6a1b      	ldr	r3, [r3, #32]
 80048e0:	f023 0210 	bic.w	r2, r3, #16
 80048e4:	68fb      	ldr	r3, [r7, #12]
 80048e6:	621a      	str	r2, [r3, #32]
 80048e8:	68fb      	ldr	r3, [r7, #12]
 80048ea:	699b      	ldr	r3, [r3, #24]
 80048ec:	617b      	str	r3, [r7, #20]
 80048ee:	68fb      	ldr	r3, [r7, #12]
 80048f0:	6a1b      	ldr	r3, [r3, #32]
 80048f2:	613b      	str	r3, [r7, #16]
 80048f4:	697b      	ldr	r3, [r7, #20]
 80048f6:	f423 4370 	bic.w	r3, r3, #61440	; 0xf000
 80048fa:	617b      	str	r3, [r7, #20]
 80048fc:	687b      	ldr	r3, [r7, #4]
 80048fe:	031b      	lsls	r3, r3, #12
 8004900:	697a      	ldr	r2, [r7, #20]
 8004902:	4313      	orrs	r3, r2
 8004904:	617b      	str	r3, [r7, #20]
 8004906:	693b      	ldr	r3, [r7, #16]
 8004908:	f023 03a0 	bic.w	r3, r3, #160	; 0xa0
 800490c:	613b      	str	r3, [r7, #16]
 800490e:	68bb      	ldr	r3, [r7, #8]
 8004910:	011b      	lsls	r3, r3, #4
 8004912:	693a      	ldr	r2, [r7, #16]
 8004914:	4313      	orrs	r3, r2
 8004916:	613b      	str	r3, [r7, #16]
 8004918:	68fb      	ldr	r3, [r7, #12]
 800491a:	697a      	ldr	r2, [r7, #20]
 800491c:	619a      	str	r2, [r3, #24]
 800491e:	68fb      	ldr	r3, [r7, #12]
 8004920:	693a      	ldr	r2, [r7, #16]
 8004922:	621a      	str	r2, [r3, #32]
 8004924:	bf00      	nop
 8004926:	371c      	adds	r7, #28
 8004928:	46bd      	mov	sp, r7
 800492a:	bc80      	pop	{r7}
 800492c:	4770      	bx	lr

0800492e <TIM_ITRx_SetConfig>:
 800492e:	b480      	push	{r7}
 8004930:	b085      	sub	sp, #20
 8004932:	af00      	add	r7, sp, #0
 8004934:	6078      	str	r0, [r7, #4]
 8004936:	6039      	str	r1, [r7, #0]
 8004938:	687b      	ldr	r3, [r7, #4]
 800493a:	689b      	ldr	r3, [r3, #8]
 800493c:	60fb      	str	r3, [r7, #12]
 800493e:	68fb      	ldr	r3, [r7, #12]
 8004940:	f023 0370 	bic.w	r3, r3, #112	; 0x70
 8004944:	60fb      	str	r3, [r7, #12]
 8004946:	683a      	ldr	r2, [r7, #0]
 8004948:	68fb      	ldr	r3, [r7, #12]
 800494a:	4313      	orrs	r3, r2
 800494c:	f043 0307 	orr.w	r3, r3, #7
 8004950:	60fb      	str	r3, [r7, #12]
 8004952:	687b      	ldr	r3, [r7, #4]
 8004954:	68fa      	ldr	r2, [r7, #12]
 8004956:	609a      	str	r2, [r3, #8]
 8004958:	bf00      	nop
 800495a:	3714      	adds	r7, #20
 800495c:	46bd      	mov	sp, r7
 800495e:	bc80      	pop	{r7}
 8004960:	4770      	bx	lr

08004962 <TIM_ETR_SetConfig>:
 8004962:	b480      	push	{r7}
 8004964:	b087      	sub	sp, #28
 8004966:	af00      	add	r7, sp, #0
 8004968:	60f8      	str	r0, [r7, #12]
 800496a:	60b9      	str	r1, [r7, #8]
 800496c:	607a      	str	r2, [r7, #4]
 800496e:	603b      	str	r3, [r7, #0]
 8004970:	68fb      	ldr	r3, [r7, #12]
 8004972:	689b      	ldr	r3, [r3, #8]
 8004974:	617b      	str	r3, [r7, #20]
 8004976:	697b      	ldr	r3, [r7, #20]
 8004978:	f423 437f 	bic.w	r3, r3, #65280	; 0xff00
 800497c:	617b      	str	r3, [r7, #20]
 800497e:	683b      	ldr	r3, [r7, #0]
 8004980:	021a      	lsls	r2, r3, #8
 8004982:	687b      	ldr	r3, [r7, #4]
 8004984:	431a      	orrs	r2, r3
 8004986:	68bb      	ldr	r3, [r7, #8]
 8004988:	4313      	orrs	r3, r2
 800498a:	697a      	ldr	r2, [r7, #20]
 800498c:	4313      	orrs	r3, r2
 800498e:	617b      	str	r3, [r7, #20]
 8004990:	68fb      	ldr	r3, [r7, #12]
 8004992:	697a      	ldr	r2, [r7, #20]
 8004994:	609a      	str	r2, [r3, #8]
 8004996:	bf00      	nop
 8004998:	371c      	adds	r7, #28
 800499a:	46bd      	mov	sp, r7
 800499c:	bc80      	pop	{r7}
 800499e:	4770      	bx	lr

080049a0 <TIM_CCxChannelCmd>:
 80049a0:	b480      	push	{r7}
 80049a2:	b087      	sub	sp, #28
 80049a4:	af00      	add	r7, sp, #0
 80049a6:	60f8      	str	r0, [r7, #12]
 80049a8:	60b9      	str	r1, [r7, #8]
 80049aa:	607a      	str	r2, [r7, #4]
 80049ac:	68bb      	ldr	r3, [r7, #8]
 80049ae:	f003 031f 	and.w	r3, r3, #31
 80049b2:	2201      	movs	r2, #1
 80049b4:	fa02 f303 	lsl.w	r3, r2, r3
 80049b8:	617b      	str	r3, [r7, #20]
 80049ba:	68fb      	ldr	r3, [r7, #12]
 80049bc:	6a1a      	ldr	r2, [r3, #32]
 80049be:	697b      	ldr	r3, [r7, #20]
 80049c0:	43db      	mvns	r3, r3
 80049c2:	401a      	ands	r2, r3
 80049c4:	68fb      	ldr	r3, [r7, #12]
 80049c6:	621a      	str	r2, [r3, #32]
 80049c8:	68fb      	ldr	r3, [r7, #12]
 80049ca:	6a1a      	ldr	r2, [r3, #32]
 80049cc:	68bb      	ldr	r3, [r7, #8]
 80049ce:	f003 031f 	and.w	r3, r3, #31
 80049d2:	6879      	ldr	r1, [r7, #4]
 80049d4:	fa01 f303 	lsl.w	r3, r1, r3
 80049d8:	431a      	orrs	r2, r3
 80049da:	68fb      	ldr	r3, [r7, #12]
 80049dc:	621a      	str	r2, [r3, #32]
 80049de:	bf00      	nop
 80049e0:	371c      	adds	r7, #28
 80049e2:	46bd      	mov	sp, r7
 80049e4:	bc80      	pop	{r7}
 80049e6:	4770      	bx	lr

080049e8 <HAL_TIMEx_MasterConfigSynchronization>:
 80049e8:	b480      	push	{r7}
 80049ea:	b085      	sub	sp, #20
 80049ec:	af00      	add	r7, sp, #0
 80049ee:	6078      	str	r0, [r7, #4]
 80049f0:	6039      	str	r1, [r7, #0]
 80049f2:	687b      	ldr	r3, [r7, #4]
 80049f4:	f893 303c 	ldrb.w	r3, [r3, #60]	; 0x3c
 80049f8:	2b01      	cmp	r3, #1
 80049fa:	d101      	bne.n	8004a00 <HAL_TIMEx_MasterConfigSynchronization+0x18>
 80049fc:	2302      	movs	r3, #2
 80049fe:	e046      	b.n	8004a8e <HAL_TIMEx_MasterConfigSynchronization+0xa6>
 8004a00:	687b      	ldr	r3, [r7, #4]
 8004a02:	2201      	movs	r2, #1
 8004a04:	f883 203c 	strb.w	r2, [r3, #60]	; 0x3c
 8004a08:	687b      	ldr	r3, [r7, #4]
 8004a0a:	2202      	movs	r2, #2
 8004a0c:	f883 203d 	strb.w	r2, [r3, #61]	; 0x3d
 8004a10:	687b      	ldr	r3, [r7, #4]
 8004a12:	681b      	ldr	r3, [r3, #0]
 8004a14:	685b      	ldr	r3, [r3, #4]
 8004a16:	60fb      	str	r3, [r7, #12]
 8004a18:	687b      	ldr	r3, [r7, #4]
 8004a1a:	681b      	ldr	r3, [r3, #0]
 8004a1c:	689b      	ldr	r3, [r3, #8]
 8004a1e:	60bb      	str	r3, [r7, #8]
 8004a20:	68fb      	ldr	r3, [r7, #12]
 8004a22:	f023 0370 	bic.w	r3, r3, #112	; 0x70
 8004a26:	60fb      	str	r3, [r7, #12]
 8004a28:	683b      	ldr	r3, [r7, #0]
 8004a2a:	681b      	ldr	r3, [r3, #0]
 8004a2c:	68fa      	ldr	r2, [r7, #12]
 8004a2e:	4313      	orrs	r3, r2
 8004a30:	60fb      	str	r3, [r7, #12]
 8004a32:	687b      	ldr	r3, [r7, #4]
 8004a34:	681b      	ldr	r3, [r3, #0]
 8004a36:	68fa      	ldr	r2, [r7, #12]
 8004a38:	605a      	str	r2, [r3, #4]
 8004a3a:	687b      	ldr	r3, [r7, #4]
 8004a3c:	681b      	ldr	r3, [r3, #0]
 8004a3e:	4a16      	ldr	r2, [pc, #88]	; (8004a98 <HAL_TIMEx_MasterConfigSynchronization+0xb0>)
 8004a40:	4293      	cmp	r3, r2
 8004a42:	d00e      	beq.n	8004a62 <HAL_TIMEx_MasterConfigSynchronization+0x7a>
 8004a44:	687b      	ldr	r3, [r7, #4]
 8004a46:	681b      	ldr	r3, [r3, #0]
 8004a48:	f1b3 4f80 	cmp.w	r3, #1073741824	; 0x40000000
 8004a4c:	d009      	beq.n	8004a62 <HAL_TIMEx_MasterConfigSynchronization+0x7a>
 8004a4e:	687b      	ldr	r3, [r7, #4]
 8004a50:	681b      	ldr	r3, [r3, #0]
 8004a52:	4a12      	ldr	r2, [pc, #72]	; (8004a9c <HAL_TIMEx_MasterConfigSynchronization+0xb4>)
 8004a54:	4293      	cmp	r3, r2
 8004a56:	d004      	beq.n	8004a62 <HAL_TIMEx_MasterConfigSynchronization+0x7a>
 8004a58:	687b      	ldr	r3, [r7, #4]
 8004a5a:	681b      	ldr	r3, [r3, #0]
 8004a5c:	4a10      	ldr	r2, [pc, #64]	; (8004aa0 <HAL_TIMEx_MasterConfigSynchronization+0xb8>)
 8004a5e:	4293      	cmp	r3, r2
 8004a60:	d10c      	bne.n	8004a7c <HAL_TIMEx_MasterConfigSynchronization+0x94>
 8004a62:	68bb      	ldr	r3, [r7, #8]
 8004a64:	f023 0380 	bic.w	r3, r3, #128	; 0x80
 8004a68:	60bb      	str	r3, [r7, #8]
 8004a6a:	683b      	ldr	r3, [r7, #0]
 8004a6c:	685b      	ldr	r3, [r3, #4]
 8004a6e:	68ba      	ldr	r2, [r7, #8]
 8004a70:	4313      	orrs	r3, r2
 8004a72:	60bb      	str	r3, [r7, #8]
 8004a74:	687b      	ldr	r3, [r7, #4]
 8004a76:	681b      	ldr	r3, [r3, #0]
 8004a78:	68ba      	ldr	r2, [r7, #8]
 8004a7a:	609a      	str	r2, [r3, #8]
 8004a7c:	687b      	ldr	r3, [r7, #4]
 8004a7e:	2201      	movs	r2, #1
 8004a80:	f883 203d 	strb.w	r2, [r3, #61]	; 0x3d
 8004a84:	687b      	ldr	r3, [r7, #4]
 8004a86:	2200      	movs	r2, #0
 8004a88:	f883 203c 	strb.w	r2, [r3, #60]	; 0x3c
 8004a8c:	2300      	movs	r3, #0
 8004a8e:	4618      	mov	r0, r3
 8004a90:	3714      	adds	r7, #20
 8004a92:	46bd      	mov	sp, r7
 8004a94:	bc80      	pop	{r7}
 8004a96:	4770      	bx	lr
 8004a98:	40012c00 	.word	0x40012c00
 8004a9c:	40000400 	.word	0x40000400
 8004aa0:	40000800 	.word	0x40000800

08004aa4 <HAL_TIMEx_ConfigBreakDeadTime>:
 8004aa4:	b480      	push	{r7}
 8004aa6:	b085      	sub	sp, #20
 8004aa8:	af00      	add	r7, sp, #0
 8004aaa:	6078      	str	r0, [r7, #4]
 8004aac:	6039      	str	r1, [r7, #0]
 8004aae:	2300      	movs	r3, #0
 8004ab0:	60fb      	str	r3, [r7, #12]
 8004ab2:	687b      	ldr	r3, [r7, #4]
 8004ab4:	f893 303c 	ldrb.w	r3, [r3, #60]	; 0x3c
 8004ab8:	2b01      	cmp	r3, #1
 8004aba:	d101      	bne.n	8004ac0 <HAL_TIMEx_ConfigBreakDeadTime+0x1c>
 8004abc:	2302      	movs	r3, #2
 8004abe:	e03d      	b.n	8004b3c <HAL_TIMEx_ConfigBreakDeadTime+0x98>
 8004ac0:	687b      	ldr	r3, [r7, #4]
 8004ac2:	2201      	movs	r2, #1
 8004ac4:	f883 203c 	strb.w	r2, [r3, #60]	; 0x3c
 8004ac8:	68fb      	ldr	r3, [r7, #12]
 8004aca:	f023 02ff 	bic.w	r2, r3, #255	; 0xff
 8004ace:	683b      	ldr	r3, [r7, #0]
 8004ad0:	68db      	ldr	r3, [r3, #12]
 8004ad2:	4313      	orrs	r3, r2
 8004ad4:	60fb      	str	r3, [r7, #12]
 8004ad6:	68fb      	ldr	r3, [r7, #12]
 8004ad8:	f423 7240 	bic.w	r2, r3, #768	; 0x300
 8004adc:	683b      	ldr	r3, [r7, #0]
 8004ade:	689b      	ldr	r3, [r3, #8]
 8004ae0:	4313      	orrs	r3, r2
 8004ae2:	60fb      	str	r3, [r7, #12]
 8004ae4:	68fb      	ldr	r3, [r7, #12]
 8004ae6:	f423 6280 	bic.w	r2, r3, #1024	; 0x400
 8004aea:	683b      	ldr	r3, [r7, #0]
 8004aec:	685b      	ldr	r3, [r3, #4]
 8004aee:	4313      	orrs	r3, r2
 8004af0:	60fb      	str	r3, [r7, #12]
 8004af2:	68fb      	ldr	r3, [r7, #12]
 8004af4:	f423 6200 	bic.w	r2, r3, #2048	; 0x800
 8004af8:	683b      	ldr	r3, [r7, #0]
 8004afa:	681b      	ldr	r3, [r3, #0]
 8004afc:	4313      	orrs	r3, r2
 8004afe:	60fb      	str	r3, [r7, #12]
 8004b00:	68fb      	ldr	r3, [r7, #12]
 8004b02:	f423 5280 	bic.w	r2, r3, #4096	; 0x1000
 8004b06:	683b      	ldr	r3, [r7, #0]
 8004b08:	691b      	ldr	r3, [r3, #16]
 8004b0a:	4313      	orrs	r3, r2
 8004b0c:	60fb      	str	r3, [r7, #12]
 8004b0e:	68fb      	ldr	r3, [r7, #12]
 8004b10:	f423 5200 	bic.w	r2, r3, #8192	; 0x2000
 8004b14:	683b      	ldr	r3, [r7, #0]
 8004b16:	695b      	ldr	r3, [r3, #20]
 8004b18:	4313      	orrs	r3, r2
 8004b1a:	60fb      	str	r3, [r7, #12]
 8004b1c:	68fb      	ldr	r3, [r7, #12]
 8004b1e:	f423 4280 	bic.w	r2, r3, #16384	; 0x4000
 8004b22:	683b      	ldr	r3, [r7, #0]
 8004b24:	69db      	ldr	r3, [r3, #28]
 8004b26:	4313      	orrs	r3, r2
 8004b28:	60fb      	str	r3, [r7, #12]
 8004b2a:	687b      	ldr	r3, [r7, #4]
 8004b2c:	681b      	ldr	r3, [r3, #0]
 8004b2e:	68fa      	ldr	r2, [r7, #12]
 8004b30:	645a      	str	r2, [r3, #68]	; 0x44
 8004b32:	687b      	ldr	r3, [r7, #4]
 8004b34:	2200      	movs	r2, #0
 8004b36:	f883 203c 	strb.w	r2, [r3, #60]	; 0x3c
 8004b3a:	2300      	movs	r3, #0
 8004b3c:	4618      	mov	r0, r3
 8004b3e:	3714      	adds	r7, #20
 8004b40:	46bd      	mov	sp, r7
 8004b42:	bc80      	pop	{r7}
 8004b44:	4770      	bx	lr

08004b46 <HAL_TIMEx_CommutCallback>:
 8004b46:	b480      	push	{r7}
 8004b48:	b083      	sub	sp, #12
 8004b4a:	af00      	add	r7, sp, #0
 8004b4c:	6078      	str	r0, [r7, #4]
 8004b4e:	bf00      	nop
 8004b50:	370c      	adds	r7, #12
 8004b52:	46bd      	mov	sp, r7
 8004b54:	bc80      	pop	{r7}
 8004b56:	4770      	bx	lr

08004b58 <HAL_TIMEx_BreakCallback>:
 8004b58:	b480      	push	{r7}
 8004b5a:	b083      	sub	sp, #12
 8004b5c:	af00      	add	r7, sp, #0
 8004b5e:	6078      	str	r0, [r7, #4]
 8004b60:	bf00      	nop
 8004b62:	370c      	adds	r7, #12
 8004b64:	46bd      	mov	sp, r7
 8004b66:	bc80      	pop	{r7}
 8004b68:	4770      	bx	lr

08004b6a <HAL_UART_Init>:
 8004b6a:	b580      	push	{r7, lr}
 8004b6c:	b082      	sub	sp, #8
 8004b6e:	af00      	add	r7, sp, #0
 8004b70:	6078      	str	r0, [r7, #4]
 8004b72:	687b      	ldr	r3, [r7, #4]
 8004b74:	2b00      	cmp	r3, #0
 8004b76:	d101      	bne.n	8004b7c <HAL_UART_Init+0x12>
 8004b78:	2301      	movs	r3, #1
 8004b7a:	e03f      	b.n	8004bfc <HAL_UART_Init+0x92>
 8004b7c:	687b      	ldr	r3, [r7, #4]
 8004b7e:	f893 303d 	ldrb.w	r3, [r3, #61]	; 0x3d
 8004b82:	b2db      	uxtb	r3, r3
 8004b84:	2b00      	cmp	r3, #0
 8004b86:	d106      	bne.n	8004b96 <HAL_UART_Init+0x2c>
 8004b88:	687b      	ldr	r3, [r7, #4]
 8004b8a:	2200      	movs	r2, #0
 8004b8c:	f883 203c 	strb.w	r2, [r3, #60]	; 0x3c
 8004b90:	6878      	ldr	r0, [r7, #4]
 8004b92:	f7fc fa4b 	bl	800102c <HAL_UART_MspInit>
 8004b96:	687b      	ldr	r3, [r7, #4]
 8004b98:	2224      	movs	r2, #36	; 0x24
 8004b9a:	f883 203d 	strb.w	r2, [r3, #61]	; 0x3d
 8004b9e:	687b      	ldr	r3, [r7, #4]
 8004ba0:	681b      	ldr	r3, [r3, #0]
 8004ba2:	68da      	ldr	r2, [r3, #12]
 8004ba4:	687b      	ldr	r3, [r7, #4]
 8004ba6:	681b      	ldr	r3, [r3, #0]
 8004ba8:	f422 5200 	bic.w	r2, r2, #8192	; 0x2000
 8004bac:	60da      	str	r2, [r3, #12]
 8004bae:	6878      	ldr	r0, [r7, #4]
 8004bb0:	f000 f904 	bl	8004dbc <UART_SetConfig>
 8004bb4:	687b      	ldr	r3, [r7, #4]
 8004bb6:	681b      	ldr	r3, [r3, #0]
 8004bb8:	691a      	ldr	r2, [r3, #16]
 8004bba:	687b      	ldr	r3, [r7, #4]
 8004bbc:	681b      	ldr	r3, [r3, #0]
 8004bbe:	f422 4290 	bic.w	r2, r2, #18432	; 0x4800
 8004bc2:	611a      	str	r2, [r3, #16]
 8004bc4:	687b      	ldr	r3, [r7, #4]
 8004bc6:	681b      	ldr	r3, [r3, #0]
 8004bc8:	695a      	ldr	r2, [r3, #20]
 8004bca:	687b      	ldr	r3, [r7, #4]
 8004bcc:	681b      	ldr	r3, [r3, #0]
 8004bce:	f022 022a 	bic.w	r2, r2, #42	; 0x2a
 8004bd2:	615a      	str	r2, [r3, #20]
 8004bd4:	687b      	ldr	r3, [r7, #4]
 8004bd6:	681b      	ldr	r3, [r3, #0]
 8004bd8:	68da      	ldr	r2, [r3, #12]
 8004bda:	687b      	ldr	r3, [r7, #4]
 8004bdc:	681b      	ldr	r3, [r3, #0]
 8004bde:	f442 5200 	orr.w	r2, r2, #8192	; 0x2000
 8004be2:	60da      	str	r2, [r3, #12]
 8004be4:	687b      	ldr	r3, [r7, #4]
 8004be6:	2200      	movs	r2, #0
 8004be8:	641a      	str	r2, [r3, #64]	; 0x40
 8004bea:	687b      	ldr	r3, [r7, #4]
 8004bec:	2220      	movs	r2, #32
 8004bee:	f883 203d 	strb.w	r2, [r3, #61]	; 0x3d
 8004bf2:	687b      	ldr	r3, [r7, #4]
 8004bf4:	2220      	movs	r2, #32
 8004bf6:	f883 203e 	strb.w	r2, [r3, #62]	; 0x3e
 8004bfa:	2300      	movs	r3, #0
 8004bfc:	4618      	mov	r0, r3
 8004bfe:	3708      	adds	r7, #8
 8004c00:	46bd      	mov	sp, r7
 8004c02:	bd80      	pop	{r7, pc}

08004c04 <HAL_UART_Transmit>:
 8004c04:	b580      	push	{r7, lr}
 8004c06:	b08a      	sub	sp, #40	; 0x28
 8004c08:	af02      	add	r7, sp, #8
 8004c0a:	60f8      	str	r0, [r7, #12]
 8004c0c:	60b9      	str	r1, [r7, #8]
 8004c0e:	603b      	str	r3, [r7, #0]
 8004c10:	4613      	mov	r3, r2
 8004c12:	80fb      	strh	r3, [r7, #6]
 8004c14:	2300      	movs	r3, #0
 8004c16:	617b      	str	r3, [r7, #20]
 8004c18:	68fb      	ldr	r3, [r7, #12]
 8004c1a:	f893 303d 	ldrb.w	r3, [r3, #61]	; 0x3d
 8004c1e:	b2db      	uxtb	r3, r3
 8004c20:	2b20      	cmp	r3, #32
 8004c22:	d17c      	bne.n	8004d1e <HAL_UART_Transmit+0x11a>
 8004c24:	68bb      	ldr	r3, [r7, #8]
 8004c26:	2b00      	cmp	r3, #0
 8004c28:	d002      	beq.n	8004c30 <HAL_UART_Transmit+0x2c>
 8004c2a:	88fb      	ldrh	r3, [r7, #6]
 8004c2c:	2b00      	cmp	r3, #0
 8004c2e:	d101      	bne.n	8004c34 <HAL_UART_Transmit+0x30>
 8004c30:	2301      	movs	r3, #1
 8004c32:	e075      	b.n	8004d20 <HAL_UART_Transmit+0x11c>
 8004c34:	68fb      	ldr	r3, [r7, #12]
 8004c36:	f893 303c 	ldrb.w	r3, [r3, #60]	; 0x3c
 8004c3a:	2b01      	cmp	r3, #1
 8004c3c:	d101      	bne.n	8004c42 <HAL_UART_Transmit+0x3e>
 8004c3e:	2302      	movs	r3, #2
 8004c40:	e06e      	b.n	8004d20 <HAL_UART_Transmit+0x11c>
 8004c42:	68fb      	ldr	r3, [r7, #12]
 8004c44:	2201      	movs	r2, #1
 8004c46:	f883 203c 	strb.w	r2, [r3, #60]	; 0x3c
 8004c4a:	68fb      	ldr	r3, [r7, #12]
 8004c4c:	2200      	movs	r2, #0
 8004c4e:	641a      	str	r2, [r3, #64]	; 0x40
 8004c50:	68fb      	ldr	r3, [r7, #12]
 8004c52:	2221      	movs	r2, #33	; 0x21
 8004c54:	f883 203d 	strb.w	r2, [r3, #61]	; 0x3d
 8004c58:	f7fc fba6 	bl	80013a8 <HAL_GetTick>
 8004c5c:	6178      	str	r0, [r7, #20]
 8004c5e:	68fb      	ldr	r3, [r7, #12]
 8004c60:	88fa      	ldrh	r2, [r7, #6]
 8004c62:	849a      	strh	r2, [r3, #36]	; 0x24
 8004c64:	68fb      	ldr	r3, [r7, #12]
 8004c66:	88fa      	ldrh	r2, [r7, #6]
 8004c68:	84da      	strh	r2, [r3, #38]	; 0x26
 8004c6a:	68fb      	ldr	r3, [r7, #12]
 8004c6c:	689b      	ldr	r3, [r3, #8]
 8004c6e:	f5b3 5f80 	cmp.w	r3, #4096	; 0x1000
 8004c72:	d108      	bne.n	8004c86 <HAL_UART_Transmit+0x82>
 8004c74:	68fb      	ldr	r3, [r7, #12]
 8004c76:	691b      	ldr	r3, [r3, #16]
 8004c78:	2b00      	cmp	r3, #0
 8004c7a:	d104      	bne.n	8004c86 <HAL_UART_Transmit+0x82>
 8004c7c:	2300      	movs	r3, #0
 8004c7e:	61fb      	str	r3, [r7, #28]
 8004c80:	68bb      	ldr	r3, [r7, #8]
 8004c82:	61bb      	str	r3, [r7, #24]
 8004c84:	e003      	b.n	8004c8e <HAL_UART_Transmit+0x8a>
 8004c86:	68bb      	ldr	r3, [r7, #8]
 8004c88:	61fb      	str	r3, [r7, #28]
 8004c8a:	2300      	movs	r3, #0
 8004c8c:	61bb      	str	r3, [r7, #24]
 8004c8e:	68fb      	ldr	r3, [r7, #12]
 8004c90:	2200      	movs	r2, #0
 8004c92:	f883 203c 	strb.w	r2, [r3, #60]	; 0x3c
 8004c96:	e02a      	b.n	8004cee <HAL_UART_Transmit+0xea>
 8004c98:	683b      	ldr	r3, [r7, #0]
 8004c9a:	9300      	str	r3, [sp, #0]
 8004c9c:	697b      	ldr	r3, [r7, #20]
 8004c9e:	2200      	movs	r2, #0
 8004ca0:	2180      	movs	r1, #128	; 0x80
 8004ca2:	68f8      	ldr	r0, [r7, #12]
 8004ca4:	f000 f840 	bl	8004d28 <UART_WaitOnFlagUntilTimeout>
 8004ca8:	4603      	mov	r3, r0
 8004caa:	2b00      	cmp	r3, #0
 8004cac:	d001      	beq.n	8004cb2 <HAL_UART_Transmit+0xae>
 8004cae:	2303      	movs	r3, #3
 8004cb0:	e036      	b.n	8004d20 <HAL_UART_Transmit+0x11c>
 8004cb2:	69fb      	ldr	r3, [r7, #28]
 8004cb4:	2b00      	cmp	r3, #0
 8004cb6:	d10b      	bne.n	8004cd0 <HAL_UART_Transmit+0xcc>
 8004cb8:	69bb      	ldr	r3, [r7, #24]
 8004cba:	881b      	ldrh	r3, [r3, #0]
 8004cbc:	461a      	mov	r2, r3
 8004cbe:	68fb      	ldr	r3, [r7, #12]
 8004cc0:	681b      	ldr	r3, [r3, #0]
 8004cc2:	f3c2 0208 	ubfx	r2, r2, #0, #9
 8004cc6:	605a      	str	r2, [r3, #4]
 8004cc8:	69bb      	ldr	r3, [r7, #24]
 8004cca:	3302      	adds	r3, #2
 8004ccc:	61bb      	str	r3, [r7, #24]
 8004cce:	e007      	b.n	8004ce0 <HAL_UART_Transmit+0xdc>
 8004cd0:	69fb      	ldr	r3, [r7, #28]
 8004cd2:	781a      	ldrb	r2, [r3, #0]
 8004cd4:	68fb      	ldr	r3, [r7, #12]
 8004cd6:	681b      	ldr	r3, [r3, #0]
 8004cd8:	605a      	str	r2, [r3, #4]
 8004cda:	69fb      	ldr	r3, [r7, #28]
 8004cdc:	3301      	adds	r3, #1
 8004cde:	61fb      	str	r3, [r7, #28]
 8004ce0:	68fb      	ldr	r3, [r7, #12]
 8004ce2:	8cdb      	ldrh	r3, [r3, #38]	; 0x26
 8004ce4:	b29b      	uxth	r3, r3
 8004ce6:	3b01      	subs	r3, #1
 8004ce8:	b29a      	uxth	r2, r3
 8004cea:	68fb      	ldr	r3, [r7, #12]
 8004cec:	84da      	strh	r2, [r3, #38]	; 0x26
 8004cee:	68fb      	ldr	r3, [r7, #12]
 8004cf0:	8cdb      	ldrh	r3, [r3, #38]	; 0x26
 8004cf2:	b29b      	uxth	r3, r3
 8004cf4:	2b00      	cmp	r3, #0
 8004cf6:	d1cf      	bne.n	8004c98 <HAL_UART_Transmit+0x94>
 8004cf8:	683b      	ldr	r3, [r7, #0]
 8004cfa:	9300      	str	r3, [sp, #0]
 8004cfc:	697b      	ldr	r3, [r7, #20]
 8004cfe:	2200      	movs	r2, #0
 8004d00:	2140      	movs	r1, #64	; 0x40
 8004d02:	68f8      	ldr	r0, [r7, #12]
 8004d04:	f000 f810 	bl	8004d28 <UART_WaitOnFlagUntilTimeout>
 8004d08:	4603      	mov	r3, r0
 8004d0a:	2b00      	cmp	r3, #0
 8004d0c:	d001      	beq.n	8004d12 <HAL_UART_Transmit+0x10e>
 8004d0e:	2303      	movs	r3, #3
 8004d10:	e006      	b.n	8004d20 <HAL_UART_Transmit+0x11c>
 8004d12:	68fb      	ldr	r3, [r7, #12]
 8004d14:	2220      	movs	r2, #32
 8004d16:	f883 203d 	strb.w	r2, [r3, #61]	; 0x3d
 8004d1a:	2300      	movs	r3, #0
 8004d1c:	e000      	b.n	8004d20 <HAL_UART_Transmit+0x11c>
 8004d1e:	2302      	movs	r3, #2
 8004d20:	4618      	mov	r0, r3
 8004d22:	3720      	adds	r7, #32
 8004d24:	46bd      	mov	sp, r7
 8004d26:	bd80      	pop	{r7, pc}

08004d28 <UART_WaitOnFlagUntilTimeout>:
 8004d28:	b580      	push	{r7, lr}
 8004d2a:	b084      	sub	sp, #16
 8004d2c:	af00      	add	r7, sp, #0
 8004d2e:	60f8      	str	r0, [r7, #12]
 8004d30:	60b9      	str	r1, [r7, #8]
 8004d32:	603b      	str	r3, [r7, #0]
 8004d34:	4613      	mov	r3, r2
 8004d36:	71fb      	strb	r3, [r7, #7]
 8004d38:	e02c      	b.n	8004d94 <UART_WaitOnFlagUntilTimeout+0x6c>
 8004d3a:	69bb      	ldr	r3, [r7, #24]
 8004d3c:	f1b3 3fff 	cmp.w	r3, #4294967295
 8004d40:	d028      	beq.n	8004d94 <UART_WaitOnFlagUntilTimeout+0x6c>
 8004d42:	69bb      	ldr	r3, [r7, #24]
 8004d44:	2b00      	cmp	r3, #0
 8004d46:	d007      	beq.n	8004d58 <UART_WaitOnFlagUntilTimeout+0x30>
 8004d48:	f7fc fb2e 	bl	80013a8 <HAL_GetTick>
 8004d4c:	4602      	mov	r2, r0
 8004d4e:	683b      	ldr	r3, [r7, #0]
 8004d50:	1ad3      	subs	r3, r2, r3
 8004d52:	69ba      	ldr	r2, [r7, #24]
 8004d54:	429a      	cmp	r2, r3
 8004d56:	d21d      	bcs.n	8004d94 <UART_WaitOnFlagUntilTimeout+0x6c>
 8004d58:	68fb      	ldr	r3, [r7, #12]
 8004d5a:	681b      	ldr	r3, [r3, #0]
 8004d5c:	68da      	ldr	r2, [r3, #12]
 8004d5e:	68fb      	ldr	r3, [r7, #12]
 8004d60:	681b      	ldr	r3, [r3, #0]
 8004d62:	f422 72d0 	bic.w	r2, r2, #416	; 0x1a0
 8004d66:	60da      	str	r2, [r3, #12]
 8004d68:	68fb      	ldr	r3, [r7, #12]
 8004d6a:	681b      	ldr	r3, [r3, #0]
 8004d6c:	695a      	ldr	r2, [r3, #20]
 8004d6e:	68fb      	ldr	r3, [r7, #12]
 8004d70:	681b      	ldr	r3, [r3, #0]
 8004d72:	f022 0201 	bic.w	r2, r2, #1
 8004d76:	615a      	str	r2, [r3, #20]
 8004d78:	68fb      	ldr	r3, [r7, #12]
 8004d7a:	2220      	movs	r2, #32
 8004d7c:	f883 203d 	strb.w	r2, [r3, #61]	; 0x3d
 8004d80:	68fb      	ldr	r3, [r7, #12]
 8004d82:	2220      	movs	r2, #32
 8004d84:	f883 203e 	strb.w	r2, [r3, #62]	; 0x3e
 8004d88:	68fb      	ldr	r3, [r7, #12]
 8004d8a:	2200      	movs	r2, #0
 8004d8c:	f883 203c 	strb.w	r2, [r3, #60]	; 0x3c
 8004d90:	2303      	movs	r3, #3
 8004d92:	e00f      	b.n	8004db4 <UART_WaitOnFlagUntilTimeout+0x8c>
 8004d94:	68fb      	ldr	r3, [r7, #12]
 8004d96:	681b      	ldr	r3, [r3, #0]
 8004d98:	681a      	ldr	r2, [r3, #0]
 8004d9a:	68bb      	ldr	r3, [r7, #8]
 8004d9c:	4013      	ands	r3, r2
 8004d9e:	68ba      	ldr	r2, [r7, #8]
 8004da0:	429a      	cmp	r2, r3
 8004da2:	bf0c      	ite	eq
 8004da4:	2301      	moveq	r3, #1
 8004da6:	2300      	movne	r3, #0
 8004da8:	b2db      	uxtb	r3, r3
 8004daa:	461a      	mov	r2, r3
 8004dac:	79fb      	ldrb	r3, [r7, #7]
 8004dae:	429a      	cmp	r2, r3
 8004db0:	d0c3      	beq.n	8004d3a <UART_WaitOnFlagUntilTimeout+0x12>
 8004db2:	2300      	movs	r3, #0
 8004db4:	4618      	mov	r0, r3
 8004db6:	3710      	adds	r7, #16
 8004db8:	46bd      	mov	sp, r7
 8004dba:	bd80      	pop	{r7, pc}

08004dbc <UART_SetConfig>:
 8004dbc:	b580      	push	{r7, lr}
 8004dbe:	b084      	sub	sp, #16
 8004dc0:	af00      	add	r7, sp, #0
 8004dc2:	6078      	str	r0, [r7, #4]
 8004dc4:	687b      	ldr	r3, [r7, #4]
 8004dc6:	681b      	ldr	r3, [r3, #0]
 8004dc8:	691b      	ldr	r3, [r3, #16]
 8004dca:	f423 5140 	bic.w	r1, r3, #12288	; 0x3000
 8004dce:	687b      	ldr	r3, [r7, #4]
 8004dd0:	68da      	ldr	r2, [r3, #12]
 8004dd2:	687b      	ldr	r3, [r7, #4]
 8004dd4:	681b      	ldr	r3, [r3, #0]
 8004dd6:	430a      	orrs	r2, r1
 8004dd8:	611a      	str	r2, [r3, #16]
 8004dda:	687b      	ldr	r3, [r7, #4]
 8004ddc:	689a      	ldr	r2, [r3, #8]
 8004dde:	687b      	ldr	r3, [r7, #4]
 8004de0:	691b      	ldr	r3, [r3, #16]
 8004de2:	431a      	orrs	r2, r3
 8004de4:	687b      	ldr	r3, [r7, #4]
 8004de6:	695b      	ldr	r3, [r3, #20]
 8004de8:	4313      	orrs	r3, r2
 8004dea:	60bb      	str	r3, [r7, #8]
 8004dec:	687b      	ldr	r3, [r7, #4]
 8004dee:	681b      	ldr	r3, [r3, #0]
 8004df0:	68db      	ldr	r3, [r3, #12]
 8004df2:	f423 53b0 	bic.w	r3, r3, #5632	; 0x1600
 8004df6:	f023 030c 	bic.w	r3, r3, #12
 8004dfa:	687a      	ldr	r2, [r7, #4]
 8004dfc:	6812      	ldr	r2, [r2, #0]
 8004dfe:	68b9      	ldr	r1, [r7, #8]
 8004e00:	430b      	orrs	r3, r1
 8004e02:	60d3      	str	r3, [r2, #12]
 8004e04:	687b      	ldr	r3, [r7, #4]
 8004e06:	681b      	ldr	r3, [r3, #0]
 8004e08:	695b      	ldr	r3, [r3, #20]
 8004e0a:	f423 7140 	bic.w	r1, r3, #768	; 0x300
 8004e0e:	687b      	ldr	r3, [r7, #4]
 8004e10:	699a      	ldr	r2, [r3, #24]
 8004e12:	687b      	ldr	r3, [r7, #4]
 8004e14:	681b      	ldr	r3, [r3, #0]
 8004e16:	430a      	orrs	r2, r1
 8004e18:	615a      	str	r2, [r3, #20]
 8004e1a:	687b      	ldr	r3, [r7, #4]
 8004e1c:	681b      	ldr	r3, [r3, #0]
 8004e1e:	4a2c      	ldr	r2, [pc, #176]	; (8004ed0 <UART_SetConfig+0x114>)
 8004e20:	4293      	cmp	r3, r2
 8004e22:	d103      	bne.n	8004e2c <UART_SetConfig+0x70>
 8004e24:	f7fe fb9c 	bl	8003560 <HAL_RCC_GetPCLK2Freq>
 8004e28:	60f8      	str	r0, [r7, #12]
 8004e2a:	e002      	b.n	8004e32 <UART_SetConfig+0x76>
 8004e2c:	f7fe fb84 	bl	8003538 <HAL_RCC_GetPCLK1Freq>
 8004e30:	60f8      	str	r0, [r7, #12]
 8004e32:	68fa      	ldr	r2, [r7, #12]
 8004e34:	4613      	mov	r3, r2
 8004e36:	009b      	lsls	r3, r3, #2
 8004e38:	4413      	add	r3, r2
 8004e3a:	009a      	lsls	r2, r3, #2
 8004e3c:	441a      	add	r2, r3
 8004e3e:	687b      	ldr	r3, [r7, #4]
 8004e40:	685b      	ldr	r3, [r3, #4]
 8004e42:	009b      	lsls	r3, r3, #2
 8004e44:	fbb2 f3f3 	udiv	r3, r2, r3
 8004e48:	4a22      	ldr	r2, [pc, #136]	; (8004ed4 <UART_SetConfig+0x118>)
 8004e4a:	fba2 2303 	umull	r2, r3, r2, r3
 8004e4e:	095b      	lsrs	r3, r3, #5
 8004e50:	0119      	lsls	r1, r3, #4
 8004e52:	68fa      	ldr	r2, [r7, #12]
 8004e54:	4613      	mov	r3, r2
 8004e56:	009b      	lsls	r3, r3, #2
 8004e58:	4413      	add	r3, r2
 8004e5a:	009a      	lsls	r2, r3, #2
 8004e5c:	441a      	add	r2, r3
 8004e5e:	687b      	ldr	r3, [r7, #4]
 8004e60:	685b      	ldr	r3, [r3, #4]
 8004e62:	009b      	lsls	r3, r3, #2
 8004e64:	fbb2 f2f3 	udiv	r2, r2, r3
 8004e68:	4b1a      	ldr	r3, [pc, #104]	; (8004ed4 <UART_SetConfig+0x118>)
 8004e6a:	fba3 0302 	umull	r0, r3, r3, r2
 8004e6e:	095b      	lsrs	r3, r3, #5
 8004e70:	2064      	movs	r0, #100	; 0x64
 8004e72:	fb00 f303 	mul.w	r3, r0, r3
 8004e76:	1ad3      	subs	r3, r2, r3
 8004e78:	011b      	lsls	r3, r3, #4
 8004e7a:	3332      	adds	r3, #50	; 0x32
 8004e7c:	4a15      	ldr	r2, [pc, #84]	; (8004ed4 <UART_SetConfig+0x118>)
 8004e7e:	fba2 2303 	umull	r2, r3, r2, r3
 8004e82:	095b      	lsrs	r3, r3, #5
 8004e84:	f003 03f0 	and.w	r3, r3, #240	; 0xf0
 8004e88:	4419      	add	r1, r3
 8004e8a:	68fa      	ldr	r2, [r7, #12]
 8004e8c:	4613      	mov	r3, r2
 8004e8e:	009b      	lsls	r3, r3, #2
 8004e90:	4413      	add	r3, r2
 8004e92:	009a      	lsls	r2, r3, #2
 8004e94:	441a      	add	r2, r3
 8004e96:	687b      	ldr	r3, [r7, #4]
 8004e98:	685b      	ldr	r3, [r3, #4]
 8004e9a:	009b      	lsls	r3, r3, #2
 8004e9c:	fbb2 f2f3 	udiv	r2, r2, r3
 8004ea0:	4b0c      	ldr	r3, [pc, #48]	; (8004ed4 <UART_SetConfig+0x118>)
 8004ea2:	fba3 0302 	umull	r0, r3, r3, r2
 8004ea6:	095b      	lsrs	r3, r3, #5
 8004ea8:	2064      	movs	r0, #100	; 0x64
 8004eaa:	fb00 f303 	mul.w	r3, r0, r3
 8004eae:	1ad3      	subs	r3, r2, r3
 8004eb0:	011b      	lsls	r3, r3, #4
 8004eb2:	3332      	adds	r3, #50	; 0x32
 8004eb4:	4a07      	ldr	r2, [pc, #28]	; (8004ed4 <UART_SetConfig+0x118>)
 8004eb6:	fba2 2303 	umull	r2, r3, r2, r3
 8004eba:	095b      	lsrs	r3, r3, #5
 8004ebc:	f003 020f 	and.w	r2, r3, #15
 8004ec0:	687b      	ldr	r3, [r7, #4]
 8004ec2:	681b      	ldr	r3, [r3, #0]
 8004ec4:	440a      	add	r2, r1
 8004ec6:	609a      	str	r2, [r3, #8]
 8004ec8:	bf00      	nop
 8004eca:	3710      	adds	r7, #16
 8004ecc:	46bd      	mov	sp, r7
 8004ece:	bd80      	pop	{r7, pc}
 8004ed0:	40013800 	.word	0x40013800
 8004ed4:	51eb851f 	.word	0x51eb851f

08004ed8 <__errno>:
 8004ed8:	4b01      	ldr	r3, [pc, #4]	; (8004ee0 <__errno+0x8>)
 8004eda:	6818      	ldr	r0, [r3, #0]
 8004edc:	4770      	bx	lr
 8004ede:	bf00      	nop
 8004ee0:	20000010 	.word	0x20000010

08004ee4 <__libc_init_array>:
 8004ee4:	b570      	push	{r4, r5, r6, lr}
 8004ee6:	2600      	movs	r6, #0
 8004ee8:	4d0c      	ldr	r5, [pc, #48]	; (8004f1c <__libc_init_array+0x38>)
 8004eea:	4c0d      	ldr	r4, [pc, #52]	; (8004f20 <__libc_init_array+0x3c>)
 8004eec:	1b64      	subs	r4, r4, r5
 8004eee:	10a4      	asrs	r4, r4, #2
 8004ef0:	42a6      	cmp	r6, r4
 8004ef2:	d109      	bne.n	8004f08 <__libc_init_array+0x24>
 8004ef4:	f001 f992 	bl	800621c <_init>
 8004ef8:	2600      	movs	r6, #0
 8004efa:	4d0a      	ldr	r5, [pc, #40]	; (8004f24 <__libc_init_array+0x40>)
 8004efc:	4c0a      	ldr	r4, [pc, #40]	; (8004f28 <__libc_init_array+0x44>)
 8004efe:	1b64      	subs	r4, r4, r5
 8004f00:	10a4      	asrs	r4, r4, #2
 8004f02:	42a6      	cmp	r6, r4
 8004f04:	d105      	bne.n	8004f12 <__libc_init_array+0x2e>
 8004f06:	bd70      	pop	{r4, r5, r6, pc}
 8004f08:	f855 3b04 	ldr.w	r3, [r5], #4
 8004f0c:	4798      	blx	r3
 8004f0e:	3601      	adds	r6, #1
 8004f10:	e7ee      	b.n	8004ef0 <__libc_init_array+0xc>
 8004f12:	f855 3b04 	ldr.w	r3, [r5], #4
 8004f16:	4798      	blx	r3
 8004f18:	3601      	adds	r6, #1
 8004f1a:	e7f2      	b.n	8004f02 <__libc_init_array+0x1e>
 8004f1c:	0800635c 	.word	0x0800635c
 8004f20:	0800635c 	.word	0x0800635c
 8004f24:	0800635c 	.word	0x0800635c
 8004f28:	08006360 	.word	0x08006360

08004f2c <memset>:
 8004f2c:	4603      	mov	r3, r0
 8004f2e:	4402      	add	r2, r0
 8004f30:	4293      	cmp	r3, r2
 8004f32:	d100      	bne.n	8004f36 <memset+0xa>
 8004f34:	4770      	bx	lr
 8004f36:	f803 1b01 	strb.w	r1, [r3], #1
 8004f3a:	e7f9      	b.n	8004f30 <memset+0x4>

08004f3c <iprintf>:
 8004f3c:	b40f      	push	{r0, r1, r2, r3}
 8004f3e:	4b0a      	ldr	r3, [pc, #40]	; (8004f68 <iprintf+0x2c>)
 8004f40:	b513      	push	{r0, r1, r4, lr}
 8004f42:	681c      	ldr	r4, [r3, #0]
 8004f44:	b124      	cbz	r4, 8004f50 <iprintf+0x14>
 8004f46:	69a3      	ldr	r3, [r4, #24]
 8004f48:	b913      	cbnz	r3, 8004f50 <iprintf+0x14>
 8004f4a:	4620      	mov	r0, r4
 8004f4c:	f000 f886 	bl	800505c <__sinit>
 8004f50:	ab05      	add	r3, sp, #20
 8004f52:	4620      	mov	r0, r4
 8004f54:	9a04      	ldr	r2, [sp, #16]
 8004f56:	68a1      	ldr	r1, [r4, #8]
 8004f58:	9301      	str	r3, [sp, #4]
 8004f5a:	f000 fb37 	bl	80055cc <_vfiprintf_r>
 8004f5e:	b002      	add	sp, #8
 8004f60:	e8bd 4010 	ldmia.w	sp!, {r4, lr}
 8004f64:	b004      	add	sp, #16
 8004f66:	4770      	bx	lr
 8004f68:	20000010 	.word	0x20000010

08004f6c <siprintf>:
 8004f6c:	b40e      	push	{r1, r2, r3}
 8004f6e:	f06f 4100 	mvn.w	r1, #2147483648	; 0x80000000
 8004f72:	b500      	push	{lr}
 8004f74:	b09c      	sub	sp, #112	; 0x70
 8004f76:	ab1d      	add	r3, sp, #116	; 0x74
 8004f78:	9002      	str	r0, [sp, #8]
 8004f7a:	9006      	str	r0, [sp, #24]
 8004f7c:	9107      	str	r1, [sp, #28]
 8004f7e:	9104      	str	r1, [sp, #16]
 8004f80:	4808      	ldr	r0, [pc, #32]	; (8004fa4 <siprintf+0x38>)
 8004f82:	4909      	ldr	r1, [pc, #36]	; (8004fa8 <siprintf+0x3c>)
 8004f84:	f853 2b04 	ldr.w	r2, [r3], #4
 8004f88:	9105      	str	r1, [sp, #20]
 8004f8a:	6800      	ldr	r0, [r0, #0]
 8004f8c:	a902      	add	r1, sp, #8
 8004f8e:	9301      	str	r3, [sp, #4]
 8004f90:	f000 f9f4 	bl	800537c <_svfiprintf_r>
 8004f94:	2200      	movs	r2, #0
 8004f96:	9b02      	ldr	r3, [sp, #8]
 8004f98:	701a      	strb	r2, [r3, #0]
 8004f9a:	b01c      	add	sp, #112	; 0x70
 8004f9c:	f85d eb04 	ldr.w	lr, [sp], #4
 8004fa0:	b003      	add	sp, #12
 8004fa2:	4770      	bx	lr
 8004fa4:	20000010 	.word	0x20000010
 8004fa8:	ffff0208 	.word	0xffff0208

08004fac <std>:
 8004fac:	2300      	movs	r3, #0
 8004fae:	b510      	push	{r4, lr}
 8004fb0:	4604      	mov	r4, r0
 8004fb2:	e9c0 3300 	strd	r3, r3, [r0]
 8004fb6:	e9c0 3304 	strd	r3, r3, [r0, #16]
 8004fba:	6083      	str	r3, [r0, #8]
 8004fbc:	8181      	strh	r1, [r0, #12]
 8004fbe:	6643      	str	r3, [r0, #100]	; 0x64
 8004fc0:	81c2      	strh	r2, [r0, #14]
 8004fc2:	6183      	str	r3, [r0, #24]
 8004fc4:	4619      	mov	r1, r3
 8004fc6:	2208      	movs	r2, #8
 8004fc8:	305c      	adds	r0, #92	; 0x5c
 8004fca:	f7ff ffaf 	bl	8004f2c <memset>
 8004fce:	4b05      	ldr	r3, [pc, #20]	; (8004fe4 <std+0x38>)
 8004fd0:	6224      	str	r4, [r4, #32]
 8004fd2:	6263      	str	r3, [r4, #36]	; 0x24
 8004fd4:	4b04      	ldr	r3, [pc, #16]	; (8004fe8 <std+0x3c>)
 8004fd6:	62a3      	str	r3, [r4, #40]	; 0x28
 8004fd8:	4b04      	ldr	r3, [pc, #16]	; (8004fec <std+0x40>)
 8004fda:	62e3      	str	r3, [r4, #44]	; 0x2c
 8004fdc:	4b04      	ldr	r3, [pc, #16]	; (8004ff0 <std+0x44>)
 8004fde:	6323      	str	r3, [r4, #48]	; 0x30
 8004fe0:	bd10      	pop	{r4, pc}
 8004fe2:	bf00      	nop
 8004fe4:	08005b79 	.word	0x08005b79
 8004fe8:	08005b9b 	.word	0x08005b9b
 8004fec:	08005bd3 	.word	0x08005bd3
 8004ff0:	08005bf7 	.word	0x08005bf7

08004ff4 <_cleanup_r>:
 8004ff4:	4901      	ldr	r1, [pc, #4]	; (8004ffc <_cleanup_r+0x8>)
 8004ff6:	f000 b8af 	b.w	8005158 <_fwalk_reent>
 8004ffa:	bf00      	nop
 8004ffc:	08005ec9 	.word	0x08005ec9

08005000 <__sfmoreglue>:
 8005000:	2268      	movs	r2, #104	; 0x68
 8005002:	b570      	push	{r4, r5, r6, lr}
 8005004:	1e4d      	subs	r5, r1, #1
 8005006:	4355      	muls	r5, r2
 8005008:	460e      	mov	r6, r1
 800500a:	f105 0174 	add.w	r1, r5, #116	; 0x74
 800500e:	f000 f8e5 	bl	80051dc <_malloc_r>
 8005012:	4604      	mov	r4, r0
 8005014:	b140      	cbz	r0, 8005028 <__sfmoreglue+0x28>
 8005016:	2100      	movs	r1, #0
 8005018:	e9c0 1600 	strd	r1, r6, [r0]
 800501c:	300c      	adds	r0, #12
 800501e:	60a0      	str	r0, [r4, #8]
 8005020:	f105 0268 	add.w	r2, r5, #104	; 0x68
 8005024:	f7ff ff82 	bl	8004f2c <memset>
 8005028:	4620      	mov	r0, r4
 800502a:	bd70      	pop	{r4, r5, r6, pc}

0800502c <__sfp_lock_acquire>:
 800502c:	4801      	ldr	r0, [pc, #4]	; (8005034 <__sfp_lock_acquire+0x8>)
 800502e:	f000 b8b3 	b.w	8005198 <__retarget_lock_acquire_recursive>
 8005032:	bf00      	nop
 8005034:	200002a5 	.word	0x200002a5

08005038 <__sfp_lock_release>:
 8005038:	4801      	ldr	r0, [pc, #4]	; (8005040 <__sfp_lock_release+0x8>)
 800503a:	f000 b8ae 	b.w	800519a <__retarget_lock_release_recursive>
 800503e:	bf00      	nop
 8005040:	200002a5 	.word	0x200002a5

08005044 <__sinit_lock_acquire>:
 8005044:	4801      	ldr	r0, [pc, #4]	; (800504c <__sinit_lock_acquire+0x8>)
 8005046:	f000 b8a7 	b.w	8005198 <__retarget_lock_acquire_recursive>
 800504a:	bf00      	nop
 800504c:	200002a6 	.word	0x200002a6

08005050 <__sinit_lock_release>:
 8005050:	4801      	ldr	r0, [pc, #4]	; (8005058 <__sinit_lock_release+0x8>)
 8005052:	f000 b8a2 	b.w	800519a <__retarget_lock_release_recursive>
 8005056:	bf00      	nop
 8005058:	200002a6 	.word	0x200002a6

0800505c <__sinit>:
 800505c:	b510      	push	{r4, lr}
 800505e:	4604      	mov	r4, r0
 8005060:	f7ff fff0 	bl	8005044 <__sinit_lock_acquire>
 8005064:	69a3      	ldr	r3, [r4, #24]
 8005066:	b11b      	cbz	r3, 8005070 <__sinit+0x14>
 8005068:	e8bd 4010 	ldmia.w	sp!, {r4, lr}
 800506c:	f7ff bff0 	b.w	8005050 <__sinit_lock_release>
 8005070:	e9c4 3312 	strd	r3, r3, [r4, #72]	; 0x48
 8005074:	6523      	str	r3, [r4, #80]	; 0x50
 8005076:	4b13      	ldr	r3, [pc, #76]	; (80050c4 <__sinit+0x68>)
 8005078:	4a13      	ldr	r2, [pc, #76]	; (80050c8 <__sinit+0x6c>)
 800507a:	681b      	ldr	r3, [r3, #0]
 800507c:	62a2      	str	r2, [r4, #40]	; 0x28
 800507e:	42a3      	cmp	r3, r4
 8005080:	bf08      	it	eq
 8005082:	2301      	moveq	r3, #1
 8005084:	4620      	mov	r0, r4
 8005086:	bf08      	it	eq
 8005088:	61a3      	streq	r3, [r4, #24]
 800508a:	f000 f81f 	bl	80050cc <__sfp>
 800508e:	6060      	str	r0, [r4, #4]
 8005090:	4620      	mov	r0, r4
 8005092:	f000 f81b 	bl	80050cc <__sfp>
 8005096:	60a0      	str	r0, [r4, #8]
 8005098:	4620      	mov	r0, r4
 800509a:	f000 f817 	bl	80050cc <__sfp>
 800509e:	2200      	movs	r2, #0
 80050a0:	2104      	movs	r1, #4
 80050a2:	60e0      	str	r0, [r4, #12]
 80050a4:	6860      	ldr	r0, [r4, #4]
 80050a6:	f7ff ff81 	bl	8004fac <std>
 80050aa:	2201      	movs	r2, #1
 80050ac:	2109      	movs	r1, #9
 80050ae:	68a0      	ldr	r0, [r4, #8]
 80050b0:	f7ff ff7c 	bl	8004fac <std>
 80050b4:	2202      	movs	r2, #2
 80050b6:	2112      	movs	r1, #18
 80050b8:	68e0      	ldr	r0, [r4, #12]
 80050ba:	f7ff ff77 	bl	8004fac <std>
 80050be:	2301      	movs	r3, #1
 80050c0:	61a3      	str	r3, [r4, #24]
 80050c2:	e7d1      	b.n	8005068 <__sinit+0xc>
 80050c4:	080062c4 	.word	0x080062c4
 80050c8:	08004ff5 	.word	0x08004ff5

080050cc <__sfp>:
 80050cc:	b5f8      	push	{r3, r4, r5, r6, r7, lr}
 80050ce:	4607      	mov	r7, r0
 80050d0:	f7ff ffac 	bl	800502c <__sfp_lock_acquire>
 80050d4:	4b1e      	ldr	r3, [pc, #120]	; (8005150 <__sfp+0x84>)
 80050d6:	681e      	ldr	r6, [r3, #0]
 80050d8:	69b3      	ldr	r3, [r6, #24]
 80050da:	b913      	cbnz	r3, 80050e2 <__sfp+0x16>
 80050dc:	4630      	mov	r0, r6
 80050de:	f7ff ffbd 	bl	800505c <__sinit>
 80050e2:	3648      	adds	r6, #72	; 0x48
 80050e4:	e9d6 3401 	ldrd	r3, r4, [r6, #4]
 80050e8:	3b01      	subs	r3, #1
 80050ea:	d503      	bpl.n	80050f4 <__sfp+0x28>
 80050ec:	6833      	ldr	r3, [r6, #0]
 80050ee:	b30b      	cbz	r3, 8005134 <__sfp+0x68>
 80050f0:	6836      	ldr	r6, [r6, #0]
 80050f2:	e7f7      	b.n	80050e4 <__sfp+0x18>
 80050f4:	f9b4 500c 	ldrsh.w	r5, [r4, #12]
 80050f8:	b9d5      	cbnz	r5, 8005130 <__sfp+0x64>
 80050fa:	4b16      	ldr	r3, [pc, #88]	; (8005154 <__sfp+0x88>)
 80050fc:	f104 0058 	add.w	r0, r4, #88	; 0x58
 8005100:	60e3      	str	r3, [r4, #12]
 8005102:	6665      	str	r5, [r4, #100]	; 0x64
 8005104:	f000 f847 	bl	8005196 <__retarget_lock_init_recursive>
 8005108:	f7ff ff96 	bl	8005038 <__sfp_lock_release>
 800510c:	2208      	movs	r2, #8
 800510e:	4629      	mov	r1, r5
 8005110:	e9c4 5501 	strd	r5, r5, [r4, #4]
 8005114:	e9c4 5504 	strd	r5, r5, [r4, #16]
 8005118:	6025      	str	r5, [r4, #0]
 800511a:	61a5      	str	r5, [r4, #24]
 800511c:	f104 005c 	add.w	r0, r4, #92	; 0x5c
 8005120:	f7ff ff04 	bl	8004f2c <memset>
 8005124:	e9c4 550d 	strd	r5, r5, [r4, #52]	; 0x34
 8005128:	e9c4 5512 	strd	r5, r5, [r4, #72]	; 0x48
 800512c:	4620      	mov	r0, r4
 800512e:	bdf8      	pop	{r3, r4, r5, r6, r7, pc}
 8005130:	3468      	adds	r4, #104	; 0x68
 8005132:	e7d9      	b.n	80050e8 <__sfp+0x1c>
 8005134:	2104      	movs	r1, #4
 8005136:	4638      	mov	r0, r7
 8005138:	f7ff ff62 	bl	8005000 <__sfmoreglue>
 800513c:	4604      	mov	r4, r0
 800513e:	6030      	str	r0, [r6, #0]
 8005140:	2800      	cmp	r0, #0
 8005142:	d1d5      	bne.n	80050f0 <__sfp+0x24>
 8005144:	f7ff ff78 	bl	8005038 <__sfp_lock_release>
 8005148:	230c      	movs	r3, #12
 800514a:	603b      	str	r3, [r7, #0]
 800514c:	e7ee      	b.n	800512c <__sfp+0x60>
 800514e:	bf00      	nop
 8005150:	080062c4 	.word	0x080062c4
 8005154:	ffff0001 	.word	0xffff0001

08005158 <_fwalk_reent>:
 8005158:	e92d 43f8 	stmdb	sp!, {r3, r4, r5, r6, r7, r8, r9, lr}
 800515c:	4606      	mov	r6, r0
 800515e:	4688      	mov	r8, r1
 8005160:	2700      	movs	r7, #0
 8005162:	f100 0448 	add.w	r4, r0, #72	; 0x48
 8005166:	e9d4 9501 	ldrd	r9, r5, [r4, #4]
 800516a:	f1b9 0901 	subs.w	r9, r9, #1
 800516e:	d505      	bpl.n	800517c <_fwalk_reent+0x24>
 8005170:	6824      	ldr	r4, [r4, #0]
 8005172:	2c00      	cmp	r4, #0
 8005174:	d1f7      	bne.n	8005166 <_fwalk_reent+0xe>
 8005176:	4638      	mov	r0, r7
 8005178:	e8bd 83f8 	ldmia.w	sp!, {r3, r4, r5, r6, r7, r8, r9, pc}
 800517c:	89ab      	ldrh	r3, [r5, #12]
 800517e:	2b01      	cmp	r3, #1
 8005180:	d907      	bls.n	8005192 <_fwalk_reent+0x3a>
 8005182:	f9b5 300e 	ldrsh.w	r3, [r5, #14]
 8005186:	3301      	adds	r3, #1
 8005188:	d003      	beq.n	8005192 <_fwalk_reent+0x3a>
 800518a:	4629      	mov	r1, r5
 800518c:	4630      	mov	r0, r6
 800518e:	47c0      	blx	r8
 8005190:	4307      	orrs	r7, r0
 8005192:	3568      	adds	r5, #104	; 0x68
 8005194:	e7e9      	b.n	800516a <_fwalk_reent+0x12>

08005196 <__retarget_lock_init_recursive>:
 8005196:	4770      	bx	lr

08005198 <__retarget_lock_acquire_recursive>:
 8005198:	4770      	bx	lr

0800519a <__retarget_lock_release_recursive>:
 800519a:	4770      	bx	lr

0800519c <sbrk_aligned>:
 800519c:	b570      	push	{r4, r5, r6, lr}
 800519e:	4e0e      	ldr	r6, [pc, #56]	; (80051d8 <sbrk_aligned+0x3c>)
 80051a0:	460c      	mov	r4, r1
 80051a2:	6831      	ldr	r1, [r6, #0]
 80051a4:	4605      	mov	r5, r0
 80051a6:	b911      	cbnz	r1, 80051ae <sbrk_aligned+0x12>
 80051a8:	f000 fcd6 	bl	8005b58 <_sbrk_r>
 80051ac:	6030      	str	r0, [r6, #0]
 80051ae:	4621      	mov	r1, r4
 80051b0:	4628      	mov	r0, r5
 80051b2:	f000 fcd1 	bl	8005b58 <_sbrk_r>
 80051b6:	1c43      	adds	r3, r0, #1
 80051b8:	d00a      	beq.n	80051d0 <sbrk_aligned+0x34>
 80051ba:	1cc4      	adds	r4, r0, #3
 80051bc:	f024 0403 	bic.w	r4, r4, #3
 80051c0:	42a0      	cmp	r0, r4
 80051c2:	d007      	beq.n	80051d4 <sbrk_aligned+0x38>
 80051c4:	1a21      	subs	r1, r4, r0
 80051c6:	4628      	mov	r0, r5
 80051c8:	f000 fcc6 	bl	8005b58 <_sbrk_r>
 80051cc:	3001      	adds	r0, #1
 80051ce:	d101      	bne.n	80051d4 <sbrk_aligned+0x38>
 80051d0:	f04f 34ff 	mov.w	r4, #4294967295
 80051d4:	4620      	mov	r0, r4
 80051d6:	bd70      	pop	{r4, r5, r6, pc}
 80051d8:	200002ac 	.word	0x200002ac

080051dc <_malloc_r>:
 80051dc:	e92d 41f0 	stmdb	sp!, {r4, r5, r6, r7, r8, lr}
 80051e0:	1ccd      	adds	r5, r1, #3
 80051e2:	f025 0503 	bic.w	r5, r5, #3
 80051e6:	3508      	adds	r5, #8
 80051e8:	2d0c      	cmp	r5, #12
 80051ea:	bf38      	it	cc
 80051ec:	250c      	movcc	r5, #12
 80051ee:	2d00      	cmp	r5, #0
 80051f0:	4607      	mov	r7, r0
 80051f2:	db01      	blt.n	80051f8 <_malloc_r+0x1c>
 80051f4:	42a9      	cmp	r1, r5
 80051f6:	d905      	bls.n	8005204 <_malloc_r+0x28>
 80051f8:	230c      	movs	r3, #12
 80051fa:	2600      	movs	r6, #0
 80051fc:	603b      	str	r3, [r7, #0]
 80051fe:	4630      	mov	r0, r6
 8005200:	e8bd 81f0 	ldmia.w	sp!, {r4, r5, r6, r7, r8, pc}
 8005204:	4e2e      	ldr	r6, [pc, #184]	; (80052c0 <_malloc_r+0xe4>)
 8005206:	f000 ff49 	bl	800609c <__malloc_lock>
 800520a:	6833      	ldr	r3, [r6, #0]
 800520c:	461c      	mov	r4, r3
 800520e:	bb34      	cbnz	r4, 800525e <_malloc_r+0x82>
 8005210:	4629      	mov	r1, r5
 8005212:	4638      	mov	r0, r7
 8005214:	f7ff ffc2 	bl	800519c <sbrk_aligned>
 8005218:	1c43      	adds	r3, r0, #1
 800521a:	4604      	mov	r4, r0
 800521c:	d14d      	bne.n	80052ba <_malloc_r+0xde>
 800521e:	6834      	ldr	r4, [r6, #0]
 8005220:	4626      	mov	r6, r4
 8005222:	2e00      	cmp	r6, #0
 8005224:	d140      	bne.n	80052a8 <_malloc_r+0xcc>
 8005226:	6823      	ldr	r3, [r4, #0]
 8005228:	4631      	mov	r1, r6
 800522a:	4638      	mov	r0, r7
 800522c:	eb04 0803 	add.w	r8, r4, r3
 8005230:	f000 fc92 	bl	8005b58 <_sbrk_r>
 8005234:	4580      	cmp	r8, r0
 8005236:	d13a      	bne.n	80052ae <_malloc_r+0xd2>
 8005238:	6821      	ldr	r1, [r4, #0]
 800523a:	3503      	adds	r5, #3
 800523c:	1a6d      	subs	r5, r5, r1
 800523e:	f025 0503 	bic.w	r5, r5, #3
 8005242:	3508      	adds	r5, #8
 8005244:	2d0c      	cmp	r5, #12
 8005246:	bf38      	it	cc
 8005248:	250c      	movcc	r5, #12
 800524a:	4638      	mov	r0, r7
 800524c:	4629      	mov	r1, r5
 800524e:	f7ff ffa5 	bl	800519c <sbrk_aligned>
 8005252:	3001      	adds	r0, #1
 8005254:	d02b      	beq.n	80052ae <_malloc_r+0xd2>
 8005256:	6823      	ldr	r3, [r4, #0]
 8005258:	442b      	add	r3, r5
 800525a:	6023      	str	r3, [r4, #0]
 800525c:	e00e      	b.n	800527c <_malloc_r+0xa0>
 800525e:	6822      	ldr	r2, [r4, #0]
 8005260:	1b52      	subs	r2, r2, r5
 8005262:	d41e      	bmi.n	80052a2 <_malloc_r+0xc6>
 8005264:	2a0b      	cmp	r2, #11
 8005266:	d916      	bls.n	8005296 <_malloc_r+0xba>
 8005268:	1961      	adds	r1, r4, r5
 800526a:	42a3      	cmp	r3, r4
 800526c:	6025      	str	r5, [r4, #0]
 800526e:	bf18      	it	ne
 8005270:	6059      	strne	r1, [r3, #4]
 8005272:	6863      	ldr	r3, [r4, #4]
 8005274:	bf08      	it	eq
 8005276:	6031      	streq	r1, [r6, #0]
 8005278:	5162      	str	r2, [r4, r5]
 800527a:	604b      	str	r3, [r1, #4]
 800527c:	4638      	mov	r0, r7
 800527e:	f104 060b 	add.w	r6, r4, #11
 8005282:	f000 ff11 	bl	80060a8 <__malloc_unlock>
 8005286:	f026 0607 	bic.w	r6, r6, #7
 800528a:	1d23      	adds	r3, r4, #4
 800528c:	1af2      	subs	r2, r6, r3
 800528e:	d0b6      	beq.n	80051fe <_malloc_r+0x22>
 8005290:	1b9b      	subs	r3, r3, r6
 8005292:	50a3      	str	r3, [r4, r2]
 8005294:	e7b3      	b.n	80051fe <_malloc_r+0x22>
 8005296:	6862      	ldr	r2, [r4, #4]
 8005298:	42a3      	cmp	r3, r4
 800529a:	bf0c      	ite	eq
 800529c:	6032      	streq	r2, [r6, #0]
 800529e:	605a      	strne	r2, [r3, #4]
 80052a0:	e7ec      	b.n	800527c <_malloc_r+0xa0>
 80052a2:	4623      	mov	r3, r4
 80052a4:	6864      	ldr	r4, [r4, #4]
 80052a6:	e7b2      	b.n	800520e <_malloc_r+0x32>
 80052a8:	4634      	mov	r4, r6
 80052aa:	6876      	ldr	r6, [r6, #4]
 80052ac:	e7b9      	b.n	8005222 <_malloc_r+0x46>
 80052ae:	230c      	movs	r3, #12
 80052b0:	4638      	mov	r0, r7
 80052b2:	603b      	str	r3, [r7, #0]
 80052b4:	f000 fef8 	bl	80060a8 <__malloc_unlock>
 80052b8:	e7a1      	b.n	80051fe <_malloc_r+0x22>
 80052ba:	6025      	str	r5, [r4, #0]
 80052bc:	e7de      	b.n	800527c <_malloc_r+0xa0>
 80052be:	bf00      	nop
 80052c0:	200002a8 	.word	0x200002a8

080052c4 <__ssputs_r>:
 80052c4:	e92d 47f0 	stmdb	sp!, {r4, r5, r6, r7, r8, r9, sl, lr}
 80052c8:	688e      	ldr	r6, [r1, #8]
 80052ca:	4682      	mov	sl, r0
 80052cc:	429e      	cmp	r6, r3
 80052ce:	460c      	mov	r4, r1
 80052d0:	4690      	mov	r8, r2
 80052d2:	461f      	mov	r7, r3
 80052d4:	d838      	bhi.n	8005348 <__ssputs_r+0x84>
 80052d6:	898a      	ldrh	r2, [r1, #12]
 80052d8:	f412 6f90 	tst.w	r2, #1152	; 0x480
 80052dc:	d032      	beq.n	8005344 <__ssputs_r+0x80>
 80052de:	6825      	ldr	r5, [r4, #0]
 80052e0:	6909      	ldr	r1, [r1, #16]
 80052e2:	3301      	adds	r3, #1
 80052e4:	eba5 0901 	sub.w	r9, r5, r1
 80052e8:	6965      	ldr	r5, [r4, #20]
 80052ea:	444b      	add	r3, r9
 80052ec:	eb05 0545 	add.w	r5, r5, r5, lsl #1
 80052f0:	eb05 75d5 	add.w	r5, r5, r5, lsr #31
 80052f4:	106d      	asrs	r5, r5, #1
 80052f6:	429d      	cmp	r5, r3
 80052f8:	bf38      	it	cc
 80052fa:	461d      	movcc	r5, r3
 80052fc:	0553      	lsls	r3, r2, #21
 80052fe:	d531      	bpl.n	8005364 <__ssputs_r+0xa0>
 8005300:	4629      	mov	r1, r5
 8005302:	f7ff ff6b 	bl	80051dc <_malloc_r>
 8005306:	4606      	mov	r6, r0
 8005308:	b950      	cbnz	r0, 8005320 <__ssputs_r+0x5c>
 800530a:	230c      	movs	r3, #12
 800530c:	f04f 30ff 	mov.w	r0, #4294967295
 8005310:	f8ca 3000 	str.w	r3, [sl]
 8005314:	89a3      	ldrh	r3, [r4, #12]
 8005316:	f043 0340 	orr.w	r3, r3, #64	; 0x40
 800531a:	81a3      	strh	r3, [r4, #12]
 800531c:	e8bd 87f0 	ldmia.w	sp!, {r4, r5, r6, r7, r8, r9, sl, pc}
 8005320:	464a      	mov	r2, r9
 8005322:	6921      	ldr	r1, [r4, #16]
 8005324:	f000 fe92 	bl	800604c <memcpy>
 8005328:	89a3      	ldrh	r3, [r4, #12]
 800532a:	f423 6390 	bic.w	r3, r3, #1152	; 0x480
 800532e:	f043 0380 	orr.w	r3, r3, #128	; 0x80
 8005332:	81a3      	strh	r3, [r4, #12]
 8005334:	6126      	str	r6, [r4, #16]
 8005336:	444e      	add	r6, r9
 8005338:	6026      	str	r6, [r4, #0]
 800533a:	463e      	mov	r6, r7
 800533c:	6165      	str	r5, [r4, #20]
 800533e:	eba5 0509 	sub.w	r5, r5, r9
 8005342:	60a5      	str	r5, [r4, #8]
 8005344:	42be      	cmp	r6, r7
 8005346:	d900      	bls.n	800534a <__ssputs_r+0x86>
 8005348:	463e      	mov	r6, r7
 800534a:	4632      	mov	r2, r6
 800534c:	4641      	mov	r1, r8
 800534e:	6820      	ldr	r0, [r4, #0]
 8005350:	f000 fe8a 	bl	8006068 <memmove>
 8005354:	68a3      	ldr	r3, [r4, #8]
 8005356:	2000      	movs	r0, #0
 8005358:	1b9b      	subs	r3, r3, r6
 800535a:	60a3      	str	r3, [r4, #8]
 800535c:	6823      	ldr	r3, [r4, #0]
 800535e:	4433      	add	r3, r6
 8005360:	6023      	str	r3, [r4, #0]
 8005362:	e7db      	b.n	800531c <__ssputs_r+0x58>
 8005364:	462a      	mov	r2, r5
 8005366:	f000 feed 	bl	8006144 <_realloc_r>
 800536a:	4606      	mov	r6, r0
 800536c:	2800      	cmp	r0, #0
 800536e:	d1e1      	bne.n	8005334 <__ssputs_r+0x70>
 8005370:	4650      	mov	r0, sl
 8005372:	6921      	ldr	r1, [r4, #16]
 8005374:	f000 fe9e 	bl	80060b4 <_free_r>
 8005378:	e7c7      	b.n	800530a <__ssputs_r+0x46>
	...

0800537c <_svfiprintf_r>:
 800537c:	e92d 4ff0 	stmdb	sp!, {r4, r5, r6, r7, r8, r9, sl, fp, lr}
 8005380:	4698      	mov	r8, r3
 8005382:	898b      	ldrh	r3, [r1, #12]
 8005384:	4607      	mov	r7, r0
 8005386:	061b      	lsls	r3, r3, #24
 8005388:	460d      	mov	r5, r1
 800538a:	4614      	mov	r4, r2
 800538c:	b09d      	sub	sp, #116	; 0x74
 800538e:	d50e      	bpl.n	80053ae <_svfiprintf_r+0x32>
 8005390:	690b      	ldr	r3, [r1, #16]
 8005392:	b963      	cbnz	r3, 80053ae <_svfiprintf_r+0x32>
 8005394:	2140      	movs	r1, #64	; 0x40
 8005396:	f7ff ff21 	bl	80051dc <_malloc_r>
 800539a:	6028      	str	r0, [r5, #0]
 800539c:	6128      	str	r0, [r5, #16]
 800539e:	b920      	cbnz	r0, 80053aa <_svfiprintf_r+0x2e>
 80053a0:	230c      	movs	r3, #12
 80053a2:	603b      	str	r3, [r7, #0]
 80053a4:	f04f 30ff 	mov.w	r0, #4294967295
 80053a8:	e0d1      	b.n	800554e <_svfiprintf_r+0x1d2>
 80053aa:	2340      	movs	r3, #64	; 0x40
 80053ac:	616b      	str	r3, [r5, #20]
 80053ae:	2300      	movs	r3, #0
 80053b0:	9309      	str	r3, [sp, #36]	; 0x24
 80053b2:	2320      	movs	r3, #32
 80053b4:	f88d 3029 	strb.w	r3, [sp, #41]	; 0x29
 80053b8:	2330      	movs	r3, #48	; 0x30
 80053ba:	f04f 0901 	mov.w	r9, #1
 80053be:	f8cd 800c 	str.w	r8, [sp, #12]
 80053c2:	f8df 81a4 	ldr.w	r8, [pc, #420]	; 8005568 <_svfiprintf_r+0x1ec>
 80053c6:	f88d 302a 	strb.w	r3, [sp, #42]	; 0x2a
 80053ca:	4623      	mov	r3, r4
 80053cc:	469a      	mov	sl, r3
 80053ce:	f813 2b01 	ldrb.w	r2, [r3], #1
 80053d2:	b10a      	cbz	r2, 80053d8 <_svfiprintf_r+0x5c>
 80053d4:	2a25      	cmp	r2, #37	; 0x25
 80053d6:	d1f9      	bne.n	80053cc <_svfiprintf_r+0x50>
 80053d8:	ebba 0b04 	subs.w	fp, sl, r4
 80053dc:	d00b      	beq.n	80053f6 <_svfiprintf_r+0x7a>
 80053de:	465b      	mov	r3, fp
 80053e0:	4622      	mov	r2, r4
 80053e2:	4629      	mov	r1, r5
 80053e4:	4638      	mov	r0, r7
 80053e6:	f7ff ff6d 	bl	80052c4 <__ssputs_r>
 80053ea:	3001      	adds	r0, #1
 80053ec:	f000 80aa 	beq.w	8005544 <_svfiprintf_r+0x1c8>
 80053f0:	9a09      	ldr	r2, [sp, #36]	; 0x24
 80053f2:	445a      	add	r2, fp
 80053f4:	9209      	str	r2, [sp, #36]	; 0x24
 80053f6:	f89a 3000 	ldrb.w	r3, [sl]
 80053fa:	2b00      	cmp	r3, #0
 80053fc:	f000 80a2 	beq.w	8005544 <_svfiprintf_r+0x1c8>
 8005400:	2300      	movs	r3, #0
 8005402:	f04f 32ff 	mov.w	r2, #4294967295
 8005406:	e9cd 2305 	strd	r2, r3, [sp, #20]
 800540a:	f10a 0a01 	add.w	sl, sl, #1
 800540e:	9304      	str	r3, [sp, #16]
 8005410:	9307      	str	r3, [sp, #28]
 8005412:	f88d 3053 	strb.w	r3, [sp, #83]	; 0x53
 8005416:	931a      	str	r3, [sp, #104]	; 0x68
 8005418:	4654      	mov	r4, sl
 800541a:	2205      	movs	r2, #5
 800541c:	f814 1b01 	ldrb.w	r1, [r4], #1
 8005420:	4851      	ldr	r0, [pc, #324]	; (8005568 <_svfiprintf_r+0x1ec>)
 8005422:	f000 fe05 	bl	8006030 <memchr>
 8005426:	9a04      	ldr	r2, [sp, #16]
 8005428:	b9d8      	cbnz	r0, 8005462 <_svfiprintf_r+0xe6>
 800542a:	06d0      	lsls	r0, r2, #27
 800542c:	bf44      	itt	mi
 800542e:	2320      	movmi	r3, #32
 8005430:	f88d 3053 	strbmi.w	r3, [sp, #83]	; 0x53
 8005434:	0711      	lsls	r1, r2, #28
 8005436:	bf44      	itt	mi
 8005438:	232b      	movmi	r3, #43	; 0x2b
 800543a:	f88d 3053 	strbmi.w	r3, [sp, #83]	; 0x53
 800543e:	f89a 3000 	ldrb.w	r3, [sl]
 8005442:	2b2a      	cmp	r3, #42	; 0x2a
 8005444:	d015      	beq.n	8005472 <_svfiprintf_r+0xf6>
 8005446:	4654      	mov	r4, sl
 8005448:	2000      	movs	r0, #0
 800544a:	f04f 0c0a 	mov.w	ip, #10
 800544e:	9a07      	ldr	r2, [sp, #28]
 8005450:	4621      	mov	r1, r4
 8005452:	f811 3b01 	ldrb.w	r3, [r1], #1
 8005456:	3b30      	subs	r3, #48	; 0x30
 8005458:	2b09      	cmp	r3, #9
 800545a:	d94e      	bls.n	80054fa <_svfiprintf_r+0x17e>
 800545c:	b1b0      	cbz	r0, 800548c <_svfiprintf_r+0x110>
 800545e:	9207      	str	r2, [sp, #28]
 8005460:	e014      	b.n	800548c <_svfiprintf_r+0x110>
 8005462:	eba0 0308 	sub.w	r3, r0, r8
 8005466:	fa09 f303 	lsl.w	r3, r9, r3
 800546a:	4313      	orrs	r3, r2
 800546c:	46a2      	mov	sl, r4
 800546e:	9304      	str	r3, [sp, #16]
 8005470:	e7d2      	b.n	8005418 <_svfiprintf_r+0x9c>
 8005472:	9b03      	ldr	r3, [sp, #12]
 8005474:	1d19      	adds	r1, r3, #4
 8005476:	681b      	ldr	r3, [r3, #0]
 8005478:	9103      	str	r1, [sp, #12]
 800547a:	2b00      	cmp	r3, #0
 800547c:	bfbb      	ittet	lt
 800547e:	425b      	neglt	r3, r3
 8005480:	f042 0202 	orrlt.w	r2, r2, #2
 8005484:	9307      	strge	r3, [sp, #28]
 8005486:	9307      	strlt	r3, [sp, #28]
 8005488:	bfb8      	it	lt
 800548a:	9204      	strlt	r2, [sp, #16]
 800548c:	7823      	ldrb	r3, [r4, #0]
 800548e:	2b2e      	cmp	r3, #46	; 0x2e
 8005490:	d10c      	bne.n	80054ac <_svfiprintf_r+0x130>
 8005492:	7863      	ldrb	r3, [r4, #1]
 8005494:	2b2a      	cmp	r3, #42	; 0x2a
 8005496:	d135      	bne.n	8005504 <_svfiprintf_r+0x188>
 8005498:	9b03      	ldr	r3, [sp, #12]
 800549a:	3402      	adds	r4, #2
 800549c:	1d1a      	adds	r2, r3, #4
 800549e:	681b      	ldr	r3, [r3, #0]
 80054a0:	9203      	str	r2, [sp, #12]
 80054a2:	2b00      	cmp	r3, #0
 80054a4:	bfb8      	it	lt
 80054a6:	f04f 33ff 	movlt.w	r3, #4294967295
 80054aa:	9305      	str	r3, [sp, #20]
 80054ac:	f8df a0bc 	ldr.w	sl, [pc, #188]	; 800556c <_svfiprintf_r+0x1f0>
 80054b0:	2203      	movs	r2, #3
 80054b2:	4650      	mov	r0, sl
 80054b4:	7821      	ldrb	r1, [r4, #0]
 80054b6:	f000 fdbb 	bl	8006030 <memchr>
 80054ba:	b140      	cbz	r0, 80054ce <_svfiprintf_r+0x152>
 80054bc:	2340      	movs	r3, #64	; 0x40
 80054be:	eba0 000a 	sub.w	r0, r0, sl
 80054c2:	fa03 f000 	lsl.w	r0, r3, r0
 80054c6:	9b04      	ldr	r3, [sp, #16]
 80054c8:	3401      	adds	r4, #1
 80054ca:	4303      	orrs	r3, r0
 80054cc:	9304      	str	r3, [sp, #16]
 80054ce:	f814 1b01 	ldrb.w	r1, [r4], #1
 80054d2:	2206      	movs	r2, #6
 80054d4:	4826      	ldr	r0, [pc, #152]	; (8005570 <_svfiprintf_r+0x1f4>)
 80054d6:	f88d 1028 	strb.w	r1, [sp, #40]	; 0x28
 80054da:	f000 fda9 	bl	8006030 <memchr>
 80054de:	2800      	cmp	r0, #0
 80054e0:	d038      	beq.n	8005554 <_svfiprintf_r+0x1d8>
 80054e2:	4b24      	ldr	r3, [pc, #144]	; (8005574 <_svfiprintf_r+0x1f8>)
 80054e4:	bb1b      	cbnz	r3, 800552e <_svfiprintf_r+0x1b2>
 80054e6:	9b03      	ldr	r3, [sp, #12]
 80054e8:	3307      	adds	r3, #7
 80054ea:	f023 0307 	bic.w	r3, r3, #7
 80054ee:	3308      	adds	r3, #8
 80054f0:	9303      	str	r3, [sp, #12]
 80054f2:	9b09      	ldr	r3, [sp, #36]	; 0x24
 80054f4:	4433      	add	r3, r6
 80054f6:	9309      	str	r3, [sp, #36]	; 0x24
 80054f8:	e767      	b.n	80053ca <_svfiprintf_r+0x4e>
 80054fa:	460c      	mov	r4, r1
 80054fc:	2001      	movs	r0, #1
 80054fe:	fb0c 3202 	mla	r2, ip, r2, r3
 8005502:	e7a5      	b.n	8005450 <_svfiprintf_r+0xd4>
 8005504:	2300      	movs	r3, #0
 8005506:	f04f 0c0a 	mov.w	ip, #10
 800550a:	4619      	mov	r1, r3
 800550c:	3401      	adds	r4, #1
 800550e:	9305      	str	r3, [sp, #20]
 8005510:	4620      	mov	r0, r4
 8005512:	f810 2b01 	ldrb.w	r2, [r0], #1
 8005516:	3a30      	subs	r2, #48	; 0x30
 8005518:	2a09      	cmp	r2, #9
 800551a:	d903      	bls.n	8005524 <_svfiprintf_r+0x1a8>
 800551c:	2b00      	cmp	r3, #0
 800551e:	d0c5      	beq.n	80054ac <_svfiprintf_r+0x130>
 8005520:	9105      	str	r1, [sp, #20]
 8005522:	e7c3      	b.n	80054ac <_svfiprintf_r+0x130>
 8005524:	4604      	mov	r4, r0
 8005526:	2301      	movs	r3, #1
 8005528:	fb0c 2101 	mla	r1, ip, r1, r2
 800552c:	e7f0      	b.n	8005510 <_svfiprintf_r+0x194>
 800552e:	ab03      	add	r3, sp, #12
 8005530:	9300      	str	r3, [sp, #0]
 8005532:	462a      	mov	r2, r5
 8005534:	4638      	mov	r0, r7
 8005536:	4b10      	ldr	r3, [pc, #64]	; (8005578 <_svfiprintf_r+0x1fc>)
 8005538:	a904      	add	r1, sp, #16
 800553a:	f3af 8000 	nop.w
 800553e:	1c42      	adds	r2, r0, #1
 8005540:	4606      	mov	r6, r0
 8005542:	d1d6      	bne.n	80054f2 <_svfiprintf_r+0x176>
 8005544:	89ab      	ldrh	r3, [r5, #12]
 8005546:	065b      	lsls	r3, r3, #25
 8005548:	f53f af2c 	bmi.w	80053a4 <_svfiprintf_r+0x28>
 800554c:	9809      	ldr	r0, [sp, #36]	; 0x24
 800554e:	b01d      	add	sp, #116	; 0x74
 8005550:	e8bd 8ff0 	ldmia.w	sp!, {r4, r5, r6, r7, r8, r9, sl, fp, pc}
 8005554:	ab03      	add	r3, sp, #12
 8005556:	9300      	str	r3, [sp, #0]
 8005558:	462a      	mov	r2, r5
 800555a:	4638      	mov	r0, r7
 800555c:	4b06      	ldr	r3, [pc, #24]	; (8005578 <_svfiprintf_r+0x1fc>)
 800555e:	a904      	add	r1, sp, #16
 8005560:	f000 f9d4 	bl	800590c <_printf_i>
 8005564:	e7eb      	b.n	800553e <_svfiprintf_r+0x1c2>
 8005566:	bf00      	nop
 8005568:	08006328 	.word	0x08006328
 800556c:	0800632e 	.word	0x0800632e
 8005570:	08006332 	.word	0x08006332
 8005574:	00000000 	.word	0x00000000
 8005578:	080052c5 	.word	0x080052c5

0800557c <__sfputc_r>:
 800557c:	6893      	ldr	r3, [r2, #8]
 800557e:	b410      	push	{r4}
 8005580:	3b01      	subs	r3, #1
 8005582:	2b00      	cmp	r3, #0
 8005584:	6093      	str	r3, [r2, #8]
 8005586:	da07      	bge.n	8005598 <__sfputc_r+0x1c>
 8005588:	6994      	ldr	r4, [r2, #24]
 800558a:	42a3      	cmp	r3, r4
 800558c:	db01      	blt.n	8005592 <__sfputc_r+0x16>
 800558e:	290a      	cmp	r1, #10
 8005590:	d102      	bne.n	8005598 <__sfputc_r+0x1c>
 8005592:	bc10      	pop	{r4}
 8005594:	f000 bb34 	b.w	8005c00 <__swbuf_r>
 8005598:	6813      	ldr	r3, [r2, #0]
 800559a:	1c58      	adds	r0, r3, #1
 800559c:	6010      	str	r0, [r2, #0]
 800559e:	7019      	strb	r1, [r3, #0]
 80055a0:	4608      	mov	r0, r1
 80055a2:	bc10      	pop	{r4}
 80055a4:	4770      	bx	lr

080055a6 <__sfputs_r>:
 80055a6:	b5f8      	push	{r3, r4, r5, r6, r7, lr}
 80055a8:	4606      	mov	r6, r0
 80055aa:	460f      	mov	r7, r1
 80055ac:	4614      	mov	r4, r2
 80055ae:	18d5      	adds	r5, r2, r3
 80055b0:	42ac      	cmp	r4, r5
 80055b2:	d101      	bne.n	80055b8 <__sfputs_r+0x12>
 80055b4:	2000      	movs	r0, #0
 80055b6:	e007      	b.n	80055c8 <__sfputs_r+0x22>
 80055b8:	463a      	mov	r2, r7
 80055ba:	4630      	mov	r0, r6
 80055bc:	f814 1b01 	ldrb.w	r1, [r4], #1
 80055c0:	f7ff ffdc 	bl	800557c <__sfputc_r>
 80055c4:	1c43      	adds	r3, r0, #1
 80055c6:	d1f3      	bne.n	80055b0 <__sfputs_r+0xa>
 80055c8:	bdf8      	pop	{r3, r4, r5, r6, r7, pc}
	...

080055cc <_vfiprintf_r>:
 80055cc:	e92d 4ff0 	stmdb	sp!, {r4, r5, r6, r7, r8, r9, sl, fp, lr}
 80055d0:	460d      	mov	r5, r1
 80055d2:	4614      	mov	r4, r2
 80055d4:	4698      	mov	r8, r3
 80055d6:	4606      	mov	r6, r0
 80055d8:	b09d      	sub	sp, #116	; 0x74
 80055da:	b118      	cbz	r0, 80055e4 <_vfiprintf_r+0x18>
 80055dc:	6983      	ldr	r3, [r0, #24]
 80055de:	b90b      	cbnz	r3, 80055e4 <_vfiprintf_r+0x18>
 80055e0:	f7ff fd3c 	bl	800505c <__sinit>
 80055e4:	4b89      	ldr	r3, [pc, #548]	; (800580c <_vfiprintf_r+0x240>)
 80055e6:	429d      	cmp	r5, r3
 80055e8:	d11b      	bne.n	8005622 <_vfiprintf_r+0x56>
 80055ea:	6875      	ldr	r5, [r6, #4]
 80055ec:	6e6b      	ldr	r3, [r5, #100]	; 0x64
 80055ee:	07d9      	lsls	r1, r3, #31
 80055f0:	d405      	bmi.n	80055fe <_vfiprintf_r+0x32>
 80055f2:	89ab      	ldrh	r3, [r5, #12]
 80055f4:	059a      	lsls	r2, r3, #22
 80055f6:	d402      	bmi.n	80055fe <_vfiprintf_r+0x32>
 80055f8:	6da8      	ldr	r0, [r5, #88]	; 0x58
 80055fa:	f7ff fdcd 	bl	8005198 <__retarget_lock_acquire_recursive>
 80055fe:	89ab      	ldrh	r3, [r5, #12]
 8005600:	071b      	lsls	r3, r3, #28
 8005602:	d501      	bpl.n	8005608 <_vfiprintf_r+0x3c>
 8005604:	692b      	ldr	r3, [r5, #16]
 8005606:	b9eb      	cbnz	r3, 8005644 <_vfiprintf_r+0x78>
 8005608:	4629      	mov	r1, r5
 800560a:	4630      	mov	r0, r6
 800560c:	f000 fb5c 	bl	8005cc8 <__swsetup_r>
 8005610:	b1c0      	cbz	r0, 8005644 <_vfiprintf_r+0x78>
 8005612:	6e6b      	ldr	r3, [r5, #100]	; 0x64
 8005614:	07dc      	lsls	r4, r3, #31
 8005616:	d50e      	bpl.n	8005636 <_vfiprintf_r+0x6a>
 8005618:	f04f 30ff 	mov.w	r0, #4294967295
 800561c:	b01d      	add	sp, #116	; 0x74
 800561e:	e8bd 8ff0 	ldmia.w	sp!, {r4, r5, r6, r7, r8, r9, sl, fp, pc}
 8005622:	4b7b      	ldr	r3, [pc, #492]	; (8005810 <_vfiprintf_r+0x244>)
 8005624:	429d      	cmp	r5, r3
 8005626:	d101      	bne.n	800562c <_vfiprintf_r+0x60>
 8005628:	68b5      	ldr	r5, [r6, #8]
 800562a:	e7df      	b.n	80055ec <_vfiprintf_r+0x20>
 800562c:	4b79      	ldr	r3, [pc, #484]	; (8005814 <_vfiprintf_r+0x248>)
 800562e:	429d      	cmp	r5, r3
 8005630:	bf08      	it	eq
 8005632:	68f5      	ldreq	r5, [r6, #12]
 8005634:	e7da      	b.n	80055ec <_vfiprintf_r+0x20>
 8005636:	89ab      	ldrh	r3, [r5, #12]
 8005638:	0598      	lsls	r0, r3, #22
 800563a:	d4ed      	bmi.n	8005618 <_vfiprintf_r+0x4c>
 800563c:	6da8      	ldr	r0, [r5, #88]	; 0x58
 800563e:	f7ff fdac 	bl	800519a <__retarget_lock_release_recursive>
 8005642:	e7e9      	b.n	8005618 <_vfiprintf_r+0x4c>
 8005644:	2300      	movs	r3, #0
 8005646:	9309      	str	r3, [sp, #36]	; 0x24
 8005648:	2320      	movs	r3, #32
 800564a:	f88d 3029 	strb.w	r3, [sp, #41]	; 0x29
 800564e:	2330      	movs	r3, #48	; 0x30
 8005650:	f04f 0901 	mov.w	r9, #1
 8005654:	f8cd 800c 	str.w	r8, [sp, #12]
 8005658:	f8df 81bc 	ldr.w	r8, [pc, #444]	; 8005818 <_vfiprintf_r+0x24c>
 800565c:	f88d 302a 	strb.w	r3, [sp, #42]	; 0x2a
 8005660:	4623      	mov	r3, r4
 8005662:	469a      	mov	sl, r3
 8005664:	f813 2b01 	ldrb.w	r2, [r3], #1
 8005668:	b10a      	cbz	r2, 800566e <_vfiprintf_r+0xa2>
 800566a:	2a25      	cmp	r2, #37	; 0x25
 800566c:	d1f9      	bne.n	8005662 <_vfiprintf_r+0x96>
 800566e:	ebba 0b04 	subs.w	fp, sl, r4
 8005672:	d00b      	beq.n	800568c <_vfiprintf_r+0xc0>
 8005674:	465b      	mov	r3, fp
 8005676:	4622      	mov	r2, r4
 8005678:	4629      	mov	r1, r5
 800567a:	4630      	mov	r0, r6
 800567c:	f7ff ff93 	bl	80055a6 <__sfputs_r>
 8005680:	3001      	adds	r0, #1
 8005682:	f000 80aa 	beq.w	80057da <_vfiprintf_r+0x20e>
 8005686:	9a09      	ldr	r2, [sp, #36]	; 0x24
 8005688:	445a      	add	r2, fp
 800568a:	9209      	str	r2, [sp, #36]	; 0x24
 800568c:	f89a 3000 	ldrb.w	r3, [sl]
 8005690:	2b00      	cmp	r3, #0
 8005692:	f000 80a2 	beq.w	80057da <_vfiprintf_r+0x20e>
 8005696:	2300      	movs	r3, #0
 8005698:	f04f 32ff 	mov.w	r2, #4294967295
 800569c:	e9cd 2305 	strd	r2, r3, [sp, #20]
 80056a0:	f10a 0a01 	add.w	sl, sl, #1
 80056a4:	9304      	str	r3, [sp, #16]
 80056a6:	9307      	str	r3, [sp, #28]
 80056a8:	f88d 3053 	strb.w	r3, [sp, #83]	; 0x53
 80056ac:	931a      	str	r3, [sp, #104]	; 0x68
 80056ae:	4654      	mov	r4, sl
 80056b0:	2205      	movs	r2, #5
 80056b2:	f814 1b01 	ldrb.w	r1, [r4], #1
 80056b6:	4858      	ldr	r0, [pc, #352]	; (8005818 <_vfiprintf_r+0x24c>)
 80056b8:	f000 fcba 	bl	8006030 <memchr>
 80056bc:	9a04      	ldr	r2, [sp, #16]
 80056be:	b9d8      	cbnz	r0, 80056f8 <_vfiprintf_r+0x12c>
 80056c0:	06d1      	lsls	r1, r2, #27
 80056c2:	bf44      	itt	mi
 80056c4:	2320      	movmi	r3, #32
 80056c6:	f88d 3053 	strbmi.w	r3, [sp, #83]	; 0x53
 80056ca:	0713      	lsls	r3, r2, #28
 80056cc:	bf44      	itt	mi
 80056ce:	232b      	movmi	r3, #43	; 0x2b
 80056d0:	f88d 3053 	strbmi.w	r3, [sp, #83]	; 0x53
 80056d4:	f89a 3000 	ldrb.w	r3, [sl]
 80056d8:	2b2a      	cmp	r3, #42	; 0x2a
 80056da:	d015      	beq.n	8005708 <_vfiprintf_r+0x13c>
 80056dc:	4654      	mov	r4, sl
 80056de:	2000      	movs	r0, #0
 80056e0:	f04f 0c0a 	mov.w	ip, #10
 80056e4:	9a07      	ldr	r2, [sp, #28]
 80056e6:	4621      	mov	r1, r4
 80056e8:	f811 3b01 	ldrb.w	r3, [r1], #1
 80056ec:	3b30      	subs	r3, #48	; 0x30
 80056ee:	2b09      	cmp	r3, #9
 80056f0:	d94e      	bls.n	8005790 <_vfiprintf_r+0x1c4>
 80056f2:	b1b0      	cbz	r0, 8005722 <_vfiprintf_r+0x156>
 80056f4:	9207      	str	r2, [sp, #28]
 80056f6:	e014      	b.n	8005722 <_vfiprintf_r+0x156>
 80056f8:	eba0 0308 	sub.w	r3, r0, r8
 80056fc:	fa09 f303 	lsl.w	r3, r9, r3
 8005700:	4313      	orrs	r3, r2
 8005702:	46a2      	mov	sl, r4
 8005704:	9304      	str	r3, [sp, #16]
 8005706:	e7d2      	b.n	80056ae <_vfiprintf_r+0xe2>
 8005708:	9b03      	ldr	r3, [sp, #12]
 800570a:	1d19      	adds	r1, r3, #4
 800570c:	681b      	ldr	r3, [r3, #0]
 800570e:	9103      	str	r1, [sp, #12]
 8005710:	2b00      	cmp	r3, #0
 8005712:	bfbb      	ittet	lt
 8005714:	425b      	neglt	r3, r3
 8005716:	f042 0202 	orrlt.w	r2, r2, #2
 800571a:	9307      	strge	r3, [sp, #28]
 800571c:	9307      	strlt	r3, [sp, #28]
 800571e:	bfb8      	it	lt
 8005720:	9204      	strlt	r2, [sp, #16]
 8005722:	7823      	ldrb	r3, [r4, #0]
 8005724:	2b2e      	cmp	r3, #46	; 0x2e
 8005726:	d10c      	bne.n	8005742 <_vfiprintf_r+0x176>
 8005728:	7863      	ldrb	r3, [r4, #1]
 800572a:	2b2a      	cmp	r3, #42	; 0x2a
 800572c:	d135      	bne.n	800579a <_vfiprintf_r+0x1ce>
 800572e:	9b03      	ldr	r3, [sp, #12]
 8005730:	3402      	adds	r4, #2
 8005732:	1d1a      	adds	r2, r3, #4
 8005734:	681b      	ldr	r3, [r3, #0]
 8005736:	9203      	str	r2, [sp, #12]
 8005738:	2b00      	cmp	r3, #0
 800573a:	bfb8      	it	lt
 800573c:	f04f 33ff 	movlt.w	r3, #4294967295
 8005740:	9305      	str	r3, [sp, #20]
 8005742:	f8df a0d8 	ldr.w	sl, [pc, #216]	; 800581c <_vfiprintf_r+0x250>
 8005746:	2203      	movs	r2, #3
 8005748:	4650      	mov	r0, sl
 800574a:	7821      	ldrb	r1, [r4, #0]
 800574c:	f000 fc70 	bl	8006030 <memchr>
 8005750:	b140      	cbz	r0, 8005764 <_vfiprintf_r+0x198>
 8005752:	2340      	movs	r3, #64	; 0x40
 8005754:	eba0 000a 	sub.w	r0, r0, sl
 8005758:	fa03 f000 	lsl.w	r0, r3, r0
 800575c:	9b04      	ldr	r3, [sp, #16]
 800575e:	3401      	adds	r4, #1
 8005760:	4303      	orrs	r3, r0
 8005762:	9304      	str	r3, [sp, #16]
 8005764:	f814 1b01 	ldrb.w	r1, [r4], #1
 8005768:	2206      	movs	r2, #6
 800576a:	482d      	ldr	r0, [pc, #180]	; (8005820 <_vfiprintf_r+0x254>)
 800576c:	f88d 1028 	strb.w	r1, [sp, #40]	; 0x28
 8005770:	f000 fc5e 	bl	8006030 <memchr>
 8005774:	2800      	cmp	r0, #0
 8005776:	d03f      	beq.n	80057f8 <_vfiprintf_r+0x22c>
 8005778:	4b2a      	ldr	r3, [pc, #168]	; (8005824 <_vfiprintf_r+0x258>)
 800577a:	bb1b      	cbnz	r3, 80057c4 <_vfiprintf_r+0x1f8>
 800577c:	9b03      	ldr	r3, [sp, #12]
 800577e:	3307      	adds	r3, #7
 8005780:	f023 0307 	bic.w	r3, r3, #7
 8005784:	3308      	adds	r3, #8
 8005786:	9303      	str	r3, [sp, #12]
 8005788:	9b09      	ldr	r3, [sp, #36]	; 0x24
 800578a:	443b      	add	r3, r7
 800578c:	9309      	str	r3, [sp, #36]	; 0x24
 800578e:	e767      	b.n	8005660 <_vfiprintf_r+0x94>
 8005790:	460c      	mov	r4, r1
 8005792:	2001      	movs	r0, #1
 8005794:	fb0c 3202 	mla	r2, ip, r2, r3
 8005798:	e7a5      	b.n	80056e6 <_vfiprintf_r+0x11a>
 800579a:	2300      	movs	r3, #0
 800579c:	f04f 0c0a 	mov.w	ip, #10
 80057a0:	4619      	mov	r1, r3
 80057a2:	3401      	adds	r4, #1
 80057a4:	9305      	str	r3, [sp, #20]
 80057a6:	4620      	mov	r0, r4
 80057a8:	f810 2b01 	ldrb.w	r2, [r0], #1
 80057ac:	3a30      	subs	r2, #48	; 0x30
 80057ae:	2a09      	cmp	r2, #9
 80057b0:	d903      	bls.n	80057ba <_vfiprintf_r+0x1ee>
 80057b2:	2b00      	cmp	r3, #0
 80057b4:	d0c5      	beq.n	8005742 <_vfiprintf_r+0x176>
 80057b6:	9105      	str	r1, [sp, #20]
 80057b8:	e7c3      	b.n	8005742 <_vfiprintf_r+0x176>
 80057ba:	4604      	mov	r4, r0
 80057bc:	2301      	movs	r3, #1
 80057be:	fb0c 2101 	mla	r1, ip, r1, r2
 80057c2:	e7f0      	b.n	80057a6 <_vfiprintf_r+0x1da>
 80057c4:	ab03      	add	r3, sp, #12
 80057c6:	9300      	str	r3, [sp, #0]
 80057c8:	462a      	mov	r2, r5
 80057ca:	4630      	mov	r0, r6
 80057cc:	4b16      	ldr	r3, [pc, #88]	; (8005828 <_vfiprintf_r+0x25c>)
 80057ce:	a904      	add	r1, sp, #16
 80057d0:	f3af 8000 	nop.w
 80057d4:	4607      	mov	r7, r0
 80057d6:	1c78      	adds	r0, r7, #1
 80057d8:	d1d6      	bne.n	8005788 <_vfiprintf_r+0x1bc>
 80057da:	6e6b      	ldr	r3, [r5, #100]	; 0x64
 80057dc:	07d9      	lsls	r1, r3, #31
 80057de:	d405      	bmi.n	80057ec <_vfiprintf_r+0x220>
 80057e0:	89ab      	ldrh	r3, [r5, #12]
 80057e2:	059a      	lsls	r2, r3, #22
 80057e4:	d402      	bmi.n	80057ec <_vfiprintf_r+0x220>
 80057e6:	6da8      	ldr	r0, [r5, #88]	; 0x58
 80057e8:	f7ff fcd7 	bl	800519a <__retarget_lock_release_recursive>
 80057ec:	89ab      	ldrh	r3, [r5, #12]
 80057ee:	065b      	lsls	r3, r3, #25
 80057f0:	f53f af12 	bmi.w	8005618 <_vfiprintf_r+0x4c>
 80057f4:	9809      	ldr	r0, [sp, #36]	; 0x24
 80057f6:	e711      	b.n	800561c <_vfiprintf_r+0x50>
 80057f8:	ab03      	add	r3, sp, #12
 80057fa:	9300      	str	r3, [sp, #0]
 80057fc:	462a      	mov	r2, r5
 80057fe:	4630      	mov	r0, r6
 8005800:	4b09      	ldr	r3, [pc, #36]	; (8005828 <_vfiprintf_r+0x25c>)
 8005802:	a904      	add	r1, sp, #16
 8005804:	f000 f882 	bl	800590c <_printf_i>
 8005808:	e7e4      	b.n	80057d4 <_vfiprintf_r+0x208>
 800580a:	bf00      	nop
 800580c:	080062e8 	.word	0x080062e8
 8005810:	08006308 	.word	0x08006308
 8005814:	080062c8 	.word	0x080062c8
 8005818:	08006328 	.word	0x08006328
 800581c:	0800632e 	.word	0x0800632e
 8005820:	08006332 	.word	0x08006332
 8005824:	00000000 	.word	0x00000000
 8005828:	080055a7 	.word	0x080055a7

0800582c <_printf_common>:
 800582c:	e92d 47f0 	stmdb	sp!, {r4, r5, r6, r7, r8, r9, sl, lr}
 8005830:	4616      	mov	r6, r2
 8005832:	4699      	mov	r9, r3
 8005834:	688a      	ldr	r2, [r1, #8]
 8005836:	690b      	ldr	r3, [r1, #16]
 8005838:	4607      	mov	r7, r0
 800583a:	4293      	cmp	r3, r2
 800583c:	bfb8      	it	lt
 800583e:	4613      	movlt	r3, r2
 8005840:	6033      	str	r3, [r6, #0]
 8005842:	f891 2043 	ldrb.w	r2, [r1, #67]	; 0x43
 8005846:	460c      	mov	r4, r1
 8005848:	f8dd 8020 	ldr.w	r8, [sp, #32]
 800584c:	b10a      	cbz	r2, 8005852 <_printf_common+0x26>
 800584e:	3301      	adds	r3, #1
 8005850:	6033      	str	r3, [r6, #0]
 8005852:	6823      	ldr	r3, [r4, #0]
 8005854:	0699      	lsls	r1, r3, #26
 8005856:	bf42      	ittt	mi
 8005858:	6833      	ldrmi	r3, [r6, #0]
 800585a:	3302      	addmi	r3, #2
 800585c:	6033      	strmi	r3, [r6, #0]
 800585e:	6825      	ldr	r5, [r4, #0]
 8005860:	f015 0506 	ands.w	r5, r5, #6
 8005864:	d106      	bne.n	8005874 <_printf_common+0x48>
 8005866:	f104 0a19 	add.w	sl, r4, #25
 800586a:	68e3      	ldr	r3, [r4, #12]
 800586c:	6832      	ldr	r2, [r6, #0]
 800586e:	1a9b      	subs	r3, r3, r2
 8005870:	42ab      	cmp	r3, r5
 8005872:	dc28      	bgt.n	80058c6 <_printf_common+0x9a>
 8005874:	f894 2043 	ldrb.w	r2, [r4, #67]	; 0x43
 8005878:	1e13      	subs	r3, r2, #0
 800587a:	6822      	ldr	r2, [r4, #0]
 800587c:	bf18      	it	ne
 800587e:	2301      	movne	r3, #1
 8005880:	0692      	lsls	r2, r2, #26
 8005882:	d42d      	bmi.n	80058e0 <_printf_common+0xb4>
 8005884:	4649      	mov	r1, r9
 8005886:	4638      	mov	r0, r7
 8005888:	f104 0243 	add.w	r2, r4, #67	; 0x43
 800588c:	47c0      	blx	r8
 800588e:	3001      	adds	r0, #1
 8005890:	d020      	beq.n	80058d4 <_printf_common+0xa8>
 8005892:	6823      	ldr	r3, [r4, #0]
 8005894:	68e5      	ldr	r5, [r4, #12]
 8005896:	f003 0306 	and.w	r3, r3, #6
 800589a:	2b04      	cmp	r3, #4
 800589c:	bf18      	it	ne
 800589e:	2500      	movne	r5, #0
 80058a0:	6832      	ldr	r2, [r6, #0]
 80058a2:	f04f 0600 	mov.w	r6, #0
 80058a6:	68a3      	ldr	r3, [r4, #8]
 80058a8:	bf08      	it	eq
 80058aa:	1aad      	subeq	r5, r5, r2
 80058ac:	6922      	ldr	r2, [r4, #16]
 80058ae:	bf08      	it	eq
 80058b0:	ea25 75e5 	biceq.w	r5, r5, r5, asr #31
 80058b4:	4293      	cmp	r3, r2
 80058b6:	bfc4      	itt	gt
 80058b8:	1a9b      	subgt	r3, r3, r2
 80058ba:	18ed      	addgt	r5, r5, r3
 80058bc:	341a      	adds	r4, #26
 80058be:	42b5      	cmp	r5, r6
 80058c0:	d11a      	bne.n	80058f8 <_printf_common+0xcc>
 80058c2:	2000      	movs	r0, #0
 80058c4:	e008      	b.n	80058d8 <_printf_common+0xac>
 80058c6:	2301      	movs	r3, #1
 80058c8:	4652      	mov	r2, sl
 80058ca:	4649      	mov	r1, r9
 80058cc:	4638      	mov	r0, r7
 80058ce:	47c0      	blx	r8
 80058d0:	3001      	adds	r0, #1
 80058d2:	d103      	bne.n	80058dc <_printf_common+0xb0>
 80058d4:	f04f 30ff 	mov.w	r0, #4294967295
 80058d8:	e8bd 87f0 	ldmia.w	sp!, {r4, r5, r6, r7, r8, r9, sl, pc}
 80058dc:	3501      	adds	r5, #1
 80058de:	e7c4      	b.n	800586a <_printf_common+0x3e>
 80058e0:	2030      	movs	r0, #48	; 0x30
 80058e2:	18e1      	adds	r1, r4, r3
 80058e4:	f881 0043 	strb.w	r0, [r1, #67]	; 0x43
 80058e8:	1c5a      	adds	r2, r3, #1
 80058ea:	f894 1045 	ldrb.w	r1, [r4, #69]	; 0x45
 80058ee:	4422      	add	r2, r4
 80058f0:	3302      	adds	r3, #2
 80058f2:	f882 1043 	strb.w	r1, [r2, #67]	; 0x43
 80058f6:	e7c5      	b.n	8005884 <_printf_common+0x58>
 80058f8:	2301      	movs	r3, #1
 80058fa:	4622      	mov	r2, r4
 80058fc:	4649      	mov	r1, r9
 80058fe:	4638      	mov	r0, r7
 8005900:	47c0      	blx	r8
 8005902:	3001      	adds	r0, #1
 8005904:	d0e6      	beq.n	80058d4 <_printf_common+0xa8>
 8005906:	3601      	adds	r6, #1
 8005908:	e7d9      	b.n	80058be <_printf_common+0x92>
	...

0800590c <_printf_i>:
 800590c:	e92d 47ff 	stmdb	sp!, {r0, r1, r2, r3, r4, r5, r6, r7, r8, r9, sl, lr}
 8005910:	7e0f      	ldrb	r7, [r1, #24]
 8005912:	4691      	mov	r9, r2
 8005914:	2f78      	cmp	r7, #120	; 0x78
 8005916:	4680      	mov	r8, r0
 8005918:	460c      	mov	r4, r1
 800591a:	469a      	mov	sl, r3
 800591c:	9d0c      	ldr	r5, [sp, #48]	; 0x30
 800591e:	f101 0243 	add.w	r2, r1, #67	; 0x43
 8005922:	d807      	bhi.n	8005934 <_printf_i+0x28>
 8005924:	2f62      	cmp	r7, #98	; 0x62
 8005926:	d80a      	bhi.n	800593e <_printf_i+0x32>
 8005928:	2f00      	cmp	r7, #0
 800592a:	f000 80d9 	beq.w	8005ae0 <_printf_i+0x1d4>
 800592e:	2f58      	cmp	r7, #88	; 0x58
 8005930:	f000 80a4 	beq.w	8005a7c <_printf_i+0x170>
 8005934:	f104 0542 	add.w	r5, r4, #66	; 0x42
 8005938:	f884 7042 	strb.w	r7, [r4, #66]	; 0x42
 800593c:	e03a      	b.n	80059b4 <_printf_i+0xa8>
 800593e:	f1a7 0363 	sub.w	r3, r7, #99	; 0x63
 8005942:	2b15      	cmp	r3, #21
 8005944:	d8f6      	bhi.n	8005934 <_printf_i+0x28>
 8005946:	a101      	add	r1, pc, #4	; (adr r1, 800594c <_printf_i+0x40>)
 8005948:	f851 f023 	ldr.w	pc, [r1, r3, lsl #2]
 800594c:	080059a5 	.word	0x080059a5
 8005950:	080059b9 	.word	0x080059b9
 8005954:	08005935 	.word	0x08005935
 8005958:	08005935 	.word	0x08005935
 800595c:	08005935 	.word	0x08005935
 8005960:	08005935 	.word	0x08005935
 8005964:	080059b9 	.word	0x080059b9
 8005968:	08005935 	.word	0x08005935
 800596c:	08005935 	.word	0x08005935
 8005970:	08005935 	.word	0x08005935
 8005974:	08005935 	.word	0x08005935
 8005978:	08005ac7 	.word	0x08005ac7
 800597c:	080059e9 	.word	0x080059e9
 8005980:	08005aa9 	.word	0x08005aa9
 8005984:	08005935 	.word	0x08005935
 8005988:	08005935 	.word	0x08005935
 800598c:	08005ae9 	.word	0x08005ae9
 8005990:	08005935 	.word	0x08005935
 8005994:	080059e9 	.word	0x080059e9
 8005998:	08005935 	.word	0x08005935
 800599c:	08005935 	.word	0x08005935
 80059a0:	08005ab1 	.word	0x08005ab1
 80059a4:	682b      	ldr	r3, [r5, #0]
 80059a6:	1d1a      	adds	r2, r3, #4
 80059a8:	681b      	ldr	r3, [r3, #0]
 80059aa:	602a      	str	r2, [r5, #0]
 80059ac:	f104 0542 	add.w	r5, r4, #66	; 0x42
 80059b0:	f884 3042 	strb.w	r3, [r4, #66]	; 0x42
 80059b4:	2301      	movs	r3, #1
 80059b6:	e0a4      	b.n	8005b02 <_printf_i+0x1f6>
 80059b8:	6820      	ldr	r0, [r4, #0]
 80059ba:	6829      	ldr	r1, [r5, #0]
 80059bc:	0606      	lsls	r6, r0, #24
 80059be:	f101 0304 	add.w	r3, r1, #4
 80059c2:	d50a      	bpl.n	80059da <_printf_i+0xce>
 80059c4:	680e      	ldr	r6, [r1, #0]
 80059c6:	602b      	str	r3, [r5, #0]
 80059c8:	2e00      	cmp	r6, #0
 80059ca:	da03      	bge.n	80059d4 <_printf_i+0xc8>
 80059cc:	232d      	movs	r3, #45	; 0x2d
 80059ce:	4276      	negs	r6, r6
 80059d0:	f884 3043 	strb.w	r3, [r4, #67]	; 0x43
 80059d4:	230a      	movs	r3, #10
 80059d6:	485e      	ldr	r0, [pc, #376]	; (8005b50 <_printf_i+0x244>)
 80059d8:	e019      	b.n	8005a0e <_printf_i+0x102>
 80059da:	680e      	ldr	r6, [r1, #0]
 80059dc:	f010 0f40 	tst.w	r0, #64	; 0x40
 80059e0:	602b      	str	r3, [r5, #0]
 80059e2:	bf18      	it	ne
 80059e4:	b236      	sxthne	r6, r6
 80059e6:	e7ef      	b.n	80059c8 <_printf_i+0xbc>
 80059e8:	682b      	ldr	r3, [r5, #0]
 80059ea:	6820      	ldr	r0, [r4, #0]
 80059ec:	1d19      	adds	r1, r3, #4
 80059ee:	6029      	str	r1, [r5, #0]
 80059f0:	0601      	lsls	r1, r0, #24
 80059f2:	d501      	bpl.n	80059f8 <_printf_i+0xec>
 80059f4:	681e      	ldr	r6, [r3, #0]
 80059f6:	e002      	b.n	80059fe <_printf_i+0xf2>
 80059f8:	0646      	lsls	r6, r0, #25
 80059fa:	d5fb      	bpl.n	80059f4 <_printf_i+0xe8>
 80059fc:	881e      	ldrh	r6, [r3, #0]
 80059fe:	2f6f      	cmp	r7, #111	; 0x6f
 8005a00:	bf0c      	ite	eq
 8005a02:	2308      	moveq	r3, #8
 8005a04:	230a      	movne	r3, #10
 8005a06:	4852      	ldr	r0, [pc, #328]	; (8005b50 <_printf_i+0x244>)
 8005a08:	2100      	movs	r1, #0
 8005a0a:	f884 1043 	strb.w	r1, [r4, #67]	; 0x43
 8005a0e:	6865      	ldr	r5, [r4, #4]
 8005a10:	2d00      	cmp	r5, #0
 8005a12:	bfa8      	it	ge
 8005a14:	6821      	ldrge	r1, [r4, #0]
 8005a16:	60a5      	str	r5, [r4, #8]
 8005a18:	bfa4      	itt	ge
 8005a1a:	f021 0104 	bicge.w	r1, r1, #4
 8005a1e:	6021      	strge	r1, [r4, #0]
 8005a20:	b90e      	cbnz	r6, 8005a26 <_printf_i+0x11a>
 8005a22:	2d00      	cmp	r5, #0
 8005a24:	d04d      	beq.n	8005ac2 <_printf_i+0x1b6>
 8005a26:	4615      	mov	r5, r2
 8005a28:	fbb6 f1f3 	udiv	r1, r6, r3
 8005a2c:	fb03 6711 	mls	r7, r3, r1, r6
 8005a30:	5dc7      	ldrb	r7, [r0, r7]
 8005a32:	f805 7d01 	strb.w	r7, [r5, #-1]!
 8005a36:	4637      	mov	r7, r6
 8005a38:	42bb      	cmp	r3, r7
 8005a3a:	460e      	mov	r6, r1
 8005a3c:	d9f4      	bls.n	8005a28 <_printf_i+0x11c>
 8005a3e:	2b08      	cmp	r3, #8
 8005a40:	d10b      	bne.n	8005a5a <_printf_i+0x14e>
 8005a42:	6823      	ldr	r3, [r4, #0]
 8005a44:	07de      	lsls	r6, r3, #31
 8005a46:	d508      	bpl.n	8005a5a <_printf_i+0x14e>
 8005a48:	6923      	ldr	r3, [r4, #16]
 8005a4a:	6861      	ldr	r1, [r4, #4]
 8005a4c:	4299      	cmp	r1, r3
 8005a4e:	bfde      	ittt	le
 8005a50:	2330      	movle	r3, #48	; 0x30
 8005a52:	f805 3c01 	strble.w	r3, [r5, #-1]
 8005a56:	f105 35ff 	addle.w	r5, r5, #4294967295
 8005a5a:	1b52      	subs	r2, r2, r5
 8005a5c:	6122      	str	r2, [r4, #16]
 8005a5e:	464b      	mov	r3, r9
 8005a60:	4621      	mov	r1, r4
 8005a62:	4640      	mov	r0, r8
 8005a64:	f8cd a000 	str.w	sl, [sp]
 8005a68:	aa03      	add	r2, sp, #12
 8005a6a:	f7ff fedf 	bl	800582c <_printf_common>
 8005a6e:	3001      	adds	r0, #1
 8005a70:	d14c      	bne.n	8005b0c <_printf_i+0x200>
 8005a72:	f04f 30ff 	mov.w	r0, #4294967295
 8005a76:	b004      	add	sp, #16
 8005a78:	e8bd 87f0 	ldmia.w	sp!, {r4, r5, r6, r7, r8, r9, sl, pc}
 8005a7c:	4834      	ldr	r0, [pc, #208]	; (8005b50 <_printf_i+0x244>)
 8005a7e:	f881 7045 	strb.w	r7, [r1, #69]	; 0x45
 8005a82:	6829      	ldr	r1, [r5, #0]
 8005a84:	6823      	ldr	r3, [r4, #0]
 8005a86:	f851 6b04 	ldr.w	r6, [r1], #4
 8005a8a:	6029      	str	r1, [r5, #0]
 8005a8c:	061d      	lsls	r5, r3, #24
 8005a8e:	d514      	bpl.n	8005aba <_printf_i+0x1ae>
 8005a90:	07df      	lsls	r7, r3, #31
 8005a92:	bf44      	itt	mi
 8005a94:	f043 0320 	orrmi.w	r3, r3, #32
 8005a98:	6023      	strmi	r3, [r4, #0]
 8005a9a:	b91e      	cbnz	r6, 8005aa4 <_printf_i+0x198>
 8005a9c:	6823      	ldr	r3, [r4, #0]
 8005a9e:	f023 0320 	bic.w	r3, r3, #32
 8005aa2:	6023      	str	r3, [r4, #0]
 8005aa4:	2310      	movs	r3, #16
 8005aa6:	e7af      	b.n	8005a08 <_printf_i+0xfc>
 8005aa8:	6823      	ldr	r3, [r4, #0]
 8005aaa:	f043 0320 	orr.w	r3, r3, #32
 8005aae:	6023      	str	r3, [r4, #0]
 8005ab0:	2378      	movs	r3, #120	; 0x78
 8005ab2:	4828      	ldr	r0, [pc, #160]	; (8005b54 <_printf_i+0x248>)
 8005ab4:	f884 3045 	strb.w	r3, [r4, #69]	; 0x45
 8005ab8:	e7e3      	b.n	8005a82 <_printf_i+0x176>
 8005aba:	0659      	lsls	r1, r3, #25
 8005abc:	bf48      	it	mi
 8005abe:	b2b6      	uxthmi	r6, r6
 8005ac0:	e7e6      	b.n	8005a90 <_printf_i+0x184>
 8005ac2:	4615      	mov	r5, r2
 8005ac4:	e7bb      	b.n	8005a3e <_printf_i+0x132>
 8005ac6:	682b      	ldr	r3, [r5, #0]
 8005ac8:	6826      	ldr	r6, [r4, #0]
 8005aca:	1d18      	adds	r0, r3, #4
 8005acc:	6961      	ldr	r1, [r4, #20]
 8005ace:	6028      	str	r0, [r5, #0]
 8005ad0:	0635      	lsls	r5, r6, #24
 8005ad2:	681b      	ldr	r3, [r3, #0]
 8005ad4:	d501      	bpl.n	8005ada <_printf_i+0x1ce>
 8005ad6:	6019      	str	r1, [r3, #0]
 8005ad8:	e002      	b.n	8005ae0 <_printf_i+0x1d4>
 8005ada:	0670      	lsls	r0, r6, #25
 8005adc:	d5fb      	bpl.n	8005ad6 <_printf_i+0x1ca>
 8005ade:	8019      	strh	r1, [r3, #0]
 8005ae0:	2300      	movs	r3, #0
 8005ae2:	4615      	mov	r5, r2
 8005ae4:	6123      	str	r3, [r4, #16]
 8005ae6:	e7ba      	b.n	8005a5e <_printf_i+0x152>
 8005ae8:	682b      	ldr	r3, [r5, #0]
 8005aea:	2100      	movs	r1, #0
 8005aec:	1d1a      	adds	r2, r3, #4
 8005aee:	602a      	str	r2, [r5, #0]
 8005af0:	681d      	ldr	r5, [r3, #0]
 8005af2:	6862      	ldr	r2, [r4, #4]
 8005af4:	4628      	mov	r0, r5
 8005af6:	f000 fa9b 	bl	8006030 <memchr>
 8005afa:	b108      	cbz	r0, 8005b00 <_printf_i+0x1f4>
 8005afc:	1b40      	subs	r0, r0, r5
 8005afe:	6060      	str	r0, [r4, #4]
 8005b00:	6863      	ldr	r3, [r4, #4]
 8005b02:	6123      	str	r3, [r4, #16]
 8005b04:	2300      	movs	r3, #0
 8005b06:	f884 3043 	strb.w	r3, [r4, #67]	; 0x43
 8005b0a:	e7a8      	b.n	8005a5e <_printf_i+0x152>
 8005b0c:	462a      	mov	r2, r5
 8005b0e:	4649      	mov	r1, r9
 8005b10:	4640      	mov	r0, r8
 8005b12:	6923      	ldr	r3, [r4, #16]
 8005b14:	47d0      	blx	sl
 8005b16:	3001      	adds	r0, #1
 8005b18:	d0ab      	beq.n	8005a72 <_printf_i+0x166>
 8005b1a:	6823      	ldr	r3, [r4, #0]
 8005b1c:	079b      	lsls	r3, r3, #30
 8005b1e:	d413      	bmi.n	8005b48 <_printf_i+0x23c>
 8005b20:	68e0      	ldr	r0, [r4, #12]
 8005b22:	9b03      	ldr	r3, [sp, #12]
 8005b24:	4298      	cmp	r0, r3
 8005b26:	bfb8      	it	lt
 8005b28:	4618      	movlt	r0, r3
 8005b2a:	e7a4      	b.n	8005a76 <_printf_i+0x16a>
 8005b2c:	2301      	movs	r3, #1
 8005b2e:	4632      	mov	r2, r6
 8005b30:	4649      	mov	r1, r9
 8005b32:	4640      	mov	r0, r8
 8005b34:	47d0      	blx	sl
 8005b36:	3001      	adds	r0, #1
 8005b38:	d09b      	beq.n	8005a72 <_printf_i+0x166>
 8005b3a:	3501      	adds	r5, #1
 8005b3c:	68e3      	ldr	r3, [r4, #12]
 8005b3e:	9903      	ldr	r1, [sp, #12]
 8005b40:	1a5b      	subs	r3, r3, r1
 8005b42:	42ab      	cmp	r3, r5
 8005b44:	dcf2      	bgt.n	8005b2c <_printf_i+0x220>
 8005b46:	e7eb      	b.n	8005b20 <_printf_i+0x214>
 8005b48:	2500      	movs	r5, #0
 8005b4a:	f104 0619 	add.w	r6, r4, #25
 8005b4e:	e7f5      	b.n	8005b3c <_printf_i+0x230>
 8005b50:	08006339 	.word	0x08006339
 8005b54:	0800634a 	.word	0x0800634a

08005b58 <_sbrk_r>:
 8005b58:	b538      	push	{r3, r4, r5, lr}
 8005b5a:	2300      	movs	r3, #0
 8005b5c:	4d05      	ldr	r5, [pc, #20]	; (8005b74 <_sbrk_r+0x1c>)
 8005b5e:	4604      	mov	r4, r0
 8005b60:	4608      	mov	r0, r1
 8005b62:	602b      	str	r3, [r5, #0]
 8005b64:	f7fb fb66 	bl	8001234 <_sbrk>
 8005b68:	1c43      	adds	r3, r0, #1
 8005b6a:	d102      	bne.n	8005b72 <_sbrk_r+0x1a>
 8005b6c:	682b      	ldr	r3, [r5, #0]
 8005b6e:	b103      	cbz	r3, 8005b72 <_sbrk_r+0x1a>
 8005b70:	6023      	str	r3, [r4, #0]
 8005b72:	bd38      	pop	{r3, r4, r5, pc}
 8005b74:	200002b0 	.word	0x200002b0

08005b78 <__sread>:
 8005b78:	b510      	push	{r4, lr}
 8005b7a:	460c      	mov	r4, r1
 8005b7c:	f9b1 100e 	ldrsh.w	r1, [r1, #14]
 8005b80:	f000 fb10 	bl	80061a4 <_read_r>
 8005b84:	2800      	cmp	r0, #0
 8005b86:	bfab      	itete	ge
 8005b88:	6d63      	ldrge	r3, [r4, #84]	; 0x54
 8005b8a:	89a3      	ldrhlt	r3, [r4, #12]
 8005b8c:	181b      	addge	r3, r3, r0
 8005b8e:	f423 5380 	biclt.w	r3, r3, #4096	; 0x1000
 8005b92:	bfac      	ite	ge
 8005b94:	6563      	strge	r3, [r4, #84]	; 0x54
 8005b96:	81a3      	strhlt	r3, [r4, #12]
 8005b98:	bd10      	pop	{r4, pc}

08005b9a <__swrite>:
 8005b9a:	e92d 41f0 	stmdb	sp!, {r4, r5, r6, r7, r8, lr}
 8005b9e:	461f      	mov	r7, r3
 8005ba0:	898b      	ldrh	r3, [r1, #12]
 8005ba2:	4605      	mov	r5, r0
 8005ba4:	05db      	lsls	r3, r3, #23
 8005ba6:	460c      	mov	r4, r1
 8005ba8:	4616      	mov	r6, r2
 8005baa:	d505      	bpl.n	8005bb8 <__swrite+0x1e>
 8005bac:	2302      	movs	r3, #2
 8005bae:	2200      	movs	r2, #0
 8005bb0:	f9b1 100e 	ldrsh.w	r1, [r1, #14]
 8005bb4:	f000 f9c4 	bl	8005f40 <_lseek_r>
 8005bb8:	89a3      	ldrh	r3, [r4, #12]
 8005bba:	4632      	mov	r2, r6
 8005bbc:	f423 5380 	bic.w	r3, r3, #4096	; 0x1000
 8005bc0:	81a3      	strh	r3, [r4, #12]
 8005bc2:	4628      	mov	r0, r5
 8005bc4:	463b      	mov	r3, r7
 8005bc6:	f9b4 100e 	ldrsh.w	r1, [r4, #14]
 8005bca:	e8bd 41f0 	ldmia.w	sp!, {r4, r5, r6, r7, r8, lr}
 8005bce:	f000 b869 	b.w	8005ca4 <_write_r>

08005bd2 <__sseek>:
 8005bd2:	b510      	push	{r4, lr}
 8005bd4:	460c      	mov	r4, r1
 8005bd6:	f9b1 100e 	ldrsh.w	r1, [r1, #14]
 8005bda:	f000 f9b1 	bl	8005f40 <_lseek_r>
 8005bde:	1c43      	adds	r3, r0, #1
 8005be0:	89a3      	ldrh	r3, [r4, #12]
 8005be2:	bf15      	itete	ne
 8005be4:	6560      	strne	r0, [r4, #84]	; 0x54
 8005be6:	f423 5380 	biceq.w	r3, r3, #4096	; 0x1000
 8005bea:	f443 5380 	orrne.w	r3, r3, #4096	; 0x1000
 8005bee:	81a3      	strheq	r3, [r4, #12]
 8005bf0:	bf18      	it	ne
 8005bf2:	81a3      	strhne	r3, [r4, #12]
 8005bf4:	bd10      	pop	{r4, pc}

08005bf6 <__sclose>:
 8005bf6:	f9b1 100e 	ldrsh.w	r1, [r1, #14]
 8005bfa:	f000 b8d3 	b.w	8005da4 <_close_r>
	...

08005c00 <__swbuf_r>:
 8005c00:	b5f8      	push	{r3, r4, r5, r6, r7, lr}
 8005c02:	460e      	mov	r6, r1
 8005c04:	4614      	mov	r4, r2
 8005c06:	4605      	mov	r5, r0
 8005c08:	b118      	cbz	r0, 8005c12 <__swbuf_r+0x12>
 8005c0a:	6983      	ldr	r3, [r0, #24]
 8005c0c:	b90b      	cbnz	r3, 8005c12 <__swbuf_r+0x12>
 8005c0e:	f7ff fa25 	bl	800505c <__sinit>
 8005c12:	4b21      	ldr	r3, [pc, #132]	; (8005c98 <__swbuf_r+0x98>)
 8005c14:	429c      	cmp	r4, r3
 8005c16:	d12b      	bne.n	8005c70 <__swbuf_r+0x70>
 8005c18:	686c      	ldr	r4, [r5, #4]
 8005c1a:	69a3      	ldr	r3, [r4, #24]
 8005c1c:	60a3      	str	r3, [r4, #8]
 8005c1e:	89a3      	ldrh	r3, [r4, #12]
 8005c20:	071a      	lsls	r2, r3, #28
 8005c22:	d52f      	bpl.n	8005c84 <__swbuf_r+0x84>
 8005c24:	6923      	ldr	r3, [r4, #16]
 8005c26:	b36b      	cbz	r3, 8005c84 <__swbuf_r+0x84>
 8005c28:	6923      	ldr	r3, [r4, #16]
 8005c2a:	6820      	ldr	r0, [r4, #0]
 8005c2c:	b2f6      	uxtb	r6, r6
 8005c2e:	1ac0      	subs	r0, r0, r3
 8005c30:	6963      	ldr	r3, [r4, #20]
 8005c32:	4637      	mov	r7, r6
 8005c34:	4283      	cmp	r3, r0
 8005c36:	dc04      	bgt.n	8005c42 <__swbuf_r+0x42>
 8005c38:	4621      	mov	r1, r4
 8005c3a:	4628      	mov	r0, r5
 8005c3c:	f000 f944 	bl	8005ec8 <_fflush_r>
 8005c40:	bb30      	cbnz	r0, 8005c90 <__swbuf_r+0x90>
 8005c42:	68a3      	ldr	r3, [r4, #8]
 8005c44:	3001      	adds	r0, #1
 8005c46:	3b01      	subs	r3, #1
 8005c48:	60a3      	str	r3, [r4, #8]
 8005c4a:	6823      	ldr	r3, [r4, #0]
 8005c4c:	1c5a      	adds	r2, r3, #1
 8005c4e:	6022      	str	r2, [r4, #0]
 8005c50:	701e      	strb	r6, [r3, #0]
 8005c52:	6963      	ldr	r3, [r4, #20]
 8005c54:	4283      	cmp	r3, r0
 8005c56:	d004      	beq.n	8005c62 <__swbuf_r+0x62>
 8005c58:	89a3      	ldrh	r3, [r4, #12]
 8005c5a:	07db      	lsls	r3, r3, #31
 8005c5c:	d506      	bpl.n	8005c6c <__swbuf_r+0x6c>
 8005c5e:	2e0a      	cmp	r6, #10
 8005c60:	d104      	bne.n	8005c6c <__swbuf_r+0x6c>
 8005c62:	4621      	mov	r1, r4
 8005c64:	4628      	mov	r0, r5
 8005c66:	f000 f92f 	bl	8005ec8 <_fflush_r>
 8005c6a:	b988      	cbnz	r0, 8005c90 <__swbuf_r+0x90>
 8005c6c:	4638      	mov	r0, r7
 8005c6e:	bdf8      	pop	{r3, r4, r5, r6, r7, pc}
 8005c70:	4b0a      	ldr	r3, [pc, #40]	; (8005c9c <__swbuf_r+0x9c>)
 8005c72:	429c      	cmp	r4, r3
 8005c74:	d101      	bne.n	8005c7a <__swbuf_r+0x7a>
 8005c76:	68ac      	ldr	r4, [r5, #8]
 8005c78:	e7cf      	b.n	8005c1a <__swbuf_r+0x1a>
 8005c7a:	4b09      	ldr	r3, [pc, #36]	; (8005ca0 <__swbuf_r+0xa0>)
 8005c7c:	429c      	cmp	r4, r3
 8005c7e:	bf08      	it	eq
 8005c80:	68ec      	ldreq	r4, [r5, #12]
 8005c82:	e7ca      	b.n	8005c1a <__swbuf_r+0x1a>
 8005c84:	4621      	mov	r1, r4
 8005c86:	4628      	mov	r0, r5
 8005c88:	f000 f81e 	bl	8005cc8 <__swsetup_r>
 8005c8c:	2800      	cmp	r0, #0
 8005c8e:	d0cb      	beq.n	8005c28 <__swbuf_r+0x28>
 8005c90:	f04f 37ff 	mov.w	r7, #4294967295
 8005c94:	e7ea      	b.n	8005c6c <__swbuf_r+0x6c>
 8005c96:	bf00      	nop
 8005c98:	080062e8 	.word	0x080062e8
 8005c9c:	08006308 	.word	0x08006308
 8005ca0:	080062c8 	.word	0x080062c8

08005ca4 <_write_r>:
 8005ca4:	b538      	push	{r3, r4, r5, lr}
 8005ca6:	4604      	mov	r4, r0
 8005ca8:	4608      	mov	r0, r1
 8005caa:	4611      	mov	r1, r2
 8005cac:	2200      	movs	r2, #0
 8005cae:	4d05      	ldr	r5, [pc, #20]	; (8005cc4 <_write_r+0x20>)
 8005cb0:	602a      	str	r2, [r5, #0]
 8005cb2:	461a      	mov	r2, r3
 8005cb4:	f7fb fa71 	bl	800119a <_write>
 8005cb8:	1c43      	adds	r3, r0, #1
 8005cba:	d102      	bne.n	8005cc2 <_write_r+0x1e>
 8005cbc:	682b      	ldr	r3, [r5, #0]
 8005cbe:	b103      	cbz	r3, 8005cc2 <_write_r+0x1e>
 8005cc0:	6023      	str	r3, [r4, #0]
 8005cc2:	bd38      	pop	{r3, r4, r5, pc}
 8005cc4:	200002b0 	.word	0x200002b0

08005cc8 <__swsetup_r>:
 8005cc8:	4b32      	ldr	r3, [pc, #200]	; (8005d94 <__swsetup_r+0xcc>)
 8005cca:	b570      	push	{r4, r5, r6, lr}
 8005ccc:	681d      	ldr	r5, [r3, #0]
 8005cce:	4606      	mov	r6, r0
 8005cd0:	460c      	mov	r4, r1
 8005cd2:	b125      	cbz	r5, 8005cde <__swsetup_r+0x16>
 8005cd4:	69ab      	ldr	r3, [r5, #24]
 8005cd6:	b913      	cbnz	r3, 8005cde <__swsetup_r+0x16>
 8005cd8:	4628      	mov	r0, r5
 8005cda:	f7ff f9bf 	bl	800505c <__sinit>
 8005cde:	4b2e      	ldr	r3, [pc, #184]	; (8005d98 <__swsetup_r+0xd0>)
 8005ce0:	429c      	cmp	r4, r3
 8005ce2:	d10f      	bne.n	8005d04 <__swsetup_r+0x3c>
 8005ce4:	686c      	ldr	r4, [r5, #4]
 8005ce6:	89a3      	ldrh	r3, [r4, #12]
 8005ce8:	f9b4 200c 	ldrsh.w	r2, [r4, #12]
 8005cec:	0719      	lsls	r1, r3, #28
 8005cee:	d42c      	bmi.n	8005d4a <__swsetup_r+0x82>
 8005cf0:	06dd      	lsls	r5, r3, #27
 8005cf2:	d411      	bmi.n	8005d18 <__swsetup_r+0x50>
 8005cf4:	2309      	movs	r3, #9
 8005cf6:	6033      	str	r3, [r6, #0]
 8005cf8:	f042 0340 	orr.w	r3, r2, #64	; 0x40
 8005cfc:	f04f 30ff 	mov.w	r0, #4294967295
 8005d00:	81a3      	strh	r3, [r4, #12]
 8005d02:	e03e      	b.n	8005d82 <__swsetup_r+0xba>
 8005d04:	4b25      	ldr	r3, [pc, #148]	; (8005d9c <__swsetup_r+0xd4>)
 8005d06:	429c      	cmp	r4, r3
 8005d08:	d101      	bne.n	8005d0e <__swsetup_r+0x46>
 8005d0a:	68ac      	ldr	r4, [r5, #8]
 8005d0c:	e7eb      	b.n	8005ce6 <__swsetup_r+0x1e>
 8005d0e:	4b24      	ldr	r3, [pc, #144]	; (8005da0 <__swsetup_r+0xd8>)
 8005d10:	429c      	cmp	r4, r3
 8005d12:	bf08      	it	eq
 8005d14:	68ec      	ldreq	r4, [r5, #12]
 8005d16:	e7e6      	b.n	8005ce6 <__swsetup_r+0x1e>
 8005d18:	0758      	lsls	r0, r3, #29
 8005d1a:	d512      	bpl.n	8005d42 <__swsetup_r+0x7a>
 8005d1c:	6b61      	ldr	r1, [r4, #52]	; 0x34
 8005d1e:	b141      	cbz	r1, 8005d32 <__swsetup_r+0x6a>
 8005d20:	f104 0344 	add.w	r3, r4, #68	; 0x44
 8005d24:	4299      	cmp	r1, r3
 8005d26:	d002      	beq.n	8005d2e <__swsetup_r+0x66>
 8005d28:	4630      	mov	r0, r6
 8005d2a:	f000 f9c3 	bl	80060b4 <_free_r>
 8005d2e:	2300      	movs	r3, #0
 8005d30:	6363      	str	r3, [r4, #52]	; 0x34
 8005d32:	89a3      	ldrh	r3, [r4, #12]
 8005d34:	f023 0324 	bic.w	r3, r3, #36	; 0x24
 8005d38:	81a3      	strh	r3, [r4, #12]
 8005d3a:	2300      	movs	r3, #0
 8005d3c:	6063      	str	r3, [r4, #4]
 8005d3e:	6923      	ldr	r3, [r4, #16]
 8005d40:	6023      	str	r3, [r4, #0]
 8005d42:	89a3      	ldrh	r3, [r4, #12]
 8005d44:	f043 0308 	orr.w	r3, r3, #8
 8005d48:	81a3      	strh	r3, [r4, #12]
 8005d4a:	6923      	ldr	r3, [r4, #16]
 8005d4c:	b94b      	cbnz	r3, 8005d62 <__swsetup_r+0x9a>
 8005d4e:	89a3      	ldrh	r3, [r4, #12]
 8005d50:	f403 7320 	and.w	r3, r3, #640	; 0x280
 8005d54:	f5b3 7f00 	cmp.w	r3, #512	; 0x200
 8005d58:	d003      	beq.n	8005d62 <__swsetup_r+0x9a>
 8005d5a:	4621      	mov	r1, r4
 8005d5c:	4630      	mov	r0, r6
 8005d5e:	f000 f927 	bl	8005fb0 <__smakebuf_r>
 8005d62:	89a0      	ldrh	r0, [r4, #12]
 8005d64:	f9b4 200c 	ldrsh.w	r2, [r4, #12]
 8005d68:	f010 0301 	ands.w	r3, r0, #1
 8005d6c:	d00a      	beq.n	8005d84 <__swsetup_r+0xbc>
 8005d6e:	2300      	movs	r3, #0
 8005d70:	60a3      	str	r3, [r4, #8]
 8005d72:	6963      	ldr	r3, [r4, #20]
 8005d74:	425b      	negs	r3, r3
 8005d76:	61a3      	str	r3, [r4, #24]
 8005d78:	6923      	ldr	r3, [r4, #16]
 8005d7a:	b943      	cbnz	r3, 8005d8e <__swsetup_r+0xc6>
 8005d7c:	f010 0080 	ands.w	r0, r0, #128	; 0x80
 8005d80:	d1ba      	bne.n	8005cf8 <__swsetup_r+0x30>
 8005d82:	bd70      	pop	{r4, r5, r6, pc}
 8005d84:	0781      	lsls	r1, r0, #30
 8005d86:	bf58      	it	pl
 8005d88:	6963      	ldrpl	r3, [r4, #20]
 8005d8a:	60a3      	str	r3, [r4, #8]
 8005d8c:	e7f4      	b.n	8005d78 <__swsetup_r+0xb0>
 8005d8e:	2000      	movs	r0, #0
 8005d90:	e7f7      	b.n	8005d82 <__swsetup_r+0xba>
 8005d92:	bf00      	nop
 8005d94:	20000010 	.word	0x20000010
 8005d98:	080062e8 	.word	0x080062e8
 8005d9c:	08006308 	.word	0x08006308
 8005da0:	080062c8 	.word	0x080062c8

08005da4 <_close_r>:
 8005da4:	b538      	push	{r3, r4, r5, lr}
 8005da6:	2300      	movs	r3, #0
 8005da8:	4d05      	ldr	r5, [pc, #20]	; (8005dc0 <_close_r+0x1c>)
 8005daa:	4604      	mov	r4, r0
 8005dac:	4608      	mov	r0, r1
 8005dae:	602b      	str	r3, [r5, #0]
 8005db0:	f7fb fa0f 	bl	80011d2 <_close>
 8005db4:	1c43      	adds	r3, r0, #1
 8005db6:	d102      	bne.n	8005dbe <_close_r+0x1a>
 8005db8:	682b      	ldr	r3, [r5, #0]
 8005dba:	b103      	cbz	r3, 8005dbe <_close_r+0x1a>
 8005dbc:	6023      	str	r3, [r4, #0]
 8005dbe:	bd38      	pop	{r3, r4, r5, pc}
 8005dc0:	200002b0 	.word	0x200002b0

08005dc4 <__sflush_r>:
 8005dc4:	898a      	ldrh	r2, [r1, #12]
 8005dc6:	b5f8      	push	{r3, r4, r5, r6, r7, lr}
 8005dc8:	4605      	mov	r5, r0
 8005dca:	0710      	lsls	r0, r2, #28
 8005dcc:	460c      	mov	r4, r1
 8005dce:	d457      	bmi.n	8005e80 <__sflush_r+0xbc>
 8005dd0:	684b      	ldr	r3, [r1, #4]
 8005dd2:	2b00      	cmp	r3, #0
 8005dd4:	dc04      	bgt.n	8005de0 <__sflush_r+0x1c>
 8005dd6:	6c0b      	ldr	r3, [r1, #64]	; 0x40
 8005dd8:	2b00      	cmp	r3, #0
 8005dda:	dc01      	bgt.n	8005de0 <__sflush_r+0x1c>
 8005ddc:	2000      	movs	r0, #0
 8005dde:	bdf8      	pop	{r3, r4, r5, r6, r7, pc}
 8005de0:	6ae6      	ldr	r6, [r4, #44]	; 0x2c
 8005de2:	2e00      	cmp	r6, #0
 8005de4:	d0fa      	beq.n	8005ddc <__sflush_r+0x18>
 8005de6:	2300      	movs	r3, #0
 8005de8:	f412 5280 	ands.w	r2, r2, #4096	; 0x1000
 8005dec:	682f      	ldr	r7, [r5, #0]
 8005dee:	602b      	str	r3, [r5, #0]
 8005df0:	d032      	beq.n	8005e58 <__sflush_r+0x94>
 8005df2:	6d60      	ldr	r0, [r4, #84]	; 0x54
 8005df4:	89a3      	ldrh	r3, [r4, #12]
 8005df6:	075a      	lsls	r2, r3, #29
 8005df8:	d505      	bpl.n	8005e06 <__sflush_r+0x42>
 8005dfa:	6863      	ldr	r3, [r4, #4]
 8005dfc:	1ac0      	subs	r0, r0, r3
 8005dfe:	6b63      	ldr	r3, [r4, #52]	; 0x34
 8005e00:	b10b      	cbz	r3, 8005e06 <__sflush_r+0x42>
 8005e02:	6c23      	ldr	r3, [r4, #64]	; 0x40
 8005e04:	1ac0      	subs	r0, r0, r3
 8005e06:	2300      	movs	r3, #0
 8005e08:	4602      	mov	r2, r0
 8005e0a:	6ae6      	ldr	r6, [r4, #44]	; 0x2c
 8005e0c:	4628      	mov	r0, r5
 8005e0e:	6a21      	ldr	r1, [r4, #32]
 8005e10:	47b0      	blx	r6
 8005e12:	1c43      	adds	r3, r0, #1
 8005e14:	89a3      	ldrh	r3, [r4, #12]
 8005e16:	d106      	bne.n	8005e26 <__sflush_r+0x62>
 8005e18:	6829      	ldr	r1, [r5, #0]
 8005e1a:	291d      	cmp	r1, #29
 8005e1c:	d82c      	bhi.n	8005e78 <__sflush_r+0xb4>
 8005e1e:	4a29      	ldr	r2, [pc, #164]	; (8005ec4 <__sflush_r+0x100>)
 8005e20:	40ca      	lsrs	r2, r1
 8005e22:	07d6      	lsls	r6, r2, #31
 8005e24:	d528      	bpl.n	8005e78 <__sflush_r+0xb4>
 8005e26:	2200      	movs	r2, #0
 8005e28:	6062      	str	r2, [r4, #4]
 8005e2a:	6922      	ldr	r2, [r4, #16]
 8005e2c:	04d9      	lsls	r1, r3, #19
 8005e2e:	6022      	str	r2, [r4, #0]
 8005e30:	d504      	bpl.n	8005e3c <__sflush_r+0x78>
 8005e32:	1c42      	adds	r2, r0, #1
 8005e34:	d101      	bne.n	8005e3a <__sflush_r+0x76>
 8005e36:	682b      	ldr	r3, [r5, #0]
 8005e38:	b903      	cbnz	r3, 8005e3c <__sflush_r+0x78>
 8005e3a:	6560      	str	r0, [r4, #84]	; 0x54
 8005e3c:	6b61      	ldr	r1, [r4, #52]	; 0x34
 8005e3e:	602f      	str	r7, [r5, #0]
 8005e40:	2900      	cmp	r1, #0
 8005e42:	d0cb      	beq.n	8005ddc <__sflush_r+0x18>
 8005e44:	f104 0344 	add.w	r3, r4, #68	; 0x44
 8005e48:	4299      	cmp	r1, r3
 8005e4a:	d002      	beq.n	8005e52 <__sflush_r+0x8e>
 8005e4c:	4628      	mov	r0, r5
 8005e4e:	f000 f931 	bl	80060b4 <_free_r>
 8005e52:	2000      	movs	r0, #0
 8005e54:	6360      	str	r0, [r4, #52]	; 0x34
 8005e56:	e7c2      	b.n	8005dde <__sflush_r+0x1a>
 8005e58:	6a21      	ldr	r1, [r4, #32]
 8005e5a:	2301      	movs	r3, #1
 8005e5c:	4628      	mov	r0, r5
 8005e5e:	47b0      	blx	r6
 8005e60:	1c41      	adds	r1, r0, #1
 8005e62:	d1c7      	bne.n	8005df4 <__sflush_r+0x30>
 8005e64:	682b      	ldr	r3, [r5, #0]
 8005e66:	2b00      	cmp	r3, #0
 8005e68:	d0c4      	beq.n	8005df4 <__sflush_r+0x30>
 8005e6a:	2b1d      	cmp	r3, #29
 8005e6c:	d001      	beq.n	8005e72 <__sflush_r+0xae>
 8005e6e:	2b16      	cmp	r3, #22
 8005e70:	d101      	bne.n	8005e76 <__sflush_r+0xb2>
 8005e72:	602f      	str	r7, [r5, #0]
 8005e74:	e7b2      	b.n	8005ddc <__sflush_r+0x18>
 8005e76:	89a3      	ldrh	r3, [r4, #12]
 8005e78:	f043 0340 	orr.w	r3, r3, #64	; 0x40
 8005e7c:	81a3      	strh	r3, [r4, #12]
 8005e7e:	e7ae      	b.n	8005dde <__sflush_r+0x1a>
 8005e80:	690f      	ldr	r7, [r1, #16]
 8005e82:	2f00      	cmp	r7, #0
 8005e84:	d0aa      	beq.n	8005ddc <__sflush_r+0x18>
 8005e86:	0793      	lsls	r3, r2, #30
 8005e88:	bf18      	it	ne
 8005e8a:	2300      	movne	r3, #0
 8005e8c:	680e      	ldr	r6, [r1, #0]
 8005e8e:	bf08      	it	eq
 8005e90:	694b      	ldreq	r3, [r1, #20]
 8005e92:	1bf6      	subs	r6, r6, r7
 8005e94:	600f      	str	r7, [r1, #0]
 8005e96:	608b      	str	r3, [r1, #8]
 8005e98:	2e00      	cmp	r6, #0
 8005e9a:	dd9f      	ble.n	8005ddc <__sflush_r+0x18>
 8005e9c:	4633      	mov	r3, r6
 8005e9e:	463a      	mov	r2, r7
 8005ea0:	4628      	mov	r0, r5
 8005ea2:	6a21      	ldr	r1, [r4, #32]
 8005ea4:	f8d4 c028 	ldr.w	ip, [r4, #40]	; 0x28
 8005ea8:	47e0      	blx	ip
 8005eaa:	2800      	cmp	r0, #0
 8005eac:	dc06      	bgt.n	8005ebc <__sflush_r+0xf8>
 8005eae:	89a3      	ldrh	r3, [r4, #12]
 8005eb0:	f04f 30ff 	mov.w	r0, #4294967295
 8005eb4:	f043 0340 	orr.w	r3, r3, #64	; 0x40
 8005eb8:	81a3      	strh	r3, [r4, #12]
 8005eba:	e790      	b.n	8005dde <__sflush_r+0x1a>
 8005ebc:	4407      	add	r7, r0
 8005ebe:	1a36      	subs	r6, r6, r0
 8005ec0:	e7ea      	b.n	8005e98 <__sflush_r+0xd4>
 8005ec2:	bf00      	nop
 8005ec4:	20400001 	.word	0x20400001

08005ec8 <_fflush_r>:
 8005ec8:	b538      	push	{r3, r4, r5, lr}
 8005eca:	690b      	ldr	r3, [r1, #16]
 8005ecc:	4605      	mov	r5, r0
 8005ece:	460c      	mov	r4, r1
 8005ed0:	b913      	cbnz	r3, 8005ed8 <_fflush_r+0x10>
 8005ed2:	2500      	movs	r5, #0
 8005ed4:	4628      	mov	r0, r5
 8005ed6:	bd38      	pop	{r3, r4, r5, pc}
 8005ed8:	b118      	cbz	r0, 8005ee2 <_fflush_r+0x1a>
 8005eda:	6983      	ldr	r3, [r0, #24]
 8005edc:	b90b      	cbnz	r3, 8005ee2 <_fflush_r+0x1a>
 8005ede:	f7ff f8bd 	bl	800505c <__sinit>
 8005ee2:	4b14      	ldr	r3, [pc, #80]	; (8005f34 <_fflush_r+0x6c>)
 8005ee4:	429c      	cmp	r4, r3
 8005ee6:	d11b      	bne.n	8005f20 <_fflush_r+0x58>
 8005ee8:	686c      	ldr	r4, [r5, #4]
 8005eea:	f9b4 300c 	ldrsh.w	r3, [r4, #12]
 8005eee:	2b00      	cmp	r3, #0
 8005ef0:	d0ef      	beq.n	8005ed2 <_fflush_r+0xa>
 8005ef2:	6e62      	ldr	r2, [r4, #100]	; 0x64
 8005ef4:	07d0      	lsls	r0, r2, #31
 8005ef6:	d404      	bmi.n	8005f02 <_fflush_r+0x3a>
 8005ef8:	0599      	lsls	r1, r3, #22
 8005efa:	d402      	bmi.n	8005f02 <_fflush_r+0x3a>
 8005efc:	6da0      	ldr	r0, [r4, #88]	; 0x58
 8005efe:	f7ff f94b 	bl	8005198 <__retarget_lock_acquire_recursive>
 8005f02:	4628      	mov	r0, r5
 8005f04:	4621      	mov	r1, r4
 8005f06:	f7ff ff5d 	bl	8005dc4 <__sflush_r>
 8005f0a:	6e63      	ldr	r3, [r4, #100]	; 0x64
 8005f0c:	4605      	mov	r5, r0
 8005f0e:	07da      	lsls	r2, r3, #31
 8005f10:	d4e0      	bmi.n	8005ed4 <_fflush_r+0xc>
 8005f12:	89a3      	ldrh	r3, [r4, #12]
 8005f14:	059b      	lsls	r3, r3, #22
 8005f16:	d4dd      	bmi.n	8005ed4 <_fflush_r+0xc>
 8005f18:	6da0      	ldr	r0, [r4, #88]	; 0x58
 8005f1a:	f7ff f93e 	bl	800519a <__retarget_lock_release_recursive>
 8005f1e:	e7d9      	b.n	8005ed4 <_fflush_r+0xc>
 8005f20:	4b05      	ldr	r3, [pc, #20]	; (8005f38 <_fflush_r+0x70>)
 8005f22:	429c      	cmp	r4, r3
 8005f24:	d101      	bne.n	8005f2a <_fflush_r+0x62>
 8005f26:	68ac      	ldr	r4, [r5, #8]
 8005f28:	e7df      	b.n	8005eea <_fflush_r+0x22>
 8005f2a:	4b04      	ldr	r3, [pc, #16]	; (8005f3c <_fflush_r+0x74>)
 8005f2c:	429c      	cmp	r4, r3
 8005f2e:	bf08      	it	eq
 8005f30:	68ec      	ldreq	r4, [r5, #12]
 8005f32:	e7da      	b.n	8005eea <_fflush_r+0x22>
 8005f34:	080062e8 	.word	0x080062e8
 8005f38:	08006308 	.word	0x08006308
 8005f3c:	080062c8 	.word	0x080062c8

08005f40 <_lseek_r>:
 8005f40:	b538      	push	{r3, r4, r5, lr}
 8005f42:	4604      	mov	r4, r0
 8005f44:	4608      	mov	r0, r1
 8005f46:	4611      	mov	r1, r2
 8005f48:	2200      	movs	r2, #0
 8005f4a:	4d05      	ldr	r5, [pc, #20]	; (8005f60 <_lseek_r+0x20>)
 8005f4c:	602a      	str	r2, [r5, #0]
 8005f4e:	461a      	mov	r2, r3
 8005f50:	f7fb f963 	bl	800121a <_lseek>
 8005f54:	1c43      	adds	r3, r0, #1
 8005f56:	d102      	bne.n	8005f5e <_lseek_r+0x1e>
 8005f58:	682b      	ldr	r3, [r5, #0]
 8005f5a:	b103      	cbz	r3, 8005f5e <_lseek_r+0x1e>
 8005f5c:	6023      	str	r3, [r4, #0]
 8005f5e:	bd38      	pop	{r3, r4, r5, pc}
 8005f60:	200002b0 	.word	0x200002b0

08005f64 <__swhatbuf_r>:
 8005f64:	b570      	push	{r4, r5, r6, lr}
 8005f66:	460e      	mov	r6, r1
 8005f68:	f9b1 100e 	ldrsh.w	r1, [r1, #14]
 8005f6c:	4614      	mov	r4, r2
 8005f6e:	2900      	cmp	r1, #0
 8005f70:	461d      	mov	r5, r3
 8005f72:	b096      	sub	sp, #88	; 0x58
 8005f74:	da08      	bge.n	8005f88 <__swhatbuf_r+0x24>
 8005f76:	2200      	movs	r2, #0
 8005f78:	f9b6 300c 	ldrsh.w	r3, [r6, #12]
 8005f7c:	602a      	str	r2, [r5, #0]
 8005f7e:	061a      	lsls	r2, r3, #24
 8005f80:	d410      	bmi.n	8005fa4 <__swhatbuf_r+0x40>
 8005f82:	f44f 6380 	mov.w	r3, #1024	; 0x400
 8005f86:	e00e      	b.n	8005fa6 <__swhatbuf_r+0x42>
 8005f88:	466a      	mov	r2, sp
 8005f8a:	f000 f91d 	bl	80061c8 <_fstat_r>
 8005f8e:	2800      	cmp	r0, #0
 8005f90:	dbf1      	blt.n	8005f76 <__swhatbuf_r+0x12>
 8005f92:	9a01      	ldr	r2, [sp, #4]
 8005f94:	f402 4270 	and.w	r2, r2, #61440	; 0xf000
 8005f98:	f5a2 5300 	sub.w	r3, r2, #8192	; 0x2000
 8005f9c:	425a      	negs	r2, r3
 8005f9e:	415a      	adcs	r2, r3
 8005fa0:	602a      	str	r2, [r5, #0]
 8005fa2:	e7ee      	b.n	8005f82 <__swhatbuf_r+0x1e>
 8005fa4:	2340      	movs	r3, #64	; 0x40
 8005fa6:	2000      	movs	r0, #0
 8005fa8:	6023      	str	r3, [r4, #0]
 8005faa:	b016      	add	sp, #88	; 0x58
 8005fac:	bd70      	pop	{r4, r5, r6, pc}
	...

08005fb0 <__smakebuf_r>:
 8005fb0:	898b      	ldrh	r3, [r1, #12]
 8005fb2:	b573      	push	{r0, r1, r4, r5, r6, lr}
 8005fb4:	079d      	lsls	r5, r3, #30
 8005fb6:	4606      	mov	r6, r0
 8005fb8:	460c      	mov	r4, r1
 8005fba:	d507      	bpl.n	8005fcc <__smakebuf_r+0x1c>
 8005fbc:	f104 0347 	add.w	r3, r4, #71	; 0x47
 8005fc0:	6023      	str	r3, [r4, #0]
 8005fc2:	6123      	str	r3, [r4, #16]
 8005fc4:	2301      	movs	r3, #1
 8005fc6:	6163      	str	r3, [r4, #20]
 8005fc8:	b002      	add	sp, #8
 8005fca:	bd70      	pop	{r4, r5, r6, pc}
 8005fcc:	466a      	mov	r2, sp
 8005fce:	ab01      	add	r3, sp, #4
 8005fd0:	f7ff ffc8 	bl	8005f64 <__swhatbuf_r>
 8005fd4:	9900      	ldr	r1, [sp, #0]
 8005fd6:	4605      	mov	r5, r0
 8005fd8:	4630      	mov	r0, r6
 8005fda:	f7ff f8ff 	bl	80051dc <_malloc_r>
 8005fde:	b948      	cbnz	r0, 8005ff4 <__smakebuf_r+0x44>
 8005fe0:	f9b4 300c 	ldrsh.w	r3, [r4, #12]
 8005fe4:	059a      	lsls	r2, r3, #22
 8005fe6:	d4ef      	bmi.n	8005fc8 <__smakebuf_r+0x18>
 8005fe8:	f023 0303 	bic.w	r3, r3, #3
 8005fec:	f043 0302 	orr.w	r3, r3, #2
 8005ff0:	81a3      	strh	r3, [r4, #12]
 8005ff2:	e7e3      	b.n	8005fbc <__smakebuf_r+0xc>
 8005ff4:	4b0d      	ldr	r3, [pc, #52]	; (800602c <__smakebuf_r+0x7c>)
 8005ff6:	62b3      	str	r3, [r6, #40]	; 0x28
 8005ff8:	89a3      	ldrh	r3, [r4, #12]
 8005ffa:	6020      	str	r0, [r4, #0]
 8005ffc:	f043 0380 	orr.w	r3, r3, #128	; 0x80
 8006000:	81a3      	strh	r3, [r4, #12]
 8006002:	9b00      	ldr	r3, [sp, #0]
 8006004:	6120      	str	r0, [r4, #16]
 8006006:	6163      	str	r3, [r4, #20]
 8006008:	9b01      	ldr	r3, [sp, #4]
 800600a:	b15b      	cbz	r3, 8006024 <__smakebuf_r+0x74>
 800600c:	4630      	mov	r0, r6
 800600e:	f9b4 100e 	ldrsh.w	r1, [r4, #14]
 8006012:	f000 f8eb 	bl	80061ec <_isatty_r>
 8006016:	b128      	cbz	r0, 8006024 <__smakebuf_r+0x74>
 8006018:	89a3      	ldrh	r3, [r4, #12]
 800601a:	f023 0303 	bic.w	r3, r3, #3
 800601e:	f043 0301 	orr.w	r3, r3, #1
 8006022:	81a3      	strh	r3, [r4, #12]
 8006024:	89a0      	ldrh	r0, [r4, #12]
 8006026:	4305      	orrs	r5, r0
 8006028:	81a5      	strh	r5, [r4, #12]
 800602a:	e7cd      	b.n	8005fc8 <__smakebuf_r+0x18>
 800602c:	08004ff5 	.word	0x08004ff5

08006030 <memchr>:
 8006030:	4603      	mov	r3, r0
 8006032:	b510      	push	{r4, lr}
 8006034:	b2c9      	uxtb	r1, r1
 8006036:	4402      	add	r2, r0
 8006038:	4293      	cmp	r3, r2
 800603a:	4618      	mov	r0, r3
 800603c:	d101      	bne.n	8006042 <memchr+0x12>
 800603e:	2000      	movs	r0, #0
 8006040:	e003      	b.n	800604a <memchr+0x1a>
 8006042:	7804      	ldrb	r4, [r0, #0]
 8006044:	3301      	adds	r3, #1
 8006046:	428c      	cmp	r4, r1
 8006048:	d1f6      	bne.n	8006038 <memchr+0x8>
 800604a:	bd10      	pop	{r4, pc}

0800604c <memcpy>:
 800604c:	440a      	add	r2, r1
 800604e:	4291      	cmp	r1, r2
 8006050:	f100 33ff 	add.w	r3, r0, #4294967295
 8006054:	d100      	bne.n	8006058 <memcpy+0xc>
 8006056:	4770      	bx	lr
 8006058:	b510      	push	{r4, lr}
 800605a:	f811 4b01 	ldrb.w	r4, [r1], #1
 800605e:	4291      	cmp	r1, r2
 8006060:	f803 4f01 	strb.w	r4, [r3, #1]!
 8006064:	d1f9      	bne.n	800605a <memcpy+0xe>
 8006066:	bd10      	pop	{r4, pc}

08006068 <memmove>:
 8006068:	4288      	cmp	r0, r1
 800606a:	b510      	push	{r4, lr}
 800606c:	eb01 0402 	add.w	r4, r1, r2
 8006070:	d902      	bls.n	8006078 <memmove+0x10>
 8006072:	4284      	cmp	r4, r0
 8006074:	4623      	mov	r3, r4
 8006076:	d807      	bhi.n	8006088 <memmove+0x20>
 8006078:	1e43      	subs	r3, r0, #1
 800607a:	42a1      	cmp	r1, r4
 800607c:	d008      	beq.n	8006090 <memmove+0x28>
 800607e:	f811 2b01 	ldrb.w	r2, [r1], #1
 8006082:	f803 2f01 	strb.w	r2, [r3, #1]!
 8006086:	e7f8      	b.n	800607a <memmove+0x12>
 8006088:	4601      	mov	r1, r0
 800608a:	4402      	add	r2, r0
 800608c:	428a      	cmp	r2, r1
 800608e:	d100      	bne.n	8006092 <memmove+0x2a>
 8006090:	bd10      	pop	{r4, pc}
 8006092:	f813 4d01 	ldrb.w	r4, [r3, #-1]!
 8006096:	f802 4d01 	strb.w	r4, [r2, #-1]!
 800609a:	e7f7      	b.n	800608c <memmove+0x24>

0800609c <__malloc_lock>:
 800609c:	4801      	ldr	r0, [pc, #4]	; (80060a4 <__malloc_lock+0x8>)
 800609e:	f7ff b87b 	b.w	8005198 <__retarget_lock_acquire_recursive>
 80060a2:	bf00      	nop
 80060a4:	200002a4 	.word	0x200002a4

080060a8 <__malloc_unlock>:
 80060a8:	4801      	ldr	r0, [pc, #4]	; (80060b0 <__malloc_unlock+0x8>)
 80060aa:	f7ff b876 	b.w	800519a <__retarget_lock_release_recursive>
 80060ae:	bf00      	nop
 80060b0:	200002a4 	.word	0x200002a4

080060b4 <_free_r>:
 80060b4:	b538      	push	{r3, r4, r5, lr}
 80060b6:	4605      	mov	r5, r0
 80060b8:	2900      	cmp	r1, #0
 80060ba:	d040      	beq.n	800613e <_free_r+0x8a>
 80060bc:	f851 3c04 	ldr.w	r3, [r1, #-4]
 80060c0:	1f0c      	subs	r4, r1, #4
 80060c2:	2b00      	cmp	r3, #0
 80060c4:	bfb8      	it	lt
 80060c6:	18e4      	addlt	r4, r4, r3
 80060c8:	f7ff ffe8 	bl	800609c <__malloc_lock>
 80060cc:	4a1c      	ldr	r2, [pc, #112]	; (8006140 <_free_r+0x8c>)
 80060ce:	6813      	ldr	r3, [r2, #0]
 80060d0:	b933      	cbnz	r3, 80060e0 <_free_r+0x2c>
 80060d2:	6063      	str	r3, [r4, #4]
 80060d4:	6014      	str	r4, [r2, #0]
 80060d6:	4628      	mov	r0, r5
 80060d8:	e8bd 4038 	ldmia.w	sp!, {r3, r4, r5, lr}
 80060dc:	f7ff bfe4 	b.w	80060a8 <__malloc_unlock>
 80060e0:	42a3      	cmp	r3, r4
 80060e2:	d908      	bls.n	80060f6 <_free_r+0x42>
 80060e4:	6820      	ldr	r0, [r4, #0]
 80060e6:	1821      	adds	r1, r4, r0
 80060e8:	428b      	cmp	r3, r1
 80060ea:	bf01      	itttt	eq
 80060ec:	6819      	ldreq	r1, [r3, #0]
 80060ee:	685b      	ldreq	r3, [r3, #4]
 80060f0:	1809      	addeq	r1, r1, r0
 80060f2:	6021      	streq	r1, [r4, #0]
 80060f4:	e7ed      	b.n	80060d2 <_free_r+0x1e>
 80060f6:	461a      	mov	r2, r3
 80060f8:	685b      	ldr	r3, [r3, #4]
 80060fa:	b10b      	cbz	r3, 8006100 <_free_r+0x4c>
 80060fc:	42a3      	cmp	r3, r4
 80060fe:	d9fa      	bls.n	80060f6 <_free_r+0x42>
 8006100:	6811      	ldr	r1, [r2, #0]
 8006102:	1850      	adds	r0, r2, r1
 8006104:	42a0      	cmp	r0, r4
 8006106:	d10b      	bne.n	8006120 <_free_r+0x6c>
 8006108:	6820      	ldr	r0, [r4, #0]
 800610a:	4401      	add	r1, r0
 800610c:	1850      	adds	r0, r2, r1
 800610e:	4283      	cmp	r3, r0
 8006110:	6011      	str	r1, [r2, #0]
 8006112:	d1e0      	bne.n	80060d6 <_free_r+0x22>
 8006114:	6818      	ldr	r0, [r3, #0]
 8006116:	685b      	ldr	r3, [r3, #4]
 8006118:	4401      	add	r1, r0
 800611a:	6011      	str	r1, [r2, #0]
 800611c:	6053      	str	r3, [r2, #4]
 800611e:	e7da      	b.n	80060d6 <_free_r+0x22>
 8006120:	d902      	bls.n	8006128 <_free_r+0x74>
 8006122:	230c      	movs	r3, #12
 8006124:	602b      	str	r3, [r5, #0]
 8006126:	e7d6      	b.n	80060d6 <_free_r+0x22>
 8006128:	6820      	ldr	r0, [r4, #0]
 800612a:	1821      	adds	r1, r4, r0
 800612c:	428b      	cmp	r3, r1
 800612e:	bf01      	itttt	eq
 8006130:	6819      	ldreq	r1, [r3, #0]
 8006132:	685b      	ldreq	r3, [r3, #4]
 8006134:	1809      	addeq	r1, r1, r0
 8006136:	6021      	streq	r1, [r4, #0]
 8006138:	6063      	str	r3, [r4, #4]
 800613a:	6054      	str	r4, [r2, #4]
 800613c:	e7cb      	b.n	80060d6 <_free_r+0x22>
 800613e:	bd38      	pop	{r3, r4, r5, pc}
 8006140:	200002a8 	.word	0x200002a8

08006144 <_realloc_r>:
 8006144:	e92d 41f0 	stmdb	sp!, {r4, r5, r6, r7, r8, lr}
 8006148:	4680      	mov	r8, r0
 800614a:	4614      	mov	r4, r2
 800614c:	460e      	mov	r6, r1
 800614e:	b921      	cbnz	r1, 800615a <_realloc_r+0x16>
 8006150:	4611      	mov	r1, r2
 8006152:	e8bd 41f0 	ldmia.w	sp!, {r4, r5, r6, r7, r8, lr}
 8006156:	f7ff b841 	b.w	80051dc <_malloc_r>
 800615a:	b92a      	cbnz	r2, 8006168 <_realloc_r+0x24>
 800615c:	f7ff ffaa 	bl	80060b4 <_free_r>
 8006160:	4625      	mov	r5, r4
 8006162:	4628      	mov	r0, r5
 8006164:	e8bd 81f0 	ldmia.w	sp!, {r4, r5, r6, r7, r8, pc}
 8006168:	f000 f850 	bl	800620c <_malloc_usable_size_r>
 800616c:	4284      	cmp	r4, r0
 800616e:	4607      	mov	r7, r0
 8006170:	d802      	bhi.n	8006178 <_realloc_r+0x34>
 8006172:	ebb4 0f50 	cmp.w	r4, r0, lsr #1
 8006176:	d812      	bhi.n	800619e <_realloc_r+0x5a>
 8006178:	4621      	mov	r1, r4
 800617a:	4640      	mov	r0, r8
 800617c:	f7ff f82e 	bl	80051dc <_malloc_r>
 8006180:	4605      	mov	r5, r0
 8006182:	2800      	cmp	r0, #0
 8006184:	d0ed      	beq.n	8006162 <_realloc_r+0x1e>
 8006186:	42bc      	cmp	r4, r7
 8006188:	4622      	mov	r2, r4
 800618a:	4631      	mov	r1, r6
 800618c:	bf28      	it	cs
 800618e:	463a      	movcs	r2, r7
 8006190:	f7ff ff5c 	bl	800604c <memcpy>
 8006194:	4631      	mov	r1, r6
 8006196:	4640      	mov	r0, r8
 8006198:	f7ff ff8c 	bl	80060b4 <_free_r>
 800619c:	e7e1      	b.n	8006162 <_realloc_r+0x1e>
 800619e:	4635      	mov	r5, r6
 80061a0:	e7df      	b.n	8006162 <_realloc_r+0x1e>
	...

080061a4 <_read_r>:
 80061a4:	b538      	push	{r3, r4, r5, lr}
 80061a6:	4604      	mov	r4, r0
 80061a8:	4608      	mov	r0, r1
 80061aa:	4611      	mov	r1, r2
 80061ac:	2200      	movs	r2, #0
 80061ae:	4d05      	ldr	r5, [pc, #20]	; (80061c4 <_read_r+0x20>)
 80061b0:	602a      	str	r2, [r5, #0]
 80061b2:	461a      	mov	r2, r3
 80061b4:	f7fa ffd4 	bl	8001160 <_read>
 80061b8:	1c43      	adds	r3, r0, #1
 80061ba:	d102      	bne.n	80061c2 <_read_r+0x1e>
 80061bc:	682b      	ldr	r3, [r5, #0]
 80061be:	b103      	cbz	r3, 80061c2 <_read_r+0x1e>
 80061c0:	6023      	str	r3, [r4, #0]
 80061c2:	bd38      	pop	{r3, r4, r5, pc}
 80061c4:	200002b0 	.word	0x200002b0

080061c8 <_fstat_r>:
 80061c8:	b538      	push	{r3, r4, r5, lr}
 80061ca:	2300      	movs	r3, #0
 80061cc:	4d06      	ldr	r5, [pc, #24]	; (80061e8 <_fstat_r+0x20>)
 80061ce:	4604      	mov	r4, r0
 80061d0:	4608      	mov	r0, r1
 80061d2:	4611      	mov	r1, r2
 80061d4:	602b      	str	r3, [r5, #0]
 80061d6:	f7fb f807 	bl	80011e8 <_fstat>
 80061da:	1c43      	adds	r3, r0, #1
 80061dc:	d102      	bne.n	80061e4 <_fstat_r+0x1c>
 80061de:	682b      	ldr	r3, [r5, #0]
 80061e0:	b103      	cbz	r3, 80061e4 <_fstat_r+0x1c>
 80061e2:	6023      	str	r3, [r4, #0]
 80061e4:	bd38      	pop	{r3, r4, r5, pc}
 80061e6:	bf00      	nop
 80061e8:	200002b0 	.word	0x200002b0

080061ec <_isatty_r>:
 80061ec:	b538      	push	{r3, r4, r5, lr}
 80061ee:	2300      	movs	r3, #0
 80061f0:	4d05      	ldr	r5, [pc, #20]	; (8006208 <_isatty_r+0x1c>)
 80061f2:	4604      	mov	r4, r0
 80061f4:	4608      	mov	r0, r1
 80061f6:	602b      	str	r3, [r5, #0]
 80061f8:	f7fb f805 	bl	8001206 <_isatty>
 80061fc:	1c43      	adds	r3, r0, #1
 80061fe:	d102      	bne.n	8006206 <_isatty_r+0x1a>
 8006200:	682b      	ldr	r3, [r5, #0]
 8006202:	b103      	cbz	r3, 8006206 <_isatty_r+0x1a>
 8006204:	6023      	str	r3, [r4, #0]
 8006206:	bd38      	pop	{r3, r4, r5, pc}
 8006208:	200002b0 	.word	0x200002b0

0800620c <_malloc_usable_size_r>:
 800620c:	f851 3c04 	ldr.w	r3, [r1, #-4]
 8006210:	1f18      	subs	r0, r3, #4
 8006212:	2b00      	cmp	r3, #0
 8006214:	bfbc      	itt	lt
 8006216:	580b      	ldrlt	r3, [r1, r0]
 8006218:	18c0      	addlt	r0, r0, r3
 800621a:	4770      	bx	lr

0800621c <_init>:
 800621c:	b5f8      	push	{r3, r4, r5, r6, r7, lr}
 800621e:	bf00      	nop
 8006220:	bcf8      	pop	{r3, r4, r5, r6, r7}
 8006222:	bc08      	pop	{r3}
 8006224:	469e      	mov	lr, r3
 8006226:	4770      	bx	lr

08006228 <_fini>:
 8006228:	b5f8      	push	{r3, r4, r5, r6, r7, lr}
 800622a:	bf00      	nop
 800622c:	bcf8      	pop	{r3, r4, r5, r6, r7}
 800622e:	bc08      	pop	{r3}
 8006230:	469e      	mov	lr, r3
 8006232:	4770      	bx	lr
