
project_1.elf:     file format elf32-littlearm

Sections:
Idx Name          Size      VMA       LMA       File off  Algn
  0 .isr_vector   0000010c  08000000  08000000  00010000  2**0
                  CONTENTS, ALLOC, LOAD, READONLY, DATA
  1 .text         0000611c  0800010c  0800010c  0001010c  2**2
                  CONTENTS, ALLOC, LOAD, READONLY, CODE
  2 .rodata       00000128  08006228  08006228  00016228  2**2
                  CONTENTS, ALLOC, LOAD, READONLY, DATA
  3 .ARM.extab    00000000  08006350  08006350  00020074  2**0
                  CONTENTS
  4 .ARM          00000000  08006350  08006350  00020074  2**0
                  CONTENTS
  5 .preinit_array 00000000  08006350  08006350  00020074  2**0
                  CONTENTS, ALLOC, LOAD, DATA
  6 .init_array   00000004  08006350  08006350  00016350  2**2
                  CONTENTS, ALLOC, LOAD, DATA
  7 .fini_array   00000004  08006354  08006354  00016354  2**2
                  CONTENTS, ALLOC, LOAD, DATA
  8 .data         00000074  20000000  08006358  00020000  2**2
                  CONTENTS, ALLOC, LOAD, DATA
  9 .bss          00000240  20000074  080063cc  00020074  2**2
                  ALLOC
 10 ._user_heap_stack 00000604  200002b4  080063cc  000202b4  2**0
                  ALLOC
 11 .ARM.attributes 00000029  00000000  00000000  00020074  2**0
                  CONTENTS, READONLY
 12 .debug_info   0000ff6e  00000000  00000000  0002009d  2**0
                  CONTENTS, READONLY, DEBUGGING, OCTETS
 13 .debug_abbrev 000025a3  00000000  00000000  0003000b  2**0
                  CONTENTS, READONLY, DEBUGGING, OCTETS
 14 .debug_aranges 00001158  00000000  00000000  000325b0  2**3
                  CONTENTS, READONLY, DEBUGGING, OCTETS
 15 .debug_ranges 00001088  00000000  00000000  00033708  2**3
                  CONTENTS, READONLY, DEBUGGING, OCTETS
 16 .debug_macro  00019756  00000000  00000000  00034790  2**0
                  CONTENTS, READONLY, DEBUGGING, OCTETS
 17 .debug_line   00012ccb  00000000  00000000  0004dee6  2**0
                  CONTENTS, READONLY, DEBUGGING, OCTETS
 18 .debug_str    00093274  00000000  00000000  00060bb1  2**0
                  CONTENTS, READONLY, DEBUGGING, OCTETS
 19 .comment      00000050  00000000  00000000  000f3e25  2**0
                  CONTENTS, READONLY
 20 .debug_frame  000052cc  00000000  00000000  000f3e78  2**2
                  CONTENTS, READONLY, DEBUGGING, OCTETS

Disassembly of section .text:

0800010c <__do_global_dtors_aux>:
 800010c:	b510      	push	{r4, lr}
 800010e:	4c05      	ldr	r4, [pc, #20]	; (8000124 <__do_global_dtors_aux+0x18>)
 8000110:	7823      	ldrb	r3, [r4, #0]
 8000112:	b933      	cbnz	r3, 8000122 <__do_global_dtors_aux+0x16>
 8000114:	4b04      	ldr	r3, [pc, #16]	; (8000128 <__do_global_dtors_aux+0x1c>)
 8000116:	b113      	cbz	r3, 800011e <__do_global_dtors_aux+0x12>
 8000118:	4804      	ldr	r0, [pc, #16]	; (800012c <__do_global_dtors_aux+0x20>)
 800011a:	f3af 8000 	nop.w
 800011e:	2301      	movs	r3, #1
 8000120:	7023      	strb	r3, [r4, #0]
 8000122:	bd10      	pop	{r4, pc}
 8000124:	20000074 	.word	0x20000074
 8000128:	00000000 	.word	0x00000000
 800012c:	08006210 	.word	0x08006210

08000130 <frame_dummy>:
 8000130:	b508      	push	{r3, lr}
 8000132:	4b03      	ldr	r3, [pc, #12]	; (8000140 <frame_dummy+0x10>)
 8000134:	b11b      	cbz	r3, 800013e <frame_dummy+0xe>
 8000136:	4903      	ldr	r1, [pc, #12]	; (8000144 <frame_dummy+0x14>)
 8000138:	4803      	ldr	r0, [pc, #12]	; (8000148 <frame_dummy+0x18>)
 800013a:	f3af 8000 	nop.w
 800013e:	bd08      	pop	{r3, pc}
 8000140:	00000000 	.word	0x00000000
 8000144:	20000078 	.word	0x20000078
 8000148:	08006210 	.word	0x08006210

0800014c <lcd_send_cmd>:
 800014c:	b580      	push	{r7, lr}
 800014e:	b086      	sub	sp, #24
 8000150:	af02      	add	r7, sp, #8
 8000152:	4603      	mov	r3, r0
 8000154:	71fb      	strb	r3, [r7, #7]
 8000156:	79fb      	ldrb	r3, [r7, #7]
 8000158:	f023 030f 	bic.w	r3, r3, #15
 800015c:	73fb      	strb	r3, [r7, #15]
 800015e:	79fb      	ldrb	r3, [r7, #7]
 8000160:	011b      	lsls	r3, r3, #4
 8000162:	73bb      	strb	r3, [r7, #14]
 8000164:	7bfb      	ldrb	r3, [r7, #15]
 8000166:	f043 030c 	orr.w	r3, r3, #12
 800016a:	b2db      	uxtb	r3, r3
 800016c:	723b      	strb	r3, [r7, #8]
 800016e:	7bfb      	ldrb	r3, [r7, #15]
 8000170:	f043 0308 	orr.w	r3, r3, #8
 8000174:	b2db      	uxtb	r3, r3
 8000176:	727b      	strb	r3, [r7, #9]
 8000178:	7bbb      	ldrb	r3, [r7, #14]
 800017a:	f043 030c 	orr.w	r3, r3, #12
 800017e:	b2db      	uxtb	r3, r3
 8000180:	72bb      	strb	r3, [r7, #10]
 8000182:	7bbb      	ldrb	r3, [r7, #14]
 8000184:	f043 0308 	orr.w	r3, r3, #8
 8000188:	b2db      	uxtb	r3, r3
 800018a:	72fb      	strb	r3, [r7, #11]
 800018c:	f107 0208 	add.w	r2, r7, #8
 8000190:	2364      	movs	r3, #100	; 0x64
 8000192:	9300      	str	r3, [sp, #0]
 8000194:	2304      	movs	r3, #4
 8000196:	214e      	movs	r1, #78	; 0x4e
 8000198:	4803      	ldr	r0, [pc, #12]	; (80001a8 <lcd_send_cmd+0x5c>)
 800019a:	f002 faed 	bl	8002778 <HAL_I2C_Master_Transmit>
 800019e:	bf00      	nop
 80001a0:	3710      	adds	r7, #16
 80001a2:	46bd      	mov	sp, r7
 80001a4:	bd80      	pop	{r7, pc}
 80001a6:	bf00      	nop
 80001a8:	20000104 	.word	0x20000104

080001ac <lcd_send_data>:
 80001ac:	b580      	push	{r7, lr}
 80001ae:	b086      	sub	sp, #24
 80001b0:	af02      	add	r7, sp, #8
 80001b2:	4603      	mov	r3, r0
 80001b4:	71fb      	strb	r3, [r7, #7]
 80001b6:	79fb      	ldrb	r3, [r7, #7]
 80001b8:	f023 030f 	bic.w	r3, r3, #15
 80001bc:	73fb      	strb	r3, [r7, #15]
 80001be:	79fb      	ldrb	r3, [r7, #7]
 80001c0:	011b      	lsls	r3, r3, #4
 80001c2:	73bb      	strb	r3, [r7, #14]
 80001c4:	7bfb      	ldrb	r3, [r7, #15]
 80001c6:	f043 030d 	orr.w	r3, r3, #13
 80001ca:	b2db      	uxtb	r3, r3
 80001cc:	723b      	strb	r3, [r7, #8]
 80001ce:	7bfb      	ldrb	r3, [r7, #15]
 80001d0:	f043 0309 	orr.w	r3, r3, #9
 80001d4:	b2db      	uxtb	r3, r3
 80001d6:	727b      	strb	r3, [r7, #9]
 80001d8:	7bbb      	ldrb	r3, [r7, #14]
 80001da:	f043 030d 	orr.w	r3, r3, #13
 80001de:	b2db      	uxtb	r3, r3
 80001e0:	72bb      	strb	r3, [r7, #10]
 80001e2:	7bbb      	ldrb	r3, [r7, #14]
 80001e4:	f043 0309 	orr.w	r3, r3, #9
 80001e8:	b2db      	uxtb	r3, r3
 80001ea:	72fb      	strb	r3, [r7, #11]
 80001ec:	f107 0208 	add.w	r2, r7, #8
 80001f0:	2364      	movs	r3, #100	; 0x64
 80001f2:	9300      	str	r3, [sp, #0]
 80001f4:	2304      	movs	r3, #4
 80001f6:	214e      	movs	r1, #78	; 0x4e
 80001f8:	4803      	ldr	r0, [pc, #12]	; (8000208 <lcd_send_data+0x5c>)
 80001fa:	f002 fabd 	bl	8002778 <HAL_I2C_Master_Transmit>
 80001fe:	bf00      	nop
 8000200:	3710      	adds	r7, #16
 8000202:	46bd      	mov	sp, r7
 8000204:	bd80      	pop	{r7, pc}
 8000206:	bf00      	nop
 8000208:	20000104 	.word	0x20000104

0800020c <lcd_put_cur>:
 800020c:	b580      	push	{r7, lr}
 800020e:	b082      	sub	sp, #8
 8000210:	af00      	add	r7, sp, #0
 8000212:	6078      	str	r0, [r7, #4]
 8000214:	6039      	str	r1, [r7, #0]
 8000216:	687b      	ldr	r3, [r7, #4]
 8000218:	2b00      	cmp	r3, #0
 800021a:	d003      	beq.n	8000224 <lcd_put_cur+0x18>
 800021c:	687b      	ldr	r3, [r7, #4]
 800021e:	2b01      	cmp	r3, #1
 8000220:	d005      	beq.n	800022e <lcd_put_cur+0x22>
 8000222:	e009      	b.n	8000238 <lcd_put_cur+0x2c>
 8000224:	683b      	ldr	r3, [r7, #0]
 8000226:	f043 0380 	orr.w	r3, r3, #128	; 0x80
 800022a:	603b      	str	r3, [r7, #0]
 800022c:	e004      	b.n	8000238 <lcd_put_cur+0x2c>
 800022e:	683b      	ldr	r3, [r7, #0]
 8000230:	f043 03c0 	orr.w	r3, r3, #192	; 0xc0
 8000234:	603b      	str	r3, [r7, #0]
 8000236:	bf00      	nop
 8000238:	683b      	ldr	r3, [r7, #0]
 800023a:	b2db      	uxtb	r3, r3
 800023c:	4618      	mov	r0, r3
 800023e:	f7ff ff85 	bl	800014c <lcd_send_cmd>
 8000242:	bf00      	nop
 8000244:	3708      	adds	r7, #8
 8000246:	46bd      	mov	sp, r7
 8000248:	bd80      	pop	{r7, pc}

0800024a <lcd_init>:
 800024a:	b580      	push	{r7, lr}
 800024c:	af00      	add	r7, sp, #0
 800024e:	2032      	movs	r0, #50	; 0x32
 8000250:	f001 f8ae 	bl	80013b0 <HAL_Delay>
 8000254:	2030      	movs	r0, #48	; 0x30
 8000256:	f7ff ff79 	bl	800014c <lcd_send_cmd>
 800025a:	2005      	movs	r0, #5
 800025c:	f001 f8a8 	bl	80013b0 <HAL_Delay>
 8000260:	2030      	movs	r0, #48	; 0x30
 8000262:	f7ff ff73 	bl	800014c <lcd_send_cmd>
 8000266:	2001      	movs	r0, #1
 8000268:	f001 f8a2 	bl	80013b0 <HAL_Delay>
 800026c:	2030      	movs	r0, #48	; 0x30
 800026e:	f7ff ff6d 	bl	800014c <lcd_send_cmd>
 8000272:	200a      	movs	r0, #10
 8000274:	f001 f89c 	bl	80013b0 <HAL_Delay>
 8000278:	2020      	movs	r0, #32
 800027a:	f7ff ff67 	bl	800014c <lcd_send_cmd>
 800027e:	200a      	movs	r0, #10
 8000280:	f001 f896 	bl	80013b0 <HAL_Delay>
 8000284:	2028      	movs	r0, #40	; 0x28
 8000286:	f7ff ff61 	bl	800014c <lcd_send_cmd>
 800028a:	2001      	movs	r0, #1
 800028c:	f001 f890 	bl	80013b0 <HAL_Delay>
 8000290:	2008      	movs	r0, #8
 8000292:	f7ff ff5b 	bl	800014c <lcd_send_cmd>
 8000296:	2001      	movs	r0, #1
 8000298:	f001 f88a 	bl	80013b0 <HAL_Delay>
 800029c:	2001      	movs	r0, #1
 800029e:	f7ff ff55 	bl	800014c <lcd_send_cmd>
 80002a2:	2001      	movs	r0, #1
 80002a4:	f001 f884 	bl	80013b0 <HAL_Delay>
 80002a8:	2001      	movs	r0, #1
 80002aa:	f001 f881 	bl	80013b0 <HAL_Delay>
 80002ae:	2006      	movs	r0, #6
 80002b0:	f7ff ff4c 	bl	800014c <lcd_send_cmd>
 80002b4:	2001      	movs	r0, #1
 80002b6:	f001 f87b 	bl	80013b0 <HAL_Delay>
 80002ba:	200c      	movs	r0, #12
 80002bc:	f7ff ff46 	bl	800014c <lcd_send_cmd>
 80002c0:	bf00      	nop
 80002c2:	bd80      	pop	{r7, pc}

080002c4 <lcd_send_string>:
 80002c4:	b580      	push	{r7, lr}
 80002c6:	b082      	sub	sp, #8
 80002c8:	af00      	add	r7, sp, #0
 80002ca:	6078      	str	r0, [r7, #4]
 80002cc:	e006      	b.n	80002dc <lcd_send_string+0x18>
 80002ce:	687b      	ldr	r3, [r7, #4]
 80002d0:	1c5a      	adds	r2, r3, #1
 80002d2:	607a      	str	r2, [r7, #4]
 80002d4:	781b      	ldrb	r3, [r3, #0]
 80002d6:	4618      	mov	r0, r3
 80002d8:	f7ff ff68 	bl	80001ac <lcd_send_data>
 80002dc:	687b      	ldr	r3, [r7, #4]
 80002de:	781b      	ldrb	r3, [r3, #0]
 80002e0:	2b00      	cmp	r3, #0
 80002e2:	d1f4      	bne.n	80002ce <lcd_send_string+0xa>
 80002e4:	bf00      	nop
 80002e6:	bf00      	nop
 80002e8:	3708      	adds	r7, #8
 80002ea:	46bd      	mov	sp, r7
 80002ec:	bd80      	pop	{r7, pc}

080002ee <map>:
UART_HandleTypeDef huart2;

/* USER CODE BEGIN PV */
//----------------------------------- Gyro sensor------------------------------------
long map(long x, long in_min, long in_max, long out_min, long out_max)
	 {
 80002ee:	b480      	push	{r7}
 80002f0:	b085      	sub	sp, #20
 80002f2:	af00      	add	r7, sp, #0
 80002f4:	60f8      	str	r0, [r7, #12]
 80002f6:	60b9      	str	r1, [r7, #8]
 80002f8:	607a      	str	r2, [r7, #4]
 80002fa:	603b      	str	r3, [r7, #0]
	  return (x - in_min) * (out_max - out_min) / (in_max - in_min) + out_min;
 80002fc:	68fa      	ldr	r2, [r7, #12]
 80002fe:	68bb      	ldr	r3, [r7, #8]
 8000300:	1ad3      	subs	r3, r2, r3
 8000302:	69b9      	ldr	r1, [r7, #24]
 8000304:	683a      	ldr	r2, [r7, #0]
 8000306:	1a8a      	subs	r2, r1, r2
 8000308:	fb03 f202 	mul.w	r2, r3, r2
 800030c:	6879      	ldr	r1, [r7, #4]
 800030e:	68bb      	ldr	r3, [r7, #8]
 8000310:	1acb      	subs	r3, r1, r3
 8000312:	fb92 f2f3 	sdiv	r2, r2, r3
 8000316:	683b      	ldr	r3, [r7, #0]
 8000318:	4413      	add	r3, r2
	 }
 800031a:	4618      	mov	r0, r3
 800031c:	3714      	adds	r7, #20
 800031e:	46bd      	mov	sp, r7
 8000320:	bc80      	pop	{r7}
 8000322:	4770      	bx	lr

08000324 <mapping>:
int xAng = 0;
int yAng = 0;
int zAng = 0;

void mapping()
{
 8000324:	b580      	push	{r7, lr}
 8000326:	b082      	sub	sp, #8
 8000328:	af02      	add	r7, sp, #8
	xAng = map(adc_value[0], 1554, 2356, -90, 90);
 800032a:	4b18      	ldr	r3, [pc, #96]	; (800038c <mapping+0x68>)
 800032c:	6818      	ldr	r0, [r3, #0]
 800032e:	235a      	movs	r3, #90	; 0x5a
 8000330:	9300      	str	r3, [sp, #0]
 8000332:	f06f 0359 	mvn.w	r3, #89	; 0x59
 8000336:	f640 1234 	movw	r2, #2356	; 0x934
 800033a:	f240 6112 	movw	r1, #1554	; 0x612
 800033e:	f7ff ffd6 	bl	80002ee <map>
 8000342:	4603      	mov	r3, r0
 8000344:	4a12      	ldr	r2, [pc, #72]	; (8000390 <mapping+0x6c>)
 8000346:	6013      	str	r3, [r2, #0]
	yAng = map(adc_value[1], 1544, 2378, -90, 90);
 8000348:	4b10      	ldr	r3, [pc, #64]	; (800038c <mapping+0x68>)
 800034a:	6858      	ldr	r0, [r3, #4]
 800034c:	235a      	movs	r3, #90	; 0x5a
 800034e:	9300      	str	r3, [sp, #0]
 8000350:	f06f 0359 	mvn.w	r3, #89	; 0x59
 8000354:	f640 124a 	movw	r2, #2378	; 0x94a
 8000358:	f44f 61c1 	mov.w	r1, #1544	; 0x608
 800035c:	f7ff ffc7 	bl	80002ee <map>
 8000360:	4603      	mov	r3, r0
 8000362:	4a0c      	ldr	r2, [pc, #48]	; (8000394 <mapping+0x70>)
 8000364:	6013      	str	r3, [r2, #0]
	zAng = map(adc_value[2], 1723, 3346, -90, 90);
 8000366:	4b09      	ldr	r3, [pc, #36]	; (800038c <mapping+0x68>)
 8000368:	6898      	ldr	r0, [r3, #8]
 800036a:	235a      	movs	r3, #90	; 0x5a
 800036c:	9300      	str	r3, [sp, #0]
 800036e:	f06f 0359 	mvn.w	r3, #89	; 0x59
 8000372:	f640 5212 	movw	r2, #3346	; 0xd12
 8000376:	f240 61bb 	movw	r1, #1723	; 0x6bb
 800037a:	f7ff ffb8 	bl	80002ee <map>
 800037e:	4603      	mov	r3, r0
 8000380:	4a05      	ldr	r2, [pc, #20]	; (8000398 <mapping+0x74>)
 8000382:	6013      	str	r3, [r2, #0]
}
 8000384:	bf00      	nop
 8000386:	46bd      	mov	sp, r7
 8000388:	bd80      	pop	{r7, pc}
 800038a:	bf00      	nop
 800038c:	20000274 	.word	0x20000274
 8000390:	20000280 	.word	0x20000280
 8000394:	20000284 	.word	0x20000284
 8000398:	20000288 	.word	0x20000288

0800039c <servoReady>:
char Sec[10];
//------------------------------------------------------------------------------------

//------------------------------------ Servo motor ------------------------------------
void servoReady()
{
 800039c:	b480      	push	{r7}
 800039e:	af00      	add	r7, sp, #0
	__HAL_TIM_SetCompare(&htim3, TIM_CHANNEL_1, 2000); //Servo1 1ms PWM - 90defree
 80003a0:	4b06      	ldr	r3, [pc, #24]	; (80003bc <servoReady+0x20>)
 80003a2:	681b      	ldr	r3, [r3, #0]
 80003a4:	f44f 62fa 	mov.w	r2, #2000	; 0x7d0
 80003a8:	635a      	str	r2, [r3, #52]	; 0x34
	__HAL_TIM_SetCompare(&htim3, TIM_CHANNEL_2, 1000); //setvo2 1ms PWM - 0defree
 80003aa:	4b04      	ldr	r3, [pc, #16]	; (80003bc <servoReady+0x20>)
 80003ac:	681b      	ldr	r3, [r3, #0]
 80003ae:	f44f 727a 	mov.w	r2, #1000	; 0x3e8
 80003b2:	639a      	str	r2, [r3, #56]	; 0x38
}
 80003b4:	bf00      	nop
 80003b6:	46bd      	mov	sp, r7
 80003b8:	bc80      	pop	{r7}
 80003ba:	4770      	bx	lr
 80003bc:	200001e8 	.word	0x200001e8

080003c0 <servoBoom>:

void servoBoom()
{
 80003c0:	b480      	push	{r7}
 80003c2:	af00      	add	r7, sp, #0
	__HAL_TIM_SetCompare(&htim3, TIM_CHANNEL_1, 1000);
 80003c4:	4b06      	ldr	r3, [pc, #24]	; (80003e0 <servoBoom+0x20>)
 80003c6:	681b      	ldr	r3, [r3, #0]
 80003c8:	f44f 727a 	mov.w	r2, #1000	; 0x3e8
 80003cc:	635a      	str	r2, [r3, #52]	; 0x34
	__HAL_TIM_SetCompare(&htim3, TIM_CHANNEL_2, 2000);
 80003ce:	4b04      	ldr	r3, [pc, #16]	; (80003e0 <servoBoom+0x20>)
 80003d0:	681b      	ldr	r3, [r3, #0]
 80003d2:	f44f 62fa 	mov.w	r2, #2000	; 0x7d0
 80003d6:	639a      	str	r2, [r3, #56]	; 0x38
}
 80003d8:	bf00      	nop
 80003da:	46bd      	mov	sp, r7
 80003dc:	bc80      	pop	{r7}
 80003de:	4770      	bx	lr
 80003e0:	200001e8 	.word	0x200001e8

080003e4 <start>:

//------------------------------------------------------------------------------------

//------------------------------------------------------------------------------------
void start()
{
 80003e4:	b580      	push	{r7, lr}
 80003e6:	af00      	add	r7, sp, #0
	lcd_init();
 80003e8:	f7ff ff2f 	bl	800024a <lcd_init>
	HAL_TIM_Base_Start_IT(&htim2); // LCD
 80003ec:	480c      	ldr	r0, [pc, #48]	; (8000420 <start+0x3c>)
 80003ee:	f003 f9e9 	bl	80037c4 <HAL_TIM_Base_Start_IT>
	HAL_TIM_OC_Start_IT(&htim2, TIM_CHANNEL_1); // LCD
 80003f2:	2100      	movs	r1, #0
 80003f4:	480a      	ldr	r0, [pc, #40]	; (8000420 <start+0x3c>)
 80003f6:	f003 fa8f 	bl	8003918 <HAL_TIM_OC_Start_IT>
	HAL_TIM_PWM_Start_IT(&htim1, TIM_CHANNEL_2); // buzzer
 80003fa:	2104      	movs	r1, #4
 80003fc:	4809      	ldr	r0, [pc, #36]	; (8000424 <start+0x40>)
 80003fe:	f003 fc6d 	bl	8003cdc <HAL_TIM_PWM_Start_IT>
	HAL_TIM_PWM_Start(&htim3, TIM_CHANNEL_1); // setvo1 motor
 8000402:	2100      	movs	r1, #0
 8000404:	4808      	ldr	r0, [pc, #32]	; (8000428 <start+0x44>)
 8000406:	f003 fbc7 	bl	8003b98 <HAL_TIM_PWM_Start>
	HAL_TIM_PWM_Start(&htim3, TIM_CHANNEL_2); // setvo2 motor
 800040a:	2104      	movs	r1, #4
 800040c:	4806      	ldr	r0, [pc, #24]	; (8000428 <start+0x44>)
 800040e:	f003 fbc3 	bl	8003b98 <HAL_TIM_PWM_Start>
	HAL_ADC_Start_DMA(&hadc1, adc_value, 3); // Gyro
 8000412:	2203      	movs	r2, #3
 8000414:	4905      	ldr	r1, [pc, #20]	; (800042c <start+0x48>)
 8000416:	4806      	ldr	r0, [pc, #24]	; (8000430 <start+0x4c>)
 8000418:	f001 f8c6 	bl	80015a8 <HAL_ADC_Start_DMA>
}
 800041c:	bf00      	nop
 800041e:	bd80      	pop	{r7, pc}
 8000420:	200001a0 	.word	0x200001a0
 8000424:	20000158 	.word	0x20000158
 8000428:	200001e8 	.word	0x200001e8
 800042c:	20000274 	.word	0x20000274
 8000430:	20000090 	.word	0x20000090

08000434 <__io_putchar>:
#else
#define PUTCHAR_PROTOTYPE int fputc(int ch, FILE *f)
#endif /* __GNUC__ */

PUTCHAR_PROTOTYPE
{
 8000434:	b580      	push	{r7, lr}
 8000436:	b082      	sub	sp, #8
 8000438:	af00      	add	r7, sp, #0
 800043a:	6078      	str	r0, [r7, #4]
  /* Place your implementation of fputc here */
  /* e.g. write a character to the USART1 and Loop until the end of transmission */
  HAL_UART_Transmit(&huart2, (uint8_t *)&ch, 1, 0xFFFF);
 800043c:	1d39      	adds	r1, r7, #4
 800043e:	f64f 73ff 	movw	r3, #65535	; 0xffff
 8000442:	2201      	movs	r2, #1
 8000444:	4803      	ldr	r0, [pc, #12]	; (8000454 <__io_putchar+0x20>)
 8000446:	f004 fbd7 	bl	8004bf8 <HAL_UART_Transmit>

  return ch;
 800044a:	687b      	ldr	r3, [r7, #4]
}
 800044c:	4618      	mov	r0, r3
 800044e:	3708      	adds	r7, #8
 8000450:	46bd      	mov	sp, r7
 8000452:	bd80      	pop	{r7, pc}
 8000454:	20000230 	.word	0x20000230

08000458 <main>:
/**
  * @brief  The application entry point.
  * @retval int
  */
int main(void)
{
 8000458:	b580      	push	{r7, lr}
 800045a:	af00      	add	r7, sp, #0
  /* USER CODE END 1 */

  /* MCU Configuration--------------------------------------------------------*/

  /* Reset of all peripherals, Initializes the Flash interface and the Systick. */
  HAL_Init();
 800045c:	f000 ff46 	bl	80012ec <HAL_Init>
  /* USER CODE BEGIN Init */

  /* USER CODE END Init */

  /* Configure the system clock */
  SystemClock_Config();
 8000460:	f000 f834 	bl	80004cc <SystemClock_Config>
  /* USER CODE BEGIN SysInit */

  /* USER CODE END SysInit */

  /* Initialize all configured peripherals */
  MX_GPIO_Init();
 8000464:	f000 faf4 	bl	8000a50 <MX_GPIO_Init>
  MX_USART2_UART_Init();
 8000468:	f000 faaa 	bl	80009c0 <MX_USART2_UART_Init>
  MX_I2C1_Init();
 800046c:	f000 f8e2 	bl	8000634 <MX_I2C1_Init>
  MX_DMA_Init();
 8000470:	f000 fad0 	bl	8000a14 <MX_DMA_Init>
  MX_TIM3_Init();
 8000474:	f000 fa22 	bl	80008bc <MX_TIM3_Init>
  MX_ADC1_Init();
 8000478:	f000 f880 	bl	800057c <MX_ADC1_Init>
  MX_TIM2_Init();
 800047c:	f000 f9aa 	bl	80007d4 <MX_TIM2_Init>
  MX_TIM1_Init();
 8000480:	f000 f906 	bl	8000690 <MX_TIM1_Init>
  /* USER CODE BEGIN 2 */

  start();
 8000484:	f7ff ffae 	bl	80003e4 <start>
  servoReady();
 8000488:	f7ff ff88 	bl	800039c <servoReady>
  /* Infinite loop */
  /* USER CODE BEGIN WHILE */
  while (1)
  {
	  //-------------------------------- Gyro -----------
	  mapping(); //Gyro mappoing
 800048c:	f7ff ff4a 	bl	8000324 <mapping>

	  printf("X_Value : %ld, Y_Value : %ld,  Z_Value : %ld\r\n", xAng, yAng, zAng); //putty
 8000490:	4b09      	ldr	r3, [pc, #36]	; (80004b8 <main+0x60>)
 8000492:	6819      	ldr	r1, [r3, #0]
 8000494:	4b09      	ldr	r3, [pc, #36]	; (80004bc <main+0x64>)
 8000496:	681a      	ldr	r2, [r3, #0]
 8000498:	4b09      	ldr	r3, [pc, #36]	; (80004c0 <main+0x68>)
 800049a:	681b      	ldr	r3, [r3, #0]
 800049c:	4809      	ldr	r0, [pc, #36]	; (80004c4 <main+0x6c>)
 800049e:	f004 fd47 	bl	8004f30 <iprintf>
	  HAL_Delay(200);
 80004a2:	20c8      	movs	r0, #200	; 0xc8
 80004a4:	f000 ff84 	bl	80013b0 <HAL_Delay>

	  if(xAng > 80) //Gyro -> count down start
 80004a8:	4b03      	ldr	r3, [pc, #12]	; (80004b8 <main+0x60>)
 80004aa:	681b      	ldr	r3, [r3, #0]
 80004ac:	2b50      	cmp	r3, #80	; 0x50
 80004ae:	dded      	ble.n	800048c <main+0x34>
	  {
		  flag_sw1 = 1;
 80004b0:	4b05      	ldr	r3, [pc, #20]	; (80004c8 <main+0x70>)
 80004b2:	2201      	movs	r2, #1
 80004b4:	701a      	strb	r2, [r3, #0]
	  mapping(); //Gyro mappoing
 80004b6:	e7e9      	b.n	800048c <main+0x34>
 80004b8:	20000280 	.word	0x20000280
 80004bc:	20000284 	.word	0x20000284
 80004c0:	20000288 	.word	0x20000288
 80004c4:	08006228 	.word	0x08006228
 80004c8:	2000028c 	.word	0x2000028c

080004cc <SystemClock_Config>:
/**
  * @brief System Clock Configuration
  * @retval None
  */
void SystemClock_Config(void)
{
 80004cc:	b580      	push	{r7, lr}
 80004ce:	b094      	sub	sp, #80	; 0x50
 80004d0:	af00      	add	r7, sp, #0
  RCC_OscInitTypeDef RCC_OscInitStruct = {0};
 80004d2:	f107 0328 	add.w	r3, r7, #40	; 0x28
 80004d6:	2228      	movs	r2, #40	; 0x28
 80004d8:	2100      	movs	r1, #0
 80004da:	4618      	mov	r0, r3
 80004dc:	f004 fd20 	bl	8004f20 <memset>
  RCC_ClkInitTypeDef RCC_ClkInitStruct = {0};
 80004e0:	f107 0314 	add.w	r3, r7, #20
 80004e4:	2200      	movs	r2, #0
 80004e6:	601a      	str	r2, [r3, #0]
 80004e8:	605a      	str	r2, [r3, #4]
 80004ea:	609a      	str	r2, [r3, #8]
 80004ec:	60da      	str	r2, [r3, #12]
 80004ee:	611a      	str	r2, [r3, #16]
  RCC_PeriphCLKInitTypeDef PeriphClkInit = {0};
 80004f0:	1d3b      	adds	r3, r7, #4
 80004f2:	2200      	movs	r2, #0
 80004f4:	601a      	str	r2, [r3, #0]
 80004f6:	605a      	str	r2, [r3, #4]
 80004f8:	609a      	str	r2, [r3, #8]
 80004fa:	60da      	str	r2, [r3, #12]

  /** Initializes the RCC Oscillators according to the specified parameters
  * in the RCC_OscInitTypeDef structure.
  */
  RCC_OscInitStruct.OscillatorType = RCC_OSCILLATORTYPE_HSI;
 80004fc:	2302      	movs	r3, #2
 80004fe:	62bb      	str	r3, [r7, #40]	; 0x28
  RCC_OscInitStruct.HSIState = RCC_HSI_ON;
 8000500:	2301      	movs	r3, #1
 8000502:	63bb      	str	r3, [r7, #56]	; 0x38
  RCC_OscInitStruct.HSICalibrationValue = RCC_HSICALIBRATION_DEFAULT;
 8000504:	2310      	movs	r3, #16
 8000506:	63fb      	str	r3, [r7, #60]	; 0x3c
  RCC_OscInitStruct.PLL.PLLState = RCC_PLL_ON;
 8000508:	2302      	movs	r3, #2
 800050a:	647b      	str	r3, [r7, #68]	; 0x44
  RCC_OscInitStruct.PLL.PLLSource = RCC_PLLSOURCE_HSI_DIV2;
 800050c:	2300      	movs	r3, #0
 800050e:	64bb      	str	r3, [r7, #72]	; 0x48
  RCC_OscInitStruct.PLL.PLLMUL = RCC_PLL_MUL16;
 8000510:	f44f 1360 	mov.w	r3, #3670016	; 0x380000
 8000514:	64fb      	str	r3, [r7, #76]	; 0x4c
  if (HAL_RCC_OscConfig(&RCC_OscInitStruct) != HAL_OK)
 8000516:	f107 0328 	add.w	r3, r7, #40	; 0x28
 800051a:	4618      	mov	r0, r3
 800051c:	f002 fc32 	bl	8002d84 <HAL_RCC_OscConfig>
 8000520:	4603      	mov	r3, r0
 8000522:	2b00      	cmp	r3, #0
 8000524:	d001      	beq.n	800052a <SystemClock_Config+0x5e>
  {
    Error_Handler();
 8000526:	f000 fbf5 	bl	8000d14 <Error_Handler>
  }

  /** Initializes the CPU, AHB and APB buses clocks
  */
  RCC_ClkInitStruct.ClockType = RCC_CLOCKTYPE_HCLK|RCC_CLOCKTYPE_SYSCLK
 800052a:	230f      	movs	r3, #15
 800052c:	617b      	str	r3, [r7, #20]
                              |RCC_CLOCKTYPE_PCLK1|RCC_CLOCKTYPE_PCLK2;
  RCC_ClkInitStruct.SYSCLKSource = RCC_SYSCLKSOURCE_PLLCLK;
 800052e:	2302      	movs	r3, #2
 8000530:	61bb      	str	r3, [r7, #24]
  RCC_ClkInitStruct.AHBCLKDivider = RCC_SYSCLK_DIV1;
 8000532:	2300      	movs	r3, #0
 8000534:	61fb      	str	r3, [r7, #28]
  RCC_ClkInitStruct.APB1CLKDivider = RCC_HCLK_DIV2;
 8000536:	f44f 6380 	mov.w	r3, #1024	; 0x400
 800053a:	623b      	str	r3, [r7, #32]
  RCC_ClkInitStruct.APB2CLKDivider = RCC_HCLK_DIV1;
 800053c:	2300      	movs	r3, #0
 800053e:	627b      	str	r3, [r7, #36]	; 0x24

  if (HAL_RCC_ClockConfig(&RCC_ClkInitStruct, FLASH_LATENCY_2) != HAL_OK)
 8000540:	f107 0314 	add.w	r3, r7, #20
 8000544:	2102      	movs	r1, #2
 8000546:	4618      	mov	r0, r3
 8000548:	f002 fe9e 	bl	8003288 <HAL_RCC_ClockConfig>
 800054c:	4603      	mov	r3, r0
 800054e:	2b00      	cmp	r3, #0
 8000550:	d001      	beq.n	8000556 <SystemClock_Config+0x8a>
  {
    Error_Handler();
 8000552:	f000 fbdf 	bl	8000d14 <Error_Handler>
  }
  PeriphClkInit.PeriphClockSelection = RCC_PERIPHCLK_ADC;
 8000556:	2302      	movs	r3, #2
 8000558:	607b      	str	r3, [r7, #4]
  PeriphClkInit.AdcClockSelection = RCC_ADCPCLK2_DIV8;
 800055a:	f44f 4340 	mov.w	r3, #49152	; 0xc000
 800055e:	60fb      	str	r3, [r7, #12]
  if (HAL_RCCEx_PeriphCLKConfig(&PeriphClkInit) != HAL_OK)
 8000560:	1d3b      	adds	r3, r7, #4
 8000562:	4618      	mov	r0, r3
 8000564:	f003 f828 	bl	80035b8 <HAL_RCCEx_PeriphCLKConfig>
 8000568:	4603      	mov	r3, r0
 800056a:	2b00      	cmp	r3, #0
 800056c:	d001      	beq.n	8000572 <SystemClock_Config+0xa6>
  {
    Error_Handler();
 800056e:	f000 fbd1 	bl	8000d14 <Error_Handler>
  }
}
 8000572:	bf00      	nop
 8000574:	3750      	adds	r7, #80	; 0x50
 8000576:	46bd      	mov	sp, r7
 8000578:	bd80      	pop	{r7, pc}
	...

0800057c <MX_ADC1_Init>:
  * @brief ADC1 Initialization Function
  * @param None
  * @retval None
  */
static void MX_ADC1_Init(void)
{
 800057c:	b580      	push	{r7, lr}
 800057e:	b084      	sub	sp, #16
 8000580:	af00      	add	r7, sp, #0

  /* USER CODE BEGIN ADC1_Init 0 */

  /* USER CODE END ADC1_Init 0 */

  ADC_ChannelConfTypeDef sConfig = {0};
 8000582:	1d3b      	adds	r3, r7, #4
 8000584:	2200      	movs	r2, #0
 8000586:	601a      	str	r2, [r3, #0]
 8000588:	605a      	str	r2, [r3, #4]
 800058a:	609a      	str	r2, [r3, #8]

  /* USER CODE END ADC1_Init 1 */

  /** Common config
  */
  hadc1.Instance = ADC1;
 800058c:	4b27      	ldr	r3, [pc, #156]	; (800062c <MX_ADC1_Init+0xb0>)
 800058e:	4a28      	ldr	r2, [pc, #160]	; (8000630 <MX_ADC1_Init+0xb4>)
 8000590:	601a      	str	r2, [r3, #0]
  hadc1.Init.ScanConvMode = ADC_SCAN_ENABLE;
 8000592:	4b26      	ldr	r3, [pc, #152]	; (800062c <MX_ADC1_Init+0xb0>)
 8000594:	f44f 7280 	mov.w	r2, #256	; 0x100
 8000598:	609a      	str	r2, [r3, #8]
  hadc1.Init.ContinuousConvMode = ENABLE;
 800059a:	4b24      	ldr	r3, [pc, #144]	; (800062c <MX_ADC1_Init+0xb0>)
 800059c:	2201      	movs	r2, #1
 800059e:	731a      	strb	r2, [r3, #12]
  hadc1.Init.DiscontinuousConvMode = DISABLE;
 80005a0:	4b22      	ldr	r3, [pc, #136]	; (800062c <MX_ADC1_Init+0xb0>)
 80005a2:	2200      	movs	r2, #0
 80005a4:	751a      	strb	r2, [r3, #20]
  hadc1.Init.ExternalTrigConv = ADC_SOFTWARE_START;
 80005a6:	4b21      	ldr	r3, [pc, #132]	; (800062c <MX_ADC1_Init+0xb0>)
 80005a8:	f44f 2260 	mov.w	r2, #917504	; 0xe0000
 80005ac:	61da      	str	r2, [r3, #28]
  hadc1.Init.DataAlign = ADC_DATAALIGN_RIGHT;
 80005ae:	4b1f      	ldr	r3, [pc, #124]	; (800062c <MX_ADC1_Init+0xb0>)
 80005b0:	2200      	movs	r2, #0
 80005b2:	605a      	str	r2, [r3, #4]
  hadc1.Init.NbrOfConversion = 3;
 80005b4:	4b1d      	ldr	r3, [pc, #116]	; (800062c <MX_ADC1_Init+0xb0>)
 80005b6:	2203      	movs	r2, #3
 80005b8:	611a      	str	r2, [r3, #16]
  if (HAL_ADC_Init(&hadc1) != HAL_OK)
 80005ba:	481c      	ldr	r0, [pc, #112]	; (800062c <MX_ADC1_Init+0xb0>)
 80005bc:	f000 ff1c 	bl	80013f8 <HAL_ADC_Init>
 80005c0:	4603      	mov	r3, r0
 80005c2:	2b00      	cmp	r3, #0
 80005c4:	d001      	beq.n	80005ca <MX_ADC1_Init+0x4e>
  {
    Error_Handler();
 80005c6:	f000 fba5 	bl	8000d14 <Error_Handler>
  }

  /** Configure Regular Channel
  */
  sConfig.Channel = ADC_CHANNEL_0;
 80005ca:	2300      	movs	r3, #0
 80005cc:	607b      	str	r3, [r7, #4]
  sConfig.Rank = ADC_REGULAR_RANK_1;
 80005ce:	2301      	movs	r3, #1
 80005d0:	60bb      	str	r3, [r7, #8]
  sConfig.SamplingTime = ADC_SAMPLETIME_239CYCLES_5;
 80005d2:	2307      	movs	r3, #7
 80005d4:	60fb      	str	r3, [r7, #12]
  if (HAL_ADC_ConfigChannel(&hadc1, &sConfig) != HAL_OK)
 80005d6:	1d3b      	adds	r3, r7, #4
 80005d8:	4619      	mov	r1, r3
 80005da:	4814      	ldr	r0, [pc, #80]	; (800062c <MX_ADC1_Init+0xb0>)
 80005dc:	f001 f8de 	bl	800179c <HAL_ADC_ConfigChannel>
 80005e0:	4603      	mov	r3, r0
 80005e2:	2b00      	cmp	r3, #0
 80005e4:	d001      	beq.n	80005ea <MX_ADC1_Init+0x6e>
  {
    Error_Handler();
 80005e6:	f000 fb95 	bl	8000d14 <Error_Handler>
  }

  /** Configure Regular Channel
  */
  sConfig.Channel = ADC_CHANNEL_1;
 80005ea:	2301      	movs	r3, #1
 80005ec:	607b      	str	r3, [r7, #4]
  sConfig.Rank = ADC_REGULAR_RANK_2;
 80005ee:	2302      	movs	r3, #2
 80005f0:	60bb      	str	r3, [r7, #8]
  if (HAL_ADC_ConfigChannel(&hadc1, &sConfig) != HAL_OK)
 80005f2:	1d3b      	adds	r3, r7, #4
 80005f4:	4619      	mov	r1, r3
 80005f6:	480d      	ldr	r0, [pc, #52]	; (800062c <MX_ADC1_Init+0xb0>)
 80005f8:	f001 f8d0 	bl	800179c <HAL_ADC_ConfigChannel>
 80005fc:	4603      	mov	r3, r0
 80005fe:	2b00      	cmp	r3, #0
 8000600:	d001      	beq.n	8000606 <MX_ADC1_Init+0x8a>
  {
    Error_Handler();
 8000602:	f000 fb87 	bl	8000d14 <Error_Handler>
  }

  /** Configure Regular Channel
  */
  sConfig.Channel = ADC_CHANNEL_4;
 8000606:	2304      	movs	r3, #4
 8000608:	607b      	str	r3, [r7, #4]
  sConfig.Rank = ADC_REGULAR_RANK_3;
 800060a:	2303      	movs	r3, #3
 800060c:	60bb      	str	r3, [r7, #8]
  if (HAL_ADC_ConfigChannel(&hadc1, &sConfig) != HAL_OK)
 800060e:	1d3b      	adds	r3, r7, #4
 8000610:	4619      	mov	r1, r3
 8000612:	4806      	ldr	r0, [pc, #24]	; (800062c <MX_ADC1_Init+0xb0>)
 8000614:	f001 f8c2 	bl	800179c <HAL_ADC_ConfigChannel>
 8000618:	4603      	mov	r3, r0
 800061a:	2b00      	cmp	r3, #0
 800061c:	d001      	beq.n	8000622 <MX_ADC1_Init+0xa6>
  {
    Error_Handler();
 800061e:	f000 fb79 	bl	8000d14 <Error_Handler>
  }
  /* USER CODE BEGIN ADC1_Init 2 */

  /* USER CODE END ADC1_Init 2 */

}
 8000622:	bf00      	nop
 8000624:	3710      	adds	r7, #16
 8000626:	46bd      	mov	sp, r7
 8000628:	bd80      	pop	{r7, pc}
 800062a:	bf00      	nop
 800062c:	20000090 	.word	0x20000090
 8000630:	40012400 	.word	0x40012400

08000634 <MX_I2C1_Init>:
  * @brief I2C1 Initialization Function
  * @param None
  * @retval None
  */
static void MX_I2C1_Init(void)
{
 8000634:	b580      	push	{r7, lr}
 8000636:	af00      	add	r7, sp, #0
  /* USER CODE END I2C1_Init 0 */

  /* USER CODE BEGIN I2C1_Init 1 */

  /* USER CODE END I2C1_Init 1 */
  hi2c1.Instance = I2C1;
 8000638:	4b12      	ldr	r3, [pc, #72]	; (8000684 <MX_I2C1_Init+0x50>)
 800063a:	4a13      	ldr	r2, [pc, #76]	; (8000688 <MX_I2C1_Init+0x54>)
 800063c:	601a      	str	r2, [r3, #0]
  hi2c1.Init.ClockSpeed = 100000;
 800063e:	4b11      	ldr	r3, [pc, #68]	; (8000684 <MX_I2C1_Init+0x50>)
 8000640:	4a12      	ldr	r2, [pc, #72]	; (800068c <MX_I2C1_Init+0x58>)
 8000642:	605a      	str	r2, [r3, #4]
  hi2c1.Init.DutyCycle = I2C_DUTYCYCLE_2;
 8000644:	4b0f      	ldr	r3, [pc, #60]	; (8000684 <MX_I2C1_Init+0x50>)
 8000646:	2200      	movs	r2, #0
 8000648:	609a      	str	r2, [r3, #8]
  hi2c1.Init.OwnAddress1 = 0;
 800064a:	4b0e      	ldr	r3, [pc, #56]	; (8000684 <MX_I2C1_Init+0x50>)
 800064c:	2200      	movs	r2, #0
 800064e:	60da      	str	r2, [r3, #12]
  hi2c1.Init.AddressingMode = I2C_ADDRESSINGMODE_7BIT;
 8000650:	4b0c      	ldr	r3, [pc, #48]	; (8000684 <MX_I2C1_Init+0x50>)
 8000652:	f44f 4280 	mov.w	r2, #16384	; 0x4000
 8000656:	611a      	str	r2, [r3, #16]
  hi2c1.Init.DualAddressMode = I2C_DUALADDRESS_DISABLE;
 8000658:	4b0a      	ldr	r3, [pc, #40]	; (8000684 <MX_I2C1_Init+0x50>)
 800065a:	2200      	movs	r2, #0
 800065c:	615a      	str	r2, [r3, #20]
  hi2c1.Init.OwnAddress2 = 0;
 800065e:	4b09      	ldr	r3, [pc, #36]	; (8000684 <MX_I2C1_Init+0x50>)
 8000660:	2200      	movs	r2, #0
 8000662:	619a      	str	r2, [r3, #24]
  hi2c1.Init.GeneralCallMode = I2C_GENERALCALL_DISABLE;
 8000664:	4b07      	ldr	r3, [pc, #28]	; (8000684 <MX_I2C1_Init+0x50>)
 8000666:	2200      	movs	r2, #0
 8000668:	61da      	str	r2, [r3, #28]
  hi2c1.Init.NoStretchMode = I2C_NOSTRETCH_DISABLE;
 800066a:	4b06      	ldr	r3, [pc, #24]	; (8000684 <MX_I2C1_Init+0x50>)
 800066c:	2200      	movs	r2, #0
 800066e:	621a      	str	r2, [r3, #32]
  if (HAL_I2C_Init(&hi2c1) != HAL_OK)
 8000670:	4804      	ldr	r0, [pc, #16]	; (8000684 <MX_I2C1_Init+0x50>)
 8000672:	f001 ff3d 	bl	80024f0 <HAL_I2C_Init>
 8000676:	4603      	mov	r3, r0
 8000678:	2b00      	cmp	r3, #0
 800067a:	d001      	beq.n	8000680 <MX_I2C1_Init+0x4c>
  {
    Error_Handler();
 800067c:	f000 fb4a 	bl	8000d14 <Error_Handler>
  }
  /* USER CODE BEGIN I2C1_Init 2 */

  /* USER CODE END I2C1_Init 2 */

}
 8000680:	bf00      	nop
 8000682:	bd80      	pop	{r7, pc}
 8000684:	20000104 	.word	0x20000104
 8000688:	40005400 	.word	0x40005400
 800068c:	000186a0 	.word	0x000186a0

08000690 <MX_TIM1_Init>:
  * @brief TIM1 Initialization Function
  * @param None
  * @retval None
  */
static void MX_TIM1_Init(void)
{
 8000690:	b580      	push	{r7, lr}
 8000692:	b096      	sub	sp, #88	; 0x58
 8000694:	af00      	add	r7, sp, #0

  /* USER CODE BEGIN TIM1_Init 0 */

  /* USER CODE END TIM1_Init 0 */

  TIM_ClockConfigTypeDef sClockSourceConfig = {0};
 8000696:	f107 0348 	add.w	r3, r7, #72	; 0x48
 800069a:	2200      	movs	r2, #0
 800069c:	601a      	str	r2, [r3, #0]
 800069e:	605a      	str	r2, [r3, #4]
 80006a0:	609a      	str	r2, [r3, #8]
 80006a2:	60da      	str	r2, [r3, #12]
  TIM_MasterConfigTypeDef sMasterConfig = {0};
 80006a4:	f107 0340 	add.w	r3, r7, #64	; 0x40
 80006a8:	2200      	movs	r2, #0
 80006aa:	601a      	str	r2, [r3, #0]
 80006ac:	605a      	str	r2, [r3, #4]
  TIM_OC_InitTypeDef sConfigOC = {0};
 80006ae:	f107 0324 	add.w	r3, r7, #36	; 0x24
 80006b2:	2200      	movs	r2, #0
 80006b4:	601a      	str	r2, [r3, #0]
 80006b6:	605a      	str	r2, [r3, #4]
 80006b8:	609a      	str	r2, [r3, #8]
 80006ba:	60da      	str	r2, [r3, #12]
 80006bc:	611a      	str	r2, [r3, #16]
 80006be:	615a      	str	r2, [r3, #20]
 80006c0:	619a      	str	r2, [r3, #24]
  TIM_BreakDeadTimeConfigTypeDef sBreakDeadTimeConfig = {0};
 80006c2:	1d3b      	adds	r3, r7, #4
 80006c4:	2220      	movs	r2, #32
 80006c6:	2100      	movs	r1, #0
 80006c8:	4618      	mov	r0, r3
 80006ca:	f004 fc29 	bl	8004f20 <memset>

  /* USER CODE BEGIN TIM1_Init 1 */

  /* USER CODE END TIM1_Init 1 */
  htim1.Instance = TIM1;
 80006ce:	4b3f      	ldr	r3, [pc, #252]	; (80007cc <MX_TIM1_Init+0x13c>)
 80006d0:	4a3f      	ldr	r2, [pc, #252]	; (80007d0 <MX_TIM1_Init+0x140>)
 80006d2:	601a      	str	r2, [r3, #0]
  htim1.Init.Prescaler = 640-1;
 80006d4:	4b3d      	ldr	r3, [pc, #244]	; (80007cc <MX_TIM1_Init+0x13c>)
 80006d6:	f240 227f 	movw	r2, #639	; 0x27f
 80006da:	605a      	str	r2, [r3, #4]
  htim1.Init.CounterMode = TIM_COUNTERMODE_UP;
 80006dc:	4b3b      	ldr	r3, [pc, #236]	; (80007cc <MX_TIM1_Init+0x13c>)
 80006de:	2200      	movs	r2, #0
 80006e0:	609a      	str	r2, [r3, #8]
  htim1.Init.Period = 50000-1;
 80006e2:	4b3a      	ldr	r3, [pc, #232]	; (80007cc <MX_TIM1_Init+0x13c>)
 80006e4:	f24c 324f 	movw	r2, #49999	; 0xc34f
 80006e8:	60da      	str	r2, [r3, #12]
  htim1.Init.ClockDivision = TIM_CLOCKDIVISION_DIV1;
 80006ea:	4b38      	ldr	r3, [pc, #224]	; (80007cc <MX_TIM1_Init+0x13c>)
 80006ec:	2200      	movs	r2, #0
 80006ee:	611a      	str	r2, [r3, #16]
  htim1.Init.RepetitionCounter = 0;
 80006f0:	4b36      	ldr	r3, [pc, #216]	; (80007cc <MX_TIM1_Init+0x13c>)
 80006f2:	2200      	movs	r2, #0
 80006f4:	615a      	str	r2, [r3, #20]
  htim1.Init.AutoReloadPreload = TIM_AUTORELOAD_PRELOAD_DISABLE;
 80006f6:	4b35      	ldr	r3, [pc, #212]	; (80007cc <MX_TIM1_Init+0x13c>)
 80006f8:	2200      	movs	r2, #0
 80006fa:	619a      	str	r2, [r3, #24]
  if (HAL_TIM_Base_Init(&htim1) != HAL_OK)
 80006fc:	4833      	ldr	r0, [pc, #204]	; (80007cc <MX_TIM1_Init+0x13c>)
 80006fe:	f003 f811 	bl	8003724 <HAL_TIM_Base_Init>
 8000702:	4603      	mov	r3, r0
 8000704:	2b00      	cmp	r3, #0
 8000706:	d001      	beq.n	800070c <MX_TIM1_Init+0x7c>
  {
    Error_Handler();
 8000708:	f000 fb04 	bl	8000d14 <Error_Handler>
  }
  sClockSourceConfig.ClockSource = TIM_CLOCKSOURCE_INTERNAL;
 800070c:	f44f 5380 	mov.w	r3, #4096	; 0x1000
 8000710:	64bb      	str	r3, [r7, #72]	; 0x48
  if (HAL_TIM_ConfigClockSource(&htim1, &sClockSourceConfig) != HAL_OK)
 8000712:	f107 0348 	add.w	r3, r7, #72	; 0x48
 8000716:	4619      	mov	r1, r3
 8000718:	482c      	ldr	r0, [pc, #176]	; (80007cc <MX_TIM1_Init+0x13c>)
 800071a:	f003 fde5 	bl	80042e8 <HAL_TIM_ConfigClockSource>
 800071e:	4603      	mov	r3, r0
 8000720:	2b00      	cmp	r3, #0
 8000722:	d001      	beq.n	8000728 <MX_TIM1_Init+0x98>
  {
    Error_Handler();
 8000724:	f000 faf6 	bl	8000d14 <Error_Handler>
  }
  if (HAL_TIM_PWM_Init(&htim1) != HAL_OK)
 8000728:	4828      	ldr	r0, [pc, #160]	; (80007cc <MX_TIM1_Init+0x13c>)
 800072a:	f003 f9dd 	bl	8003ae8 <HAL_TIM_PWM_Init>
 800072e:	4603      	mov	r3, r0
 8000730:	2b00      	cmp	r3, #0
 8000732:	d001      	beq.n	8000738 <MX_TIM1_Init+0xa8>
  {
    Error_Handler();
 8000734:	f000 faee 	bl	8000d14 <Error_Handler>
  }
  sMasterConfig.MasterOutputTrigger = TIM_TRGO_RESET;
 8000738:	2300      	movs	r3, #0
 800073a:	643b      	str	r3, [r7, #64]	; 0x40
  sMasterConfig.MasterSlaveMode = TIM_MASTERSLAVEMODE_DISABLE;
 800073c:	2300      	movs	r3, #0
 800073e:	647b      	str	r3, [r7, #68]	; 0x44
  if (HAL_TIMEx_MasterConfigSynchronization(&htim1, &sMasterConfig) != HAL_OK)
 8000740:	f107 0340 	add.w	r3, r7, #64	; 0x40
 8000744:	4619      	mov	r1, r3
 8000746:	4821      	ldr	r0, [pc, #132]	; (80007cc <MX_TIM1_Init+0x13c>)
 8000748:	f004 f948 	bl	80049dc <HAL_TIMEx_MasterConfigSynchronization>
 800074c:	4603      	mov	r3, r0
 800074e:	2b00      	cmp	r3, #0
 8000750:	d001      	beq.n	8000756 <MX_TIM1_Init+0xc6>
  {
    Error_Handler();
 8000752:	f000 fadf 	bl	8000d14 <Error_Handler>
  }
  sConfigOC.OCMode = TIM_OCMODE_PWM1;
 8000756:	2360      	movs	r3, #96	; 0x60
 8000758:	627b      	str	r3, [r7, #36]	; 0x24
  sConfigOC.Pulse = 0;
 800075a:	2300      	movs	r3, #0
 800075c:	62bb      	str	r3, [r7, #40]	; 0x28
  sConfigOC.OCPolarity = TIM_OCPOLARITY_HIGH;
 800075e:	2300      	movs	r3, #0
 8000760:	62fb      	str	r3, [r7, #44]	; 0x2c
  sConfigOC.OCNPolarity = TIM_OCNPOLARITY_HIGH;
 8000762:	2300      	movs	r3, #0
 8000764:	633b      	str	r3, [r7, #48]	; 0x30
  sConfigOC.OCFastMode = TIM_OCFAST_DISABLE;
 8000766:	2300      	movs	r3, #0
 8000768:	637b      	str	r3, [r7, #52]	; 0x34
  sConfigOC.OCIdleState = TIM_OCIDLESTATE_RESET;
 800076a:	2300      	movs	r3, #0
 800076c:	63bb      	str	r3, [r7, #56]	; 0x38
  sConfigOC.OCNIdleState = TIM_OCNIDLESTATE_RESET;
 800076e:	2300      	movs	r3, #0
 8000770:	63fb      	str	r3, [r7, #60]	; 0x3c
  if (HAL_TIM_PWM_ConfigChannel(&htim1, &sConfigOC, TIM_CHANNEL_2) != HAL_OK)
 8000772:	f107 0324 	add.w	r3, r7, #36	; 0x24
 8000776:	2204      	movs	r2, #4
 8000778:	4619      	mov	r1, r3
 800077a:	4814      	ldr	r0, [pc, #80]	; (80007cc <MX_TIM1_Init+0x13c>)
 800077c:	f003 fcf6 	bl	800416c <HAL_TIM_PWM_ConfigChannel>
 8000780:	4603      	mov	r3, r0
 8000782:	2b00      	cmp	r3, #0
 8000784:	d001      	beq.n	800078a <MX_TIM1_Init+0xfa>
  {
    Error_Handler();
 8000786:	f000 fac5 	bl	8000d14 <Error_Handler>
  }
  sBreakDeadTimeConfig.OffStateRunMode = TIM_OSSR_DISABLE;
 800078a:	2300      	movs	r3, #0
 800078c:	607b      	str	r3, [r7, #4]
  sBreakDeadTimeConfig.OffStateIDLEMode = TIM_OSSI_DISABLE;
 800078e:	2300      	movs	r3, #0
 8000790:	60bb      	str	r3, [r7, #8]
  sBreakDeadTimeConfig.LockLevel = TIM_LOCKLEVEL_OFF;
 8000792:	2300      	movs	r3, #0
 8000794:	60fb      	str	r3, [r7, #12]
  sBreakDeadTimeConfig.DeadTime = 0;
 8000796:	2300      	movs	r3, #0
 8000798:	613b      	str	r3, [r7, #16]
  sBreakDeadTimeConfig.BreakState = TIM_BREAK_DISABLE;
 800079a:	2300      	movs	r3, #0
 800079c:	617b      	str	r3, [r7, #20]
  sBreakDeadTimeConfig.BreakPolarity = TIM_BREAKPOLARITY_HIGH;
 800079e:	f44f 5300 	mov.w	r3, #8192	; 0x2000
 80007a2:	61bb      	str	r3, [r7, #24]
  sBreakDeadTimeConfig.AutomaticOutput = TIM_AUTOMATICOUTPUT_DISABLE;
 80007a4:	2300      	movs	r3, #0
 80007a6:	623b      	str	r3, [r7, #32]
  if (HAL_TIMEx_ConfigBreakDeadTime(&htim1, &sBreakDeadTimeConfig) != HAL_OK)
 80007a8:	1d3b      	adds	r3, r7, #4
 80007aa:	4619      	mov	r1, r3
 80007ac:	4807      	ldr	r0, [pc, #28]	; (80007cc <MX_TIM1_Init+0x13c>)
 80007ae:	f004 f973 	bl	8004a98 <HAL_TIMEx_ConfigBreakDeadTime>
 80007b2:	4603      	mov	r3, r0
 80007b4:	2b00      	cmp	r3, #0
 80007b6:	d001      	beq.n	80007bc <MX_TIM1_Init+0x12c>
  {
    Error_Handler();
 80007b8:	f000 faac 	bl	8000d14 <Error_Handler>
  }
  /* USER CODE BEGIN TIM1_Init 2 */

  /* USER CODE END TIM1_Init 2 */
  HAL_TIM_MspPostInit(&htim1);
 80007bc:	4803      	ldr	r0, [pc, #12]	; (80007cc <MX_TIM1_Init+0x13c>)
 80007be:	f000 fbdb 	bl	8000f78 <HAL_TIM_MspPostInit>

}
 80007c2:	bf00      	nop
 80007c4:	3758      	adds	r7, #88	; 0x58
 80007c6:	46bd      	mov	sp, r7
 80007c8:	bd80      	pop	{r7, pc}
 80007ca:	bf00      	nop
 80007cc:	20000158 	.word	0x20000158
 80007d0:	40012c00 	.word	0x40012c00

080007d4 <MX_TIM2_Init>:
  * @brief TIM2 Initialization Function
  * @param None
  * @retval None
  */
static void MX_TIM2_Init(void)
{
 80007d4:	b580      	push	{r7, lr}
 80007d6:	b08e      	sub	sp, #56	; 0x38
 80007d8:	af00      	add	r7, sp, #0

  /* USER CODE BEGIN TIM2_Init 0 */

  /* USER CODE END TIM2_Init 0 */

  TIM_ClockConfigTypeDef sClockSourceConfig = {0};
 80007da:	f107 0328 	add.w	r3, r7, #40	; 0x28
 80007de:	2200      	movs	r2, #0
 80007e0:	601a      	str	r2, [r3, #0]
 80007e2:	605a      	str	r2, [r3, #4]
 80007e4:	609a      	str	r2, [r3, #8]
 80007e6:	60da      	str	r2, [r3, #12]
  TIM_MasterConfigTypeDef sMasterConfig = {0};
 80007e8:	f107 0320 	add.w	r3, r7, #32
 80007ec:	2200      	movs	r2, #0
 80007ee:	601a      	str	r2, [r3, #0]
 80007f0:	605a      	str	r2, [r3, #4]
  TIM_OC_InitTypeDef sConfigOC = {0};
 80007f2:	1d3b      	adds	r3, r7, #4
 80007f4:	2200      	movs	r2, #0
 80007f6:	601a      	str	r2, [r3, #0]
 80007f8:	605a      	str	r2, [r3, #4]
 80007fa:	609a      	str	r2, [r3, #8]
 80007fc:	60da      	str	r2, [r3, #12]
 80007fe:	611a      	str	r2, [r3, #16]
 8000800:	615a      	str	r2, [r3, #20]
 8000802:	619a      	str	r2, [r3, #24]

  /* USER CODE BEGIN TIM2_Init 1 */

  /* USER CODE END TIM2_Init 1 */
  htim2.Instance = TIM2;
 8000804:	4b2c      	ldr	r3, [pc, #176]	; (80008b8 <MX_TIM2_Init+0xe4>)
 8000806:	f04f 4280 	mov.w	r2, #1073741824	; 0x40000000
 800080a:	601a      	str	r2, [r3, #0]
  htim2.Init.Prescaler = 6400-1;
 800080c:	4b2a      	ldr	r3, [pc, #168]	; (80008b8 <MX_TIM2_Init+0xe4>)
 800080e:	f641 02ff 	movw	r2, #6399	; 0x18ff
 8000812:	605a      	str	r2, [r3, #4]
  htim2.Init.CounterMode = TIM_COUNTERMODE_UP;
 8000814:	4b28      	ldr	r3, [pc, #160]	; (80008b8 <MX_TIM2_Init+0xe4>)
 8000816:	2200      	movs	r2, #0
 8000818:	609a      	str	r2, [r3, #8]
  htim2.Init.Period = 10000-1;
 800081a:	4b27      	ldr	r3, [pc, #156]	; (80008b8 <MX_TIM2_Init+0xe4>)
 800081c:	f242 720f 	movw	r2, #9999	; 0x270f
 8000820:	60da      	str	r2, [r3, #12]
  htim2.Init.ClockDivision = TIM_CLOCKDIVISION_DIV1;
 8000822:	4b25      	ldr	r3, [pc, #148]	; (80008b8 <MX_TIM2_Init+0xe4>)
 8000824:	2200      	movs	r2, #0
 8000826:	611a      	str	r2, [r3, #16]
  htim2.Init.AutoReloadPreload = TIM_AUTORELOAD_PRELOAD_DISABLE;
 8000828:	4b23      	ldr	r3, [pc, #140]	; (80008b8 <MX_TIM2_Init+0xe4>)
 800082a:	2200      	movs	r2, #0
 800082c:	619a      	str	r2, [r3, #24]
  if (HAL_TIM_Base_Init(&htim2) != HAL_OK)
 800082e:	4822      	ldr	r0, [pc, #136]	; (80008b8 <MX_TIM2_Init+0xe4>)
 8000830:	f002 ff78 	bl	8003724 <HAL_TIM_Base_Init>
 8000834:	4603      	mov	r3, r0
 8000836:	2b00      	cmp	r3, #0
 8000838:	d001      	beq.n	800083e <MX_TIM2_Init+0x6a>
  {
    Error_Handler();
 800083a:	f000 fa6b 	bl	8000d14 <Error_Handler>
  }
  sClockSourceConfig.ClockSource = TIM_CLOCKSOURCE_INTERNAL;
 800083e:	f44f 5380 	mov.w	r3, #4096	; 0x1000
 8000842:	62bb      	str	r3, [r7, #40]	; 0x28
  if (HAL_TIM_ConfigClockSource(&htim2, &sClockSourceConfig) != HAL_OK)
 8000844:	f107 0328 	add.w	r3, r7, #40	; 0x28
 8000848:	4619      	mov	r1, r3
 800084a:	481b      	ldr	r0, [pc, #108]	; (80008b8 <MX_TIM2_Init+0xe4>)
 800084c:	f003 fd4c 	bl	80042e8 <HAL_TIM_ConfigClockSource>
 8000850:	4603      	mov	r3, r0
 8000852:	2b00      	cmp	r3, #0
 8000854:	d001      	beq.n	800085a <MX_TIM2_Init+0x86>
  {
    Error_Handler();
 8000856:	f000 fa5d 	bl	8000d14 <Error_Handler>
  }
  if (HAL_TIM_OC_Init(&htim2) != HAL_OK)
 800085a:	4817      	ldr	r0, [pc, #92]	; (80008b8 <MX_TIM2_Init+0xe4>)
 800085c:	f003 f804 	bl	8003868 <HAL_TIM_OC_Init>
 8000860:	4603      	mov	r3, r0
 8000862:	2b00      	cmp	r3, #0
 8000864:	d001      	beq.n	800086a <MX_TIM2_Init+0x96>
  {
    Error_Handler();
 8000866:	f000 fa55 	bl	8000d14 <Error_Handler>
  }
  sMasterConfig.MasterOutputTrigger = TIM_TRGO_RESET;
 800086a:	2300      	movs	r3, #0
 800086c:	623b      	str	r3, [r7, #32]
  sMasterConfig.MasterSlaveMode = TIM_MASTERSLAVEMODE_DISABLE;
 800086e:	2300      	movs	r3, #0
 8000870:	627b      	str	r3, [r7, #36]	; 0x24
  if (HAL_TIMEx_MasterConfigSynchronization(&htim2, &sMasterConfig) != HAL_OK)
 8000872:	f107 0320 	add.w	r3, r7, #32
 8000876:	4619      	mov	r1, r3
 8000878:	480f      	ldr	r0, [pc, #60]	; (80008b8 <MX_TIM2_Init+0xe4>)
 800087a:	f004 f8af 	bl	80049dc <HAL_TIMEx_MasterConfigSynchronization>
 800087e:	4603      	mov	r3, r0
 8000880:	2b00      	cmp	r3, #0
 8000882:	d001      	beq.n	8000888 <MX_TIM2_Init+0xb4>
  {
    Error_Handler();
 8000884:	f000 fa46 	bl	8000d14 <Error_Handler>
  }
  sConfigOC.OCMode = TIM_OCMODE_TIMING;
 8000888:	2300      	movs	r3, #0
 800088a:	607b      	str	r3, [r7, #4]
  sConfigOC.Pulse = 10000-1;
 800088c:	f242 730f 	movw	r3, #9999	; 0x270f
 8000890:	60bb      	str	r3, [r7, #8]
  sConfigOC.OCPolarity = TIM_OCPOLARITY_HIGH;
 8000892:	2300      	movs	r3, #0
 8000894:	60fb      	str	r3, [r7, #12]
  sConfigOC.OCFastMode = TIM_OCFAST_DISABLE;
 8000896:	2300      	movs	r3, #0
 8000898:	617b      	str	r3, [r7, #20]
  if (HAL_TIM_OC_ConfigChannel(&htim2, &sConfigOC, TIM_CHANNEL_1) != HAL_OK)
 800089a:	1d3b      	adds	r3, r7, #4
 800089c:	2200      	movs	r2, #0
 800089e:	4619      	mov	r1, r3
 80008a0:	4805      	ldr	r0, [pc, #20]	; (80008b8 <MX_TIM2_Init+0xe4>)
 80008a2:	f003 fc0b 	bl	80040bc <HAL_TIM_OC_ConfigChannel>
 80008a6:	4603      	mov	r3, r0
 80008a8:	2b00      	cmp	r3, #0
 80008aa:	d001      	beq.n	80008b0 <MX_TIM2_Init+0xdc>
  {
    Error_Handler();
 80008ac:	f000 fa32 	bl	8000d14 <Error_Handler>
  }
  /* USER CODE BEGIN TIM2_Init 2 */

  /* USER CODE END TIM2_Init 2 */

}
 80008b0:	bf00      	nop
 80008b2:	3738      	adds	r7, #56	; 0x38
 80008b4:	46bd      	mov	sp, r7
 80008b6:	bd80      	pop	{r7, pc}
 80008b8:	200001a0 	.word	0x200001a0

080008bc <MX_TIM3_Init>:
  * @brief TIM3 Initialization Function
  * @param None
  * @retval None
  */
static void MX_TIM3_Init(void)
{
 80008bc:	b580      	push	{r7, lr}
 80008be:	b08e      	sub	sp, #56	; 0x38
 80008c0:	af00      	add	r7, sp, #0

  /* USER CODE BEGIN TIM3_Init 0 */

  /* USER CODE END TIM3_Init 0 */

  TIM_ClockConfigTypeDef sClockSourceConfig = {0};
 80008c2:	f107 0328 	add.w	r3, r7, #40	; 0x28
 80008c6:	2200      	movs	r2, #0
 80008c8:	601a      	str	r2, [r3, #0]
 80008ca:	605a      	str	r2, [r3, #4]
 80008cc:	609a      	str	r2, [r3, #8]
 80008ce:	60da      	str	r2, [r3, #12]
  TIM_MasterConfigTypeDef sMasterConfig = {0};
 80008d0:	f107 0320 	add.w	r3, r7, #32
 80008d4:	2200      	movs	r2, #0
 80008d6:	601a      	str	r2, [r3, #0]
 80008d8:	605a      	str	r2, [r3, #4]
  TIM_OC_InitTypeDef sConfigOC = {0};
 80008da:	1d3b      	adds	r3, r7, #4
 80008dc:	2200      	movs	r2, #0
 80008de:	601a      	str	r2, [r3, #0]
 80008e0:	605a      	str	r2, [r3, #4]
 80008e2:	609a      	str	r2, [r3, #8]
 80008e4:	60da      	str	r2, [r3, #12]
 80008e6:	611a      	str	r2, [r3, #16]
 80008e8:	615a      	str	r2, [r3, #20]
 80008ea:	619a      	str	r2, [r3, #24]

  /* USER CODE BEGIN TIM3_Init 1 */

  /* USER CODE END TIM3_Init 1 */
  htim3.Instance = TIM3;
 80008ec:	4b32      	ldr	r3, [pc, #200]	; (80009b8 <MX_TIM3_Init+0xfc>)
 80008ee:	4a33      	ldr	r2, [pc, #204]	; (80009bc <MX_TIM3_Init+0x100>)
 80008f0:	601a      	str	r2, [r3, #0]
  htim3.Init.Prescaler = 64-1;
 80008f2:	4b31      	ldr	r3, [pc, #196]	; (80009b8 <MX_TIM3_Init+0xfc>)
 80008f4:	223f      	movs	r2, #63	; 0x3f
 80008f6:	605a      	str	r2, [r3, #4]
  htim3.Init.CounterMode = TIM_COUNTERMODE_UP;
 80008f8:	4b2f      	ldr	r3, [pc, #188]	; (80009b8 <MX_TIM3_Init+0xfc>)
 80008fa:	2200      	movs	r2, #0
 80008fc:	609a      	str	r2, [r3, #8]
  htim3.Init.Period = 20000-1;
 80008fe:	4b2e      	ldr	r3, [pc, #184]	; (80009b8 <MX_TIM3_Init+0xfc>)
 8000900:	f644 621f 	movw	r2, #19999	; 0x4e1f
 8000904:	60da      	str	r2, [r3, #12]
  htim3.Init.ClockDivision = TIM_CLOCKDIVISION_DIV1;
 8000906:	4b2c      	ldr	r3, [pc, #176]	; (80009b8 <MX_TIM3_Init+0xfc>)
 8000908:	2200      	movs	r2, #0
 800090a:	611a      	str	r2, [r3, #16]
  htim3.Init.AutoReloadPreload = TIM_AUTORELOAD_PRELOAD_DISABLE;
 800090c:	4b2a      	ldr	r3, [pc, #168]	; (80009b8 <MX_TIM3_Init+0xfc>)
 800090e:	2200      	movs	r2, #0
 8000910:	619a      	str	r2, [r3, #24]
  if (HAL_TIM_Base_Init(&htim3) != HAL_OK)
 8000912:	4829      	ldr	r0, [pc, #164]	; (80009b8 <MX_TIM3_Init+0xfc>)
 8000914:	f002 ff06 	bl	8003724 <HAL_TIM_Base_Init>
 8000918:	4603      	mov	r3, r0
 800091a:	2b00      	cmp	r3, #0
 800091c:	d001      	beq.n	8000922 <MX_TIM3_Init+0x66>
  {
    Error_Handler();
 800091e:	f000 f9f9 	bl	8000d14 <Error_Handler>
  }
  sClockSourceConfig.ClockSource = TIM_CLOCKSOURCE_INTERNAL;
 8000922:	f44f 5380 	mov.w	r3, #4096	; 0x1000
 8000926:	62bb      	str	r3, [r7, #40]	; 0x28
  if (HAL_TIM_ConfigClockSource(&htim3, &sClockSourceConfig) != HAL_OK)
 8000928:	f107 0328 	add.w	r3, r7, #40	; 0x28
 800092c:	4619      	mov	r1, r3
 800092e:	4822      	ldr	r0, [pc, #136]	; (80009b8 <MX_TIM3_Init+0xfc>)
 8000930:	f003 fcda 	bl	80042e8 <HAL_TIM_ConfigClockSource>
 8000934:	4603      	mov	r3, r0
 8000936:	2b00      	cmp	r3, #0
 8000938:	d001      	beq.n	800093e <MX_TIM3_Init+0x82>
  {
    Error_Handler();
 800093a:	f000 f9eb 	bl	8000d14 <Error_Handler>
  }
  if (HAL_TIM_PWM_Init(&htim3) != HAL_OK)
 800093e:	481e      	ldr	r0, [pc, #120]	; (80009b8 <MX_TIM3_Init+0xfc>)
 8000940:	f003 f8d2 	bl	8003ae8 <HAL_TIM_PWM_Init>
 8000944:	4603      	mov	r3, r0
 8000946:	2b00      	cmp	r3, #0
 8000948:	d001      	beq.n	800094e <MX_TIM3_Init+0x92>
  {
    Error_Handler();
 800094a:	f000 f9e3 	bl	8000d14 <Error_Handler>
  }
  sMasterConfig.MasterOutputTrigger = TIM_TRGO_RESET;
 800094e:	2300      	movs	r3, #0
 8000950:	623b      	str	r3, [r7, #32]
  sMasterConfig.MasterSlaveMode = TIM_MASTERSLAVEMODE_DISABLE;
 8000952:	2300      	movs	r3, #0
 8000954:	627b      	str	r3, [r7, #36]	; 0x24
  if (HAL_TIMEx_MasterConfigSynchronization(&htim3, &sMasterConfig) != HAL_OK)
 8000956:	f107 0320 	add.w	r3, r7, #32
 800095a:	4619      	mov	r1, r3
 800095c:	4816      	ldr	r0, [pc, #88]	; (80009b8 <MX_TIM3_Init+0xfc>)
 800095e:	f004 f83d 	bl	80049dc <HAL_TIMEx_MasterConfigSynchronization>
 8000962:	4603      	mov	r3, r0
 8000964:	2b00      	cmp	r3, #0
 8000966:	d001      	beq.n	800096c <MX_TIM3_Init+0xb0>
  {
    Error_Handler();
 8000968:	f000 f9d4 	bl	8000d14 <Error_Handler>
  }
  sConfigOC.OCMode = TIM_OCMODE_PWM1;
 800096c:	2360      	movs	r3, #96	; 0x60
 800096e:	607b      	str	r3, [r7, #4]
  sConfigOC.Pulse = 2000-1;
 8000970:	f240 73cf 	movw	r3, #1999	; 0x7cf
 8000974:	60bb      	str	r3, [r7, #8]
  sConfigOC.OCPolarity = TIM_OCPOLARITY_HIGH;
 8000976:	2300      	movs	r3, #0
 8000978:	60fb      	str	r3, [r7, #12]
  sConfigOC.OCFastMode = TIM_OCFAST_DISABLE;
 800097a:	2300      	movs	r3, #0
 800097c:	617b      	str	r3, [r7, #20]
  if (HAL_TIM_PWM_ConfigChannel(&htim3, &sConfigOC, TIM_CHANNEL_1) != HAL_OK)
 800097e:	1d3b      	adds	r3, r7, #4
 8000980:	2200      	movs	r2, #0
 8000982:	4619      	mov	r1, r3
 8000984:	480c      	ldr	r0, [pc, #48]	; (80009b8 <MX_TIM3_Init+0xfc>)
 8000986:	f003 fbf1 	bl	800416c <HAL_TIM_PWM_ConfigChannel>
 800098a:	4603      	mov	r3, r0
 800098c:	2b00      	cmp	r3, #0
 800098e:	d001      	beq.n	8000994 <MX_TIM3_Init+0xd8>
  {
    Error_Handler();
 8000990:	f000 f9c0 	bl	8000d14 <Error_Handler>
  }
  if (HAL_TIM_PWM_ConfigChannel(&htim3, &sConfigOC, TIM_CHANNEL_2) != HAL_OK)
 8000994:	1d3b      	adds	r3, r7, #4
 8000996:	2204      	movs	r2, #4
 8000998:	4619      	mov	r1, r3
 800099a:	4807      	ldr	r0, [pc, #28]	; (80009b8 <MX_TIM3_Init+0xfc>)
 800099c:	f003 fbe6 	bl	800416c <HAL_TIM_PWM_ConfigChannel>
 80009a0:	4603      	mov	r3, r0
 80009a2:	2b00      	cmp	r3, #0
 80009a4:	d001      	beq.n	80009aa <MX_TIM3_Init+0xee>
  {
    Error_Handler();
 80009a6:	f000 f9b5 	bl	8000d14 <Error_Handler>
  }
  /* USER CODE BEGIN TIM3_Init 2 */

  /* USER CODE END TIM3_Init 2 */
  HAL_TIM_MspPostInit(&htim3);
 80009aa:	4803      	ldr	r0, [pc, #12]	; (80009b8 <MX_TIM3_Init+0xfc>)
 80009ac:	f000 fae4 	bl	8000f78 <HAL_TIM_MspPostInit>

}
 80009b0:	bf00      	nop
 80009b2:	3738      	adds	r7, #56	; 0x38
 80009b4:	46bd      	mov	sp, r7
 80009b6:	bd80      	pop	{r7, pc}
 80009b8:	200001e8 	.word	0x200001e8
 80009bc:	40000400 	.word	0x40000400

080009c0 <MX_USART2_UART_Init>:
  * @brief USART2 Initialization Function
  * @param None
  * @retval None
  */
static void MX_USART2_UART_Init(void)
{
 80009c0:	b580      	push	{r7, lr}
 80009c2:	af00      	add	r7, sp, #0
  /* USER CODE END USART2_Init 0 */

  /* USER CODE BEGIN USART2_Init 1 */

  /* USER CODE END USART2_Init 1 */
  huart2.Instance = USART2;
 80009c4:	4b11      	ldr	r3, [pc, #68]	; (8000a0c <MX_USART2_UART_Init+0x4c>)
 80009c6:	4a12      	ldr	r2, [pc, #72]	; (8000a10 <MX_USART2_UART_Init+0x50>)
 80009c8:	601a      	str	r2, [r3, #0]
  huart2.Init.BaudRate = 115200;
 80009ca:	4b10      	ldr	r3, [pc, #64]	; (8000a0c <MX_USART2_UART_Init+0x4c>)
 80009cc:	f44f 32e1 	mov.w	r2, #115200	; 0x1c200
 80009d0:	605a      	str	r2, [r3, #4]
  huart2.Init.WordLength = UART_WORDLENGTH_8B;
 80009d2:	4b0e      	ldr	r3, [pc, #56]	; (8000a0c <MX_USART2_UART_Init+0x4c>)
 80009d4:	2200      	movs	r2, #0
 80009d6:	609a      	str	r2, [r3, #8]
  huart2.Init.StopBits = UART_STOPBITS_1;
 80009d8:	4b0c      	ldr	r3, [pc, #48]	; (8000a0c <MX_USART2_UART_Init+0x4c>)
 80009da:	2200      	movs	r2, #0
 80009dc:	60da      	str	r2, [r3, #12]
  huart2.Init.Parity = UART_PARITY_NONE;
 80009de:	4b0b      	ldr	r3, [pc, #44]	; (8000a0c <MX_USART2_UART_Init+0x4c>)
 80009e0:	2200      	movs	r2, #0
 80009e2:	611a      	str	r2, [r3, #16]
  huart2.Init.Mode = UART_MODE_TX_RX;
 80009e4:	4b09      	ldr	r3, [pc, #36]	; (8000a0c <MX_USART2_UART_Init+0x4c>)
 80009e6:	220c      	movs	r2, #12
 80009e8:	615a      	str	r2, [r3, #20]
  huart2.Init.HwFlowCtl = UART_HWCONTROL_NONE;
 80009ea:	4b08      	ldr	r3, [pc, #32]	; (8000a0c <MX_USART2_UART_Init+0x4c>)
 80009ec:	2200      	movs	r2, #0
 80009ee:	619a      	str	r2, [r3, #24]
  huart2.Init.OverSampling = UART_OVERSAMPLING_16;
 80009f0:	4b06      	ldr	r3, [pc, #24]	; (8000a0c <MX_USART2_UART_Init+0x4c>)
 80009f2:	2200      	movs	r2, #0
 80009f4:	61da      	str	r2, [r3, #28]
  if (HAL_UART_Init(&huart2) != HAL_OK)
 80009f6:	4805      	ldr	r0, [pc, #20]	; (8000a0c <MX_USART2_UART_Init+0x4c>)
 80009f8:	f004 f8b1 	bl	8004b5e <HAL_UART_Init>
 80009fc:	4603      	mov	r3, r0
 80009fe:	2b00      	cmp	r3, #0
 8000a00:	d001      	beq.n	8000a06 <MX_USART2_UART_Init+0x46>
  {
    Error_Handler();
 8000a02:	f000 f987 	bl	8000d14 <Error_Handler>
  }
  /* USER CODE BEGIN USART2_Init 2 */

  /* USER CODE END USART2_Init 2 */

}
 8000a06:	bf00      	nop
 8000a08:	bd80      	pop	{r7, pc}
 8000a0a:	bf00      	nop
 8000a0c:	20000230 	.word	0x20000230
 8000a10:	40004400 	.word	0x40004400

08000a14 <MX_DMA_Init>:

/**
  * Enable DMA controller clock
  */
static void MX_DMA_Init(void)
{
 8000a14:	b580      	push	{r7, lr}
 8000a16:	b082      	sub	sp, #8
 8000a18:	af00      	add	r7, sp, #0

  /* DMA controller clock enable */
  __HAL_RCC_DMA1_CLK_ENABLE();
 8000a1a:	4b0c      	ldr	r3, [pc, #48]	; (8000a4c <MX_DMA_Init+0x38>)
 8000a1c:	695b      	ldr	r3, [r3, #20]
 8000a1e:	4a0b      	ldr	r2, [pc, #44]	; (8000a4c <MX_DMA_Init+0x38>)
 8000a20:	f043 0301 	orr.w	r3, r3, #1
 8000a24:	6153      	str	r3, [r2, #20]
 8000a26:	4b09      	ldr	r3, [pc, #36]	; (8000a4c <MX_DMA_Init+0x38>)
 8000a28:	695b      	ldr	r3, [r3, #20]
 8000a2a:	f003 0301 	and.w	r3, r3, #1
 8000a2e:	607b      	str	r3, [r7, #4]
 8000a30:	687b      	ldr	r3, [r7, #4]

  /* DMA interrupt init */
  /* DMA1_Channel1_IRQn interrupt configuration */
  HAL_NVIC_SetPriority(DMA1_Channel1_IRQn, 0, 0);
 8000a32:	2200      	movs	r2, #0
 8000a34:	2100      	movs	r1, #0
 8000a36:	200b      	movs	r0, #11
 8000a38:	f001 f981 	bl	8001d3e <HAL_NVIC_SetPriority>
  HAL_NVIC_EnableIRQ(DMA1_Channel1_IRQn);
 8000a3c:	200b      	movs	r0, #11
 8000a3e:	f001 f99a 	bl	8001d76 <HAL_NVIC_EnableIRQ>

}
 8000a42:	bf00      	nop
 8000a44:	3708      	adds	r7, #8
 8000a46:	46bd      	mov	sp, r7
 8000a48:	bd80      	pop	{r7, pc}
 8000a4a:	bf00      	nop
 8000a4c:	40021000 	.word	0x40021000

08000a50 <MX_GPIO_Init>:
  * @brief GPIO Initialization Function
  * @param None
  * @retval None
  */
static void MX_GPIO_Init(void)
{
 8000a50:	b580      	push	{r7, lr}
 8000a52:	b088      	sub	sp, #32
 8000a54:	af00      	add	r7, sp, #0
  GPIO_InitTypeDef GPIO_InitStruct = {0};
 8000a56:	f107 0310 	add.w	r3, r7, #16
 8000a5a:	2200      	movs	r2, #0
 8000a5c:	601a      	str	r2, [r3, #0]
 8000a5e:	605a      	str	r2, [r3, #4]
 8000a60:	609a      	str	r2, [r3, #8]
 8000a62:	60da      	str	r2, [r3, #12]

  /* GPIO Ports Clock Enable */
  __HAL_RCC_GPIOC_CLK_ENABLE();
 8000a64:	4b42      	ldr	r3, [pc, #264]	; (8000b70 <MX_GPIO_Init+0x120>)
 8000a66:	699b      	ldr	r3, [r3, #24]
 8000a68:	4a41      	ldr	r2, [pc, #260]	; (8000b70 <MX_GPIO_Init+0x120>)
 8000a6a:	f043 0310 	orr.w	r3, r3, #16
 8000a6e:	6193      	str	r3, [r2, #24]
 8000a70:	4b3f      	ldr	r3, [pc, #252]	; (8000b70 <MX_GPIO_Init+0x120>)
 8000a72:	699b      	ldr	r3, [r3, #24]
 8000a74:	f003 0310 	and.w	r3, r3, #16
 8000a78:	60fb      	str	r3, [r7, #12]
 8000a7a:	68fb      	ldr	r3, [r7, #12]
  __HAL_RCC_GPIOD_CLK_ENABLE();
 8000a7c:	4b3c      	ldr	r3, [pc, #240]	; (8000b70 <MX_GPIO_Init+0x120>)
 8000a7e:	699b      	ldr	r3, [r3, #24]
 8000a80:	4a3b      	ldr	r2, [pc, #236]	; (8000b70 <MX_GPIO_Init+0x120>)
 8000a82:	f043 0320 	orr.w	r3, r3, #32
 8000a86:	6193      	str	r3, [r2, #24]
 8000a88:	4b39      	ldr	r3, [pc, #228]	; (8000b70 <MX_GPIO_Init+0x120>)
 8000a8a:	699b      	ldr	r3, [r3, #24]
 8000a8c:	f003 0320 	and.w	r3, r3, #32
 8000a90:	60bb      	str	r3, [r7, #8]
 8000a92:	68bb      	ldr	r3, [r7, #8]
  __HAL_RCC_GPIOA_CLK_ENABLE();
 8000a94:	4b36      	ldr	r3, [pc, #216]	; (8000b70 <MX_GPIO_Init+0x120>)
 8000a96:	699b      	ldr	r3, [r3, #24]
 8000a98:	4a35      	ldr	r2, [pc, #212]	; (8000b70 <MX_GPIO_Init+0x120>)
 8000a9a:	f043 0304 	orr.w	r3, r3, #4
 8000a9e:	6193      	str	r3, [r2, #24]
 8000aa0:	4b33      	ldr	r3, [pc, #204]	; (8000b70 <MX_GPIO_Init+0x120>)
 8000aa2:	699b      	ldr	r3, [r3, #24]
 8000aa4:	f003 0304 	and.w	r3, r3, #4
 8000aa8:	607b      	str	r3, [r7, #4]
 8000aaa:	687b      	ldr	r3, [r7, #4]
  __HAL_RCC_GPIOB_CLK_ENABLE();
 8000aac:	4b30      	ldr	r3, [pc, #192]	; (8000b70 <MX_GPIO_Init+0x120>)
 8000aae:	699b      	ldr	r3, [r3, #24]
 8000ab0:	4a2f      	ldr	r2, [pc, #188]	; (8000b70 <MX_GPIO_Init+0x120>)
 8000ab2:	f043 0308 	orr.w	r3, r3, #8
 8000ab6:	6193      	str	r3, [r2, #24]
 8000ab8:	4b2d      	ldr	r3, [pc, #180]	; (8000b70 <MX_GPIO_Init+0x120>)
 8000aba:	699b      	ldr	r3, [r3, #24]
 8000abc:	f003 0308 	and.w	r3, r3, #8
 8000ac0:	603b      	str	r3, [r7, #0]
 8000ac2:	683b      	ldr	r3, [r7, #0]

  /*Configure GPIO pin Output Level */
  HAL_GPIO_WritePin(LD2_GPIO_Port, LD2_Pin, GPIO_PIN_RESET);
 8000ac4:	2200      	movs	r2, #0
 8000ac6:	2120      	movs	r1, #32
 8000ac8:	482a      	ldr	r0, [pc, #168]	; (8000b74 <MX_GPIO_Init+0x124>)
 8000aca:	f001 fce1 	bl	8002490 <HAL_GPIO_WritePin>

  /*Configure GPIO pin : B1_Pin */
  GPIO_InitStruct.Pin = B1_Pin;
 8000ace:	f44f 5300 	mov.w	r3, #8192	; 0x2000
 8000ad2:	613b      	str	r3, [r7, #16]
  GPIO_InitStruct.Mode = GPIO_MODE_IT_RISING;
 8000ad4:	4b28      	ldr	r3, [pc, #160]	; (8000b78 <MX_GPIO_Init+0x128>)
 8000ad6:	617b      	str	r3, [r7, #20]
  GPIO_InitStruct.Pull = GPIO_NOPULL;
 8000ad8:	2300      	movs	r3, #0
 8000ada:	61bb      	str	r3, [r7, #24]
  HAL_GPIO_Init(B1_GPIO_Port, &GPIO_InitStruct);
 8000adc:	f107 0310 	add.w	r3, r7, #16
 8000ae0:	4619      	mov	r1, r3
 8000ae2:	4826      	ldr	r0, [pc, #152]	; (8000b7c <MX_GPIO_Init+0x12c>)
 8000ae4:	f001 fb50 	bl	8002188 <HAL_GPIO_Init>

  /*Configure GPIO pin : LD2_Pin */
  GPIO_InitStruct.Pin = LD2_Pin;
 8000ae8:	2320      	movs	r3, #32
 8000aea:	613b      	str	r3, [r7, #16]
  GPIO_InitStruct.Mode = GPIO_MODE_OUTPUT_PP;
 8000aec:	2301      	movs	r3, #1
 8000aee:	617b      	str	r3, [r7, #20]
  GPIO_InitStruct.Pull = GPIO_NOPULL;
 8000af0:	2300      	movs	r3, #0
 8000af2:	61bb      	str	r3, [r7, #24]
  GPIO_InitStruct.Speed = GPIO_SPEED_FREQ_LOW;
 8000af4:	2302      	movs	r3, #2
 8000af6:	61fb      	str	r3, [r7, #28]
  HAL_GPIO_Init(LD2_GPIO_Port, &GPIO_InitStruct);
 8000af8:	f107 0310 	add.w	r3, r7, #16
 8000afc:	4619      	mov	r1, r3
 8000afe:	481d      	ldr	r0, [pc, #116]	; (8000b74 <MX_GPIO_Init+0x124>)
 8000b00:	f001 fb42 	bl	8002188 <HAL_GPIO_Init>

  /*Configure GPIO pin : sw1_Pin */
  GPIO_InitStruct.Pin = sw1_Pin;
 8000b04:	f44f 7380 	mov.w	r3, #256	; 0x100
 8000b08:	613b      	str	r3, [r7, #16]
  GPIO_InitStruct.Mode = GPIO_MODE_IT_RISING;
 8000b0a:	4b1b      	ldr	r3, [pc, #108]	; (8000b78 <MX_GPIO_Init+0x128>)
 8000b0c:	617b      	str	r3, [r7, #20]
  GPIO_InitStruct.Pull = GPIO_NOPULL;
 8000b0e:	2300      	movs	r3, #0
 8000b10:	61bb      	str	r3, [r7, #24]
  HAL_GPIO_Init(sw1_GPIO_Port, &GPIO_InitStruct);
 8000b12:	f107 0310 	add.w	r3, r7, #16
 8000b16:	4619      	mov	r1, r3
 8000b18:	4816      	ldr	r0, [pc, #88]	; (8000b74 <MX_GPIO_Init+0x124>)
 8000b1a:	f001 fb35 	bl	8002188 <HAL_GPIO_Init>

  /*Configure GPIO pin : reset_Pin */
  GPIO_InitStruct.Pin = reset_Pin;
 8000b1e:	2310      	movs	r3, #16
 8000b20:	613b      	str	r3, [r7, #16]
  GPIO_InitStruct.Mode = GPIO_MODE_IT_RISING;
 8000b22:	4b15      	ldr	r3, [pc, #84]	; (8000b78 <MX_GPIO_Init+0x128>)
 8000b24:	617b      	str	r3, [r7, #20]
  GPIO_InitStruct.Pull = GPIO_NOPULL;
 8000b26:	2300      	movs	r3, #0
 8000b28:	61bb      	str	r3, [r7, #24]
  HAL_GPIO_Init(reset_GPIO_Port, &GPIO_InitStruct);
 8000b2a:	f107 0310 	add.w	r3, r7, #16
 8000b2e:	4619      	mov	r1, r3
 8000b30:	4813      	ldr	r0, [pc, #76]	; (8000b80 <MX_GPIO_Init+0x130>)
 8000b32:	f001 fb29 	bl	8002188 <HAL_GPIO_Init>

  /* EXTI interrupt init*/
  HAL_NVIC_SetPriority(EXTI4_IRQn, 0, 0);
 8000b36:	2200      	movs	r2, #0
 8000b38:	2100      	movs	r1, #0
 8000b3a:	200a      	movs	r0, #10
 8000b3c:	f001 f8ff 	bl	8001d3e <HAL_NVIC_SetPriority>
  HAL_NVIC_EnableIRQ(EXTI4_IRQn);
 8000b40:	200a      	movs	r0, #10
 8000b42:	f001 f918 	bl	8001d76 <HAL_NVIC_EnableIRQ>

  HAL_NVIC_SetPriority(EXTI9_5_IRQn, 0, 0);
 8000b46:	2200      	movs	r2, #0
 8000b48:	2100      	movs	r1, #0
 8000b4a:	2017      	movs	r0, #23
 8000b4c:	f001 f8f7 	bl	8001d3e <HAL_NVIC_SetPriority>
  HAL_NVIC_EnableIRQ(EXTI9_5_IRQn);
 8000b50:	2017      	movs	r0, #23
 8000b52:	f001 f910 	bl	8001d76 <HAL_NVIC_EnableIRQ>

  HAL_NVIC_SetPriority(EXTI15_10_IRQn, 0, 0);
 8000b56:	2200      	movs	r2, #0
 8000b58:	2100      	movs	r1, #0
 8000b5a:	2028      	movs	r0, #40	; 0x28
 8000b5c:	f001 f8ef 	bl	8001d3e <HAL_NVIC_SetPriority>
  HAL_NVIC_EnableIRQ(EXTI15_10_IRQn);
 8000b60:	2028      	movs	r0, #40	; 0x28
 8000b62:	f001 f908 	bl	8001d76 <HAL_NVIC_EnableIRQ>

}
 8000b66:	bf00      	nop
 8000b68:	3720      	adds	r7, #32
 8000b6a:	46bd      	mov	sp, r7
 8000b6c:	bd80      	pop	{r7, pc}
 8000b6e:	bf00      	nop
 8000b70:	40021000 	.word	0x40021000
 8000b74:	40010800 	.word	0x40010800
 8000b78:	10110000 	.word	0x10110000
 8000b7c:	40011000 	.word	0x40011000
 8000b80:	40010c00 	.word	0x40010c00

08000b84 <HAL_GPIO_EXTI_Callback>:

/* USER CODE BEGIN 4 */
void HAL_GPIO_EXTI_Callback(uint16_t GPIO_Pin)
{
 8000b84:	b580      	push	{r7, lr}
 8000b86:	b082      	sub	sp, #8
 8000b88:	af00      	add	r7, sp, #0
 8000b8a:	4603      	mov	r3, r0
 8000b8c:	80fb      	strh	r3, [r7, #6]
	if(GPIO_Pin == sw1_Pin)
 8000b8e:	88fb      	ldrh	r3, [r7, #6]
 8000b90:	f5b3 7f80 	cmp.w	r3, #256	; 0x100
 8000b94:	d107      	bne.n	8000ba6 <HAL_GPIO_EXTI_Callback+0x22>
	{
		flag_sw1 = 1;
 8000b96:	4b0b      	ldr	r3, [pc, #44]	; (8000bc4 <HAL_GPIO_EXTI_Callback+0x40>)
 8000b98:	2201      	movs	r2, #1
 8000b9a:	701a      	strb	r2, [r3, #0]
		sec = 15;
 8000b9c:	4b0a      	ldr	r3, [pc, #40]	; (8000bc8 <HAL_GPIO_EXTI_Callback+0x44>)
 8000b9e:	220f      	movs	r2, #15
 8000ba0:	701a      	strb	r2, [r3, #0]
		//------------ servo reset
		servoReady();
 8000ba2:	f7ff fbfb 	bl	800039c <servoReady>
		//------------------
	}

	if(GPIO_Pin == reset_Pin)
 8000ba6:	88fb      	ldrh	r3, [r7, #6]
 8000ba8:	2b10      	cmp	r3, #16
 8000baa:	d107      	bne.n	8000bbc <HAL_GPIO_EXTI_Callback+0x38>
	{
		flag_sw1 = 0;
 8000bac:	4b05      	ldr	r3, [pc, #20]	; (8000bc4 <HAL_GPIO_EXTI_Callback+0x40>)
 8000bae:	2200      	movs	r2, #0
 8000bb0:	701a      	strb	r2, [r3, #0]
		sec = 15;
 8000bb2:	4b05      	ldr	r3, [pc, #20]	; (8000bc8 <HAL_GPIO_EXTI_Callback+0x44>)
 8000bb4:	220f      	movs	r2, #15
 8000bb6:	701a      	strb	r2, [r3, #0]
		//------------ servo reset
		servoReady();
 8000bb8:	f7ff fbf0 	bl	800039c <servoReady>
		//------------------
	}

}
 8000bbc:	bf00      	nop
 8000bbe:	3708      	adds	r7, #8
 8000bc0:	46bd      	mov	sp, r7
 8000bc2:	bd80      	pop	{r7, pc}
 8000bc4:	2000028c 	.word	0x2000028c
 8000bc8:	20000000 	.word	0x20000000

08000bcc <HAL_TIM_PeriodElapsedCallback>:
void HAL_TIM_PeriodElapsedCallback(TIM_HandleTypeDef *htim)
{
 8000bcc:	b580      	push	{r7, lr}
 8000bce:	b082      	sub	sp, #8
 8000bd0:	af00      	add	r7, sp, #0
 8000bd2:	6078      	str	r0, [r7, #4]
		lcd_put_cur(0, 0);
 8000bd4:	2100      	movs	r1, #0
 8000bd6:	2000      	movs	r0, #0
 8000bd8:	f7ff fb18 	bl	800020c <lcd_put_cur>
		lcd_send_string("STATUS:");
 8000bdc:	4819      	ldr	r0, [pc, #100]	; (8000c44 <HAL_TIM_PeriodElapsedCallback+0x78>)
 8000bde:	f7ff fb71 	bl	80002c4 <lcd_send_string>
		lcd_put_cur(0, 7);
 8000be2:	2107      	movs	r1, #7
 8000be4:	2000      	movs	r0, #0
 8000be6:	f7ff fb11 	bl	800020c <lcd_put_cur>
		lcd_send_string("READY....");
 8000bea:	4817      	ldr	r0, [pc, #92]	; (8000c48 <HAL_TIM_PeriodElapsedCallback+0x7c>)
 8000bec:	f7ff fb6a 	bl	80002c4 <lcd_send_string>

		if(flag_sw1 == 1)
 8000bf0:	4b16      	ldr	r3, [pc, #88]	; (8000c4c <HAL_TIM_PeriodElapsedCallback+0x80>)
 8000bf2:	781b      	ldrb	r3, [r3, #0]
 8000bf4:	2b01      	cmp	r3, #1
 8000bf6:	d121      	bne.n	8000c3c <HAL_TIM_PeriodElapsedCallback+0x70>
		{
			if(sec > 0)
 8000bf8:	4b15      	ldr	r3, [pc, #84]	; (8000c50 <HAL_TIM_PeriodElapsedCallback+0x84>)
 8000bfa:	781b      	ldrb	r3, [r3, #0]
 8000bfc:	2b00      	cmp	r3, #0
 8000bfe:	d00d      	beq.n	8000c1c <HAL_TIM_PeriodElapsedCallback+0x50>
			{
				sec--;
 8000c00:	4b13      	ldr	r3, [pc, #76]	; (8000c50 <HAL_TIM_PeriodElapsedCallback+0x84>)
 8000c02:	781b      	ldrb	r3, [r3, #0]
 8000c04:	3b01      	subs	r3, #1
 8000c06:	b2da      	uxtb	r2, r3
 8000c08:	4b11      	ldr	r3, [pc, #68]	; (8000c50 <HAL_TIM_PeriodElapsedCallback+0x84>)
 8000c0a:	701a      	strb	r2, [r3, #0]
				lcd_put_cur(0, 7);
 8000c0c:	2107      	movs	r1, #7
 8000c0e:	2000      	movs	r0, #0
 8000c10:	f7ff fafc 	bl	800020c <lcd_put_cur>
				lcd_send_string("COUNTDOWN");
 8000c14:	480f      	ldr	r0, [pc, #60]	; (8000c54 <HAL_TIM_PeriodElapsedCallback+0x88>)
 8000c16:	f7ff fb55 	bl	80002c4 <lcd_send_string>
				//------------ servo
				servoBoom();
				//------------------
			}
		}
}
 8000c1a:	e00f      	b.n	8000c3c <HAL_TIM_PeriodElapsedCallback+0x70>
			else if (sec ==0)
 8000c1c:	4b0c      	ldr	r3, [pc, #48]	; (8000c50 <HAL_TIM_PeriodElapsedCallback+0x84>)
 8000c1e:	781b      	ldrb	r3, [r3, #0]
 8000c20:	2b00      	cmp	r3, #0
 8000c22:	d10b      	bne.n	8000c3c <HAL_TIM_PeriodElapsedCallback+0x70>
				lcd_put_cur(0, 7);
 8000c24:	2107      	movs	r1, #7
 8000c26:	2000      	movs	r0, #0
 8000c28:	f7ff faf0 	bl	800020c <lcd_put_cur>
				lcd_send_string("!!BOOOM!!");
 8000c2c:	480a      	ldr	r0, [pc, #40]	; (8000c58 <HAL_TIM_PeriodElapsedCallback+0x8c>)
 8000c2e:	f7ff fb49 	bl	80002c4 <lcd_send_string>
				sec = 0;
 8000c32:	4b07      	ldr	r3, [pc, #28]	; (8000c50 <HAL_TIM_PeriodElapsedCallback+0x84>)
 8000c34:	2200      	movs	r2, #0
 8000c36:	701a      	strb	r2, [r3, #0]
				servoBoom();
 8000c38:	f7ff fbc2 	bl	80003c0 <servoBoom>
}
 8000c3c:	bf00      	nop
 8000c3e:	3708      	adds	r7, #8
 8000c40:	46bd      	mov	sp, r7
 8000c42:	bd80      	pop	{r7, pc}
 8000c44:	08006258 	.word	0x08006258
 8000c48:	08006260 	.word	0x08006260
 8000c4c:	2000028c 	.word	0x2000028c
 8000c50:	20000000 	.word	0x20000000
 8000c54:	0800626c 	.word	0x0800626c
 8000c58:	08006278 	.word	0x08006278

08000c5c <HAL_TIM_OC_DelayElapsedCallback>:

void HAL_TIM_OC_DelayElapsedCallback(TIM_HandleTypeDef *htim)
{
 8000c5c:	b580      	push	{r7, lr}
 8000c5e:	b082      	sub	sp, #8
 8000c60:	af00      	add	r7, sp, #0
 8000c62:	6078      	str	r0, [r7, #4]

		lcd_put_cur(1,0);
 8000c64:	2100      	movs	r1, #0
 8000c66:	2001      	movs	r0, #1
 8000c68:	f7ff fad0 	bl	800020c <lcd_put_cur>
		sprintf(Sec,"TIME:%02d",sec);
 8000c6c:	4b06      	ldr	r3, [pc, #24]	; (8000c88 <HAL_TIM_OC_DelayElapsedCallback+0x2c>)
 8000c6e:	781b      	ldrb	r3, [r3, #0]
 8000c70:	461a      	mov	r2, r3
 8000c72:	4906      	ldr	r1, [pc, #24]	; (8000c8c <HAL_TIM_OC_DelayElapsedCallback+0x30>)
 8000c74:	4806      	ldr	r0, [pc, #24]	; (8000c90 <HAL_TIM_OC_DelayElapsedCallback+0x34>)
 8000c76:	f004 f973 	bl	8004f60 <siprintf>
		lcd_send_string(Sec);
 8000c7a:	4805      	ldr	r0, [pc, #20]	; (8000c90 <HAL_TIM_OC_DelayElapsedCallback+0x34>)
 8000c7c:	f7ff fb22 	bl	80002c4 <lcd_send_string>
}
 8000c80:	bf00      	nop
 8000c82:	3708      	adds	r7, #8
 8000c84:	46bd      	mov	sp, r7
 8000c86:	bd80      	pop	{r7, pc}
 8000c88:	20000000 	.word	0x20000000
 8000c8c:	08006284 	.word	0x08006284
 8000c90:	20000290 	.word	0x20000290

08000c94 <HAL_TIM_PWM_PulseFinishedCallback>:


void HAL_TIM_PWM_PulseFinishedCallback(TIM_HandleTypeDef *htim)
{
 8000c94:	b480      	push	{r7}
 8000c96:	b083      	sub	sp, #12
 8000c98:	af00      	add	r7, sp, #0
 8000c9a:	6078      	str	r0, [r7, #4]
	if((sec <= 14)&&(sec>7))
 8000c9c:	4b1a      	ldr	r3, [pc, #104]	; (8000d08 <HAL_TIM_PWM_PulseFinishedCallback+0x74>)
 8000c9e:	781b      	ldrb	r3, [r3, #0]
 8000ca0:	2b0e      	cmp	r3, #14
 8000ca2:	d811      	bhi.n	8000cc8 <HAL_TIM_PWM_PulseFinishedCallback+0x34>
 8000ca4:	4b18      	ldr	r3, [pc, #96]	; (8000d08 <HAL_TIM_PWM_PulseFinishedCallback+0x74>)
 8000ca6:	781b      	ldrb	r3, [r3, #0]
 8000ca8:	2b07      	cmp	r3, #7
 8000caa:	d90d      	bls.n	8000cc8 <HAL_TIM_PWM_PulseFinishedCallback+0x34>
	{
		TIM1->CCR2 = 5000-1;
 8000cac:	4b17      	ldr	r3, [pc, #92]	; (8000d0c <HAL_TIM_PWM_PulseFinishedCallback+0x78>)
 8000cae:	f241 3287 	movw	r2, #4999	; 0x1387
 8000cb2:	639a      	str	r2, [r3, #56]	; 0x38
		GPIOA->BSRR = 0xffff;
 8000cb4:	4b16      	ldr	r3, [pc, #88]	; (8000d10 <HAL_TIM_PWM_PulseFinishedCallback+0x7c>)
 8000cb6:	f64f 72ff 	movw	r2, #65535	; 0xffff
 8000cba:	611a      	str	r2, [r3, #16]
		TIM1->ARR -= 2000;
 8000cbc:	4b13      	ldr	r3, [pc, #76]	; (8000d0c <HAL_TIM_PWM_PulseFinishedCallback+0x78>)
 8000cbe:	6adb      	ldr	r3, [r3, #44]	; 0x2c
 8000cc0:	4a12      	ldr	r2, [pc, #72]	; (8000d0c <HAL_TIM_PWM_PulseFinishedCallback+0x78>)
 8000cc2:	f5a3 63fa 	sub.w	r3, r3, #2000	; 0x7d0
 8000cc6:	62d3      	str	r3, [r2, #44]	; 0x2c
	}
	if((sec <= 7)&&(sec>0))
 8000cc8:	4b0f      	ldr	r3, [pc, #60]	; (8000d08 <HAL_TIM_PWM_PulseFinishedCallback+0x74>)
 8000cca:	781b      	ldrb	r3, [r3, #0]
 8000ccc:	2b07      	cmp	r3, #7
 8000cce:	d80a      	bhi.n	8000ce6 <HAL_TIM_PWM_PulseFinishedCallback+0x52>
 8000cd0:	4b0d      	ldr	r3, [pc, #52]	; (8000d08 <HAL_TIM_PWM_PulseFinishedCallback+0x74>)
 8000cd2:	781b      	ldrb	r3, [r3, #0]
 8000cd4:	2b00      	cmp	r3, #0
 8000cd6:	d006      	beq.n	8000ce6 <HAL_TIM_PWM_PulseFinishedCallback+0x52>
	{
		TIM1->ARR -= 4500;
 8000cd8:	4b0c      	ldr	r3, [pc, #48]	; (8000d0c <HAL_TIM_PWM_PulseFinishedCallback+0x78>)
 8000cda:	6adb      	ldr	r3, [r3, #44]	; 0x2c
 8000cdc:	4a0b      	ldr	r2, [pc, #44]	; (8000d0c <HAL_TIM_PWM_PulseFinishedCallback+0x78>)
 8000cde:	f5a3 538c 	sub.w	r3, r3, #4480	; 0x1180
 8000ce2:	3b14      	subs	r3, #20
 8000ce4:	62d3      	str	r3, [r2, #44]	; 0x2c
	}
	if(sec == 0)
 8000ce6:	4b08      	ldr	r3, [pc, #32]	; (8000d08 <HAL_TIM_PWM_PulseFinishedCallback+0x74>)
 8000ce8:	781b      	ldrb	r3, [r3, #0]
 8000cea:	2b00      	cmp	r3, #0
 8000cec:	d106      	bne.n	8000cfc <HAL_TIM_PWM_PulseFinishedCallback+0x68>
		{
		TIM1->CCR2 = 0;
 8000cee:	4b07      	ldr	r3, [pc, #28]	; (8000d0c <HAL_TIM_PWM_PulseFinishedCallback+0x78>)
 8000cf0:	2200      	movs	r2, #0
 8000cf2:	639a      	str	r2, [r3, #56]	; 0x38
		TIM1->ARR = 50000-1;
 8000cf4:	4b05      	ldr	r3, [pc, #20]	; (8000d0c <HAL_TIM_PWM_PulseFinishedCallback+0x78>)
 8000cf6:	f24c 324f 	movw	r2, #49999	; 0xc34f
 8000cfa:	62da      	str	r2, [r3, #44]	; 0x2c
		}
}
 8000cfc:	bf00      	nop
 8000cfe:	370c      	adds	r7, #12
 8000d00:	46bd      	mov	sp, r7
 8000d02:	bc80      	pop	{r7}
 8000d04:	4770      	bx	lr
 8000d06:	bf00      	nop
 8000d08:	20000000 	.word	0x20000000
 8000d0c:	40012c00 	.word	0x40012c00
 8000d10:	40010800 	.word	0x40010800

08000d14 <Error_Handler>:
/**
  * @brief  This function is executed in case of error occurrence.
  * @retval None
  */
void Error_Handler(void)
{
 8000d14:	b480      	push	{r7}
 8000d16:	af00      	add	r7, sp, #0
  \details Disables IRQ interrupts by setting the I-bit in the CPSR.
           Can only be executed in Privileged modes.
 */
__STATIC_FORCEINLINE void __disable_irq(void)
{
  __ASM volatile ("cpsid i" : : : "memory");
 8000d18:	b672      	cpsid	i
}
 8000d1a:	bf00      	nop
  /* USER CODE BEGIN Error_Handler_Debug */
  /* User can add his own implementation to report the HAL error return state */
  __disable_irq();
  while (1)
 8000d1c:	e7fe      	b.n	8000d1c <Error_Handler+0x8>
	...

08000d20 <HAL_MspInit>:
 8000d20:	b480      	push	{r7}
 8000d22:	b085      	sub	sp, #20
 8000d24:	af00      	add	r7, sp, #0
 8000d26:	4b15      	ldr	r3, [pc, #84]	; (8000d7c <HAL_MspInit+0x5c>)
 8000d28:	699b      	ldr	r3, [r3, #24]
 8000d2a:	4a14      	ldr	r2, [pc, #80]	; (8000d7c <HAL_MspInit+0x5c>)
 8000d2c:	f043 0301 	orr.w	r3, r3, #1
 8000d30:	6193      	str	r3, [r2, #24]
 8000d32:	4b12      	ldr	r3, [pc, #72]	; (8000d7c <HAL_MspInit+0x5c>)
 8000d34:	699b      	ldr	r3, [r3, #24]
 8000d36:	f003 0301 	and.w	r3, r3, #1
 8000d3a:	60bb      	str	r3, [r7, #8]
 8000d3c:	68bb      	ldr	r3, [r7, #8]
 8000d3e:	4b0f      	ldr	r3, [pc, #60]	; (8000d7c <HAL_MspInit+0x5c>)
 8000d40:	69db      	ldr	r3, [r3, #28]
 8000d42:	4a0e      	ldr	r2, [pc, #56]	; (8000d7c <HAL_MspInit+0x5c>)
 8000d44:	f043 5380 	orr.w	r3, r3, #268435456	; 0x10000000
 8000d48:	61d3      	str	r3, [r2, #28]
 8000d4a:	4b0c      	ldr	r3, [pc, #48]	; (8000d7c <HAL_MspInit+0x5c>)
 8000d4c:	69db      	ldr	r3, [r3, #28]
 8000d4e:	f003 5380 	and.w	r3, r3, #268435456	; 0x10000000
 8000d52:	607b      	str	r3, [r7, #4]
 8000d54:	687b      	ldr	r3, [r7, #4]
 8000d56:	4b0a      	ldr	r3, [pc, #40]	; (8000d80 <HAL_MspInit+0x60>)
 8000d58:	685b      	ldr	r3, [r3, #4]
 8000d5a:	60fb      	str	r3, [r7, #12]
 8000d5c:	68fb      	ldr	r3, [r7, #12]
 8000d5e:	f023 63e0 	bic.w	r3, r3, #117440512	; 0x7000000
 8000d62:	60fb      	str	r3, [r7, #12]
 8000d64:	68fb      	ldr	r3, [r7, #12]
 8000d66:	f043 7300 	orr.w	r3, r3, #33554432	; 0x2000000
 8000d6a:	60fb      	str	r3, [r7, #12]
 8000d6c:	4a04      	ldr	r2, [pc, #16]	; (8000d80 <HAL_MspInit+0x60>)
 8000d6e:	68fb      	ldr	r3, [r7, #12]
 8000d70:	6053      	str	r3, [r2, #4]
 8000d72:	bf00      	nop
 8000d74:	3714      	adds	r7, #20
 8000d76:	46bd      	mov	sp, r7
 8000d78:	bc80      	pop	{r7}
 8000d7a:	4770      	bx	lr
 8000d7c:	40021000 	.word	0x40021000
 8000d80:	40010000 	.word	0x40010000

08000d84 <HAL_ADC_MspInit>:
 8000d84:	b580      	push	{r7, lr}
 8000d86:	b088      	sub	sp, #32
 8000d88:	af00      	add	r7, sp, #0
 8000d8a:	6078      	str	r0, [r7, #4]
 8000d8c:	f107 0310 	add.w	r3, r7, #16
 8000d90:	2200      	movs	r2, #0
 8000d92:	601a      	str	r2, [r3, #0]
 8000d94:	605a      	str	r2, [r3, #4]
 8000d96:	609a      	str	r2, [r3, #8]
 8000d98:	60da      	str	r2, [r3, #12]
 8000d9a:	687b      	ldr	r3, [r7, #4]
 8000d9c:	681b      	ldr	r3, [r3, #0]
 8000d9e:	4a28      	ldr	r2, [pc, #160]	; (8000e40 <HAL_ADC_MspInit+0xbc>)
 8000da0:	4293      	cmp	r3, r2
 8000da2:	d149      	bne.n	8000e38 <HAL_ADC_MspInit+0xb4>
 8000da4:	4b27      	ldr	r3, [pc, #156]	; (8000e44 <HAL_ADC_MspInit+0xc0>)
 8000da6:	699b      	ldr	r3, [r3, #24]
 8000da8:	4a26      	ldr	r2, [pc, #152]	; (8000e44 <HAL_ADC_MspInit+0xc0>)
 8000daa:	f443 7300 	orr.w	r3, r3, #512	; 0x200
 8000dae:	6193      	str	r3, [r2, #24]
 8000db0:	4b24      	ldr	r3, [pc, #144]	; (8000e44 <HAL_ADC_MspInit+0xc0>)
 8000db2:	699b      	ldr	r3, [r3, #24]
 8000db4:	f403 7300 	and.w	r3, r3, #512	; 0x200
 8000db8:	60fb      	str	r3, [r7, #12]
 8000dba:	68fb      	ldr	r3, [r7, #12]
 8000dbc:	4b21      	ldr	r3, [pc, #132]	; (8000e44 <HAL_ADC_MspInit+0xc0>)
 8000dbe:	699b      	ldr	r3, [r3, #24]
 8000dc0:	4a20      	ldr	r2, [pc, #128]	; (8000e44 <HAL_ADC_MspInit+0xc0>)
 8000dc2:	f043 0304 	orr.w	r3, r3, #4
 8000dc6:	6193      	str	r3, [r2, #24]
 8000dc8:	4b1e      	ldr	r3, [pc, #120]	; (8000e44 <HAL_ADC_MspInit+0xc0>)
 8000dca:	699b      	ldr	r3, [r3, #24]
 8000dcc:	f003 0304 	and.w	r3, r3, #4
 8000dd0:	60bb      	str	r3, [r7, #8]
 8000dd2:	68bb      	ldr	r3, [r7, #8]
 8000dd4:	2313      	movs	r3, #19
 8000dd6:	613b      	str	r3, [r7, #16]
 8000dd8:	2303      	movs	r3, #3
 8000dda:	617b      	str	r3, [r7, #20]
 8000ddc:	f107 0310 	add.w	r3, r7, #16
 8000de0:	4619      	mov	r1, r3
 8000de2:	4819      	ldr	r0, [pc, #100]	; (8000e48 <HAL_ADC_MspInit+0xc4>)
 8000de4:	f001 f9d0 	bl	8002188 <HAL_GPIO_Init>
 8000de8:	4b18      	ldr	r3, [pc, #96]	; (8000e4c <HAL_ADC_MspInit+0xc8>)
 8000dea:	4a19      	ldr	r2, [pc, #100]	; (8000e50 <HAL_ADC_MspInit+0xcc>)
 8000dec:	601a      	str	r2, [r3, #0]
 8000dee:	4b17      	ldr	r3, [pc, #92]	; (8000e4c <HAL_ADC_MspInit+0xc8>)
 8000df0:	2200      	movs	r2, #0
 8000df2:	605a      	str	r2, [r3, #4]
 8000df4:	4b15      	ldr	r3, [pc, #84]	; (8000e4c <HAL_ADC_MspInit+0xc8>)
 8000df6:	2200      	movs	r2, #0
 8000df8:	609a      	str	r2, [r3, #8]
 8000dfa:	4b14      	ldr	r3, [pc, #80]	; (8000e4c <HAL_ADC_MspInit+0xc8>)
 8000dfc:	2280      	movs	r2, #128	; 0x80
 8000dfe:	60da      	str	r2, [r3, #12]
 8000e00:	4b12      	ldr	r3, [pc, #72]	; (8000e4c <HAL_ADC_MspInit+0xc8>)
 8000e02:	f44f 7200 	mov.w	r2, #512	; 0x200
 8000e06:	611a      	str	r2, [r3, #16]
 8000e08:	4b10      	ldr	r3, [pc, #64]	; (8000e4c <HAL_ADC_MspInit+0xc8>)
 8000e0a:	f44f 6200 	mov.w	r2, #2048	; 0x800
 8000e0e:	615a      	str	r2, [r3, #20]
 8000e10:	4b0e      	ldr	r3, [pc, #56]	; (8000e4c <HAL_ADC_MspInit+0xc8>)
 8000e12:	2220      	movs	r2, #32
 8000e14:	619a      	str	r2, [r3, #24]
 8000e16:	4b0d      	ldr	r3, [pc, #52]	; (8000e4c <HAL_ADC_MspInit+0xc8>)
 8000e18:	2200      	movs	r2, #0
 8000e1a:	61da      	str	r2, [r3, #28]
 8000e1c:	480b      	ldr	r0, [pc, #44]	; (8000e4c <HAL_ADC_MspInit+0xc8>)
 8000e1e:	f000 ffc5 	bl	8001dac <HAL_DMA_Init>
 8000e22:	4603      	mov	r3, r0
 8000e24:	2b00      	cmp	r3, #0
 8000e26:	d001      	beq.n	8000e2c <HAL_ADC_MspInit+0xa8>
 8000e28:	f7ff ff74 	bl	8000d14 <Error_Handler>
 8000e2c:	687b      	ldr	r3, [r7, #4]
 8000e2e:	4a07      	ldr	r2, [pc, #28]	; (8000e4c <HAL_ADC_MspInit+0xc8>)
 8000e30:	621a      	str	r2, [r3, #32]
 8000e32:	4a06      	ldr	r2, [pc, #24]	; (8000e4c <HAL_ADC_MspInit+0xc8>)
 8000e34:	687b      	ldr	r3, [r7, #4]
 8000e36:	6253      	str	r3, [r2, #36]	; 0x24
 8000e38:	bf00      	nop
 8000e3a:	3720      	adds	r7, #32
 8000e3c:	46bd      	mov	sp, r7
 8000e3e:	bd80      	pop	{r7, pc}
 8000e40:	40012400 	.word	0x40012400
 8000e44:	40021000 	.word	0x40021000
 8000e48:	40010800 	.word	0x40010800
 8000e4c:	200000c0 	.word	0x200000c0
 8000e50:	40020008 	.word	0x40020008

08000e54 <HAL_I2C_MspInit>:
 8000e54:	b580      	push	{r7, lr}
 8000e56:	b088      	sub	sp, #32
 8000e58:	af00      	add	r7, sp, #0
 8000e5a:	6078      	str	r0, [r7, #4]
 8000e5c:	f107 0310 	add.w	r3, r7, #16
 8000e60:	2200      	movs	r2, #0
 8000e62:	601a      	str	r2, [r3, #0]
 8000e64:	605a      	str	r2, [r3, #4]
 8000e66:	609a      	str	r2, [r3, #8]
 8000e68:	60da      	str	r2, [r3, #12]
 8000e6a:	687b      	ldr	r3, [r7, #4]
 8000e6c:	681b      	ldr	r3, [r3, #0]
 8000e6e:	4a15      	ldr	r2, [pc, #84]	; (8000ec4 <HAL_I2C_MspInit+0x70>)
 8000e70:	4293      	cmp	r3, r2
 8000e72:	d123      	bne.n	8000ebc <HAL_I2C_MspInit+0x68>
 8000e74:	4b14      	ldr	r3, [pc, #80]	; (8000ec8 <HAL_I2C_MspInit+0x74>)
 8000e76:	699b      	ldr	r3, [r3, #24]
 8000e78:	4a13      	ldr	r2, [pc, #76]	; (8000ec8 <HAL_I2C_MspInit+0x74>)
 8000e7a:	f043 0308 	orr.w	r3, r3, #8
 8000e7e:	6193      	str	r3, [r2, #24]
 8000e80:	4b11      	ldr	r3, [pc, #68]	; (8000ec8 <HAL_I2C_MspInit+0x74>)
 8000e82:	699b      	ldr	r3, [r3, #24]
 8000e84:	f003 0308 	and.w	r3, r3, #8
 8000e88:	60fb      	str	r3, [r7, #12]
 8000e8a:	68fb      	ldr	r3, [r7, #12]
 8000e8c:	23c0      	movs	r3, #192	; 0xc0
 8000e8e:	613b      	str	r3, [r7, #16]
 8000e90:	2312      	movs	r3, #18
 8000e92:	617b      	str	r3, [r7, #20]
 8000e94:	2303      	movs	r3, #3
 8000e96:	61fb      	str	r3, [r7, #28]
 8000e98:	f107 0310 	add.w	r3, r7, #16
 8000e9c:	4619      	mov	r1, r3
 8000e9e:	480b      	ldr	r0, [pc, #44]	; (8000ecc <HAL_I2C_MspInit+0x78>)
 8000ea0:	f001 f972 	bl	8002188 <HAL_GPIO_Init>
 8000ea4:	4b08      	ldr	r3, [pc, #32]	; (8000ec8 <HAL_I2C_MspInit+0x74>)
 8000ea6:	69db      	ldr	r3, [r3, #28]
 8000ea8:	4a07      	ldr	r2, [pc, #28]	; (8000ec8 <HAL_I2C_MspInit+0x74>)
 8000eaa:	f443 1300 	orr.w	r3, r3, #2097152	; 0x200000
 8000eae:	61d3      	str	r3, [r2, #28]
 8000eb0:	4b05      	ldr	r3, [pc, #20]	; (8000ec8 <HAL_I2C_MspInit+0x74>)
 8000eb2:	69db      	ldr	r3, [r3, #28]
 8000eb4:	f403 1300 	and.w	r3, r3, #2097152	; 0x200000
 8000eb8:	60bb      	str	r3, [r7, #8]
 8000eba:	68bb      	ldr	r3, [r7, #8]
 8000ebc:	bf00      	nop
 8000ebe:	3720      	adds	r7, #32
 8000ec0:	46bd      	mov	sp, r7
 8000ec2:	bd80      	pop	{r7, pc}
 8000ec4:	40005400 	.word	0x40005400
 8000ec8:	40021000 	.word	0x40021000
 8000ecc:	40010c00 	.word	0x40010c00

08000ed0 <HAL_TIM_Base_MspInit>:
 8000ed0:	b580      	push	{r7, lr}
 8000ed2:	b086      	sub	sp, #24
 8000ed4:	af00      	add	r7, sp, #0
 8000ed6:	6078      	str	r0, [r7, #4]
 8000ed8:	687b      	ldr	r3, [r7, #4]
 8000eda:	681b      	ldr	r3, [r3, #0]
 8000edc:	4a23      	ldr	r2, [pc, #140]	; (8000f6c <HAL_TIM_Base_MspInit+0x9c>)
 8000ede:	4293      	cmp	r3, r2
 8000ee0:	d10c      	bne.n	8000efc <HAL_TIM_Base_MspInit+0x2c>
 8000ee2:	4b23      	ldr	r3, [pc, #140]	; (8000f70 <HAL_TIM_Base_MspInit+0xa0>)
 8000ee4:	699b      	ldr	r3, [r3, #24]
 8000ee6:	4a22      	ldr	r2, [pc, #136]	; (8000f70 <HAL_TIM_Base_MspInit+0xa0>)
 8000ee8:	f443 6300 	orr.w	r3, r3, #2048	; 0x800
 8000eec:	6193      	str	r3, [r2, #24]
 8000eee:	4b20      	ldr	r3, [pc, #128]	; (8000f70 <HAL_TIM_Base_MspInit+0xa0>)
 8000ef0:	699b      	ldr	r3, [r3, #24]
 8000ef2:	f403 6300 	and.w	r3, r3, #2048	; 0x800
 8000ef6:	617b      	str	r3, [r7, #20]
 8000ef8:	697b      	ldr	r3, [r7, #20]
 8000efa:	e032      	b.n	8000f62 <HAL_TIM_Base_MspInit+0x92>
 8000efc:	687b      	ldr	r3, [r7, #4]
 8000efe:	681b      	ldr	r3, [r3, #0]
 8000f00:	f1b3 4f80 	cmp.w	r3, #1073741824	; 0x40000000
 8000f04:	d114      	bne.n	8000f30 <HAL_TIM_Base_MspInit+0x60>
 8000f06:	4b1a      	ldr	r3, [pc, #104]	; (8000f70 <HAL_TIM_Base_MspInit+0xa0>)
 8000f08:	69db      	ldr	r3, [r3, #28]
 8000f0a:	4a19      	ldr	r2, [pc, #100]	; (8000f70 <HAL_TIM_Base_MspInit+0xa0>)
 8000f0c:	f043 0301 	orr.w	r3, r3, #1
 8000f10:	61d3      	str	r3, [r2, #28]
 8000f12:	4b17      	ldr	r3, [pc, #92]	; (8000f70 <HAL_TIM_Base_MspInit+0xa0>)
 8000f14:	69db      	ldr	r3, [r3, #28]
 8000f16:	f003 0301 	and.w	r3, r3, #1
 8000f1a:	613b      	str	r3, [r7, #16]
 8000f1c:	693b      	ldr	r3, [r7, #16]
 8000f1e:	2200      	movs	r2, #0
 8000f20:	2100      	movs	r1, #0
 8000f22:	201c      	movs	r0, #28
 8000f24:	f000 ff0b 	bl	8001d3e <HAL_NVIC_SetPriority>
 8000f28:	201c      	movs	r0, #28
 8000f2a:	f000 ff24 	bl	8001d76 <HAL_NVIC_EnableIRQ>
 8000f2e:	e018      	b.n	8000f62 <HAL_TIM_Base_MspInit+0x92>
 8000f30:	687b      	ldr	r3, [r7, #4]
 8000f32:	681b      	ldr	r3, [r3, #0]
 8000f34:	4a0f      	ldr	r2, [pc, #60]	; (8000f74 <HAL_TIM_Base_MspInit+0xa4>)
 8000f36:	4293      	cmp	r3, r2
 8000f38:	d113      	bne.n	8000f62 <HAL_TIM_Base_MspInit+0x92>
 8000f3a:	4b0d      	ldr	r3, [pc, #52]	; (8000f70 <HAL_TIM_Base_MspInit+0xa0>)
 8000f3c:	69db      	ldr	r3, [r3, #28]
 8000f3e:	4a0c      	ldr	r2, [pc, #48]	; (8000f70 <HAL_TIM_Base_MspInit+0xa0>)
 8000f40:	f043 0302 	orr.w	r3, r3, #2
 8000f44:	61d3      	str	r3, [r2, #28]
 8000f46:	4b0a      	ldr	r3, [pc, #40]	; (8000f70 <HAL_TIM_Base_MspInit+0xa0>)
 8000f48:	69db      	ldr	r3, [r3, #28]
 8000f4a:	f003 0302 	and.w	r3, r3, #2
 8000f4e:	60fb      	str	r3, [r7, #12]
 8000f50:	68fb      	ldr	r3, [r7, #12]
 8000f52:	2200      	movs	r2, #0
 8000f54:	2100      	movs	r1, #0
 8000f56:	201d      	movs	r0, #29
 8000f58:	f000 fef1 	bl	8001d3e <HAL_NVIC_SetPriority>
 8000f5c:	201d      	movs	r0, #29
 8000f5e:	f000 ff0a 	bl	8001d76 <HAL_NVIC_EnableIRQ>
 8000f62:	bf00      	nop
 8000f64:	3718      	adds	r7, #24
 8000f66:	46bd      	mov	sp, r7
 8000f68:	bd80      	pop	{r7, pc}
 8000f6a:	bf00      	nop
 8000f6c:	40012c00 	.word	0x40012c00
 8000f70:	40021000 	.word	0x40021000
 8000f74:	40000400 	.word	0x40000400

08000f78 <HAL_TIM_MspPostInit>:
 8000f78:	b580      	push	{r7, lr}
 8000f7a:	b088      	sub	sp, #32
 8000f7c:	af00      	add	r7, sp, #0
 8000f7e:	6078      	str	r0, [r7, #4]
 8000f80:	f107 0310 	add.w	r3, r7, #16
 8000f84:	2200      	movs	r2, #0
 8000f86:	601a      	str	r2, [r3, #0]
 8000f88:	605a      	str	r2, [r3, #4]
 8000f8a:	609a      	str	r2, [r3, #8]
 8000f8c:	60da      	str	r2, [r3, #12]
 8000f8e:	687b      	ldr	r3, [r7, #4]
 8000f90:	681b      	ldr	r3, [r3, #0]
 8000f92:	4a1f      	ldr	r2, [pc, #124]	; (8001010 <HAL_TIM_MspPostInit+0x98>)
 8000f94:	4293      	cmp	r3, r2
 8000f96:	d119      	bne.n	8000fcc <HAL_TIM_MspPostInit+0x54>
 8000f98:	4b1e      	ldr	r3, [pc, #120]	; (8001014 <HAL_TIM_MspPostInit+0x9c>)
 8000f9a:	699b      	ldr	r3, [r3, #24]
 8000f9c:	4a1d      	ldr	r2, [pc, #116]	; (8001014 <HAL_TIM_MspPostInit+0x9c>)
 8000f9e:	f043 0304 	orr.w	r3, r3, #4
 8000fa2:	6193      	str	r3, [r2, #24]
 8000fa4:	4b1b      	ldr	r3, [pc, #108]	; (8001014 <HAL_TIM_MspPostInit+0x9c>)
 8000fa6:	699b      	ldr	r3, [r3, #24]
 8000fa8:	f003 0304 	and.w	r3, r3, #4
 8000fac:	60fb      	str	r3, [r7, #12]
 8000fae:	68fb      	ldr	r3, [r7, #12]
 8000fb0:	f44f 7300 	mov.w	r3, #512	; 0x200
 8000fb4:	613b      	str	r3, [r7, #16]
 8000fb6:	2302      	movs	r3, #2
 8000fb8:	617b      	str	r3, [r7, #20]
 8000fba:	2302      	movs	r3, #2
 8000fbc:	61fb      	str	r3, [r7, #28]
 8000fbe:	f107 0310 	add.w	r3, r7, #16
 8000fc2:	4619      	mov	r1, r3
 8000fc4:	4814      	ldr	r0, [pc, #80]	; (8001018 <HAL_TIM_MspPostInit+0xa0>)
 8000fc6:	f001 f8df 	bl	8002188 <HAL_GPIO_Init>
 8000fca:	e01c      	b.n	8001006 <HAL_TIM_MspPostInit+0x8e>
 8000fcc:	687b      	ldr	r3, [r7, #4]
 8000fce:	681b      	ldr	r3, [r3, #0]
 8000fd0:	4a12      	ldr	r2, [pc, #72]	; (800101c <HAL_TIM_MspPostInit+0xa4>)
 8000fd2:	4293      	cmp	r3, r2
 8000fd4:	d117      	bne.n	8001006 <HAL_TIM_MspPostInit+0x8e>
 8000fd6:	4b0f      	ldr	r3, [pc, #60]	; (8001014 <HAL_TIM_MspPostInit+0x9c>)
 8000fd8:	699b      	ldr	r3, [r3, #24]
 8000fda:	4a0e      	ldr	r2, [pc, #56]	; (8001014 <HAL_TIM_MspPostInit+0x9c>)
 8000fdc:	f043 0304 	orr.w	r3, r3, #4
 8000fe0:	6193      	str	r3, [r2, #24]
 8000fe2:	4b0c      	ldr	r3, [pc, #48]	; (8001014 <HAL_TIM_MspPostInit+0x9c>)
 8000fe4:	699b      	ldr	r3, [r3, #24]
 8000fe6:	f003 0304 	and.w	r3, r3, #4
 8000fea:	60bb      	str	r3, [r7, #8]
 8000fec:	68bb      	ldr	r3, [r7, #8]
 8000fee:	23c0      	movs	r3, #192	; 0xc0
 8000ff0:	613b      	str	r3, [r7, #16]
 8000ff2:	2302      	movs	r3, #2
 8000ff4:	617b      	str	r3, [r7, #20]
 8000ff6:	2302      	movs	r3, #2
 8000ff8:	61fb      	str	r3, [r7, #28]
 8000ffa:	f107 0310 	add.w	r3, r7, #16
 8000ffe:	4619      	mov	r1, r3
 8001000:	4805      	ldr	r0, [pc, #20]	; (8001018 <HAL_TIM_MspPostInit+0xa0>)
 8001002:	f001 f8c1 	bl	8002188 <HAL_GPIO_Init>
 8001006:	bf00      	nop
 8001008:	3720      	adds	r7, #32
 800100a:	46bd      	mov	sp, r7
 800100c:	bd80      	pop	{r7, pc}
 800100e:	bf00      	nop
 8001010:	40012c00 	.word	0x40012c00
 8001014:	40021000 	.word	0x40021000
 8001018:	40010800 	.word	0x40010800
 800101c:	40000400 	.word	0x40000400

08001020 <HAL_UART_MspInit>:
 8001020:	b580      	push	{r7, lr}
 8001022:	b088      	sub	sp, #32
 8001024:	af00      	add	r7, sp, #0
 8001026:	6078      	str	r0, [r7, #4]
 8001028:	f107 0310 	add.w	r3, r7, #16
 800102c:	2200      	movs	r2, #0
 800102e:	601a      	str	r2, [r3, #0]
 8001030:	605a      	str	r2, [r3, #4]
 8001032:	609a      	str	r2, [r3, #8]
 8001034:	60da      	str	r2, [r3, #12]
 8001036:	687b      	ldr	r3, [r7, #4]
 8001038:	681b      	ldr	r3, [r3, #0]
 800103a:	4a15      	ldr	r2, [pc, #84]	; (8001090 <HAL_UART_MspInit+0x70>)
 800103c:	4293      	cmp	r3, r2
 800103e:	d123      	bne.n	8001088 <HAL_UART_MspInit+0x68>
 8001040:	4b14      	ldr	r3, [pc, #80]	; (8001094 <HAL_UART_MspInit+0x74>)
 8001042:	69db      	ldr	r3, [r3, #28]
 8001044:	4a13      	ldr	r2, [pc, #76]	; (8001094 <HAL_UART_MspInit+0x74>)
 8001046:	f443 3300 	orr.w	r3, r3, #131072	; 0x20000
 800104a:	61d3      	str	r3, [r2, #28]
 800104c:	4b11      	ldr	r3, [pc, #68]	; (8001094 <HAL_UART_MspInit+0x74>)
 800104e:	69db      	ldr	r3, [r3, #28]
 8001050:	f403 3300 	and.w	r3, r3, #131072	; 0x20000
 8001054:	60fb      	str	r3, [r7, #12]
 8001056:	68fb      	ldr	r3, [r7, #12]
 8001058:	4b0e      	ldr	r3, [pc, #56]	; (8001094 <HAL_UART_MspInit+0x74>)
 800105a:	699b      	ldr	r3, [r3, #24]
 800105c:	4a0d      	ldr	r2, [pc, #52]	; (8001094 <HAL_UART_MspInit+0x74>)
 800105e:	f043 0304 	orr.w	r3, r3, #4
 8001062:	6193      	str	r3, [r2, #24]
 8001064:	4b0b      	ldr	r3, [pc, #44]	; (8001094 <HAL_UART_MspInit+0x74>)
 8001066:	699b      	ldr	r3, [r3, #24]
 8001068:	f003 0304 	and.w	r3, r3, #4
 800106c:	60bb      	str	r3, [r7, #8]
 800106e:	68bb      	ldr	r3, [r7, #8]
 8001070:	230c      	movs	r3, #12
 8001072:	613b      	str	r3, [r7, #16]
 8001074:	2302      	movs	r3, #2
 8001076:	617b      	str	r3, [r7, #20]
 8001078:	2302      	movs	r3, #2
 800107a:	61fb      	str	r3, [r7, #28]
 800107c:	f107 0310 	add.w	r3, r7, #16
 8001080:	4619      	mov	r1, r3
 8001082:	4805      	ldr	r0, [pc, #20]	; (8001098 <HAL_UART_MspInit+0x78>)
 8001084:	f001 f880 	bl	8002188 <HAL_GPIO_Init>
 8001088:	bf00      	nop
 800108a:	3720      	adds	r7, #32
 800108c:	46bd      	mov	sp, r7
 800108e:	bd80      	pop	{r7, pc}
 8001090:	40004400 	.word	0x40004400
 8001094:	40021000 	.word	0x40021000
 8001098:	40010800 	.word	0x40010800

0800109c <NMI_Handler>:
 800109c:	b480      	push	{r7}
 800109e:	af00      	add	r7, sp, #0
 80010a0:	e7fe      	b.n	80010a0 <NMI_Handler+0x4>

080010a2 <HardFault_Handler>:
 80010a2:	b480      	push	{r7}
 80010a4:	af00      	add	r7, sp, #0
 80010a6:	e7fe      	b.n	80010a6 <HardFault_Handler+0x4>

080010a8 <MemManage_Handler>:
 80010a8:	b480      	push	{r7}
 80010aa:	af00      	add	r7, sp, #0
 80010ac:	e7fe      	b.n	80010ac <MemManage_Handler+0x4>

080010ae <BusFault_Handler>:
 80010ae:	b480      	push	{r7}
 80010b0:	af00      	add	r7, sp, #0
 80010b2:	e7fe      	b.n	80010b2 <BusFault_Handler+0x4>

080010b4 <UsageFault_Handler>:
 80010b4:	b480      	push	{r7}
 80010b6:	af00      	add	r7, sp, #0
 80010b8:	e7fe      	b.n	80010b8 <UsageFault_Handler+0x4>

080010ba <SVC_Handler>:
 80010ba:	b480      	push	{r7}
 80010bc:	af00      	add	r7, sp, #0
 80010be:	bf00      	nop
 80010c0:	46bd      	mov	sp, r7
 80010c2:	bc80      	pop	{r7}
 80010c4:	4770      	bx	lr

080010c6 <DebugMon_Handler>:
 80010c6:	b480      	push	{r7}
 80010c8:	af00      	add	r7, sp, #0
 80010ca:	bf00      	nop
 80010cc:	46bd      	mov	sp, r7
 80010ce:	bc80      	pop	{r7}
 80010d0:	4770      	bx	lr

080010d2 <PendSV_Handler>:
 80010d2:	b480      	push	{r7}
 80010d4:	af00      	add	r7, sp, #0
 80010d6:	bf00      	nop
 80010d8:	46bd      	mov	sp, r7
 80010da:	bc80      	pop	{r7}
 80010dc:	4770      	bx	lr

080010de <SysTick_Handler>:
 80010de:	b580      	push	{r7, lr}
 80010e0:	af00      	add	r7, sp, #0
 80010e2:	f000 f949 	bl	8001378 <HAL_IncTick>
 80010e6:	bf00      	nop
 80010e8:	bd80      	pop	{r7, pc}

080010ea <EXTI4_IRQHandler>:
 80010ea:	b580      	push	{r7, lr}
 80010ec:	af00      	add	r7, sp, #0
 80010ee:	2010      	movs	r0, #16
 80010f0:	f001 f9e6 	bl	80024c0 <HAL_GPIO_EXTI_IRQHandler>
 80010f4:	bf00      	nop
 80010f6:	bd80      	pop	{r7, pc}

080010f8 <DMA1_Channel1_IRQHandler>:
 80010f8:	b580      	push	{r7, lr}
 80010fa:	af00      	add	r7, sp, #0
 80010fc:	4802      	ldr	r0, [pc, #8]	; (8001108 <DMA1_Channel1_IRQHandler+0x10>)
 80010fe:	f000 ff0f 	bl	8001f20 <HAL_DMA_IRQHandler>
 8001102:	bf00      	nop
 8001104:	bd80      	pop	{r7, pc}
 8001106:	bf00      	nop
 8001108:	200000c0 	.word	0x200000c0

0800110c <EXTI9_5_IRQHandler>:
 800110c:	b580      	push	{r7, lr}
 800110e:	af00      	add	r7, sp, #0
 8001110:	f44f 7080 	mov.w	r0, #256	; 0x100
 8001114:	f001 f9d4 	bl	80024c0 <HAL_GPIO_EXTI_IRQHandler>
 8001118:	bf00      	nop
 800111a:	bd80      	pop	{r7, pc}

0800111c <TIM2_IRQHandler>:
 800111c:	b580      	push	{r7, lr}
 800111e:	af00      	add	r7, sp, #0
 8001120:	4802      	ldr	r0, [pc, #8]	; (800112c <TIM2_IRQHandler+0x10>)
 8001122:	f002 fec3 	bl	8003eac <HAL_TIM_IRQHandler>
 8001126:	bf00      	nop
 8001128:	bd80      	pop	{r7, pc}
 800112a:	bf00      	nop
 800112c:	200001a0 	.word	0x200001a0

08001130 <TIM3_IRQHandler>:
 8001130:	b580      	push	{r7, lr}
 8001132:	af00      	add	r7, sp, #0
 8001134:	4802      	ldr	r0, [pc, #8]	; (8001140 <TIM3_IRQHandler+0x10>)
 8001136:	f002 feb9 	bl	8003eac <HAL_TIM_IRQHandler>
 800113a:	bf00      	nop
 800113c:	bd80      	pop	{r7, pc}
 800113e:	bf00      	nop
 8001140:	200001e8 	.word	0x200001e8

08001144 <EXTI15_10_IRQHandler>:
 8001144:	b580      	push	{r7, lr}
 8001146:	af00      	add	r7, sp, #0
 8001148:	f44f 5000 	mov.w	r0, #8192	; 0x2000
 800114c:	f001 f9b8 	bl	80024c0 <HAL_GPIO_EXTI_IRQHandler>
 8001150:	bf00      	nop
 8001152:	bd80      	pop	{r7, pc}

08001154 <_read>:
 8001154:	b580      	push	{r7, lr}
 8001156:	b086      	sub	sp, #24
 8001158:	af00      	add	r7, sp, #0
 800115a:	60f8      	str	r0, [r7, #12]
 800115c:	60b9      	str	r1, [r7, #8]
 800115e:	607a      	str	r2, [r7, #4]
 8001160:	2300      	movs	r3, #0
 8001162:	617b      	str	r3, [r7, #20]
 8001164:	e00a      	b.n	800117c <_read+0x28>
 8001166:	f3af 8000 	nop.w
 800116a:	4601      	mov	r1, r0
 800116c:	68bb      	ldr	r3, [r7, #8]
 800116e:	1c5a      	adds	r2, r3, #1
 8001170:	60ba      	str	r2, [r7, #8]
 8001172:	b2ca      	uxtb	r2, r1
 8001174:	701a      	strb	r2, [r3, #0]
 8001176:	697b      	ldr	r3, [r7, #20]
 8001178:	3301      	adds	r3, #1
 800117a:	617b      	str	r3, [r7, #20]
 800117c:	697a      	ldr	r2, [r7, #20]
 800117e:	687b      	ldr	r3, [r7, #4]
 8001180:	429a      	cmp	r2, r3
 8001182:	dbf0      	blt.n	8001166 <_read+0x12>
 8001184:	687b      	ldr	r3, [r7, #4]
 8001186:	4618      	mov	r0, r3
 8001188:	3718      	adds	r7, #24
 800118a:	46bd      	mov	sp, r7
 800118c:	bd80      	pop	{r7, pc}

0800118e <_write>:
 800118e:	b580      	push	{r7, lr}
 8001190:	b086      	sub	sp, #24
 8001192:	af00      	add	r7, sp, #0
 8001194:	60f8      	str	r0, [r7, #12]
 8001196:	60b9      	str	r1, [r7, #8]
 8001198:	607a      	str	r2, [r7, #4]
 800119a:	2300      	movs	r3, #0
 800119c:	617b      	str	r3, [r7, #20]
 800119e:	e009      	b.n	80011b4 <_write+0x26>
 80011a0:	68bb      	ldr	r3, [r7, #8]
 80011a2:	1c5a      	adds	r2, r3, #1
 80011a4:	60ba      	str	r2, [r7, #8]
 80011a6:	781b      	ldrb	r3, [r3, #0]
 80011a8:	4618      	mov	r0, r3
 80011aa:	f7ff f943 	bl	8000434 <__io_putchar>
 80011ae:	697b      	ldr	r3, [r7, #20]
 80011b0:	3301      	adds	r3, #1
 80011b2:	617b      	str	r3, [r7, #20]
 80011b4:	697a      	ldr	r2, [r7, #20]
 80011b6:	687b      	ldr	r3, [r7, #4]
 80011b8:	429a      	cmp	r2, r3
 80011ba:	dbf1      	blt.n	80011a0 <_write+0x12>
 80011bc:	687b      	ldr	r3, [r7, #4]
 80011be:	4618      	mov	r0, r3
 80011c0:	3718      	adds	r7, #24
 80011c2:	46bd      	mov	sp, r7
 80011c4:	bd80      	pop	{r7, pc}

080011c6 <_close>:
 80011c6:	b480      	push	{r7}
 80011c8:	b083      	sub	sp, #12
 80011ca:	af00      	add	r7, sp, #0
 80011cc:	6078      	str	r0, [r7, #4]
 80011ce:	f04f 33ff 	mov.w	r3, #4294967295
 80011d2:	4618      	mov	r0, r3
 80011d4:	370c      	adds	r7, #12
 80011d6:	46bd      	mov	sp, r7
 80011d8:	bc80      	pop	{r7}
 80011da:	4770      	bx	lr

080011dc <_fstat>:
 80011dc:	b480      	push	{r7}
 80011de:	b083      	sub	sp, #12
 80011e0:	af00      	add	r7, sp, #0
 80011e2:	6078      	str	r0, [r7, #4]
 80011e4:	6039      	str	r1, [r7, #0]
 80011e6:	683b      	ldr	r3, [r7, #0]
 80011e8:	f44f 5200 	mov.w	r2, #8192	; 0x2000
 80011ec:	605a      	str	r2, [r3, #4]
 80011ee:	2300      	movs	r3, #0
 80011f0:	4618      	mov	r0, r3
 80011f2:	370c      	adds	r7, #12
 80011f4:	46bd      	mov	sp, r7
 80011f6:	bc80      	pop	{r7}
 80011f8:	4770      	bx	lr

080011fa <_isatty>:
 80011fa:	b480      	push	{r7}
 80011fc:	b083      	sub	sp, #12
 80011fe:	af00      	add	r7, sp, #0
 8001200:	6078      	str	r0, [r7, #4]
 8001202:	2301      	movs	r3, #1
 8001204:	4618      	mov	r0, r3
 8001206:	370c      	adds	r7, #12
 8001208:	46bd      	mov	sp, r7
 800120a:	bc80      	pop	{r7}
 800120c:	4770      	bx	lr

0800120e <_lseek>:
 800120e:	b480      	push	{r7}
 8001210:	b085      	sub	sp, #20
 8001212:	af00      	add	r7, sp, #0
 8001214:	60f8      	str	r0, [r7, #12]
 8001216:	60b9      	str	r1, [r7, #8]
 8001218:	607a      	str	r2, [r7, #4]
 800121a:	2300      	movs	r3, #0
 800121c:	4618      	mov	r0, r3
 800121e:	3714      	adds	r7, #20
 8001220:	46bd      	mov	sp, r7
 8001222:	bc80      	pop	{r7}
 8001224:	4770      	bx	lr
	...

08001228 <_sbrk>:
 8001228:	b580      	push	{r7, lr}
 800122a:	b086      	sub	sp, #24
 800122c:	af00      	add	r7, sp, #0
 800122e:	6078      	str	r0, [r7, #4]
 8001230:	4a14      	ldr	r2, [pc, #80]	; (8001284 <_sbrk+0x5c>)
 8001232:	4b15      	ldr	r3, [pc, #84]	; (8001288 <_sbrk+0x60>)
 8001234:	1ad3      	subs	r3, r2, r3
 8001236:	617b      	str	r3, [r7, #20]
 8001238:	697b      	ldr	r3, [r7, #20]
 800123a:	613b      	str	r3, [r7, #16]
 800123c:	4b13      	ldr	r3, [pc, #76]	; (800128c <_sbrk+0x64>)
 800123e:	681b      	ldr	r3, [r3, #0]
 8001240:	2b00      	cmp	r3, #0
 8001242:	d102      	bne.n	800124a <_sbrk+0x22>
 8001244:	4b11      	ldr	r3, [pc, #68]	; (800128c <_sbrk+0x64>)
 8001246:	4a12      	ldr	r2, [pc, #72]	; (8001290 <_sbrk+0x68>)
 8001248:	601a      	str	r2, [r3, #0]
 800124a:	4b10      	ldr	r3, [pc, #64]	; (800128c <_sbrk+0x64>)
 800124c:	681a      	ldr	r2, [r3, #0]
 800124e:	687b      	ldr	r3, [r7, #4]
 8001250:	4413      	add	r3, r2
 8001252:	693a      	ldr	r2, [r7, #16]
 8001254:	429a      	cmp	r2, r3
 8001256:	d207      	bcs.n	8001268 <_sbrk+0x40>
 8001258:	f003 fe38 	bl	8004ecc <__errno>
 800125c:	4603      	mov	r3, r0
 800125e:	220c      	movs	r2, #12
 8001260:	601a      	str	r2, [r3, #0]
 8001262:	f04f 33ff 	mov.w	r3, #4294967295
 8001266:	e009      	b.n	800127c <_sbrk+0x54>
 8001268:	4b08      	ldr	r3, [pc, #32]	; (800128c <_sbrk+0x64>)
 800126a:	681b      	ldr	r3, [r3, #0]
 800126c:	60fb      	str	r3, [r7, #12]
 800126e:	4b07      	ldr	r3, [pc, #28]	; (800128c <_sbrk+0x64>)
 8001270:	681a      	ldr	r2, [r3, #0]
 8001272:	687b      	ldr	r3, [r7, #4]
 8001274:	4413      	add	r3, r2
 8001276:	4a05      	ldr	r2, [pc, #20]	; (800128c <_sbrk+0x64>)
 8001278:	6013      	str	r3, [r2, #0]
 800127a:	68fb      	ldr	r3, [r7, #12]
 800127c:	4618      	mov	r0, r3
 800127e:	3718      	adds	r7, #24
 8001280:	46bd      	mov	sp, r7
 8001282:	bd80      	pop	{r7, pc}
 8001284:	20005000 	.word	0x20005000
 8001288:	00000400 	.word	0x00000400
 800128c:	2000029c 	.word	0x2000029c
 8001290:	200002b8 	.word	0x200002b8

08001294 <SystemInit>:
 8001294:	b480      	push	{r7}
 8001296:	af00      	add	r7, sp, #0
 8001298:	bf00      	nop
 800129a:	46bd      	mov	sp, r7
 800129c:	bc80      	pop	{r7}
 800129e:	4770      	bx	lr

080012a0 <Reset_Handler>:
 80012a0:	480c      	ldr	r0, [pc, #48]	; (80012d4 <LoopFillZerobss+0x12>)
 80012a2:	490d      	ldr	r1, [pc, #52]	; (80012d8 <LoopFillZerobss+0x16>)
 80012a4:	4a0d      	ldr	r2, [pc, #52]	; (80012dc <LoopFillZerobss+0x1a>)
 80012a6:	2300      	movs	r3, #0
 80012a8:	e002      	b.n	80012b0 <LoopCopyDataInit>

080012aa <CopyDataInit>:
 80012aa:	58d4      	ldr	r4, [r2, r3]
 80012ac:	50c4      	str	r4, [r0, r3]
 80012ae:	3304      	adds	r3, #4

080012b0 <LoopCopyDataInit>:
 80012b0:	18c4      	adds	r4, r0, r3
 80012b2:	428c      	cmp	r4, r1
 80012b4:	d3f9      	bcc.n	80012aa <CopyDataInit>
 80012b6:	4a0a      	ldr	r2, [pc, #40]	; (80012e0 <LoopFillZerobss+0x1e>)
 80012b8:	4c0a      	ldr	r4, [pc, #40]	; (80012e4 <LoopFillZerobss+0x22>)
 80012ba:	2300      	movs	r3, #0
 80012bc:	e001      	b.n	80012c2 <LoopFillZerobss>

080012be <FillZerobss>:
 80012be:	6013      	str	r3, [r2, #0]
 80012c0:	3204      	adds	r2, #4

080012c2 <LoopFillZerobss>:
 80012c2:	42a2      	cmp	r2, r4
 80012c4:	d3fb      	bcc.n	80012be <FillZerobss>
 80012c6:	f7ff ffe5 	bl	8001294 <SystemInit>
 80012ca:	f003 fe05 	bl	8004ed8 <__libc_init_array>
 80012ce:	f7ff f8c3 	bl	8000458 <main>
 80012d2:	4770      	bx	lr
 80012d4:	20000000 	.word	0x20000000
 80012d8:	20000074 	.word	0x20000074
 80012dc:	08006358 	.word	0x08006358
 80012e0:	20000074 	.word	0x20000074
 80012e4:	200002b4 	.word	0x200002b4

080012e8 <ADC1_2_IRQHandler>:
 80012e8:	e7fe      	b.n	80012e8 <ADC1_2_IRQHandler>
	...

080012ec <HAL_Init>:
 80012ec:	b580      	push	{r7, lr}
 80012ee:	af00      	add	r7, sp, #0
 80012f0:	4b08      	ldr	r3, [pc, #32]	; (8001314 <HAL_Init+0x28>)
 80012f2:	681b      	ldr	r3, [r3, #0]
 80012f4:	4a07      	ldr	r2, [pc, #28]	; (8001314 <HAL_Init+0x28>)
 80012f6:	f043 0310 	orr.w	r3, r3, #16
 80012fa:	6013      	str	r3, [r2, #0]
 80012fc:	2003      	movs	r0, #3
 80012fe:	f000 fd13 	bl	8001d28 <HAL_NVIC_SetPriorityGrouping>
 8001302:	2000      	movs	r0, #0
 8001304:	f000 f808 	bl	8001318 <HAL_InitTick>
 8001308:	f7ff fd0a 	bl	8000d20 <HAL_MspInit>
 800130c:	2300      	movs	r3, #0
 800130e:	4618      	mov	r0, r3
 8001310:	bd80      	pop	{r7, pc}
 8001312:	bf00      	nop
 8001314:	40022000 	.word	0x40022000

08001318 <HAL_InitTick>:
 8001318:	b580      	push	{r7, lr}
 800131a:	b082      	sub	sp, #8
 800131c:	af00      	add	r7, sp, #0
 800131e:	6078      	str	r0, [r7, #4]
 8001320:	4b12      	ldr	r3, [pc, #72]	; (800136c <HAL_InitTick+0x54>)
 8001322:	681a      	ldr	r2, [r3, #0]
 8001324:	4b12      	ldr	r3, [pc, #72]	; (8001370 <HAL_InitTick+0x58>)
 8001326:	781b      	ldrb	r3, [r3, #0]
 8001328:	4619      	mov	r1, r3
 800132a:	f44f 737a 	mov.w	r3, #1000	; 0x3e8
 800132e:	fbb3 f3f1 	udiv	r3, r3, r1
 8001332:	fbb2 f3f3 	udiv	r3, r2, r3
 8001336:	4618      	mov	r0, r3
 8001338:	f000 fd2b 	bl	8001d92 <HAL_SYSTICK_Config>
 800133c:	4603      	mov	r3, r0
 800133e:	2b00      	cmp	r3, #0
 8001340:	d001      	beq.n	8001346 <HAL_InitTick+0x2e>
 8001342:	2301      	movs	r3, #1
 8001344:	e00e      	b.n	8001364 <HAL_InitTick+0x4c>
 8001346:	687b      	ldr	r3, [r7, #4]
 8001348:	2b0f      	cmp	r3, #15
 800134a:	d80a      	bhi.n	8001362 <HAL_InitTick+0x4a>
 800134c:	2200      	movs	r2, #0
 800134e:	6879      	ldr	r1, [r7, #4]
 8001350:	f04f 30ff 	mov.w	r0, #4294967295
 8001354:	f000 fcf3 	bl	8001d3e <HAL_NVIC_SetPriority>
 8001358:	4a06      	ldr	r2, [pc, #24]	; (8001374 <HAL_InitTick+0x5c>)
 800135a:	687b      	ldr	r3, [r7, #4]
 800135c:	6013      	str	r3, [r2, #0]
 800135e:	2300      	movs	r3, #0
 8001360:	e000      	b.n	8001364 <HAL_InitTick+0x4c>
 8001362:	2301      	movs	r3, #1
 8001364:	4618      	mov	r0, r3
 8001366:	3708      	adds	r7, #8
 8001368:	46bd      	mov	sp, r7
 800136a:	bd80      	pop	{r7, pc}
 800136c:	20000004 	.word	0x20000004
 8001370:	2000000c 	.word	0x2000000c
 8001374:	20000008 	.word	0x20000008

08001378 <HAL_IncTick>:
 8001378:	b480      	push	{r7}
 800137a:	af00      	add	r7, sp, #0
 800137c:	4b05      	ldr	r3, [pc, #20]	; (8001394 <HAL_IncTick+0x1c>)
 800137e:	781b      	ldrb	r3, [r3, #0]
 8001380:	461a      	mov	r2, r3
 8001382:	4b05      	ldr	r3, [pc, #20]	; (8001398 <HAL_IncTick+0x20>)
 8001384:	681b      	ldr	r3, [r3, #0]
 8001386:	4413      	add	r3, r2
 8001388:	4a03      	ldr	r2, [pc, #12]	; (8001398 <HAL_IncTick+0x20>)
 800138a:	6013      	str	r3, [r2, #0]
 800138c:	bf00      	nop
 800138e:	46bd      	mov	sp, r7
 8001390:	bc80      	pop	{r7}
 8001392:	4770      	bx	lr
 8001394:	2000000c 	.word	0x2000000c
 8001398:	200002a0 	.word	0x200002a0

0800139c <HAL_GetTick>:
 800139c:	b480      	push	{r7}
 800139e:	af00      	add	r7, sp, #0
 80013a0:	4b02      	ldr	r3, [pc, #8]	; (80013ac <HAL_GetTick+0x10>)
 80013a2:	681b      	ldr	r3, [r3, #0]
 80013a4:	4618      	mov	r0, r3
 80013a6:	46bd      	mov	sp, r7
 80013a8:	bc80      	pop	{r7}
 80013aa:	4770      	bx	lr
 80013ac:	200002a0 	.word	0x200002a0

080013b0 <HAL_Delay>:
 80013b0:	b580      	push	{r7, lr}
 80013b2:	b084      	sub	sp, #16
 80013b4:	af00      	add	r7, sp, #0
 80013b6:	6078      	str	r0, [r7, #4]
 80013b8:	f7ff fff0 	bl	800139c <HAL_GetTick>
 80013bc:	60b8      	str	r0, [r7, #8]
 80013be:	687b      	ldr	r3, [r7, #4]
 80013c0:	60fb      	str	r3, [r7, #12]
 80013c2:	68fb      	ldr	r3, [r7, #12]
 80013c4:	f1b3 3fff 	cmp.w	r3, #4294967295
 80013c8:	d005      	beq.n	80013d6 <HAL_Delay+0x26>
 80013ca:	4b0a      	ldr	r3, [pc, #40]	; (80013f4 <HAL_Delay+0x44>)
 80013cc:	781b      	ldrb	r3, [r3, #0]
 80013ce:	461a      	mov	r2, r3
 80013d0:	68fb      	ldr	r3, [r7, #12]
 80013d2:	4413      	add	r3, r2
 80013d4:	60fb      	str	r3, [r7, #12]
 80013d6:	bf00      	nop
 80013d8:	f7ff ffe0 	bl	800139c <HAL_GetTick>
 80013dc:	4602      	mov	r2, r0
 80013de:	68bb      	ldr	r3, [r7, #8]
 80013e0:	1ad3      	subs	r3, r2, r3
 80013e2:	68fa      	ldr	r2, [r7, #12]
 80013e4:	429a      	cmp	r2, r3
 80013e6:	d8f7      	bhi.n	80013d8 <HAL_Delay+0x28>
 80013e8:	bf00      	nop
 80013ea:	bf00      	nop
 80013ec:	3710      	adds	r7, #16
 80013ee:	46bd      	mov	sp, r7
 80013f0:	bd80      	pop	{r7, pc}
 80013f2:	bf00      	nop
 80013f4:	2000000c 	.word	0x2000000c

080013f8 <HAL_ADC_Init>:
 80013f8:	b580      	push	{r7, lr}
 80013fa:	b086      	sub	sp, #24
 80013fc:	af00      	add	r7, sp, #0
 80013fe:	6078      	str	r0, [r7, #4]
 8001400:	2300      	movs	r3, #0
 8001402:	75fb      	strb	r3, [r7, #23]
 8001404:	2300      	movs	r3, #0
 8001406:	613b      	str	r3, [r7, #16]
 8001408:	2300      	movs	r3, #0
 800140a:	60bb      	str	r3, [r7, #8]
 800140c:	2300      	movs	r3, #0
 800140e:	60fb      	str	r3, [r7, #12]
 8001410:	687b      	ldr	r3, [r7, #4]
 8001412:	2b00      	cmp	r3, #0
 8001414:	d101      	bne.n	800141a <HAL_ADC_Init+0x22>
 8001416:	2301      	movs	r3, #1
 8001418:	e0be      	b.n	8001598 <HAL_ADC_Init+0x1a0>
 800141a:	687b      	ldr	r3, [r7, #4]
 800141c:	689b      	ldr	r3, [r3, #8]
 800141e:	2b00      	cmp	r3, #0
 8001420:	687b      	ldr	r3, [r7, #4]
 8001422:	6a9b      	ldr	r3, [r3, #40]	; 0x28
 8001424:	2b00      	cmp	r3, #0
 8001426:	d109      	bne.n	800143c <HAL_ADC_Init+0x44>
 8001428:	687b      	ldr	r3, [r7, #4]
 800142a:	2200      	movs	r2, #0
 800142c:	62da      	str	r2, [r3, #44]	; 0x2c
 800142e:	687b      	ldr	r3, [r7, #4]
 8001430:	2200      	movs	r2, #0
 8001432:	f883 2024 	strb.w	r2, [r3, #36]	; 0x24
 8001436:	6878      	ldr	r0, [r7, #4]
 8001438:	f7ff fca4 	bl	8000d84 <HAL_ADC_MspInit>
 800143c:	6878      	ldr	r0, [r7, #4]
 800143e:	f000 faff 	bl	8001a40 <ADC_ConversionStop_Disable>
 8001442:	4603      	mov	r3, r0
 8001444:	75fb      	strb	r3, [r7, #23]
 8001446:	687b      	ldr	r3, [r7, #4]
 8001448:	6a9b      	ldr	r3, [r3, #40]	; 0x28
 800144a:	f003 0310 	and.w	r3, r3, #16
 800144e:	2b00      	cmp	r3, #0
 8001450:	f040 8099 	bne.w	8001586 <HAL_ADC_Init+0x18e>
 8001454:	7dfb      	ldrb	r3, [r7, #23]
 8001456:	2b00      	cmp	r3, #0
 8001458:	f040 8095 	bne.w	8001586 <HAL_ADC_Init+0x18e>
 800145c:	687b      	ldr	r3, [r7, #4]
 800145e:	6a9b      	ldr	r3, [r3, #40]	; 0x28
 8001460:	f423 5388 	bic.w	r3, r3, #4352	; 0x1100
 8001464:	f023 0302 	bic.w	r3, r3, #2
 8001468:	f043 0202 	orr.w	r2, r3, #2
 800146c:	687b      	ldr	r3, [r7, #4]
 800146e:	629a      	str	r2, [r3, #40]	; 0x28
 8001470:	687b      	ldr	r3, [r7, #4]
 8001472:	685a      	ldr	r2, [r3, #4]
 8001474:	687b      	ldr	r3, [r7, #4]
 8001476:	69db      	ldr	r3, [r3, #28]
 8001478:	431a      	orrs	r2, r3
 800147a:	687b      	ldr	r3, [r7, #4]
 800147c:	7b1b      	ldrb	r3, [r3, #12]
 800147e:	005b      	lsls	r3, r3, #1
 8001480:	4313      	orrs	r3, r2
 8001482:	68ba      	ldr	r2, [r7, #8]
 8001484:	4313      	orrs	r3, r2
 8001486:	60bb      	str	r3, [r7, #8]
 8001488:	687b      	ldr	r3, [r7, #4]
 800148a:	689b      	ldr	r3, [r3, #8]
 800148c:	f5b3 7f80 	cmp.w	r3, #256	; 0x100
 8001490:	d003      	beq.n	800149a <HAL_ADC_Init+0xa2>
 8001492:	687b      	ldr	r3, [r7, #4]
 8001494:	689b      	ldr	r3, [r3, #8]
 8001496:	2b01      	cmp	r3, #1
 8001498:	d102      	bne.n	80014a0 <HAL_ADC_Init+0xa8>
 800149a:	f44f 7380 	mov.w	r3, #256	; 0x100
 800149e:	e000      	b.n	80014a2 <HAL_ADC_Init+0xaa>
 80014a0:	2300      	movs	r3, #0
 80014a2:	693a      	ldr	r2, [r7, #16]
 80014a4:	4313      	orrs	r3, r2
 80014a6:	613b      	str	r3, [r7, #16]
 80014a8:	687b      	ldr	r3, [r7, #4]
 80014aa:	7d1b      	ldrb	r3, [r3, #20]
 80014ac:	2b01      	cmp	r3, #1
 80014ae:	d119      	bne.n	80014e4 <HAL_ADC_Init+0xec>
 80014b0:	687b      	ldr	r3, [r7, #4]
 80014b2:	7b1b      	ldrb	r3, [r3, #12]
 80014b4:	2b00      	cmp	r3, #0
 80014b6:	d109      	bne.n	80014cc <HAL_ADC_Init+0xd4>
 80014b8:	687b      	ldr	r3, [r7, #4]
 80014ba:	699b      	ldr	r3, [r3, #24]
 80014bc:	3b01      	subs	r3, #1
 80014be:	035a      	lsls	r2, r3, #13
 80014c0:	693b      	ldr	r3, [r7, #16]
 80014c2:	4313      	orrs	r3, r2
 80014c4:	f443 6300 	orr.w	r3, r3, #2048	; 0x800
 80014c8:	613b      	str	r3, [r7, #16]
 80014ca:	e00b      	b.n	80014e4 <HAL_ADC_Init+0xec>
 80014cc:	687b      	ldr	r3, [r7, #4]
 80014ce:	6a9b      	ldr	r3, [r3, #40]	; 0x28
 80014d0:	f043 0220 	orr.w	r2, r3, #32
 80014d4:	687b      	ldr	r3, [r7, #4]
 80014d6:	629a      	str	r2, [r3, #40]	; 0x28
 80014d8:	687b      	ldr	r3, [r7, #4]
 80014da:	6adb      	ldr	r3, [r3, #44]	; 0x2c
 80014dc:	f043 0201 	orr.w	r2, r3, #1
 80014e0:	687b      	ldr	r3, [r7, #4]
 80014e2:	62da      	str	r2, [r3, #44]	; 0x2c
 80014e4:	687b      	ldr	r3, [r7, #4]
 80014e6:	681b      	ldr	r3, [r3, #0]
 80014e8:	685b      	ldr	r3, [r3, #4]
 80014ea:	f423 4169 	bic.w	r1, r3, #59648	; 0xe900
 80014ee:	687b      	ldr	r3, [r7, #4]
 80014f0:	681b      	ldr	r3, [r3, #0]
 80014f2:	693a      	ldr	r2, [r7, #16]
 80014f4:	430a      	orrs	r2, r1
 80014f6:	605a      	str	r2, [r3, #4]
 80014f8:	687b      	ldr	r3, [r7, #4]
 80014fa:	681b      	ldr	r3, [r3, #0]
 80014fc:	689a      	ldr	r2, [r3, #8]
 80014fe:	4b28      	ldr	r3, [pc, #160]	; (80015a0 <HAL_ADC_Init+0x1a8>)
 8001500:	4013      	ands	r3, r2
 8001502:	687a      	ldr	r2, [r7, #4]
 8001504:	6812      	ldr	r2, [r2, #0]
 8001506:	68b9      	ldr	r1, [r7, #8]
 8001508:	430b      	orrs	r3, r1
 800150a:	6093      	str	r3, [r2, #8]
 800150c:	687b      	ldr	r3, [r7, #4]
 800150e:	689b      	ldr	r3, [r3, #8]
 8001510:	f5b3 7f80 	cmp.w	r3, #256	; 0x100
 8001514:	d003      	beq.n	800151e <HAL_ADC_Init+0x126>
 8001516:	687b      	ldr	r3, [r7, #4]
 8001518:	689b      	ldr	r3, [r3, #8]
 800151a:	2b01      	cmp	r3, #1
 800151c:	d104      	bne.n	8001528 <HAL_ADC_Init+0x130>
 800151e:	687b      	ldr	r3, [r7, #4]
 8001520:	691b      	ldr	r3, [r3, #16]
 8001522:	3b01      	subs	r3, #1
 8001524:	051b      	lsls	r3, r3, #20
 8001526:	60fb      	str	r3, [r7, #12]
 8001528:	687b      	ldr	r3, [r7, #4]
 800152a:	681b      	ldr	r3, [r3, #0]
 800152c:	6adb      	ldr	r3, [r3, #44]	; 0x2c
 800152e:	f423 0170 	bic.w	r1, r3, #15728640	; 0xf00000
 8001532:	687b      	ldr	r3, [r7, #4]
 8001534:	681b      	ldr	r3, [r3, #0]
 8001536:	68fa      	ldr	r2, [r7, #12]
 8001538:	430a      	orrs	r2, r1
 800153a:	62da      	str	r2, [r3, #44]	; 0x2c
 800153c:	687b      	ldr	r3, [r7, #4]
 800153e:	681b      	ldr	r3, [r3, #0]
 8001540:	689a      	ldr	r2, [r3, #8]
 8001542:	4b18      	ldr	r3, [pc, #96]	; (80015a4 <HAL_ADC_Init+0x1ac>)
 8001544:	4013      	ands	r3, r2
 8001546:	68ba      	ldr	r2, [r7, #8]
 8001548:	429a      	cmp	r2, r3
 800154a:	d10b      	bne.n	8001564 <HAL_ADC_Init+0x16c>
 800154c:	687b      	ldr	r3, [r7, #4]
 800154e:	2200      	movs	r2, #0
 8001550:	62da      	str	r2, [r3, #44]	; 0x2c
 8001552:	687b      	ldr	r3, [r7, #4]
 8001554:	6a9b      	ldr	r3, [r3, #40]	; 0x28
 8001556:	f023 0303 	bic.w	r3, r3, #3
 800155a:	f043 0201 	orr.w	r2, r3, #1
 800155e:	687b      	ldr	r3, [r7, #4]
 8001560:	629a      	str	r2, [r3, #40]	; 0x28
 8001562:	e018      	b.n	8001596 <HAL_ADC_Init+0x19e>
 8001564:	687b      	ldr	r3, [r7, #4]
 8001566:	6a9b      	ldr	r3, [r3, #40]	; 0x28
 8001568:	f023 0312 	bic.w	r3, r3, #18
 800156c:	f043 0210 	orr.w	r2, r3, #16
 8001570:	687b      	ldr	r3, [r7, #4]
 8001572:	629a      	str	r2, [r3, #40]	; 0x28
 8001574:	687b      	ldr	r3, [r7, #4]
 8001576:	6adb      	ldr	r3, [r3, #44]	; 0x2c
 8001578:	f043 0201 	orr.w	r2, r3, #1
 800157c:	687b      	ldr	r3, [r7, #4]
 800157e:	62da      	str	r2, [r3, #44]	; 0x2c
 8001580:	2301      	movs	r3, #1
 8001582:	75fb      	strb	r3, [r7, #23]
 8001584:	e007      	b.n	8001596 <HAL_ADC_Init+0x19e>
 8001586:	687b      	ldr	r3, [r7, #4]
 8001588:	6a9b      	ldr	r3, [r3, #40]	; 0x28
 800158a:	f043 0210 	orr.w	r2, r3, #16
 800158e:	687b      	ldr	r3, [r7, #4]
 8001590:	629a      	str	r2, [r3, #40]	; 0x28
 8001592:	2301      	movs	r3, #1
 8001594:	75fb      	strb	r3, [r7, #23]
 8001596:	7dfb      	ldrb	r3, [r7, #23]
 8001598:	4618      	mov	r0, r3
 800159a:	3718      	adds	r7, #24
 800159c:	46bd      	mov	sp, r7
 800159e:	bd80      	pop	{r7, pc}
 80015a0:	ffe1f7fd 	.word	0xffe1f7fd
 80015a4:	ff1f0efe 	.word	0xff1f0efe

080015a8 <HAL_ADC_Start_DMA>:
 80015a8:	b580      	push	{r7, lr}
 80015aa:	b086      	sub	sp, #24
 80015ac:	af00      	add	r7, sp, #0
 80015ae:	60f8      	str	r0, [r7, #12]
 80015b0:	60b9      	str	r1, [r7, #8]
 80015b2:	607a      	str	r2, [r7, #4]
 80015b4:	2300      	movs	r3, #0
 80015b6:	75fb      	strb	r3, [r7, #23]
 80015b8:	68fb      	ldr	r3, [r7, #12]
 80015ba:	681b      	ldr	r3, [r3, #0]
 80015bc:	4a64      	ldr	r2, [pc, #400]	; (8001750 <HAL_ADC_Start_DMA+0x1a8>)
 80015be:	4293      	cmp	r3, r2
 80015c0:	d004      	beq.n	80015cc <HAL_ADC_Start_DMA+0x24>
 80015c2:	68fb      	ldr	r3, [r7, #12]
 80015c4:	681b      	ldr	r3, [r3, #0]
 80015c6:	4a63      	ldr	r2, [pc, #396]	; (8001754 <HAL_ADC_Start_DMA+0x1ac>)
 80015c8:	4293      	cmp	r3, r2
 80015ca:	d106      	bne.n	80015da <HAL_ADC_Start_DMA+0x32>
 80015cc:	4b60      	ldr	r3, [pc, #384]	; (8001750 <HAL_ADC_Start_DMA+0x1a8>)
 80015ce:	685b      	ldr	r3, [r3, #4]
 80015d0:	f403 2370 	and.w	r3, r3, #983040	; 0xf0000
 80015d4:	2b00      	cmp	r3, #0
 80015d6:	f040 80b3 	bne.w	8001740 <HAL_ADC_Start_DMA+0x198>
 80015da:	68fb      	ldr	r3, [r7, #12]
 80015dc:	f893 3024 	ldrb.w	r3, [r3, #36]	; 0x24
 80015e0:	2b01      	cmp	r3, #1
 80015e2:	d101      	bne.n	80015e8 <HAL_ADC_Start_DMA+0x40>
 80015e4:	2302      	movs	r3, #2
 80015e6:	e0ae      	b.n	8001746 <HAL_ADC_Start_DMA+0x19e>
 80015e8:	68fb      	ldr	r3, [r7, #12]
 80015ea:	2201      	movs	r2, #1
 80015ec:	f883 2024 	strb.w	r2, [r3, #36]	; 0x24
 80015f0:	68f8      	ldr	r0, [r7, #12]
 80015f2:	f000 f9cb 	bl	800198c <ADC_Enable>
 80015f6:	4603      	mov	r3, r0
 80015f8:	75fb      	strb	r3, [r7, #23]
 80015fa:	7dfb      	ldrb	r3, [r7, #23]
 80015fc:	2b00      	cmp	r3, #0
 80015fe:	f040 809a 	bne.w	8001736 <HAL_ADC_Start_DMA+0x18e>
 8001602:	68fb      	ldr	r3, [r7, #12]
 8001604:	6a9b      	ldr	r3, [r3, #40]	; 0x28
 8001606:	f423 6370 	bic.w	r3, r3, #3840	; 0xf00
 800160a:	f023 0301 	bic.w	r3, r3, #1
 800160e:	f443 7280 	orr.w	r2, r3, #256	; 0x100
 8001612:	68fb      	ldr	r3, [r7, #12]
 8001614:	629a      	str	r2, [r3, #40]	; 0x28
 8001616:	68fb      	ldr	r3, [r7, #12]
 8001618:	681b      	ldr	r3, [r3, #0]
 800161a:	4a4e      	ldr	r2, [pc, #312]	; (8001754 <HAL_ADC_Start_DMA+0x1ac>)
 800161c:	4293      	cmp	r3, r2
 800161e:	d105      	bne.n	800162c <HAL_ADC_Start_DMA+0x84>
 8001620:	4b4b      	ldr	r3, [pc, #300]	; (8001750 <HAL_ADC_Start_DMA+0x1a8>)
 8001622:	685b      	ldr	r3, [r3, #4]
 8001624:	f403 2370 	and.w	r3, r3, #983040	; 0xf0000
 8001628:	2b00      	cmp	r3, #0
 800162a:	d115      	bne.n	8001658 <HAL_ADC_Start_DMA+0xb0>
 800162c:	68fb      	ldr	r3, [r7, #12]
 800162e:	6a9b      	ldr	r3, [r3, #40]	; 0x28
 8001630:	f423 1280 	bic.w	r2, r3, #1048576	; 0x100000
 8001634:	68fb      	ldr	r3, [r7, #12]
 8001636:	629a      	str	r2, [r3, #40]	; 0x28
 8001638:	68fb      	ldr	r3, [r7, #12]
 800163a:	681b      	ldr	r3, [r3, #0]
 800163c:	685b      	ldr	r3, [r3, #4]
 800163e:	f403 6380 	and.w	r3, r3, #1024	; 0x400
 8001642:	2b00      	cmp	r3, #0
 8001644:	d026      	beq.n	8001694 <HAL_ADC_Start_DMA+0xec>
 8001646:	68fb      	ldr	r3, [r7, #12]
 8001648:	6a9b      	ldr	r3, [r3, #40]	; 0x28
 800164a:	f423 5340 	bic.w	r3, r3, #12288	; 0x3000
 800164e:	f443 5280 	orr.w	r2, r3, #4096	; 0x1000
 8001652:	68fb      	ldr	r3, [r7, #12]
 8001654:	629a      	str	r2, [r3, #40]	; 0x28
 8001656:	e01d      	b.n	8001694 <HAL_ADC_Start_DMA+0xec>
 8001658:	68fb      	ldr	r3, [r7, #12]
 800165a:	6a9b      	ldr	r3, [r3, #40]	; 0x28
 800165c:	f443 1280 	orr.w	r2, r3, #1048576	; 0x100000
 8001660:	68fb      	ldr	r3, [r7, #12]
 8001662:	629a      	str	r2, [r3, #40]	; 0x28
 8001664:	68fb      	ldr	r3, [r7, #12]
 8001666:	681b      	ldr	r3, [r3, #0]
 8001668:	4a39      	ldr	r2, [pc, #228]	; (8001750 <HAL_ADC_Start_DMA+0x1a8>)
 800166a:	4293      	cmp	r3, r2
 800166c:	d004      	beq.n	8001678 <HAL_ADC_Start_DMA+0xd0>
 800166e:	68fb      	ldr	r3, [r7, #12]
 8001670:	681b      	ldr	r3, [r3, #0]
 8001672:	4a38      	ldr	r2, [pc, #224]	; (8001754 <HAL_ADC_Start_DMA+0x1ac>)
 8001674:	4293      	cmp	r3, r2
 8001676:	d10d      	bne.n	8001694 <HAL_ADC_Start_DMA+0xec>
 8001678:	4b35      	ldr	r3, [pc, #212]	; (8001750 <HAL_ADC_Start_DMA+0x1a8>)
 800167a:	685b      	ldr	r3, [r3, #4]
 800167c:	f403 6380 	and.w	r3, r3, #1024	; 0x400
 8001680:	2b00      	cmp	r3, #0
 8001682:	d007      	beq.n	8001694 <HAL_ADC_Start_DMA+0xec>
 8001684:	68fb      	ldr	r3, [r7, #12]
 8001686:	6a9b      	ldr	r3, [r3, #40]	; 0x28
 8001688:	f423 5340 	bic.w	r3, r3, #12288	; 0x3000
 800168c:	f443 5280 	orr.w	r2, r3, #4096	; 0x1000
 8001690:	68fb      	ldr	r3, [r7, #12]
 8001692:	629a      	str	r2, [r3, #40]	; 0x28
 8001694:	68fb      	ldr	r3, [r7, #12]
 8001696:	6a9b      	ldr	r3, [r3, #40]	; 0x28
 8001698:	f403 5380 	and.w	r3, r3, #4096	; 0x1000
 800169c:	2b00      	cmp	r3, #0
 800169e:	d006      	beq.n	80016ae <HAL_ADC_Start_DMA+0x106>
 80016a0:	68fb      	ldr	r3, [r7, #12]
 80016a2:	6adb      	ldr	r3, [r3, #44]	; 0x2c
 80016a4:	f023 0206 	bic.w	r2, r3, #6
 80016a8:	68fb      	ldr	r3, [r7, #12]
 80016aa:	62da      	str	r2, [r3, #44]	; 0x2c
 80016ac:	e002      	b.n	80016b4 <HAL_ADC_Start_DMA+0x10c>
 80016ae:	68fb      	ldr	r3, [r7, #12]
 80016b0:	2200      	movs	r2, #0
 80016b2:	62da      	str	r2, [r3, #44]	; 0x2c
 80016b4:	68fb      	ldr	r3, [r7, #12]
 80016b6:	2200      	movs	r2, #0
 80016b8:	f883 2024 	strb.w	r2, [r3, #36]	; 0x24
 80016bc:	68fb      	ldr	r3, [r7, #12]
 80016be:	6a1b      	ldr	r3, [r3, #32]
 80016c0:	4a25      	ldr	r2, [pc, #148]	; (8001758 <HAL_ADC_Start_DMA+0x1b0>)
 80016c2:	629a      	str	r2, [r3, #40]	; 0x28
 80016c4:	68fb      	ldr	r3, [r7, #12]
 80016c6:	6a1b      	ldr	r3, [r3, #32]
 80016c8:	4a24      	ldr	r2, [pc, #144]	; (800175c <HAL_ADC_Start_DMA+0x1b4>)
 80016ca:	62da      	str	r2, [r3, #44]	; 0x2c
 80016cc:	68fb      	ldr	r3, [r7, #12]
 80016ce:	6a1b      	ldr	r3, [r3, #32]
 80016d0:	4a23      	ldr	r2, [pc, #140]	; (8001760 <HAL_ADC_Start_DMA+0x1b8>)
 80016d2:	631a      	str	r2, [r3, #48]	; 0x30
 80016d4:	68fb      	ldr	r3, [r7, #12]
 80016d6:	681b      	ldr	r3, [r3, #0]
 80016d8:	f06f 0202 	mvn.w	r2, #2
 80016dc:	601a      	str	r2, [r3, #0]
 80016de:	68fb      	ldr	r3, [r7, #12]
 80016e0:	681b      	ldr	r3, [r3, #0]
 80016e2:	689a      	ldr	r2, [r3, #8]
 80016e4:	68fb      	ldr	r3, [r7, #12]
 80016e6:	681b      	ldr	r3, [r3, #0]
 80016e8:	f442 7280 	orr.w	r2, r2, #256	; 0x100
 80016ec:	609a      	str	r2, [r3, #8]
 80016ee:	68fb      	ldr	r3, [r7, #12]
 80016f0:	6a18      	ldr	r0, [r3, #32]
 80016f2:	68fb      	ldr	r3, [r7, #12]
 80016f4:	681b      	ldr	r3, [r3, #0]
 80016f6:	334c      	adds	r3, #76	; 0x4c
 80016f8:	4619      	mov	r1, r3
 80016fa:	68ba      	ldr	r2, [r7, #8]
 80016fc:	687b      	ldr	r3, [r7, #4]
 80016fe:	f000 fbaf 	bl	8001e60 <HAL_DMA_Start_IT>
 8001702:	68fb      	ldr	r3, [r7, #12]
 8001704:	681b      	ldr	r3, [r3, #0]
 8001706:	689b      	ldr	r3, [r3, #8]
 8001708:	f403 2360 	and.w	r3, r3, #917504	; 0xe0000
 800170c:	f5b3 2f60 	cmp.w	r3, #917504	; 0xe0000
 8001710:	d108      	bne.n	8001724 <HAL_ADC_Start_DMA+0x17c>
 8001712:	68fb      	ldr	r3, [r7, #12]
 8001714:	681b      	ldr	r3, [r3, #0]
 8001716:	689a      	ldr	r2, [r3, #8]
 8001718:	68fb      	ldr	r3, [r7, #12]
 800171a:	681b      	ldr	r3, [r3, #0]
 800171c:	f442 02a0 	orr.w	r2, r2, #5242880	; 0x500000
 8001720:	609a      	str	r2, [r3, #8]
 8001722:	e00f      	b.n	8001744 <HAL_ADC_Start_DMA+0x19c>
 8001724:	68fb      	ldr	r3, [r7, #12]
 8001726:	681b      	ldr	r3, [r3, #0]
 8001728:	689a      	ldr	r2, [r3, #8]
 800172a:	68fb      	ldr	r3, [r7, #12]
 800172c:	681b      	ldr	r3, [r3, #0]
 800172e:	f442 1280 	orr.w	r2, r2, #1048576	; 0x100000
 8001732:	609a      	str	r2, [r3, #8]
 8001734:	e006      	b.n	8001744 <HAL_ADC_Start_DMA+0x19c>
 8001736:	68fb      	ldr	r3, [r7, #12]
 8001738:	2200      	movs	r2, #0
 800173a:	f883 2024 	strb.w	r2, [r3, #36]	; 0x24
 800173e:	e001      	b.n	8001744 <HAL_ADC_Start_DMA+0x19c>
 8001740:	2301      	movs	r3, #1
 8001742:	75fb      	strb	r3, [r7, #23]
 8001744:	7dfb      	ldrb	r3, [r7, #23]
 8001746:	4618      	mov	r0, r3
 8001748:	3718      	adds	r7, #24
 800174a:	46bd      	mov	sp, r7
 800174c:	bd80      	pop	{r7, pc}
 800174e:	bf00      	nop
 8001750:	40012400 	.word	0x40012400
 8001754:	40012800 	.word	0x40012800
 8001758:	08001ac3 	.word	0x08001ac3
 800175c:	08001b3f 	.word	0x08001b3f
 8001760:	08001b5b 	.word	0x08001b5b

08001764 <HAL_ADC_ConvCpltCallback>:
 8001764:	b480      	push	{r7}
 8001766:	b083      	sub	sp, #12
 8001768:	af00      	add	r7, sp, #0
 800176a:	6078      	str	r0, [r7, #4]
 800176c:	bf00      	nop
 800176e:	370c      	adds	r7, #12
 8001770:	46bd      	mov	sp, r7
 8001772:	bc80      	pop	{r7}
 8001774:	4770      	bx	lr

08001776 <HAL_ADC_ConvHalfCpltCallback>:
 8001776:	b480      	push	{r7}
 8001778:	b083      	sub	sp, #12
 800177a:	af00      	add	r7, sp, #0
 800177c:	6078      	str	r0, [r7, #4]
 800177e:	bf00      	nop
 8001780:	370c      	adds	r7, #12
 8001782:	46bd      	mov	sp, r7
 8001784:	bc80      	pop	{r7}
 8001786:	4770      	bx	lr

08001788 <HAL_ADC_ErrorCallback>:
 8001788:	b480      	push	{r7}
 800178a:	b083      	sub	sp, #12
 800178c:	af00      	add	r7, sp, #0
 800178e:	6078      	str	r0, [r7, #4]
 8001790:	bf00      	nop
 8001792:	370c      	adds	r7, #12
 8001794:	46bd      	mov	sp, r7
 8001796:	bc80      	pop	{r7}
 8001798:	4770      	bx	lr
	...

0800179c <HAL_ADC_ConfigChannel>:
 800179c:	b480      	push	{r7}
 800179e:	b085      	sub	sp, #20
 80017a0:	af00      	add	r7, sp, #0
 80017a2:	6078      	str	r0, [r7, #4]
 80017a4:	6039      	str	r1, [r7, #0]
 80017a6:	2300      	movs	r3, #0
 80017a8:	73fb      	strb	r3, [r7, #15]
 80017aa:	2300      	movs	r3, #0
 80017ac:	60bb      	str	r3, [r7, #8]
 80017ae:	687b      	ldr	r3, [r7, #4]
 80017b0:	f893 3024 	ldrb.w	r3, [r3, #36]	; 0x24
 80017b4:	2b01      	cmp	r3, #1
 80017b6:	d101      	bne.n	80017bc <HAL_ADC_ConfigChannel+0x20>
 80017b8:	2302      	movs	r3, #2
 80017ba:	e0dc      	b.n	8001976 <HAL_ADC_ConfigChannel+0x1da>
 80017bc:	687b      	ldr	r3, [r7, #4]
 80017be:	2201      	movs	r2, #1
 80017c0:	f883 2024 	strb.w	r2, [r3, #36]	; 0x24
 80017c4:	683b      	ldr	r3, [r7, #0]
 80017c6:	685b      	ldr	r3, [r3, #4]
 80017c8:	2b06      	cmp	r3, #6
 80017ca:	d81c      	bhi.n	8001806 <HAL_ADC_ConfigChannel+0x6a>
 80017cc:	687b      	ldr	r3, [r7, #4]
 80017ce:	681b      	ldr	r3, [r3, #0]
 80017d0:	6b59      	ldr	r1, [r3, #52]	; 0x34
 80017d2:	683b      	ldr	r3, [r7, #0]
 80017d4:	685a      	ldr	r2, [r3, #4]
 80017d6:	4613      	mov	r3, r2
 80017d8:	009b      	lsls	r3, r3, #2
 80017da:	4413      	add	r3, r2
 80017dc:	3b05      	subs	r3, #5
 80017de:	221f      	movs	r2, #31
 80017e0:	fa02 f303 	lsl.w	r3, r2, r3
 80017e4:	43db      	mvns	r3, r3
 80017e6:	4019      	ands	r1, r3
 80017e8:	683b      	ldr	r3, [r7, #0]
 80017ea:	6818      	ldr	r0, [r3, #0]
 80017ec:	683b      	ldr	r3, [r7, #0]
 80017ee:	685a      	ldr	r2, [r3, #4]
 80017f0:	4613      	mov	r3, r2
 80017f2:	009b      	lsls	r3, r3, #2
 80017f4:	4413      	add	r3, r2
 80017f6:	3b05      	subs	r3, #5
 80017f8:	fa00 f203 	lsl.w	r2, r0, r3
 80017fc:	687b      	ldr	r3, [r7, #4]
 80017fe:	681b      	ldr	r3, [r3, #0]
 8001800:	430a      	orrs	r2, r1
 8001802:	635a      	str	r2, [r3, #52]	; 0x34
 8001804:	e03c      	b.n	8001880 <HAL_ADC_ConfigChannel+0xe4>
 8001806:	683b      	ldr	r3, [r7, #0]
 8001808:	685b      	ldr	r3, [r3, #4]
 800180a:	2b0c      	cmp	r3, #12
 800180c:	d81c      	bhi.n	8001848 <HAL_ADC_ConfigChannel+0xac>
 800180e:	687b      	ldr	r3, [r7, #4]
 8001810:	681b      	ldr	r3, [r3, #0]
 8001812:	6b19      	ldr	r1, [r3, #48]	; 0x30
 8001814:	683b      	ldr	r3, [r7, #0]
 8001816:	685a      	ldr	r2, [r3, #4]
 8001818:	4613      	mov	r3, r2
 800181a:	009b      	lsls	r3, r3, #2
 800181c:	4413      	add	r3, r2
 800181e:	3b23      	subs	r3, #35	; 0x23
 8001820:	221f      	movs	r2, #31
 8001822:	fa02 f303 	lsl.w	r3, r2, r3
 8001826:	43db      	mvns	r3, r3
 8001828:	4019      	ands	r1, r3
 800182a:	683b      	ldr	r3, [r7, #0]
 800182c:	6818      	ldr	r0, [r3, #0]
 800182e:	683b      	ldr	r3, [r7, #0]
 8001830:	685a      	ldr	r2, [r3, #4]
 8001832:	4613      	mov	r3, r2
 8001834:	009b      	lsls	r3, r3, #2
 8001836:	4413      	add	r3, r2
 8001838:	3b23      	subs	r3, #35	; 0x23
 800183a:	fa00 f203 	lsl.w	r2, r0, r3
 800183e:	687b      	ldr	r3, [r7, #4]
 8001840:	681b      	ldr	r3, [r3, #0]
 8001842:	430a      	orrs	r2, r1
 8001844:	631a      	str	r2, [r3, #48]	; 0x30
 8001846:	e01b      	b.n	8001880 <HAL_ADC_ConfigChannel+0xe4>
 8001848:	687b      	ldr	r3, [r7, #4]
 800184a:	681b      	ldr	r3, [r3, #0]
 800184c:	6ad9      	ldr	r1, [r3, #44]	; 0x2c
 800184e:	683b      	ldr	r3, [r7, #0]
 8001850:	685a      	ldr	r2, [r3, #4]
 8001852:	4613      	mov	r3, r2
 8001854:	009b      	lsls	r3, r3, #2
 8001856:	4413      	add	r3, r2
 8001858:	3b41      	subs	r3, #65	; 0x41
 800185a:	221f      	movs	r2, #31
 800185c:	fa02 f303 	lsl.w	r3, r2, r3
 8001860:	43db      	mvns	r3, r3
 8001862:	4019      	ands	r1, r3
 8001864:	683b      	ldr	r3, [r7, #0]
 8001866:	6818      	ldr	r0, [r3, #0]
 8001868:	683b      	ldr	r3, [r7, #0]
 800186a:	685a      	ldr	r2, [r3, #4]
 800186c:	4613      	mov	r3, r2
 800186e:	009b      	lsls	r3, r3, #2
 8001870:	4413      	add	r3, r2
 8001872:	3b41      	subs	r3, #65	; 0x41
 8001874:	fa00 f203 	lsl.w	r2, r0, r3
 8001878:	687b      	ldr	r3, [r7, #4]
 800187a:	681b      	ldr	r3, [r3, #0]
 800187c:	430a      	orrs	r2, r1
 800187e:	62da      	str	r2, [r3, #44]	; 0x2c
 8001880:	683b      	ldr	r3, [r7, #0]
 8001882:	681b      	ldr	r3, [r3, #0]
 8001884:	2b09      	cmp	r3, #9
 8001886:	d91c      	bls.n	80018c2 <HAL_ADC_ConfigChannel+0x126>
 8001888:	687b      	ldr	r3, [r7, #4]
 800188a:	681b      	ldr	r3, [r3, #0]
 800188c:	68d9      	ldr	r1, [r3, #12]
 800188e:	683b      	ldr	r3, [r7, #0]
 8001890:	681a      	ldr	r2, [r3, #0]
 8001892:	4613      	mov	r3, r2
 8001894:	005b      	lsls	r3, r3, #1
 8001896:	4413      	add	r3, r2
 8001898:	3b1e      	subs	r3, #30
 800189a:	2207      	movs	r2, #7
 800189c:	fa02 f303 	lsl.w	r3, r2, r3
 80018a0:	43db      	mvns	r3, r3
 80018a2:	4019      	ands	r1, r3
 80018a4:	683b      	ldr	r3, [r7, #0]
 80018a6:	6898      	ldr	r0, [r3, #8]
 80018a8:	683b      	ldr	r3, [r7, #0]
 80018aa:	681a      	ldr	r2, [r3, #0]
 80018ac:	4613      	mov	r3, r2
 80018ae:	005b      	lsls	r3, r3, #1
 80018b0:	4413      	add	r3, r2
 80018b2:	3b1e      	subs	r3, #30
 80018b4:	fa00 f203 	lsl.w	r2, r0, r3
 80018b8:	687b      	ldr	r3, [r7, #4]
 80018ba:	681b      	ldr	r3, [r3, #0]
 80018bc:	430a      	orrs	r2, r1
 80018be:	60da      	str	r2, [r3, #12]
 80018c0:	e019      	b.n	80018f6 <HAL_ADC_ConfigChannel+0x15a>
 80018c2:	687b      	ldr	r3, [r7, #4]
 80018c4:	681b      	ldr	r3, [r3, #0]
 80018c6:	6919      	ldr	r1, [r3, #16]
 80018c8:	683b      	ldr	r3, [r7, #0]
 80018ca:	681a      	ldr	r2, [r3, #0]
 80018cc:	4613      	mov	r3, r2
 80018ce:	005b      	lsls	r3, r3, #1
 80018d0:	4413      	add	r3, r2
 80018d2:	2207      	movs	r2, #7
 80018d4:	fa02 f303 	lsl.w	r3, r2, r3
 80018d8:	43db      	mvns	r3, r3
 80018da:	4019      	ands	r1, r3
 80018dc:	683b      	ldr	r3, [r7, #0]
 80018de:	6898      	ldr	r0, [r3, #8]
 80018e0:	683b      	ldr	r3, [r7, #0]
 80018e2:	681a      	ldr	r2, [r3, #0]
 80018e4:	4613      	mov	r3, r2
 80018e6:	005b      	lsls	r3, r3, #1
 80018e8:	4413      	add	r3, r2
 80018ea:	fa00 f203 	lsl.w	r2, r0, r3
 80018ee:	687b      	ldr	r3, [r7, #4]
 80018f0:	681b      	ldr	r3, [r3, #0]
 80018f2:	430a      	orrs	r2, r1
 80018f4:	611a      	str	r2, [r3, #16]
 80018f6:	683b      	ldr	r3, [r7, #0]
 80018f8:	681b      	ldr	r3, [r3, #0]
 80018fa:	2b10      	cmp	r3, #16
 80018fc:	d003      	beq.n	8001906 <HAL_ADC_ConfigChannel+0x16a>
 80018fe:	683b      	ldr	r3, [r7, #0]
 8001900:	681b      	ldr	r3, [r3, #0]
 8001902:	2b11      	cmp	r3, #17
 8001904:	d132      	bne.n	800196c <HAL_ADC_ConfigChannel+0x1d0>
 8001906:	687b      	ldr	r3, [r7, #4]
 8001908:	681b      	ldr	r3, [r3, #0]
 800190a:	4a1d      	ldr	r2, [pc, #116]	; (8001980 <HAL_ADC_ConfigChannel+0x1e4>)
 800190c:	4293      	cmp	r3, r2
 800190e:	d125      	bne.n	800195c <HAL_ADC_ConfigChannel+0x1c0>
 8001910:	687b      	ldr	r3, [r7, #4]
 8001912:	681b      	ldr	r3, [r3, #0]
 8001914:	689b      	ldr	r3, [r3, #8]
 8001916:	f403 0300 	and.w	r3, r3, #8388608	; 0x800000
 800191a:	2b00      	cmp	r3, #0
 800191c:	d126      	bne.n	800196c <HAL_ADC_ConfigChannel+0x1d0>
 800191e:	687b      	ldr	r3, [r7, #4]
 8001920:	681b      	ldr	r3, [r3, #0]
 8001922:	689a      	ldr	r2, [r3, #8]
 8001924:	687b      	ldr	r3, [r7, #4]
 8001926:	681b      	ldr	r3, [r3, #0]
 8001928:	f442 0200 	orr.w	r2, r2, #8388608	; 0x800000
 800192c:	609a      	str	r2, [r3, #8]
 800192e:	683b      	ldr	r3, [r7, #0]
 8001930:	681b      	ldr	r3, [r3, #0]
 8001932:	2b10      	cmp	r3, #16
 8001934:	d11a      	bne.n	800196c <HAL_ADC_ConfigChannel+0x1d0>
 8001936:	4b13      	ldr	r3, [pc, #76]	; (8001984 <HAL_ADC_ConfigChannel+0x1e8>)
 8001938:	681b      	ldr	r3, [r3, #0]
 800193a:	4a13      	ldr	r2, [pc, #76]	; (8001988 <HAL_ADC_ConfigChannel+0x1ec>)
 800193c:	fba2 2303 	umull	r2, r3, r2, r3
 8001940:	0c9a      	lsrs	r2, r3, #18
 8001942:	4613      	mov	r3, r2
 8001944:	009b      	lsls	r3, r3, #2
 8001946:	4413      	add	r3, r2
 8001948:	005b      	lsls	r3, r3, #1
 800194a:	60bb      	str	r3, [r7, #8]
 800194c:	e002      	b.n	8001954 <HAL_ADC_ConfigChannel+0x1b8>
 800194e:	68bb      	ldr	r3, [r7, #8]
 8001950:	3b01      	subs	r3, #1
 8001952:	60bb      	str	r3, [r7, #8]
 8001954:	68bb      	ldr	r3, [r7, #8]
 8001956:	2b00      	cmp	r3, #0
 8001958:	d1f9      	bne.n	800194e <HAL_ADC_ConfigChannel+0x1b2>
 800195a:	e007      	b.n	800196c <HAL_ADC_ConfigChannel+0x1d0>
 800195c:	687b      	ldr	r3, [r7, #4]
 800195e:	6a9b      	ldr	r3, [r3, #40]	; 0x28
 8001960:	f043 0220 	orr.w	r2, r3, #32
 8001964:	687b      	ldr	r3, [r7, #4]
 8001966:	629a      	str	r2, [r3, #40]	; 0x28
 8001968:	2301      	movs	r3, #1
 800196a:	73fb      	strb	r3, [r7, #15]
 800196c:	687b      	ldr	r3, [r7, #4]
 800196e:	2200      	movs	r2, #0
 8001970:	f883 2024 	strb.w	r2, [r3, #36]	; 0x24
 8001974:	7bfb      	ldrb	r3, [r7, #15]
 8001976:	4618      	mov	r0, r3
 8001978:	3714      	adds	r7, #20
 800197a:	46bd      	mov	sp, r7
 800197c:	bc80      	pop	{r7}
 800197e:	4770      	bx	lr
 8001980:	40012400 	.word	0x40012400
 8001984:	20000004 	.word	0x20000004
 8001988:	431bde83 	.word	0x431bde83

0800198c <ADC_Enable>:
 800198c:	b580      	push	{r7, lr}
 800198e:	b084      	sub	sp, #16
 8001990:	af00      	add	r7, sp, #0
 8001992:	6078      	str	r0, [r7, #4]
 8001994:	2300      	movs	r3, #0
 8001996:	60fb      	str	r3, [r7, #12]
 8001998:	2300      	movs	r3, #0
 800199a:	60bb      	str	r3, [r7, #8]
 800199c:	687b      	ldr	r3, [r7, #4]
 800199e:	681b      	ldr	r3, [r3, #0]
 80019a0:	689b      	ldr	r3, [r3, #8]
 80019a2:	f003 0301 	and.w	r3, r3, #1
 80019a6:	2b01      	cmp	r3, #1
 80019a8:	d040      	beq.n	8001a2c <ADC_Enable+0xa0>
 80019aa:	687b      	ldr	r3, [r7, #4]
 80019ac:	681b      	ldr	r3, [r3, #0]
 80019ae:	689a      	ldr	r2, [r3, #8]
 80019b0:	687b      	ldr	r3, [r7, #4]
 80019b2:	681b      	ldr	r3, [r3, #0]
 80019b4:	f042 0201 	orr.w	r2, r2, #1
 80019b8:	609a      	str	r2, [r3, #8]
 80019ba:	4b1f      	ldr	r3, [pc, #124]	; (8001a38 <ADC_Enable+0xac>)
 80019bc:	681b      	ldr	r3, [r3, #0]
 80019be:	4a1f      	ldr	r2, [pc, #124]	; (8001a3c <ADC_Enable+0xb0>)
 80019c0:	fba2 2303 	umull	r2, r3, r2, r3
 80019c4:	0c9b      	lsrs	r3, r3, #18
 80019c6:	60bb      	str	r3, [r7, #8]
 80019c8:	e002      	b.n	80019d0 <ADC_Enable+0x44>
 80019ca:	68bb      	ldr	r3, [r7, #8]
 80019cc:	3b01      	subs	r3, #1
 80019ce:	60bb      	str	r3, [r7, #8]
 80019d0:	68bb      	ldr	r3, [r7, #8]
 80019d2:	2b00      	cmp	r3, #0
 80019d4:	d1f9      	bne.n	80019ca <ADC_Enable+0x3e>
 80019d6:	f7ff fce1 	bl	800139c <HAL_GetTick>
 80019da:	60f8      	str	r0, [r7, #12]
 80019dc:	e01f      	b.n	8001a1e <ADC_Enable+0x92>
 80019de:	f7ff fcdd 	bl	800139c <HAL_GetTick>
 80019e2:	4602      	mov	r2, r0
 80019e4:	68fb      	ldr	r3, [r7, #12]
 80019e6:	1ad3      	subs	r3, r2, r3
 80019e8:	2b02      	cmp	r3, #2
 80019ea:	d918      	bls.n	8001a1e <ADC_Enable+0x92>
 80019ec:	687b      	ldr	r3, [r7, #4]
 80019ee:	681b      	ldr	r3, [r3, #0]
 80019f0:	689b      	ldr	r3, [r3, #8]
 80019f2:	f003 0301 	and.w	r3, r3, #1
 80019f6:	2b01      	cmp	r3, #1
 80019f8:	d011      	beq.n	8001a1e <ADC_Enable+0x92>
 80019fa:	687b      	ldr	r3, [r7, #4]
 80019fc:	6a9b      	ldr	r3, [r3, #40]	; 0x28
 80019fe:	f043 0210 	orr.w	r2, r3, #16
 8001a02:	687b      	ldr	r3, [r7, #4]
 8001a04:	629a      	str	r2, [r3, #40]	; 0x28
 8001a06:	687b      	ldr	r3, [r7, #4]
 8001a08:	6adb      	ldr	r3, [r3, #44]	; 0x2c
 8001a0a:	f043 0201 	orr.w	r2, r3, #1
 8001a0e:	687b      	ldr	r3, [r7, #4]
 8001a10:	62da      	str	r2, [r3, #44]	; 0x2c
 8001a12:	687b      	ldr	r3, [r7, #4]
 8001a14:	2200      	movs	r2, #0
 8001a16:	f883 2024 	strb.w	r2, [r3, #36]	; 0x24
 8001a1a:	2301      	movs	r3, #1
 8001a1c:	e007      	b.n	8001a2e <ADC_Enable+0xa2>
 8001a1e:	687b      	ldr	r3, [r7, #4]
 8001a20:	681b      	ldr	r3, [r3, #0]
 8001a22:	689b      	ldr	r3, [r3, #8]
 8001a24:	f003 0301 	and.w	r3, r3, #1
 8001a28:	2b01      	cmp	r3, #1
 8001a2a:	d1d8      	bne.n	80019de <ADC_Enable+0x52>
 8001a2c:	2300      	movs	r3, #0
 8001a2e:	4618      	mov	r0, r3
 8001a30:	3710      	adds	r7, #16
 8001a32:	46bd      	mov	sp, r7
 8001a34:	bd80      	pop	{r7, pc}
 8001a36:	bf00      	nop
 8001a38:	20000004 	.word	0x20000004
 8001a3c:	431bde83 	.word	0x431bde83

08001a40 <ADC_ConversionStop_Disable>:
 8001a40:	b580      	push	{r7, lr}
 8001a42:	b084      	sub	sp, #16
 8001a44:	af00      	add	r7, sp, #0
 8001a46:	6078      	str	r0, [r7, #4]
 8001a48:	2300      	movs	r3, #0
 8001a4a:	60fb      	str	r3, [r7, #12]
 8001a4c:	687b      	ldr	r3, [r7, #4]
 8001a4e:	681b      	ldr	r3, [r3, #0]
 8001a50:	689b      	ldr	r3, [r3, #8]
 8001a52:	f003 0301 	and.w	r3, r3, #1
 8001a56:	2b01      	cmp	r3, #1
 8001a58:	d12e      	bne.n	8001ab8 <ADC_ConversionStop_Disable+0x78>
 8001a5a:	687b      	ldr	r3, [r7, #4]
 8001a5c:	681b      	ldr	r3, [r3, #0]
 8001a5e:	689a      	ldr	r2, [r3, #8]
 8001a60:	687b      	ldr	r3, [r7, #4]
 8001a62:	681b      	ldr	r3, [r3, #0]
 8001a64:	f022 0201 	bic.w	r2, r2, #1
 8001a68:	609a      	str	r2, [r3, #8]
 8001a6a:	f7ff fc97 	bl	800139c <HAL_GetTick>
 8001a6e:	60f8      	str	r0, [r7, #12]
 8001a70:	e01b      	b.n	8001aaa <ADC_ConversionStop_Disable+0x6a>
 8001a72:	f7ff fc93 	bl	800139c <HAL_GetTick>
 8001a76:	4602      	mov	r2, r0
 8001a78:	68fb      	ldr	r3, [r7, #12]
 8001a7a:	1ad3      	subs	r3, r2, r3
 8001a7c:	2b02      	cmp	r3, #2
 8001a7e:	d914      	bls.n	8001aaa <ADC_ConversionStop_Disable+0x6a>
 8001a80:	687b      	ldr	r3, [r7, #4]
 8001a82:	681b      	ldr	r3, [r3, #0]
 8001a84:	689b      	ldr	r3, [r3, #8]
 8001a86:	f003 0301 	and.w	r3, r3, #1
 8001a8a:	2b01      	cmp	r3, #1
 8001a8c:	d10d      	bne.n	8001aaa <ADC_ConversionStop_Disable+0x6a>
 8001a8e:	687b      	ldr	r3, [r7, #4]
 8001a90:	6a9b      	ldr	r3, [r3, #40]	; 0x28
 8001a92:	f043 0210 	orr.w	r2, r3, #16
 8001a96:	687b      	ldr	r3, [r7, #4]
 8001a98:	629a      	str	r2, [r3, #40]	; 0x28
 8001a9a:	687b      	ldr	r3, [r7, #4]
 8001a9c:	6adb      	ldr	r3, [r3, #44]	; 0x2c
 8001a9e:	f043 0201 	orr.w	r2, r3, #1
 8001aa2:	687b      	ldr	r3, [r7, #4]
 8001aa4:	62da      	str	r2, [r3, #44]	; 0x2c
 8001aa6:	2301      	movs	r3, #1
 8001aa8:	e007      	b.n	8001aba <ADC_ConversionStop_Disable+0x7a>
 8001aaa:	687b      	ldr	r3, [r7, #4]
 8001aac:	681b      	ldr	r3, [r3, #0]
 8001aae:	689b      	ldr	r3, [r3, #8]
 8001ab0:	f003 0301 	and.w	r3, r3, #1
 8001ab4:	2b01      	cmp	r3, #1
 8001ab6:	d0dc      	beq.n	8001a72 <ADC_ConversionStop_Disable+0x32>
 8001ab8:	2300      	movs	r3, #0
 8001aba:	4618      	mov	r0, r3
 8001abc:	3710      	adds	r7, #16
 8001abe:	46bd      	mov	sp, r7
 8001ac0:	bd80      	pop	{r7, pc}

08001ac2 <ADC_DMAConvCplt>:
 8001ac2:	b580      	push	{r7, lr}
 8001ac4:	b084      	sub	sp, #16
 8001ac6:	af00      	add	r7, sp, #0
 8001ac8:	6078      	str	r0, [r7, #4]
 8001aca:	687b      	ldr	r3, [r7, #4]
 8001acc:	6a5b      	ldr	r3, [r3, #36]	; 0x24
 8001ace:	60fb      	str	r3, [r7, #12]
 8001ad0:	68fb      	ldr	r3, [r7, #12]
 8001ad2:	6a9b      	ldr	r3, [r3, #40]	; 0x28
 8001ad4:	f003 0350 	and.w	r3, r3, #80	; 0x50
 8001ad8:	2b00      	cmp	r3, #0
 8001ada:	d127      	bne.n	8001b2c <ADC_DMAConvCplt+0x6a>
 8001adc:	68fb      	ldr	r3, [r7, #12]
 8001ade:	6a9b      	ldr	r3, [r3, #40]	; 0x28
 8001ae0:	f443 7200 	orr.w	r2, r3, #512	; 0x200
 8001ae4:	68fb      	ldr	r3, [r7, #12]
 8001ae6:	629a      	str	r2, [r3, #40]	; 0x28
 8001ae8:	68fb      	ldr	r3, [r7, #12]
 8001aea:	681b      	ldr	r3, [r3, #0]
 8001aec:	689b      	ldr	r3, [r3, #8]
 8001aee:	f403 2360 	and.w	r3, r3, #917504	; 0xe0000
 8001af2:	f5b3 2f60 	cmp.w	r3, #917504	; 0xe0000
 8001af6:	d115      	bne.n	8001b24 <ADC_DMAConvCplt+0x62>
 8001af8:	68fb      	ldr	r3, [r7, #12]
 8001afa:	7b1b      	ldrb	r3, [r3, #12]
 8001afc:	2b00      	cmp	r3, #0
 8001afe:	d111      	bne.n	8001b24 <ADC_DMAConvCplt+0x62>
 8001b00:	68fb      	ldr	r3, [r7, #12]
 8001b02:	6a9b      	ldr	r3, [r3, #40]	; 0x28
 8001b04:	f423 7280 	bic.w	r2, r3, #256	; 0x100
 8001b08:	68fb      	ldr	r3, [r7, #12]
 8001b0a:	629a      	str	r2, [r3, #40]	; 0x28
 8001b0c:	68fb      	ldr	r3, [r7, #12]
 8001b0e:	6a9b      	ldr	r3, [r3, #40]	; 0x28
 8001b10:	f403 5380 	and.w	r3, r3, #4096	; 0x1000
 8001b14:	2b00      	cmp	r3, #0
 8001b16:	d105      	bne.n	8001b24 <ADC_DMAConvCplt+0x62>
 8001b18:	68fb      	ldr	r3, [r7, #12]
 8001b1a:	6a9b      	ldr	r3, [r3, #40]	; 0x28
 8001b1c:	f043 0201 	orr.w	r2, r3, #1
 8001b20:	68fb      	ldr	r3, [r7, #12]
 8001b22:	629a      	str	r2, [r3, #40]	; 0x28
 8001b24:	68f8      	ldr	r0, [r7, #12]
 8001b26:	f7ff fe1d 	bl	8001764 <HAL_ADC_ConvCpltCallback>
 8001b2a:	e004      	b.n	8001b36 <ADC_DMAConvCplt+0x74>
 8001b2c:	68fb      	ldr	r3, [r7, #12]
 8001b2e:	6a1b      	ldr	r3, [r3, #32]
 8001b30:	6b1b      	ldr	r3, [r3, #48]	; 0x30
 8001b32:	6878      	ldr	r0, [r7, #4]
 8001b34:	4798      	blx	r3
 8001b36:	bf00      	nop
 8001b38:	3710      	adds	r7, #16
 8001b3a:	46bd      	mov	sp, r7
 8001b3c:	bd80      	pop	{r7, pc}

08001b3e <ADC_DMAHalfConvCplt>:
 8001b3e:	b580      	push	{r7, lr}
 8001b40:	b084      	sub	sp, #16
 8001b42:	af00      	add	r7, sp, #0
 8001b44:	6078      	str	r0, [r7, #4]
 8001b46:	687b      	ldr	r3, [r7, #4]
 8001b48:	6a5b      	ldr	r3, [r3, #36]	; 0x24
 8001b4a:	60fb      	str	r3, [r7, #12]
 8001b4c:	68f8      	ldr	r0, [r7, #12]
 8001b4e:	f7ff fe12 	bl	8001776 <HAL_ADC_ConvHalfCpltCallback>
 8001b52:	bf00      	nop
 8001b54:	3710      	adds	r7, #16
 8001b56:	46bd      	mov	sp, r7
 8001b58:	bd80      	pop	{r7, pc}

08001b5a <ADC_DMAError>:
 8001b5a:	b580      	push	{r7, lr}
 8001b5c:	b084      	sub	sp, #16
 8001b5e:	af00      	add	r7, sp, #0
 8001b60:	6078      	str	r0, [r7, #4]
 8001b62:	687b      	ldr	r3, [r7, #4]
 8001b64:	6a5b      	ldr	r3, [r3, #36]	; 0x24
 8001b66:	60fb      	str	r3, [r7, #12]
 8001b68:	68fb      	ldr	r3, [r7, #12]
 8001b6a:	6a9b      	ldr	r3, [r3, #40]	; 0x28
 8001b6c:	f043 0240 	orr.w	r2, r3, #64	; 0x40
 8001b70:	68fb      	ldr	r3, [r7, #12]
 8001b72:	629a      	str	r2, [r3, #40]	; 0x28
 8001b74:	68fb      	ldr	r3, [r7, #12]
 8001b76:	6adb      	ldr	r3, [r3, #44]	; 0x2c
 8001b78:	f043 0204 	orr.w	r2, r3, #4
 8001b7c:	68fb      	ldr	r3, [r7, #12]
 8001b7e:	62da      	str	r2, [r3, #44]	; 0x2c
 8001b80:	68f8      	ldr	r0, [r7, #12]
 8001b82:	f7ff fe01 	bl	8001788 <HAL_ADC_ErrorCallback>
 8001b86:	bf00      	nop
 8001b88:	3710      	adds	r7, #16
 8001b8a:	46bd      	mov	sp, r7
 8001b8c:	bd80      	pop	{r7, pc}
	...

08001b90 <__NVIC_SetPriorityGrouping>:
 8001b90:	b480      	push	{r7}
 8001b92:	b085      	sub	sp, #20
 8001b94:	af00      	add	r7, sp, #0
 8001b96:	6078      	str	r0, [r7, #4]
 8001b98:	687b      	ldr	r3, [r7, #4]
 8001b9a:	f003 0307 	and.w	r3, r3, #7
 8001b9e:	60fb      	str	r3, [r7, #12]
 8001ba0:	4b0c      	ldr	r3, [pc, #48]	; (8001bd4 <__NVIC_SetPriorityGrouping+0x44>)
 8001ba2:	68db      	ldr	r3, [r3, #12]
 8001ba4:	60bb      	str	r3, [r7, #8]
 8001ba6:	68ba      	ldr	r2, [r7, #8]
 8001ba8:	f64f 03ff 	movw	r3, #63743	; 0xf8ff
 8001bac:	4013      	ands	r3, r2
 8001bae:	60bb      	str	r3, [r7, #8]
 8001bb0:	68fb      	ldr	r3, [r7, #12]
 8001bb2:	021a      	lsls	r2, r3, #8
 8001bb4:	68bb      	ldr	r3, [r7, #8]
 8001bb6:	4313      	orrs	r3, r2
 8001bb8:	f043 63bf 	orr.w	r3, r3, #100139008	; 0x5f80000
 8001bbc:	f443 3300 	orr.w	r3, r3, #131072	; 0x20000
 8001bc0:	60bb      	str	r3, [r7, #8]
 8001bc2:	4a04      	ldr	r2, [pc, #16]	; (8001bd4 <__NVIC_SetPriorityGrouping+0x44>)
 8001bc4:	68bb      	ldr	r3, [r7, #8]
 8001bc6:	60d3      	str	r3, [r2, #12]
 8001bc8:	bf00      	nop
 8001bca:	3714      	adds	r7, #20
 8001bcc:	46bd      	mov	sp, r7
 8001bce:	bc80      	pop	{r7}
 8001bd0:	4770      	bx	lr
 8001bd2:	bf00      	nop
 8001bd4:	e000ed00 	.word	0xe000ed00

08001bd8 <__NVIC_GetPriorityGrouping>:
 8001bd8:	b480      	push	{r7}
 8001bda:	af00      	add	r7, sp, #0
 8001bdc:	4b04      	ldr	r3, [pc, #16]	; (8001bf0 <__NVIC_GetPriorityGrouping+0x18>)
 8001bde:	68db      	ldr	r3, [r3, #12]
 8001be0:	0a1b      	lsrs	r3, r3, #8
 8001be2:	f003 0307 	and.w	r3, r3, #7
 8001be6:	4618      	mov	r0, r3
 8001be8:	46bd      	mov	sp, r7
 8001bea:	bc80      	pop	{r7}
 8001bec:	4770      	bx	lr
 8001bee:	bf00      	nop
 8001bf0:	e000ed00 	.word	0xe000ed00

08001bf4 <__NVIC_EnableIRQ>:
 8001bf4:	b480      	push	{r7}
 8001bf6:	b083      	sub	sp, #12
 8001bf8:	af00      	add	r7, sp, #0
 8001bfa:	4603      	mov	r3, r0
 8001bfc:	71fb      	strb	r3, [r7, #7]
 8001bfe:	f997 3007 	ldrsb.w	r3, [r7, #7]
 8001c02:	2b00      	cmp	r3, #0
 8001c04:	db0b      	blt.n	8001c1e <__NVIC_EnableIRQ+0x2a>
 8001c06:	79fb      	ldrb	r3, [r7, #7]
 8001c08:	f003 021f 	and.w	r2, r3, #31
 8001c0c:	4906      	ldr	r1, [pc, #24]	; (8001c28 <__NVIC_EnableIRQ+0x34>)
 8001c0e:	f997 3007 	ldrsb.w	r3, [r7, #7]
 8001c12:	095b      	lsrs	r3, r3, #5
 8001c14:	2001      	movs	r0, #1
 8001c16:	fa00 f202 	lsl.w	r2, r0, r2
 8001c1a:	f841 2023 	str.w	r2, [r1, r3, lsl #2]
 8001c1e:	bf00      	nop
 8001c20:	370c      	adds	r7, #12
 8001c22:	46bd      	mov	sp, r7
 8001c24:	bc80      	pop	{r7}
 8001c26:	4770      	bx	lr
 8001c28:	e000e100 	.word	0xe000e100

08001c2c <__NVIC_SetPriority>:
 8001c2c:	b480      	push	{r7}
 8001c2e:	b083      	sub	sp, #12
 8001c30:	af00      	add	r7, sp, #0
 8001c32:	4603      	mov	r3, r0
 8001c34:	6039      	str	r1, [r7, #0]
 8001c36:	71fb      	strb	r3, [r7, #7]
 8001c38:	f997 3007 	ldrsb.w	r3, [r7, #7]
 8001c3c:	2b00      	cmp	r3, #0
 8001c3e:	db0a      	blt.n	8001c56 <__NVIC_SetPriority+0x2a>
 8001c40:	683b      	ldr	r3, [r7, #0]
 8001c42:	b2da      	uxtb	r2, r3
 8001c44:	490c      	ldr	r1, [pc, #48]	; (8001c78 <__NVIC_SetPriority+0x4c>)
 8001c46:	f997 3007 	ldrsb.w	r3, [r7, #7]
 8001c4a:	0112      	lsls	r2, r2, #4
 8001c4c:	b2d2      	uxtb	r2, r2
 8001c4e:	440b      	add	r3, r1
 8001c50:	f883 2300 	strb.w	r2, [r3, #768]	; 0x300
 8001c54:	e00a      	b.n	8001c6c <__NVIC_SetPriority+0x40>
 8001c56:	683b      	ldr	r3, [r7, #0]
 8001c58:	b2da      	uxtb	r2, r3
 8001c5a:	4908      	ldr	r1, [pc, #32]	; (8001c7c <__NVIC_SetPriority+0x50>)
 8001c5c:	79fb      	ldrb	r3, [r7, #7]
 8001c5e:	f003 030f 	and.w	r3, r3, #15
 8001c62:	3b04      	subs	r3, #4
 8001c64:	0112      	lsls	r2, r2, #4
 8001c66:	b2d2      	uxtb	r2, r2
 8001c68:	440b      	add	r3, r1
 8001c6a:	761a      	strb	r2, [r3, #24]
 8001c6c:	bf00      	nop
 8001c6e:	370c      	adds	r7, #12
 8001c70:	46bd      	mov	sp, r7
 8001c72:	bc80      	pop	{r7}
 8001c74:	4770      	bx	lr
 8001c76:	bf00      	nop
 8001c78:	e000e100 	.word	0xe000e100
 8001c7c:	e000ed00 	.word	0xe000ed00

08001c80 <NVIC_EncodePriority>:
 8001c80:	b480      	push	{r7}
 8001c82:	b089      	sub	sp, #36	; 0x24
 8001c84:	af00      	add	r7, sp, #0
 8001c86:	60f8      	str	r0, [r7, #12]
 8001c88:	60b9      	str	r1, [r7, #8]
 8001c8a:	607a      	str	r2, [r7, #4]
 8001c8c:	68fb      	ldr	r3, [r7, #12]
 8001c8e:	f003 0307 	and.w	r3, r3, #7
 8001c92:	61fb      	str	r3, [r7, #28]
 8001c94:	69fb      	ldr	r3, [r7, #28]
 8001c96:	f1c3 0307 	rsb	r3, r3, #7
 8001c9a:	2b04      	cmp	r3, #4
 8001c9c:	bf28      	it	cs
 8001c9e:	2304      	movcs	r3, #4
 8001ca0:	61bb      	str	r3, [r7, #24]
 8001ca2:	69fb      	ldr	r3, [r7, #28]
 8001ca4:	3304      	adds	r3, #4
 8001ca6:	2b06      	cmp	r3, #6
 8001ca8:	d902      	bls.n	8001cb0 <NVIC_EncodePriority+0x30>
 8001caa:	69fb      	ldr	r3, [r7, #28]
 8001cac:	3b03      	subs	r3, #3
 8001cae:	e000      	b.n	8001cb2 <NVIC_EncodePriority+0x32>
 8001cb0:	2300      	movs	r3, #0
 8001cb2:	617b      	str	r3, [r7, #20]
 8001cb4:	f04f 32ff 	mov.w	r2, #4294967295
 8001cb8:	69bb      	ldr	r3, [r7, #24]
 8001cba:	fa02 f303 	lsl.w	r3, r2, r3
 8001cbe:	43da      	mvns	r2, r3
 8001cc0:	68bb      	ldr	r3, [r7, #8]
 8001cc2:	401a      	ands	r2, r3
 8001cc4:	697b      	ldr	r3, [r7, #20]
 8001cc6:	409a      	lsls	r2, r3
 8001cc8:	f04f 31ff 	mov.w	r1, #4294967295
 8001ccc:	697b      	ldr	r3, [r7, #20]
 8001cce:	fa01 f303 	lsl.w	r3, r1, r3
 8001cd2:	43d9      	mvns	r1, r3
 8001cd4:	687b      	ldr	r3, [r7, #4]
 8001cd6:	400b      	ands	r3, r1
 8001cd8:	4313      	orrs	r3, r2
 8001cda:	4618      	mov	r0, r3
 8001cdc:	3724      	adds	r7, #36	; 0x24
 8001cde:	46bd      	mov	sp, r7
 8001ce0:	bc80      	pop	{r7}
 8001ce2:	4770      	bx	lr

08001ce4 <SysTick_Config>:
 8001ce4:	b580      	push	{r7, lr}
 8001ce6:	b082      	sub	sp, #8
 8001ce8:	af00      	add	r7, sp, #0
 8001cea:	6078      	str	r0, [r7, #4]
 8001cec:	687b      	ldr	r3, [r7, #4]
 8001cee:	3b01      	subs	r3, #1
 8001cf0:	f1b3 7f80 	cmp.w	r3, #16777216	; 0x1000000
 8001cf4:	d301      	bcc.n	8001cfa <SysTick_Config+0x16>
 8001cf6:	2301      	movs	r3, #1
 8001cf8:	e00f      	b.n	8001d1a <SysTick_Config+0x36>
 8001cfa:	4a0a      	ldr	r2, [pc, #40]	; (8001d24 <SysTick_Config+0x40>)
 8001cfc:	687b      	ldr	r3, [r7, #4]
 8001cfe:	3b01      	subs	r3, #1
 8001d00:	6053      	str	r3, [r2, #4]
 8001d02:	210f      	movs	r1, #15
 8001d04:	f04f 30ff 	mov.w	r0, #4294967295
 8001d08:	f7ff ff90 	bl	8001c2c <__NVIC_SetPriority>
 8001d0c:	4b05      	ldr	r3, [pc, #20]	; (8001d24 <SysTick_Config+0x40>)
 8001d0e:	2200      	movs	r2, #0
 8001d10:	609a      	str	r2, [r3, #8]
 8001d12:	4b04      	ldr	r3, [pc, #16]	; (8001d24 <SysTick_Config+0x40>)
 8001d14:	2207      	movs	r2, #7
 8001d16:	601a      	str	r2, [r3, #0]
 8001d18:	2300      	movs	r3, #0
 8001d1a:	4618      	mov	r0, r3
 8001d1c:	3708      	adds	r7, #8
 8001d1e:	46bd      	mov	sp, r7
 8001d20:	bd80      	pop	{r7, pc}
 8001d22:	bf00      	nop
 8001d24:	e000e010 	.word	0xe000e010

08001d28 <HAL_NVIC_SetPriorityGrouping>:
 8001d28:	b580      	push	{r7, lr}
 8001d2a:	b082      	sub	sp, #8
 8001d2c:	af00      	add	r7, sp, #0
 8001d2e:	6078      	str	r0, [r7, #4]
 8001d30:	6878      	ldr	r0, [r7, #4]
 8001d32:	f7ff ff2d 	bl	8001b90 <__NVIC_SetPriorityGrouping>
 8001d36:	bf00      	nop
 8001d38:	3708      	adds	r7, #8
 8001d3a:	46bd      	mov	sp, r7
 8001d3c:	bd80      	pop	{r7, pc}

08001d3e <HAL_NVIC_SetPriority>:
 8001d3e:	b580      	push	{r7, lr}
 8001d40:	b086      	sub	sp, #24
 8001d42:	af00      	add	r7, sp, #0
 8001d44:	4603      	mov	r3, r0
 8001d46:	60b9      	str	r1, [r7, #8]
 8001d48:	607a      	str	r2, [r7, #4]
 8001d4a:	73fb      	strb	r3, [r7, #15]
 8001d4c:	2300      	movs	r3, #0
 8001d4e:	617b      	str	r3, [r7, #20]
 8001d50:	f7ff ff42 	bl	8001bd8 <__NVIC_GetPriorityGrouping>
 8001d54:	6178      	str	r0, [r7, #20]
 8001d56:	687a      	ldr	r2, [r7, #4]
 8001d58:	68b9      	ldr	r1, [r7, #8]
 8001d5a:	6978      	ldr	r0, [r7, #20]
 8001d5c:	f7ff ff90 	bl	8001c80 <NVIC_EncodePriority>
 8001d60:	4602      	mov	r2, r0
 8001d62:	f997 300f 	ldrsb.w	r3, [r7, #15]
 8001d66:	4611      	mov	r1, r2
 8001d68:	4618      	mov	r0, r3
 8001d6a:	f7ff ff5f 	bl	8001c2c <__NVIC_SetPriority>
 8001d6e:	bf00      	nop
 8001d70:	3718      	adds	r7, #24
 8001d72:	46bd      	mov	sp, r7
 8001d74:	bd80      	pop	{r7, pc}

08001d76 <HAL_NVIC_EnableIRQ>:
 8001d76:	b580      	push	{r7, lr}
 8001d78:	b082      	sub	sp, #8
 8001d7a:	af00      	add	r7, sp, #0
 8001d7c:	4603      	mov	r3, r0
 8001d7e:	71fb      	strb	r3, [r7, #7]
 8001d80:	f997 3007 	ldrsb.w	r3, [r7, #7]
 8001d84:	4618      	mov	r0, r3
 8001d86:	f7ff ff35 	bl	8001bf4 <__NVIC_EnableIRQ>
 8001d8a:	bf00      	nop
 8001d8c:	3708      	adds	r7, #8
 8001d8e:	46bd      	mov	sp, r7
 8001d90:	bd80      	pop	{r7, pc}

08001d92 <HAL_SYSTICK_Config>:
 8001d92:	b580      	push	{r7, lr}
 8001d94:	b082      	sub	sp, #8
 8001d96:	af00      	add	r7, sp, #0
 8001d98:	6078      	str	r0, [r7, #4]
 8001d9a:	6878      	ldr	r0, [r7, #4]
 8001d9c:	f7ff ffa2 	bl	8001ce4 <SysTick_Config>
 8001da0:	4603      	mov	r3, r0
 8001da2:	4618      	mov	r0, r3
 8001da4:	3708      	adds	r7, #8
 8001da6:	46bd      	mov	sp, r7
 8001da8:	bd80      	pop	{r7, pc}
	...

08001dac <HAL_DMA_Init>:
 8001dac:	b480      	push	{r7}
 8001dae:	b085      	sub	sp, #20
 8001db0:	af00      	add	r7, sp, #0
 8001db2:	6078      	str	r0, [r7, #4]
 8001db4:	2300      	movs	r3, #0
 8001db6:	60fb      	str	r3, [r7, #12]
 8001db8:	687b      	ldr	r3, [r7, #4]
 8001dba:	2b00      	cmp	r3, #0
 8001dbc:	d101      	bne.n	8001dc2 <HAL_DMA_Init+0x16>
 8001dbe:	2301      	movs	r3, #1
 8001dc0:	e043      	b.n	8001e4a <HAL_DMA_Init+0x9e>
 8001dc2:	687b      	ldr	r3, [r7, #4]
 8001dc4:	681b      	ldr	r3, [r3, #0]
 8001dc6:	461a      	mov	r2, r3
 8001dc8:	4b22      	ldr	r3, [pc, #136]	; (8001e54 <HAL_DMA_Init+0xa8>)
 8001dca:	4413      	add	r3, r2
 8001dcc:	4a22      	ldr	r2, [pc, #136]	; (8001e58 <HAL_DMA_Init+0xac>)
 8001dce:	fba2 2303 	umull	r2, r3, r2, r3
 8001dd2:	091b      	lsrs	r3, r3, #4
 8001dd4:	009a      	lsls	r2, r3, #2
 8001dd6:	687b      	ldr	r3, [r7, #4]
 8001dd8:	641a      	str	r2, [r3, #64]	; 0x40
 8001dda:	687b      	ldr	r3, [r7, #4]
 8001ddc:	4a1f      	ldr	r2, [pc, #124]	; (8001e5c <HAL_DMA_Init+0xb0>)
 8001dde:	63da      	str	r2, [r3, #60]	; 0x3c
 8001de0:	687b      	ldr	r3, [r7, #4]
 8001de2:	2202      	movs	r2, #2
 8001de4:	f883 2021 	strb.w	r2, [r3, #33]	; 0x21
 8001de8:	687b      	ldr	r3, [r7, #4]
 8001dea:	681b      	ldr	r3, [r3, #0]
 8001dec:	681b      	ldr	r3, [r3, #0]
 8001dee:	60fb      	str	r3, [r7, #12]
 8001df0:	68fb      	ldr	r3, [r7, #12]
 8001df2:	f423 537f 	bic.w	r3, r3, #16320	; 0x3fc0
 8001df6:	f023 0330 	bic.w	r3, r3, #48	; 0x30
 8001dfa:	60fb      	str	r3, [r7, #12]
 8001dfc:	687b      	ldr	r3, [r7, #4]
 8001dfe:	685a      	ldr	r2, [r3, #4]
 8001e00:	687b      	ldr	r3, [r7, #4]
 8001e02:	689b      	ldr	r3, [r3, #8]
 8001e04:	431a      	orrs	r2, r3
 8001e06:	687b      	ldr	r3, [r7, #4]
 8001e08:	68db      	ldr	r3, [r3, #12]
 8001e0a:	431a      	orrs	r2, r3
 8001e0c:	687b      	ldr	r3, [r7, #4]
 8001e0e:	691b      	ldr	r3, [r3, #16]
 8001e10:	431a      	orrs	r2, r3
 8001e12:	687b      	ldr	r3, [r7, #4]
 8001e14:	695b      	ldr	r3, [r3, #20]
 8001e16:	431a      	orrs	r2, r3
 8001e18:	687b      	ldr	r3, [r7, #4]
 8001e1a:	699b      	ldr	r3, [r3, #24]
 8001e1c:	431a      	orrs	r2, r3
 8001e1e:	687b      	ldr	r3, [r7, #4]
 8001e20:	69db      	ldr	r3, [r3, #28]
 8001e22:	4313      	orrs	r3, r2
 8001e24:	68fa      	ldr	r2, [r7, #12]
 8001e26:	4313      	orrs	r3, r2
 8001e28:	60fb      	str	r3, [r7, #12]
 8001e2a:	687b      	ldr	r3, [r7, #4]
 8001e2c:	681b      	ldr	r3, [r3, #0]
 8001e2e:	68fa      	ldr	r2, [r7, #12]
 8001e30:	601a      	str	r2, [r3, #0]
 8001e32:	687b      	ldr	r3, [r7, #4]
 8001e34:	2200      	movs	r2, #0
 8001e36:	639a      	str	r2, [r3, #56]	; 0x38
 8001e38:	687b      	ldr	r3, [r7, #4]
 8001e3a:	2201      	movs	r2, #1
 8001e3c:	f883 2021 	strb.w	r2, [r3, #33]	; 0x21
 8001e40:	687b      	ldr	r3, [r7, #4]
 8001e42:	2200      	movs	r2, #0
 8001e44:	f883 2020 	strb.w	r2, [r3, #32]
 8001e48:	2300      	movs	r3, #0
 8001e4a:	4618      	mov	r0, r3
 8001e4c:	3714      	adds	r7, #20
 8001e4e:	46bd      	mov	sp, r7
 8001e50:	bc80      	pop	{r7}
 8001e52:	4770      	bx	lr
 8001e54:	bffdfff8 	.word	0xbffdfff8
 8001e58:	cccccccd 	.word	0xcccccccd
 8001e5c:	40020000 	.word	0x40020000

08001e60 <HAL_DMA_Start_IT>:
 8001e60:	b580      	push	{r7, lr}
 8001e62:	b086      	sub	sp, #24
 8001e64:	af00      	add	r7, sp, #0
 8001e66:	60f8      	str	r0, [r7, #12]
 8001e68:	60b9      	str	r1, [r7, #8]
 8001e6a:	607a      	str	r2, [r7, #4]
 8001e6c:	603b      	str	r3, [r7, #0]
 8001e6e:	2300      	movs	r3, #0
 8001e70:	75fb      	strb	r3, [r7, #23]
 8001e72:	68fb      	ldr	r3, [r7, #12]
 8001e74:	f893 3020 	ldrb.w	r3, [r3, #32]
 8001e78:	2b01      	cmp	r3, #1
 8001e7a:	d101      	bne.n	8001e80 <HAL_DMA_Start_IT+0x20>
 8001e7c:	2302      	movs	r3, #2
 8001e7e:	e04a      	b.n	8001f16 <HAL_DMA_Start_IT+0xb6>
 8001e80:	68fb      	ldr	r3, [r7, #12]
 8001e82:	2201      	movs	r2, #1
 8001e84:	f883 2020 	strb.w	r2, [r3, #32]
 8001e88:	68fb      	ldr	r3, [r7, #12]
 8001e8a:	f893 3021 	ldrb.w	r3, [r3, #33]	; 0x21
 8001e8e:	2b01      	cmp	r3, #1
 8001e90:	d13a      	bne.n	8001f08 <HAL_DMA_Start_IT+0xa8>
 8001e92:	68fb      	ldr	r3, [r7, #12]
 8001e94:	2202      	movs	r2, #2
 8001e96:	f883 2021 	strb.w	r2, [r3, #33]	; 0x21
 8001e9a:	68fb      	ldr	r3, [r7, #12]
 8001e9c:	2200      	movs	r2, #0
 8001e9e:	639a      	str	r2, [r3, #56]	; 0x38
 8001ea0:	68fb      	ldr	r3, [r7, #12]
 8001ea2:	681b      	ldr	r3, [r3, #0]
 8001ea4:	681a      	ldr	r2, [r3, #0]
 8001ea6:	68fb      	ldr	r3, [r7, #12]
 8001ea8:	681b      	ldr	r3, [r3, #0]
 8001eaa:	f022 0201 	bic.w	r2, r2, #1
 8001eae:	601a      	str	r2, [r3, #0]
 8001eb0:	683b      	ldr	r3, [r7, #0]
 8001eb2:	687a      	ldr	r2, [r7, #4]
 8001eb4:	68b9      	ldr	r1, [r7, #8]
 8001eb6:	68f8      	ldr	r0, [r7, #12]
 8001eb8:	f000 f938 	bl	800212c <DMA_SetConfig>
 8001ebc:	68fb      	ldr	r3, [r7, #12]
 8001ebe:	6adb      	ldr	r3, [r3, #44]	; 0x2c
 8001ec0:	2b00      	cmp	r3, #0
 8001ec2:	d008      	beq.n	8001ed6 <HAL_DMA_Start_IT+0x76>
 8001ec4:	68fb      	ldr	r3, [r7, #12]
 8001ec6:	681b      	ldr	r3, [r3, #0]
 8001ec8:	681a      	ldr	r2, [r3, #0]
 8001eca:	68fb      	ldr	r3, [r7, #12]
 8001ecc:	681b      	ldr	r3, [r3, #0]
 8001ece:	f042 020e 	orr.w	r2, r2, #14
 8001ed2:	601a      	str	r2, [r3, #0]
 8001ed4:	e00f      	b.n	8001ef6 <HAL_DMA_Start_IT+0x96>
 8001ed6:	68fb      	ldr	r3, [r7, #12]
 8001ed8:	681b      	ldr	r3, [r3, #0]
 8001eda:	681a      	ldr	r2, [r3, #0]
 8001edc:	68fb      	ldr	r3, [r7, #12]
 8001ede:	681b      	ldr	r3, [r3, #0]
 8001ee0:	f022 0204 	bic.w	r2, r2, #4
 8001ee4:	601a      	str	r2, [r3, #0]
 8001ee6:	68fb      	ldr	r3, [r7, #12]
 8001ee8:	681b      	ldr	r3, [r3, #0]
 8001eea:	681a      	ldr	r2, [r3, #0]
 8001eec:	68fb      	ldr	r3, [r7, #12]
 8001eee:	681b      	ldr	r3, [r3, #0]
 8001ef0:	f042 020a 	orr.w	r2, r2, #10
 8001ef4:	601a      	str	r2, [r3, #0]
 8001ef6:	68fb      	ldr	r3, [r7, #12]
 8001ef8:	681b      	ldr	r3, [r3, #0]
 8001efa:	681a      	ldr	r2, [r3, #0]
 8001efc:	68fb      	ldr	r3, [r7, #12]
 8001efe:	681b      	ldr	r3, [r3, #0]
 8001f00:	f042 0201 	orr.w	r2, r2, #1
 8001f04:	601a      	str	r2, [r3, #0]
 8001f06:	e005      	b.n	8001f14 <HAL_DMA_Start_IT+0xb4>
 8001f08:	68fb      	ldr	r3, [r7, #12]
 8001f0a:	2200      	movs	r2, #0
 8001f0c:	f883 2020 	strb.w	r2, [r3, #32]
 8001f10:	2302      	movs	r3, #2
 8001f12:	75fb      	strb	r3, [r7, #23]
 8001f14:	7dfb      	ldrb	r3, [r7, #23]
 8001f16:	4618      	mov	r0, r3
 8001f18:	3718      	adds	r7, #24
 8001f1a:	46bd      	mov	sp, r7
 8001f1c:	bd80      	pop	{r7, pc}
	...

08001f20 <HAL_DMA_IRQHandler>:
 8001f20:	b580      	push	{r7, lr}
 8001f22:	b084      	sub	sp, #16
 8001f24:	af00      	add	r7, sp, #0
 8001f26:	6078      	str	r0, [r7, #4]
 8001f28:	687b      	ldr	r3, [r7, #4]
 8001f2a:	6bdb      	ldr	r3, [r3, #60]	; 0x3c
 8001f2c:	681b      	ldr	r3, [r3, #0]
 8001f2e:	60fb      	str	r3, [r7, #12]
 8001f30:	687b      	ldr	r3, [r7, #4]
 8001f32:	681b      	ldr	r3, [r3, #0]
 8001f34:	681b      	ldr	r3, [r3, #0]
 8001f36:	60bb      	str	r3, [r7, #8]
 8001f38:	687b      	ldr	r3, [r7, #4]
 8001f3a:	6c1b      	ldr	r3, [r3, #64]	; 0x40
 8001f3c:	2204      	movs	r2, #4
 8001f3e:	409a      	lsls	r2, r3
 8001f40:	68fb      	ldr	r3, [r7, #12]
 8001f42:	4013      	ands	r3, r2
 8001f44:	2b00      	cmp	r3, #0
 8001f46:	d04f      	beq.n	8001fe8 <HAL_DMA_IRQHandler+0xc8>
 8001f48:	68bb      	ldr	r3, [r7, #8]
 8001f4a:	f003 0304 	and.w	r3, r3, #4
 8001f4e:	2b00      	cmp	r3, #0
 8001f50:	d04a      	beq.n	8001fe8 <HAL_DMA_IRQHandler+0xc8>
 8001f52:	687b      	ldr	r3, [r7, #4]
 8001f54:	681b      	ldr	r3, [r3, #0]
 8001f56:	681b      	ldr	r3, [r3, #0]
 8001f58:	f003 0320 	and.w	r3, r3, #32
 8001f5c:	2b00      	cmp	r3, #0
 8001f5e:	d107      	bne.n	8001f70 <HAL_DMA_IRQHandler+0x50>
 8001f60:	687b      	ldr	r3, [r7, #4]
 8001f62:	681b      	ldr	r3, [r3, #0]
 8001f64:	681a      	ldr	r2, [r3, #0]
 8001f66:	687b      	ldr	r3, [r7, #4]
 8001f68:	681b      	ldr	r3, [r3, #0]
 8001f6a:	f022 0204 	bic.w	r2, r2, #4
 8001f6e:	601a      	str	r2, [r3, #0]
 8001f70:	687b      	ldr	r3, [r7, #4]
 8001f72:	681b      	ldr	r3, [r3, #0]
 8001f74:	4a66      	ldr	r2, [pc, #408]	; (8002110 <HAL_DMA_IRQHandler+0x1f0>)
 8001f76:	4293      	cmp	r3, r2
 8001f78:	d029      	beq.n	8001fce <HAL_DMA_IRQHandler+0xae>
 8001f7a:	687b      	ldr	r3, [r7, #4]
 8001f7c:	681b      	ldr	r3, [r3, #0]
 8001f7e:	4a65      	ldr	r2, [pc, #404]	; (8002114 <HAL_DMA_IRQHandler+0x1f4>)
 8001f80:	4293      	cmp	r3, r2
 8001f82:	d022      	beq.n	8001fca <HAL_DMA_IRQHandler+0xaa>
 8001f84:	687b      	ldr	r3, [r7, #4]
 8001f86:	681b      	ldr	r3, [r3, #0]
 8001f88:	4a63      	ldr	r2, [pc, #396]	; (8002118 <HAL_DMA_IRQHandler+0x1f8>)
 8001f8a:	4293      	cmp	r3, r2
 8001f8c:	d01a      	beq.n	8001fc4 <HAL_DMA_IRQHandler+0xa4>
 8001f8e:	687b      	ldr	r3, [r7, #4]
 8001f90:	681b      	ldr	r3, [r3, #0]
 8001f92:	4a62      	ldr	r2, [pc, #392]	; (800211c <HAL_DMA_IRQHandler+0x1fc>)
 8001f94:	4293      	cmp	r3, r2
 8001f96:	d012      	beq.n	8001fbe <HAL_DMA_IRQHandler+0x9e>
 8001f98:	687b      	ldr	r3, [r7, #4]
 8001f9a:	681b      	ldr	r3, [r3, #0]
 8001f9c:	4a60      	ldr	r2, [pc, #384]	; (8002120 <HAL_DMA_IRQHandler+0x200>)
 8001f9e:	4293      	cmp	r3, r2
 8001fa0:	d00a      	beq.n	8001fb8 <HAL_DMA_IRQHandler+0x98>
 8001fa2:	687b      	ldr	r3, [r7, #4]
 8001fa4:	681b      	ldr	r3, [r3, #0]
 8001fa6:	4a5f      	ldr	r2, [pc, #380]	; (8002124 <HAL_DMA_IRQHandler+0x204>)
 8001fa8:	4293      	cmp	r3, r2
 8001faa:	d102      	bne.n	8001fb2 <HAL_DMA_IRQHandler+0x92>
 8001fac:	f44f 0380 	mov.w	r3, #4194304	; 0x400000
 8001fb0:	e00e      	b.n	8001fd0 <HAL_DMA_IRQHandler+0xb0>
 8001fb2:	f04f 6380 	mov.w	r3, #67108864	; 0x4000000
 8001fb6:	e00b      	b.n	8001fd0 <HAL_DMA_IRQHandler+0xb0>
 8001fb8:	f44f 2380 	mov.w	r3, #262144	; 0x40000
 8001fbc:	e008      	b.n	8001fd0 <HAL_DMA_IRQHandler+0xb0>
 8001fbe:	f44f 4380 	mov.w	r3, #16384	; 0x4000
 8001fc2:	e005      	b.n	8001fd0 <HAL_DMA_IRQHandler+0xb0>
 8001fc4:	f44f 6380 	mov.w	r3, #1024	; 0x400
 8001fc8:	e002      	b.n	8001fd0 <HAL_DMA_IRQHandler+0xb0>
 8001fca:	2340      	movs	r3, #64	; 0x40
 8001fcc:	e000      	b.n	8001fd0 <HAL_DMA_IRQHandler+0xb0>
 8001fce:	2304      	movs	r3, #4
 8001fd0:	4a55      	ldr	r2, [pc, #340]	; (8002128 <HAL_DMA_IRQHandler+0x208>)
 8001fd2:	6053      	str	r3, [r2, #4]
 8001fd4:	687b      	ldr	r3, [r7, #4]
 8001fd6:	6adb      	ldr	r3, [r3, #44]	; 0x2c
 8001fd8:	2b00      	cmp	r3, #0
 8001fda:	f000 8094 	beq.w	8002106 <HAL_DMA_IRQHandler+0x1e6>
 8001fde:	687b      	ldr	r3, [r7, #4]
 8001fe0:	6adb      	ldr	r3, [r3, #44]	; 0x2c
 8001fe2:	6878      	ldr	r0, [r7, #4]
 8001fe4:	4798      	blx	r3
 8001fe6:	e08e      	b.n	8002106 <HAL_DMA_IRQHandler+0x1e6>
 8001fe8:	687b      	ldr	r3, [r7, #4]
 8001fea:	6c1b      	ldr	r3, [r3, #64]	; 0x40
 8001fec:	2202      	movs	r2, #2
 8001fee:	409a      	lsls	r2, r3
 8001ff0:	68fb      	ldr	r3, [r7, #12]
 8001ff2:	4013      	ands	r3, r2
 8001ff4:	2b00      	cmp	r3, #0
 8001ff6:	d056      	beq.n	80020a6 <HAL_DMA_IRQHandler+0x186>
 8001ff8:	68bb      	ldr	r3, [r7, #8]
 8001ffa:	f003 0302 	and.w	r3, r3, #2
 8001ffe:	2b00      	cmp	r3, #0
 8002000:	d051      	beq.n	80020a6 <HAL_DMA_IRQHandler+0x186>
 8002002:	687b      	ldr	r3, [r7, #4]
 8002004:	681b      	ldr	r3, [r3, #0]
 8002006:	681b      	ldr	r3, [r3, #0]
 8002008:	f003 0320 	and.w	r3, r3, #32
 800200c:	2b00      	cmp	r3, #0
 800200e:	d10b      	bne.n	8002028 <HAL_DMA_IRQHandler+0x108>
 8002010:	687b      	ldr	r3, [r7, #4]
 8002012:	681b      	ldr	r3, [r3, #0]
 8002014:	681a      	ldr	r2, [r3, #0]
 8002016:	687b      	ldr	r3, [r7, #4]
 8002018:	681b      	ldr	r3, [r3, #0]
 800201a:	f022 020a 	bic.w	r2, r2, #10
 800201e:	601a      	str	r2, [r3, #0]
 8002020:	687b      	ldr	r3, [r7, #4]
 8002022:	2201      	movs	r2, #1
 8002024:	f883 2021 	strb.w	r2, [r3, #33]	; 0x21
 8002028:	687b      	ldr	r3, [r7, #4]
 800202a:	681b      	ldr	r3, [r3, #0]
 800202c:	4a38      	ldr	r2, [pc, #224]	; (8002110 <HAL_DMA_IRQHandler+0x1f0>)
 800202e:	4293      	cmp	r3, r2
 8002030:	d029      	beq.n	8002086 <HAL_DMA_IRQHandler+0x166>
 8002032:	687b      	ldr	r3, [r7, #4]
 8002034:	681b      	ldr	r3, [r3, #0]
 8002036:	4a37      	ldr	r2, [pc, #220]	; (8002114 <HAL_DMA_IRQHandler+0x1f4>)
 8002038:	4293      	cmp	r3, r2
 800203a:	d022      	beq.n	8002082 <HAL_DMA_IRQHandler+0x162>
 800203c:	687b      	ldr	r3, [r7, #4]
 800203e:	681b      	ldr	r3, [r3, #0]
 8002040:	4a35      	ldr	r2, [pc, #212]	; (8002118 <HAL_DMA_IRQHandler+0x1f8>)
 8002042:	4293      	cmp	r3, r2
 8002044:	d01a      	beq.n	800207c <HAL_DMA_IRQHandler+0x15c>
 8002046:	687b      	ldr	r3, [r7, #4]
 8002048:	681b      	ldr	r3, [r3, #0]
 800204a:	4a34      	ldr	r2, [pc, #208]	; (800211c <HAL_DMA_IRQHandler+0x1fc>)
 800204c:	4293      	cmp	r3, r2
 800204e:	d012      	beq.n	8002076 <HAL_DMA_IRQHandler+0x156>
 8002050:	687b      	ldr	r3, [r7, #4]
 8002052:	681b      	ldr	r3, [r3, #0]
 8002054:	4a32      	ldr	r2, [pc, #200]	; (8002120 <HAL_DMA_IRQHandler+0x200>)
 8002056:	4293      	cmp	r3, r2
 8002058:	d00a      	beq.n	8002070 <HAL_DMA_IRQHandler+0x150>
 800205a:	687b      	ldr	r3, [r7, #4]
 800205c:	681b      	ldr	r3, [r3, #0]
 800205e:	4a31      	ldr	r2, [pc, #196]	; (8002124 <HAL_DMA_IRQHandler+0x204>)
 8002060:	4293      	cmp	r3, r2
 8002062:	d102      	bne.n	800206a <HAL_DMA_IRQHandler+0x14a>
 8002064:	f44f 1300 	mov.w	r3, #2097152	; 0x200000
 8002068:	e00e      	b.n	8002088 <HAL_DMA_IRQHandler+0x168>
 800206a:	f04f 7300 	mov.w	r3, #33554432	; 0x2000000
 800206e:	e00b      	b.n	8002088 <HAL_DMA_IRQHandler+0x168>
 8002070:	f44f 3300 	mov.w	r3, #131072	; 0x20000
 8002074:	e008      	b.n	8002088 <HAL_DMA_IRQHandler+0x168>
 8002076:	f44f 5300 	mov.w	r3, #8192	; 0x2000
 800207a:	e005      	b.n	8002088 <HAL_DMA_IRQHandler+0x168>
 800207c:	f44f 7300 	mov.w	r3, #512	; 0x200
 8002080:	e002      	b.n	8002088 <HAL_DMA_IRQHandler+0x168>
 8002082:	2320      	movs	r3, #32
 8002084:	e000      	b.n	8002088 <HAL_DMA_IRQHandler+0x168>
 8002086:	2302      	movs	r3, #2
 8002088:	4a27      	ldr	r2, [pc, #156]	; (8002128 <HAL_DMA_IRQHandler+0x208>)
 800208a:	6053      	str	r3, [r2, #4]
 800208c:	687b      	ldr	r3, [r7, #4]
 800208e:	2200      	movs	r2, #0
 8002090:	f883 2020 	strb.w	r2, [r3, #32]
 8002094:	687b      	ldr	r3, [r7, #4]
 8002096:	6a9b      	ldr	r3, [r3, #40]	; 0x28
 8002098:	2b00      	cmp	r3, #0
 800209a:	d034      	beq.n	8002106 <HAL_DMA_IRQHandler+0x1e6>
 800209c:	687b      	ldr	r3, [r7, #4]
 800209e:	6a9b      	ldr	r3, [r3, #40]	; 0x28
 80020a0:	6878      	ldr	r0, [r7, #4]
 80020a2:	4798      	blx	r3
 80020a4:	e02f      	b.n	8002106 <HAL_DMA_IRQHandler+0x1e6>
 80020a6:	687b      	ldr	r3, [r7, #4]
 80020a8:	6c1b      	ldr	r3, [r3, #64]	; 0x40
 80020aa:	2208      	movs	r2, #8
 80020ac:	409a      	lsls	r2, r3
 80020ae:	68fb      	ldr	r3, [r7, #12]
 80020b0:	4013      	ands	r3, r2
 80020b2:	2b00      	cmp	r3, #0
 80020b4:	d028      	beq.n	8002108 <HAL_DMA_IRQHandler+0x1e8>
 80020b6:	68bb      	ldr	r3, [r7, #8]
 80020b8:	f003 0308 	and.w	r3, r3, #8
 80020bc:	2b00      	cmp	r3, #0
 80020be:	d023      	beq.n	8002108 <HAL_DMA_IRQHandler+0x1e8>
 80020c0:	687b      	ldr	r3, [r7, #4]
 80020c2:	681b      	ldr	r3, [r3, #0]
 80020c4:	681a      	ldr	r2, [r3, #0]
 80020c6:	687b      	ldr	r3, [r7, #4]
 80020c8:	681b      	ldr	r3, [r3, #0]
 80020ca:	f022 020e 	bic.w	r2, r2, #14
 80020ce:	601a      	str	r2, [r3, #0]
 80020d0:	687b      	ldr	r3, [r7, #4]
 80020d2:	6c1a      	ldr	r2, [r3, #64]	; 0x40
 80020d4:	687b      	ldr	r3, [r7, #4]
 80020d6:	6bdb      	ldr	r3, [r3, #60]	; 0x3c
 80020d8:	2101      	movs	r1, #1
 80020da:	fa01 f202 	lsl.w	r2, r1, r2
 80020de:	605a      	str	r2, [r3, #4]
 80020e0:	687b      	ldr	r3, [r7, #4]
 80020e2:	2201      	movs	r2, #1
 80020e4:	639a      	str	r2, [r3, #56]	; 0x38
 80020e6:	687b      	ldr	r3, [r7, #4]
 80020e8:	2201      	movs	r2, #1
 80020ea:	f883 2021 	strb.w	r2, [r3, #33]	; 0x21
 80020ee:	687b      	ldr	r3, [r7, #4]
 80020f0:	2200      	movs	r2, #0
 80020f2:	f883 2020 	strb.w	r2, [r3, #32]
 80020f6:	687b      	ldr	r3, [r7, #4]
 80020f8:	6b1b      	ldr	r3, [r3, #48]	; 0x30
 80020fa:	2b00      	cmp	r3, #0
 80020fc:	d004      	beq.n	8002108 <HAL_DMA_IRQHandler+0x1e8>
 80020fe:	687b      	ldr	r3, [r7, #4]
 8002100:	6b1b      	ldr	r3, [r3, #48]	; 0x30
 8002102:	6878      	ldr	r0, [r7, #4]
 8002104:	4798      	blx	r3
 8002106:	bf00      	nop
 8002108:	bf00      	nop
 800210a:	3710      	adds	r7, #16
 800210c:	46bd      	mov	sp, r7
 800210e:	bd80      	pop	{r7, pc}
 8002110:	40020008 	.word	0x40020008
 8002114:	4002001c 	.word	0x4002001c
 8002118:	40020030 	.word	0x40020030
 800211c:	40020044 	.word	0x40020044
 8002120:	40020058 	.word	0x40020058
 8002124:	4002006c 	.word	0x4002006c
 8002128:	40020000 	.word	0x40020000

0800212c <DMA_SetConfig>:
 800212c:	b480      	push	{r7}
 800212e:	b085      	sub	sp, #20
 8002130:	af00      	add	r7, sp, #0
 8002132:	60f8      	str	r0, [r7, #12]
 8002134:	60b9      	str	r1, [r7, #8]
 8002136:	607a      	str	r2, [r7, #4]
 8002138:	603b      	str	r3, [r7, #0]
 800213a:	68fb      	ldr	r3, [r7, #12]
 800213c:	6c1a      	ldr	r2, [r3, #64]	; 0x40
 800213e:	68fb      	ldr	r3, [r7, #12]
 8002140:	6bdb      	ldr	r3, [r3, #60]	; 0x3c
 8002142:	2101      	movs	r1, #1
 8002144:	fa01 f202 	lsl.w	r2, r1, r2
 8002148:	605a      	str	r2, [r3, #4]
 800214a:	68fb      	ldr	r3, [r7, #12]
 800214c:	681b      	ldr	r3, [r3, #0]
 800214e:	683a      	ldr	r2, [r7, #0]
 8002150:	605a      	str	r2, [r3, #4]
 8002152:	68fb      	ldr	r3, [r7, #12]
 8002154:	685b      	ldr	r3, [r3, #4]
 8002156:	2b10      	cmp	r3, #16
 8002158:	d108      	bne.n	800216c <DMA_SetConfig+0x40>
 800215a:	68fb      	ldr	r3, [r7, #12]
 800215c:	681b      	ldr	r3, [r3, #0]
 800215e:	687a      	ldr	r2, [r7, #4]
 8002160:	609a      	str	r2, [r3, #8]
 8002162:	68fb      	ldr	r3, [r7, #12]
 8002164:	681b      	ldr	r3, [r3, #0]
 8002166:	68ba      	ldr	r2, [r7, #8]
 8002168:	60da      	str	r2, [r3, #12]
 800216a:	e007      	b.n	800217c <DMA_SetConfig+0x50>
 800216c:	68fb      	ldr	r3, [r7, #12]
 800216e:	681b      	ldr	r3, [r3, #0]
 8002170:	68ba      	ldr	r2, [r7, #8]
 8002172:	609a      	str	r2, [r3, #8]
 8002174:	68fb      	ldr	r3, [r7, #12]
 8002176:	681b      	ldr	r3, [r3, #0]
 8002178:	687a      	ldr	r2, [r7, #4]
 800217a:	60da      	str	r2, [r3, #12]
 800217c:	bf00      	nop
 800217e:	3714      	adds	r7, #20
 8002180:	46bd      	mov	sp, r7
 8002182:	bc80      	pop	{r7}
 8002184:	4770      	bx	lr
	...

08002188 <HAL_GPIO_Init>:
 8002188:	b480      	push	{r7}
 800218a:	b08b      	sub	sp, #44	; 0x2c
 800218c:	af00      	add	r7, sp, #0
 800218e:	6078      	str	r0, [r7, #4]
 8002190:	6039      	str	r1, [r7, #0]
 8002192:	2300      	movs	r3, #0
 8002194:	627b      	str	r3, [r7, #36]	; 0x24
 8002196:	2300      	movs	r3, #0
 8002198:	623b      	str	r3, [r7, #32]
 800219a:	e169      	b.n	8002470 <HAL_GPIO_Init+0x2e8>
 800219c:	2201      	movs	r2, #1
 800219e:	6a7b      	ldr	r3, [r7, #36]	; 0x24
 80021a0:	fa02 f303 	lsl.w	r3, r2, r3
 80021a4:	61fb      	str	r3, [r7, #28]
 80021a6:	683b      	ldr	r3, [r7, #0]
 80021a8:	681b      	ldr	r3, [r3, #0]
 80021aa:	69fa      	ldr	r2, [r7, #28]
 80021ac:	4013      	ands	r3, r2
 80021ae:	61bb      	str	r3, [r7, #24]
 80021b0:	69ba      	ldr	r2, [r7, #24]
 80021b2:	69fb      	ldr	r3, [r7, #28]
 80021b4:	429a      	cmp	r2, r3
 80021b6:	f040 8158 	bne.w	800246a <HAL_GPIO_Init+0x2e2>
 80021ba:	683b      	ldr	r3, [r7, #0]
 80021bc:	685b      	ldr	r3, [r3, #4]
 80021be:	4a9a      	ldr	r2, [pc, #616]	; (8002428 <HAL_GPIO_Init+0x2a0>)
 80021c0:	4293      	cmp	r3, r2
 80021c2:	d05e      	beq.n	8002282 <HAL_GPIO_Init+0xfa>
 80021c4:	4a98      	ldr	r2, [pc, #608]	; (8002428 <HAL_GPIO_Init+0x2a0>)
 80021c6:	4293      	cmp	r3, r2
 80021c8:	d875      	bhi.n	80022b6 <HAL_GPIO_Init+0x12e>
 80021ca:	4a98      	ldr	r2, [pc, #608]	; (800242c <HAL_GPIO_Init+0x2a4>)
 80021cc:	4293      	cmp	r3, r2
 80021ce:	d058      	beq.n	8002282 <HAL_GPIO_Init+0xfa>
 80021d0:	4a96      	ldr	r2, [pc, #600]	; (800242c <HAL_GPIO_Init+0x2a4>)
 80021d2:	4293      	cmp	r3, r2
 80021d4:	d86f      	bhi.n	80022b6 <HAL_GPIO_Init+0x12e>
 80021d6:	4a96      	ldr	r2, [pc, #600]	; (8002430 <HAL_GPIO_Init+0x2a8>)
 80021d8:	4293      	cmp	r3, r2
 80021da:	d052      	beq.n	8002282 <HAL_GPIO_Init+0xfa>
 80021dc:	4a94      	ldr	r2, [pc, #592]	; (8002430 <HAL_GPIO_Init+0x2a8>)
 80021de:	4293      	cmp	r3, r2
 80021e0:	d869      	bhi.n	80022b6 <HAL_GPIO_Init+0x12e>
 80021e2:	4a94      	ldr	r2, [pc, #592]	; (8002434 <HAL_GPIO_Init+0x2ac>)
 80021e4:	4293      	cmp	r3, r2
 80021e6:	d04c      	beq.n	8002282 <HAL_GPIO_Init+0xfa>
 80021e8:	4a92      	ldr	r2, [pc, #584]	; (8002434 <HAL_GPIO_Init+0x2ac>)
 80021ea:	4293      	cmp	r3, r2
 80021ec:	d863      	bhi.n	80022b6 <HAL_GPIO_Init+0x12e>
 80021ee:	4a92      	ldr	r2, [pc, #584]	; (8002438 <HAL_GPIO_Init+0x2b0>)
 80021f0:	4293      	cmp	r3, r2
 80021f2:	d046      	beq.n	8002282 <HAL_GPIO_Init+0xfa>
 80021f4:	4a90      	ldr	r2, [pc, #576]	; (8002438 <HAL_GPIO_Init+0x2b0>)
 80021f6:	4293      	cmp	r3, r2
 80021f8:	d85d      	bhi.n	80022b6 <HAL_GPIO_Init+0x12e>
 80021fa:	2b12      	cmp	r3, #18
 80021fc:	d82a      	bhi.n	8002254 <HAL_GPIO_Init+0xcc>
 80021fe:	2b12      	cmp	r3, #18
 8002200:	d859      	bhi.n	80022b6 <HAL_GPIO_Init+0x12e>
 8002202:	a201      	add	r2, pc, #4	; (adr r2, 8002208 <HAL_GPIO_Init+0x80>)
 8002204:	f852 f023 	ldr.w	pc, [r2, r3, lsl #2]
 8002208:	08002283 	.word	0x08002283
 800220c:	0800225d 	.word	0x0800225d
 8002210:	0800226f 	.word	0x0800226f
 8002214:	080022b1 	.word	0x080022b1
 8002218:	080022b7 	.word	0x080022b7
 800221c:	080022b7 	.word	0x080022b7
 8002220:	080022b7 	.word	0x080022b7
 8002224:	080022b7 	.word	0x080022b7
 8002228:	080022b7 	.word	0x080022b7
 800222c:	080022b7 	.word	0x080022b7
 8002230:	080022b7 	.word	0x080022b7
 8002234:	080022b7 	.word	0x080022b7
 8002238:	080022b7 	.word	0x080022b7
 800223c:	080022b7 	.word	0x080022b7
 8002240:	080022b7 	.word	0x080022b7
 8002244:	080022b7 	.word	0x080022b7
 8002248:	080022b7 	.word	0x080022b7
 800224c:	08002265 	.word	0x08002265
 8002250:	08002279 	.word	0x08002279
 8002254:	4a79      	ldr	r2, [pc, #484]	; (800243c <HAL_GPIO_Init+0x2b4>)
 8002256:	4293      	cmp	r3, r2
 8002258:	d013      	beq.n	8002282 <HAL_GPIO_Init+0xfa>
 800225a:	e02c      	b.n	80022b6 <HAL_GPIO_Init+0x12e>
 800225c:	683b      	ldr	r3, [r7, #0]
 800225e:	68db      	ldr	r3, [r3, #12]
 8002260:	623b      	str	r3, [r7, #32]
 8002262:	e029      	b.n	80022b8 <HAL_GPIO_Init+0x130>
 8002264:	683b      	ldr	r3, [r7, #0]
 8002266:	68db      	ldr	r3, [r3, #12]
 8002268:	3304      	adds	r3, #4
 800226a:	623b      	str	r3, [r7, #32]
 800226c:	e024      	b.n	80022b8 <HAL_GPIO_Init+0x130>
 800226e:	683b      	ldr	r3, [r7, #0]
 8002270:	68db      	ldr	r3, [r3, #12]
 8002272:	3308      	adds	r3, #8
 8002274:	623b      	str	r3, [r7, #32]
 8002276:	e01f      	b.n	80022b8 <HAL_GPIO_Init+0x130>
 8002278:	683b      	ldr	r3, [r7, #0]
 800227a:	68db      	ldr	r3, [r3, #12]
 800227c:	330c      	adds	r3, #12
 800227e:	623b      	str	r3, [r7, #32]
 8002280:	e01a      	b.n	80022b8 <HAL_GPIO_Init+0x130>
 8002282:	683b      	ldr	r3, [r7, #0]
 8002284:	689b      	ldr	r3, [r3, #8]
 8002286:	2b00      	cmp	r3, #0
 8002288:	d102      	bne.n	8002290 <HAL_GPIO_Init+0x108>
 800228a:	2304      	movs	r3, #4
 800228c:	623b      	str	r3, [r7, #32]
 800228e:	e013      	b.n	80022b8 <HAL_GPIO_Init+0x130>
 8002290:	683b      	ldr	r3, [r7, #0]
 8002292:	689b      	ldr	r3, [r3, #8]
 8002294:	2b01      	cmp	r3, #1
 8002296:	d105      	bne.n	80022a4 <HAL_GPIO_Init+0x11c>
 8002298:	2308      	movs	r3, #8
 800229a:	623b      	str	r3, [r7, #32]
 800229c:	687b      	ldr	r3, [r7, #4]
 800229e:	69fa      	ldr	r2, [r7, #28]
 80022a0:	611a      	str	r2, [r3, #16]
 80022a2:	e009      	b.n	80022b8 <HAL_GPIO_Init+0x130>
 80022a4:	2308      	movs	r3, #8
 80022a6:	623b      	str	r3, [r7, #32]
 80022a8:	687b      	ldr	r3, [r7, #4]
 80022aa:	69fa      	ldr	r2, [r7, #28]
 80022ac:	615a      	str	r2, [r3, #20]
 80022ae:	e003      	b.n	80022b8 <HAL_GPIO_Init+0x130>
 80022b0:	2300      	movs	r3, #0
 80022b2:	623b      	str	r3, [r7, #32]
 80022b4:	e000      	b.n	80022b8 <HAL_GPIO_Init+0x130>
 80022b6:	bf00      	nop
 80022b8:	69bb      	ldr	r3, [r7, #24]
 80022ba:	2bff      	cmp	r3, #255	; 0xff
 80022bc:	d801      	bhi.n	80022c2 <HAL_GPIO_Init+0x13a>
 80022be:	687b      	ldr	r3, [r7, #4]
 80022c0:	e001      	b.n	80022c6 <HAL_GPIO_Init+0x13e>
 80022c2:	687b      	ldr	r3, [r7, #4]
 80022c4:	3304      	adds	r3, #4
 80022c6:	617b      	str	r3, [r7, #20]
 80022c8:	69bb      	ldr	r3, [r7, #24]
 80022ca:	2bff      	cmp	r3, #255	; 0xff
 80022cc:	d802      	bhi.n	80022d4 <HAL_GPIO_Init+0x14c>
 80022ce:	6a7b      	ldr	r3, [r7, #36]	; 0x24
 80022d0:	009b      	lsls	r3, r3, #2
 80022d2:	e002      	b.n	80022da <HAL_GPIO_Init+0x152>
 80022d4:	6a7b      	ldr	r3, [r7, #36]	; 0x24
 80022d6:	3b08      	subs	r3, #8
 80022d8:	009b      	lsls	r3, r3, #2
 80022da:	613b      	str	r3, [r7, #16]
 80022dc:	697b      	ldr	r3, [r7, #20]
 80022de:	681a      	ldr	r2, [r3, #0]
 80022e0:	210f      	movs	r1, #15
 80022e2:	693b      	ldr	r3, [r7, #16]
 80022e4:	fa01 f303 	lsl.w	r3, r1, r3
 80022e8:	43db      	mvns	r3, r3
 80022ea:	401a      	ands	r2, r3
 80022ec:	6a39      	ldr	r1, [r7, #32]
 80022ee:	693b      	ldr	r3, [r7, #16]
 80022f0:	fa01 f303 	lsl.w	r3, r1, r3
 80022f4:	431a      	orrs	r2, r3
 80022f6:	697b      	ldr	r3, [r7, #20]
 80022f8:	601a      	str	r2, [r3, #0]
 80022fa:	683b      	ldr	r3, [r7, #0]
 80022fc:	685b      	ldr	r3, [r3, #4]
 80022fe:	f003 5380 	and.w	r3, r3, #268435456	; 0x10000000
 8002302:	2b00      	cmp	r3, #0
 8002304:	f000 80b1 	beq.w	800246a <HAL_GPIO_Init+0x2e2>
 8002308:	4b4d      	ldr	r3, [pc, #308]	; (8002440 <HAL_GPIO_Init+0x2b8>)
 800230a:	699b      	ldr	r3, [r3, #24]
 800230c:	4a4c      	ldr	r2, [pc, #304]	; (8002440 <HAL_GPIO_Init+0x2b8>)
 800230e:	f043 0301 	orr.w	r3, r3, #1
 8002312:	6193      	str	r3, [r2, #24]
 8002314:	4b4a      	ldr	r3, [pc, #296]	; (8002440 <HAL_GPIO_Init+0x2b8>)
 8002316:	699b      	ldr	r3, [r3, #24]
 8002318:	f003 0301 	and.w	r3, r3, #1
 800231c:	60bb      	str	r3, [r7, #8]
 800231e:	68bb      	ldr	r3, [r7, #8]
 8002320:	4a48      	ldr	r2, [pc, #288]	; (8002444 <HAL_GPIO_Init+0x2bc>)
 8002322:	6a7b      	ldr	r3, [r7, #36]	; 0x24
 8002324:	089b      	lsrs	r3, r3, #2
 8002326:	3302      	adds	r3, #2
 8002328:	f852 3023 	ldr.w	r3, [r2, r3, lsl #2]
 800232c:	60fb      	str	r3, [r7, #12]
 800232e:	6a7b      	ldr	r3, [r7, #36]	; 0x24
 8002330:	f003 0303 	and.w	r3, r3, #3
 8002334:	009b      	lsls	r3, r3, #2
 8002336:	220f      	movs	r2, #15
 8002338:	fa02 f303 	lsl.w	r3, r2, r3
 800233c:	43db      	mvns	r3, r3
 800233e:	68fa      	ldr	r2, [r7, #12]
 8002340:	4013      	ands	r3, r2
 8002342:	60fb      	str	r3, [r7, #12]
 8002344:	687b      	ldr	r3, [r7, #4]
 8002346:	4a40      	ldr	r2, [pc, #256]	; (8002448 <HAL_GPIO_Init+0x2c0>)
 8002348:	4293      	cmp	r3, r2
 800234a:	d013      	beq.n	8002374 <HAL_GPIO_Init+0x1ec>
 800234c:	687b      	ldr	r3, [r7, #4]
 800234e:	4a3f      	ldr	r2, [pc, #252]	; (800244c <HAL_GPIO_Init+0x2c4>)
 8002350:	4293      	cmp	r3, r2
 8002352:	d00d      	beq.n	8002370 <HAL_GPIO_Init+0x1e8>
 8002354:	687b      	ldr	r3, [r7, #4]
 8002356:	4a3e      	ldr	r2, [pc, #248]	; (8002450 <HAL_GPIO_Init+0x2c8>)
 8002358:	4293      	cmp	r3, r2
 800235a:	d007      	beq.n	800236c <HAL_GPIO_Init+0x1e4>
 800235c:	687b      	ldr	r3, [r7, #4]
 800235e:	4a3d      	ldr	r2, [pc, #244]	; (8002454 <HAL_GPIO_Init+0x2cc>)
 8002360:	4293      	cmp	r3, r2
 8002362:	d101      	bne.n	8002368 <HAL_GPIO_Init+0x1e0>
 8002364:	2303      	movs	r3, #3
 8002366:	e006      	b.n	8002376 <HAL_GPIO_Init+0x1ee>
 8002368:	2304      	movs	r3, #4
 800236a:	e004      	b.n	8002376 <HAL_GPIO_Init+0x1ee>
 800236c:	2302      	movs	r3, #2
 800236e:	e002      	b.n	8002376 <HAL_GPIO_Init+0x1ee>
 8002370:	2301      	movs	r3, #1
 8002372:	e000      	b.n	8002376 <HAL_GPIO_Init+0x1ee>
 8002374:	2300      	movs	r3, #0
 8002376:	6a7a      	ldr	r2, [r7, #36]	; 0x24
 8002378:	f002 0203 	and.w	r2, r2, #3
 800237c:	0092      	lsls	r2, r2, #2
 800237e:	4093      	lsls	r3, r2
 8002380:	68fa      	ldr	r2, [r7, #12]
 8002382:	4313      	orrs	r3, r2
 8002384:	60fb      	str	r3, [r7, #12]
 8002386:	492f      	ldr	r1, [pc, #188]	; (8002444 <HAL_GPIO_Init+0x2bc>)
 8002388:	6a7b      	ldr	r3, [r7, #36]	; 0x24
 800238a:	089b      	lsrs	r3, r3, #2
 800238c:	3302      	adds	r3, #2
 800238e:	68fa      	ldr	r2, [r7, #12]
 8002390:	f841 2023 	str.w	r2, [r1, r3, lsl #2]
 8002394:	683b      	ldr	r3, [r7, #0]
 8002396:	685b      	ldr	r3, [r3, #4]
 8002398:	f403 3380 	and.w	r3, r3, #65536	; 0x10000
 800239c:	2b00      	cmp	r3, #0
 800239e:	d006      	beq.n	80023ae <HAL_GPIO_Init+0x226>
 80023a0:	4b2d      	ldr	r3, [pc, #180]	; (8002458 <HAL_GPIO_Init+0x2d0>)
 80023a2:	681a      	ldr	r2, [r3, #0]
 80023a4:	492c      	ldr	r1, [pc, #176]	; (8002458 <HAL_GPIO_Init+0x2d0>)
 80023a6:	69bb      	ldr	r3, [r7, #24]
 80023a8:	4313      	orrs	r3, r2
 80023aa:	600b      	str	r3, [r1, #0]
 80023ac:	e006      	b.n	80023bc <HAL_GPIO_Init+0x234>
 80023ae:	4b2a      	ldr	r3, [pc, #168]	; (8002458 <HAL_GPIO_Init+0x2d0>)
 80023b0:	681a      	ldr	r2, [r3, #0]
 80023b2:	69bb      	ldr	r3, [r7, #24]
 80023b4:	43db      	mvns	r3, r3
 80023b6:	4928      	ldr	r1, [pc, #160]	; (8002458 <HAL_GPIO_Init+0x2d0>)
 80023b8:	4013      	ands	r3, r2
 80023ba:	600b      	str	r3, [r1, #0]
 80023bc:	683b      	ldr	r3, [r7, #0]
 80023be:	685b      	ldr	r3, [r3, #4]
 80023c0:	f403 3300 	and.w	r3, r3, #131072	; 0x20000
 80023c4:	2b00      	cmp	r3, #0
 80023c6:	d006      	beq.n	80023d6 <HAL_GPIO_Init+0x24e>
 80023c8:	4b23      	ldr	r3, [pc, #140]	; (8002458 <HAL_GPIO_Init+0x2d0>)
 80023ca:	685a      	ldr	r2, [r3, #4]
 80023cc:	4922      	ldr	r1, [pc, #136]	; (8002458 <HAL_GPIO_Init+0x2d0>)
 80023ce:	69bb      	ldr	r3, [r7, #24]
 80023d0:	4313      	orrs	r3, r2
 80023d2:	604b      	str	r3, [r1, #4]
 80023d4:	e006      	b.n	80023e4 <HAL_GPIO_Init+0x25c>
 80023d6:	4b20      	ldr	r3, [pc, #128]	; (8002458 <HAL_GPIO_Init+0x2d0>)
 80023d8:	685a      	ldr	r2, [r3, #4]
 80023da:	69bb      	ldr	r3, [r7, #24]
 80023dc:	43db      	mvns	r3, r3
 80023de:	491e      	ldr	r1, [pc, #120]	; (8002458 <HAL_GPIO_Init+0x2d0>)
 80023e0:	4013      	ands	r3, r2
 80023e2:	604b      	str	r3, [r1, #4]
 80023e4:	683b      	ldr	r3, [r7, #0]
 80023e6:	685b      	ldr	r3, [r3, #4]
 80023e8:	f403 1380 	and.w	r3, r3, #1048576	; 0x100000
 80023ec:	2b00      	cmp	r3, #0
 80023ee:	d006      	beq.n	80023fe <HAL_GPIO_Init+0x276>
 80023f0:	4b19      	ldr	r3, [pc, #100]	; (8002458 <HAL_GPIO_Init+0x2d0>)
 80023f2:	689a      	ldr	r2, [r3, #8]
 80023f4:	4918      	ldr	r1, [pc, #96]	; (8002458 <HAL_GPIO_Init+0x2d0>)
 80023f6:	69bb      	ldr	r3, [r7, #24]
 80023f8:	4313      	orrs	r3, r2
 80023fa:	608b      	str	r3, [r1, #8]
 80023fc:	e006      	b.n	800240c <HAL_GPIO_Init+0x284>
 80023fe:	4b16      	ldr	r3, [pc, #88]	; (8002458 <HAL_GPIO_Init+0x2d0>)
 8002400:	689a      	ldr	r2, [r3, #8]
 8002402:	69bb      	ldr	r3, [r7, #24]
 8002404:	43db      	mvns	r3, r3
 8002406:	4914      	ldr	r1, [pc, #80]	; (8002458 <HAL_GPIO_Init+0x2d0>)
 8002408:	4013      	ands	r3, r2
 800240a:	608b      	str	r3, [r1, #8]
 800240c:	683b      	ldr	r3, [r7, #0]
 800240e:	685b      	ldr	r3, [r3, #4]
 8002410:	f403 1300 	and.w	r3, r3, #2097152	; 0x200000
 8002414:	2b00      	cmp	r3, #0
 8002416:	d021      	beq.n	800245c <HAL_GPIO_Init+0x2d4>
 8002418:	4b0f      	ldr	r3, [pc, #60]	; (8002458 <HAL_GPIO_Init+0x2d0>)
 800241a:	68da      	ldr	r2, [r3, #12]
 800241c:	490e      	ldr	r1, [pc, #56]	; (8002458 <HAL_GPIO_Init+0x2d0>)
 800241e:	69bb      	ldr	r3, [r7, #24]
 8002420:	4313      	orrs	r3, r2
 8002422:	60cb      	str	r3, [r1, #12]
 8002424:	e021      	b.n	800246a <HAL_GPIO_Init+0x2e2>
 8002426:	bf00      	nop
 8002428:	10320000 	.word	0x10320000
 800242c:	10310000 	.word	0x10310000
 8002430:	10220000 	.word	0x10220000
 8002434:	10210000 	.word	0x10210000
 8002438:	10120000 	.word	0x10120000
 800243c:	10110000 	.word	0x10110000
 8002440:	40021000 	.word	0x40021000
 8002444:	40010000 	.word	0x40010000
 8002448:	40010800 	.word	0x40010800
 800244c:	40010c00 	.word	0x40010c00
 8002450:	40011000 	.word	0x40011000
 8002454:	40011400 	.word	0x40011400
 8002458:	40010400 	.word	0x40010400
 800245c:	4b0b      	ldr	r3, [pc, #44]	; (800248c <HAL_GPIO_Init+0x304>)
 800245e:	68da      	ldr	r2, [r3, #12]
 8002460:	69bb      	ldr	r3, [r7, #24]
 8002462:	43db      	mvns	r3, r3
 8002464:	4909      	ldr	r1, [pc, #36]	; (800248c <HAL_GPIO_Init+0x304>)
 8002466:	4013      	ands	r3, r2
 8002468:	60cb      	str	r3, [r1, #12]
 800246a:	6a7b      	ldr	r3, [r7, #36]	; 0x24
 800246c:	3301      	adds	r3, #1
 800246e:	627b      	str	r3, [r7, #36]	; 0x24
 8002470:	683b      	ldr	r3, [r7, #0]
 8002472:	681a      	ldr	r2, [r3, #0]
 8002474:	6a7b      	ldr	r3, [r7, #36]	; 0x24
 8002476:	fa22 f303 	lsr.w	r3, r2, r3
 800247a:	2b00      	cmp	r3, #0
 800247c:	f47f ae8e 	bne.w	800219c <HAL_GPIO_Init+0x14>
 8002480:	bf00      	nop
 8002482:	bf00      	nop
 8002484:	372c      	adds	r7, #44	; 0x2c
 8002486:	46bd      	mov	sp, r7
 8002488:	bc80      	pop	{r7}
 800248a:	4770      	bx	lr
 800248c:	40010400 	.word	0x40010400

08002490 <HAL_GPIO_WritePin>:
 8002490:	b480      	push	{r7}
 8002492:	b083      	sub	sp, #12
 8002494:	af00      	add	r7, sp, #0
 8002496:	6078      	str	r0, [r7, #4]
 8002498:	460b      	mov	r3, r1
 800249a:	807b      	strh	r3, [r7, #2]
 800249c:	4613      	mov	r3, r2
 800249e:	707b      	strb	r3, [r7, #1]
 80024a0:	787b      	ldrb	r3, [r7, #1]
 80024a2:	2b00      	cmp	r3, #0
 80024a4:	d003      	beq.n	80024ae <HAL_GPIO_WritePin+0x1e>
 80024a6:	887a      	ldrh	r2, [r7, #2]
 80024a8:	687b      	ldr	r3, [r7, #4]
 80024aa:	611a      	str	r2, [r3, #16]
 80024ac:	e003      	b.n	80024b6 <HAL_GPIO_WritePin+0x26>
 80024ae:	887b      	ldrh	r3, [r7, #2]
 80024b0:	041a      	lsls	r2, r3, #16
 80024b2:	687b      	ldr	r3, [r7, #4]
 80024b4:	611a      	str	r2, [r3, #16]
 80024b6:	bf00      	nop
 80024b8:	370c      	adds	r7, #12
 80024ba:	46bd      	mov	sp, r7
 80024bc:	bc80      	pop	{r7}
 80024be:	4770      	bx	lr

080024c0 <HAL_GPIO_EXTI_IRQHandler>:
 80024c0:	b580      	push	{r7, lr}
 80024c2:	b082      	sub	sp, #8
 80024c4:	af00      	add	r7, sp, #0
 80024c6:	4603      	mov	r3, r0
 80024c8:	80fb      	strh	r3, [r7, #6]
 80024ca:	4b08      	ldr	r3, [pc, #32]	; (80024ec <HAL_GPIO_EXTI_IRQHandler+0x2c>)
 80024cc:	695a      	ldr	r2, [r3, #20]
 80024ce:	88fb      	ldrh	r3, [r7, #6]
 80024d0:	4013      	ands	r3, r2
 80024d2:	2b00      	cmp	r3, #0
 80024d4:	d006      	beq.n	80024e4 <HAL_GPIO_EXTI_IRQHandler+0x24>
 80024d6:	4a05      	ldr	r2, [pc, #20]	; (80024ec <HAL_GPIO_EXTI_IRQHandler+0x2c>)
 80024d8:	88fb      	ldrh	r3, [r7, #6]
 80024da:	6153      	str	r3, [r2, #20]
 80024dc:	88fb      	ldrh	r3, [r7, #6]
 80024de:	4618      	mov	r0, r3
 80024e0:	f7fe fb50 	bl	8000b84 <HAL_GPIO_EXTI_Callback>
 80024e4:	bf00      	nop
 80024e6:	3708      	adds	r7, #8
 80024e8:	46bd      	mov	sp, r7
 80024ea:	bd80      	pop	{r7, pc}
 80024ec:	40010400 	.word	0x40010400

080024f0 <HAL_I2C_Init>:
 80024f0:	b580      	push	{r7, lr}
 80024f2:	b084      	sub	sp, #16
 80024f4:	af00      	add	r7, sp, #0
 80024f6:	6078      	str	r0, [r7, #4]
 80024f8:	687b      	ldr	r3, [r7, #4]
 80024fa:	2b00      	cmp	r3, #0
 80024fc:	d101      	bne.n	8002502 <HAL_I2C_Init+0x12>
 80024fe:	2301      	movs	r3, #1
 8002500:	e12b      	b.n	800275a <HAL_I2C_Init+0x26a>
 8002502:	687b      	ldr	r3, [r7, #4]
 8002504:	f893 303d 	ldrb.w	r3, [r3, #61]	; 0x3d
 8002508:	b2db      	uxtb	r3, r3
 800250a:	2b00      	cmp	r3, #0
 800250c:	d106      	bne.n	800251c <HAL_I2C_Init+0x2c>
 800250e:	687b      	ldr	r3, [r7, #4]
 8002510:	2200      	movs	r2, #0
 8002512:	f883 203c 	strb.w	r2, [r3, #60]	; 0x3c
 8002516:	6878      	ldr	r0, [r7, #4]
 8002518:	f7fe fc9c 	bl	8000e54 <HAL_I2C_MspInit>
 800251c:	687b      	ldr	r3, [r7, #4]
 800251e:	2224      	movs	r2, #36	; 0x24
 8002520:	f883 203d 	strb.w	r2, [r3, #61]	; 0x3d
 8002524:	687b      	ldr	r3, [r7, #4]
 8002526:	681b      	ldr	r3, [r3, #0]
 8002528:	681a      	ldr	r2, [r3, #0]
 800252a:	687b      	ldr	r3, [r7, #4]
 800252c:	681b      	ldr	r3, [r3, #0]
 800252e:	f022 0201 	bic.w	r2, r2, #1
 8002532:	601a      	str	r2, [r3, #0]
 8002534:	687b      	ldr	r3, [r7, #4]
 8002536:	681b      	ldr	r3, [r3, #0]
 8002538:	681a      	ldr	r2, [r3, #0]
 800253a:	687b      	ldr	r3, [r7, #4]
 800253c:	681b      	ldr	r3, [r3, #0]
 800253e:	f442 4200 	orr.w	r2, r2, #32768	; 0x8000
 8002542:	601a      	str	r2, [r3, #0]
 8002544:	687b      	ldr	r3, [r7, #4]
 8002546:	681b      	ldr	r3, [r3, #0]
 8002548:	681a      	ldr	r2, [r3, #0]
 800254a:	687b      	ldr	r3, [r7, #4]
 800254c:	681b      	ldr	r3, [r3, #0]
 800254e:	f422 4200 	bic.w	r2, r2, #32768	; 0x8000
 8002552:	601a      	str	r2, [r3, #0]
 8002554:	f000 ffea 	bl	800352c <HAL_RCC_GetPCLK1Freq>
 8002558:	60f8      	str	r0, [r7, #12]
 800255a:	687b      	ldr	r3, [r7, #4]
 800255c:	685b      	ldr	r3, [r3, #4]
 800255e:	4a81      	ldr	r2, [pc, #516]	; (8002764 <HAL_I2C_Init+0x274>)
 8002560:	4293      	cmp	r3, r2
 8002562:	d807      	bhi.n	8002574 <HAL_I2C_Init+0x84>
 8002564:	68fb      	ldr	r3, [r7, #12]
 8002566:	4a80      	ldr	r2, [pc, #512]	; (8002768 <HAL_I2C_Init+0x278>)
 8002568:	4293      	cmp	r3, r2
 800256a:	bf94      	ite	ls
 800256c:	2301      	movls	r3, #1
 800256e:	2300      	movhi	r3, #0
 8002570:	b2db      	uxtb	r3, r3
 8002572:	e006      	b.n	8002582 <HAL_I2C_Init+0x92>
 8002574:	68fb      	ldr	r3, [r7, #12]
 8002576:	4a7d      	ldr	r2, [pc, #500]	; (800276c <HAL_I2C_Init+0x27c>)
 8002578:	4293      	cmp	r3, r2
 800257a:	bf94      	ite	ls
 800257c:	2301      	movls	r3, #1
 800257e:	2300      	movhi	r3, #0
 8002580:	b2db      	uxtb	r3, r3
 8002582:	2b00      	cmp	r3, #0
 8002584:	d001      	beq.n	800258a <HAL_I2C_Init+0x9a>
 8002586:	2301      	movs	r3, #1
 8002588:	e0e7      	b.n	800275a <HAL_I2C_Init+0x26a>
 800258a:	68fb      	ldr	r3, [r7, #12]
 800258c:	4a78      	ldr	r2, [pc, #480]	; (8002770 <HAL_I2C_Init+0x280>)
 800258e:	fba2 2303 	umull	r2, r3, r2, r3
 8002592:	0c9b      	lsrs	r3, r3, #18
 8002594:	60bb      	str	r3, [r7, #8]
 8002596:	687b      	ldr	r3, [r7, #4]
 8002598:	681b      	ldr	r3, [r3, #0]
 800259a:	685b      	ldr	r3, [r3, #4]
 800259c:	f023 013f 	bic.w	r1, r3, #63	; 0x3f
 80025a0:	687b      	ldr	r3, [r7, #4]
 80025a2:	681b      	ldr	r3, [r3, #0]
 80025a4:	68ba      	ldr	r2, [r7, #8]
 80025a6:	430a      	orrs	r2, r1
 80025a8:	605a      	str	r2, [r3, #4]
 80025aa:	687b      	ldr	r3, [r7, #4]
 80025ac:	681b      	ldr	r3, [r3, #0]
 80025ae:	6a1b      	ldr	r3, [r3, #32]
 80025b0:	f023 013f 	bic.w	r1, r3, #63	; 0x3f
 80025b4:	687b      	ldr	r3, [r7, #4]
 80025b6:	685b      	ldr	r3, [r3, #4]
 80025b8:	4a6a      	ldr	r2, [pc, #424]	; (8002764 <HAL_I2C_Init+0x274>)
 80025ba:	4293      	cmp	r3, r2
 80025bc:	d802      	bhi.n	80025c4 <HAL_I2C_Init+0xd4>
 80025be:	68bb      	ldr	r3, [r7, #8]
 80025c0:	3301      	adds	r3, #1
 80025c2:	e009      	b.n	80025d8 <HAL_I2C_Init+0xe8>
 80025c4:	68bb      	ldr	r3, [r7, #8]
 80025c6:	f44f 7296 	mov.w	r2, #300	; 0x12c
 80025ca:	fb02 f303 	mul.w	r3, r2, r3
 80025ce:	4a69      	ldr	r2, [pc, #420]	; (8002774 <HAL_I2C_Init+0x284>)
 80025d0:	fba2 2303 	umull	r2, r3, r2, r3
 80025d4:	099b      	lsrs	r3, r3, #6
 80025d6:	3301      	adds	r3, #1
 80025d8:	687a      	ldr	r2, [r7, #4]
 80025da:	6812      	ldr	r2, [r2, #0]
 80025dc:	430b      	orrs	r3, r1
 80025de:	6213      	str	r3, [r2, #32]
 80025e0:	687b      	ldr	r3, [r7, #4]
 80025e2:	681b      	ldr	r3, [r3, #0]
 80025e4:	69db      	ldr	r3, [r3, #28]
 80025e6:	f423 424f 	bic.w	r2, r3, #52992	; 0xcf00
 80025ea:	f022 02ff 	bic.w	r2, r2, #255	; 0xff
 80025ee:	687b      	ldr	r3, [r7, #4]
 80025f0:	685b      	ldr	r3, [r3, #4]
 80025f2:	495c      	ldr	r1, [pc, #368]	; (8002764 <HAL_I2C_Init+0x274>)
 80025f4:	428b      	cmp	r3, r1
 80025f6:	d819      	bhi.n	800262c <HAL_I2C_Init+0x13c>
 80025f8:	68fb      	ldr	r3, [r7, #12]
 80025fa:	1e59      	subs	r1, r3, #1
 80025fc:	687b      	ldr	r3, [r7, #4]
 80025fe:	685b      	ldr	r3, [r3, #4]
 8002600:	005b      	lsls	r3, r3, #1
 8002602:	fbb1 f3f3 	udiv	r3, r1, r3
 8002606:	1c59      	adds	r1, r3, #1
 8002608:	f640 73fc 	movw	r3, #4092	; 0xffc
 800260c:	400b      	ands	r3, r1
 800260e:	2b00      	cmp	r3, #0
 8002610:	d00a      	beq.n	8002628 <HAL_I2C_Init+0x138>
 8002612:	68fb      	ldr	r3, [r7, #12]
 8002614:	1e59      	subs	r1, r3, #1
 8002616:	687b      	ldr	r3, [r7, #4]
 8002618:	685b      	ldr	r3, [r3, #4]
 800261a:	005b      	lsls	r3, r3, #1
 800261c:	fbb1 f3f3 	udiv	r3, r1, r3
 8002620:	3301      	adds	r3, #1
 8002622:	f3c3 030b 	ubfx	r3, r3, #0, #12
 8002626:	e051      	b.n	80026cc <HAL_I2C_Init+0x1dc>
 8002628:	2304      	movs	r3, #4
 800262a:	e04f      	b.n	80026cc <HAL_I2C_Init+0x1dc>
 800262c:	687b      	ldr	r3, [r7, #4]
 800262e:	689b      	ldr	r3, [r3, #8]
 8002630:	2b00      	cmp	r3, #0
 8002632:	d111      	bne.n	8002658 <HAL_I2C_Init+0x168>
 8002634:	68fb      	ldr	r3, [r7, #12]
 8002636:	1e58      	subs	r0, r3, #1
 8002638:	687b      	ldr	r3, [r7, #4]
 800263a:	6859      	ldr	r1, [r3, #4]
 800263c:	460b      	mov	r3, r1
 800263e:	005b      	lsls	r3, r3, #1
 8002640:	440b      	add	r3, r1
 8002642:	fbb0 f3f3 	udiv	r3, r0, r3
 8002646:	3301      	adds	r3, #1
 8002648:	f3c3 030b 	ubfx	r3, r3, #0, #12
 800264c:	2b00      	cmp	r3, #0
 800264e:	bf0c      	ite	eq
 8002650:	2301      	moveq	r3, #1
 8002652:	2300      	movne	r3, #0
 8002654:	b2db      	uxtb	r3, r3
 8002656:	e012      	b.n	800267e <HAL_I2C_Init+0x18e>
 8002658:	68fb      	ldr	r3, [r7, #12]
 800265a:	1e58      	subs	r0, r3, #1
 800265c:	687b      	ldr	r3, [r7, #4]
 800265e:	6859      	ldr	r1, [r3, #4]
 8002660:	460b      	mov	r3, r1
 8002662:	009b      	lsls	r3, r3, #2
 8002664:	440b      	add	r3, r1
 8002666:	0099      	lsls	r1, r3, #2
 8002668:	440b      	add	r3, r1
 800266a:	fbb0 f3f3 	udiv	r3, r0, r3
 800266e:	3301      	adds	r3, #1
 8002670:	f3c3 030b 	ubfx	r3, r3, #0, #12
 8002674:	2b00      	cmp	r3, #0
 8002676:	bf0c      	ite	eq
 8002678:	2301      	moveq	r3, #1
 800267a:	2300      	movne	r3, #0
 800267c:	b2db      	uxtb	r3, r3
 800267e:	2b00      	cmp	r3, #0
 8002680:	d001      	beq.n	8002686 <HAL_I2C_Init+0x196>
 8002682:	2301      	movs	r3, #1
 8002684:	e022      	b.n	80026cc <HAL_I2C_Init+0x1dc>
 8002686:	687b      	ldr	r3, [r7, #4]
 8002688:	689b      	ldr	r3, [r3, #8]
 800268a:	2b00      	cmp	r3, #0
 800268c:	d10e      	bne.n	80026ac <HAL_I2C_Init+0x1bc>
 800268e:	68fb      	ldr	r3, [r7, #12]
 8002690:	1e58      	subs	r0, r3, #1
 8002692:	687b      	ldr	r3, [r7, #4]
 8002694:	6859      	ldr	r1, [r3, #4]
 8002696:	460b      	mov	r3, r1
 8002698:	005b      	lsls	r3, r3, #1
 800269a:	440b      	add	r3, r1
 800269c:	fbb0 f3f3 	udiv	r3, r0, r3
 80026a0:	3301      	adds	r3, #1
 80026a2:	f3c3 030b 	ubfx	r3, r3, #0, #12
 80026a6:	f443 4300 	orr.w	r3, r3, #32768	; 0x8000
 80026aa:	e00f      	b.n	80026cc <HAL_I2C_Init+0x1dc>
 80026ac:	68fb      	ldr	r3, [r7, #12]
 80026ae:	1e58      	subs	r0, r3, #1
 80026b0:	687b      	ldr	r3, [r7, #4]
 80026b2:	6859      	ldr	r1, [r3, #4]
 80026b4:	460b      	mov	r3, r1
 80026b6:	009b      	lsls	r3, r3, #2
 80026b8:	440b      	add	r3, r1
 80026ba:	0099      	lsls	r1, r3, #2
 80026bc:	440b      	add	r3, r1
 80026be:	fbb0 f3f3 	udiv	r3, r0, r3
 80026c2:	3301      	adds	r3, #1
 80026c4:	f3c3 030b 	ubfx	r3, r3, #0, #12
 80026c8:	f443 4340 	orr.w	r3, r3, #49152	; 0xc000
 80026cc:	6879      	ldr	r1, [r7, #4]
 80026ce:	6809      	ldr	r1, [r1, #0]
 80026d0:	4313      	orrs	r3, r2
 80026d2:	61cb      	str	r3, [r1, #28]
 80026d4:	687b      	ldr	r3, [r7, #4]
 80026d6:	681b      	ldr	r3, [r3, #0]
 80026d8:	681b      	ldr	r3, [r3, #0]
 80026da:	f023 01c0 	bic.w	r1, r3, #192	; 0xc0
 80026de:	687b      	ldr	r3, [r7, #4]
 80026e0:	69da      	ldr	r2, [r3, #28]
 80026e2:	687b      	ldr	r3, [r7, #4]
 80026e4:	6a1b      	ldr	r3, [r3, #32]
 80026e6:	431a      	orrs	r2, r3
 80026e8:	687b      	ldr	r3, [r7, #4]
 80026ea:	681b      	ldr	r3, [r3, #0]
 80026ec:	430a      	orrs	r2, r1
 80026ee:	601a      	str	r2, [r3, #0]
 80026f0:	687b      	ldr	r3, [r7, #4]
 80026f2:	681b      	ldr	r3, [r3, #0]
 80026f4:	689b      	ldr	r3, [r3, #8]
 80026f6:	f423 4303 	bic.w	r3, r3, #33536	; 0x8300
 80026fa:	f023 03ff 	bic.w	r3, r3, #255	; 0xff
 80026fe:	687a      	ldr	r2, [r7, #4]
 8002700:	6911      	ldr	r1, [r2, #16]
 8002702:	687a      	ldr	r2, [r7, #4]
 8002704:	68d2      	ldr	r2, [r2, #12]
 8002706:	4311      	orrs	r1, r2
 8002708:	687a      	ldr	r2, [r7, #4]
 800270a:	6812      	ldr	r2, [r2, #0]
 800270c:	430b      	orrs	r3, r1
 800270e:	6093      	str	r3, [r2, #8]
 8002710:	687b      	ldr	r3, [r7, #4]
 8002712:	681b      	ldr	r3, [r3, #0]
 8002714:	68db      	ldr	r3, [r3, #12]
 8002716:	f023 01ff 	bic.w	r1, r3, #255	; 0xff
 800271a:	687b      	ldr	r3, [r7, #4]
 800271c:	695a      	ldr	r2, [r3, #20]
 800271e:	687b      	ldr	r3, [r7, #4]
 8002720:	699b      	ldr	r3, [r3, #24]
 8002722:	431a      	orrs	r2, r3
 8002724:	687b      	ldr	r3, [r7, #4]
 8002726:	681b      	ldr	r3, [r3, #0]
 8002728:	430a      	orrs	r2, r1
 800272a:	60da      	str	r2, [r3, #12]
 800272c:	687b      	ldr	r3, [r7, #4]
 800272e:	681b      	ldr	r3, [r3, #0]
 8002730:	681a      	ldr	r2, [r3, #0]
 8002732:	687b      	ldr	r3, [r7, #4]
 8002734:	681b      	ldr	r3, [r3, #0]
 8002736:	f042 0201 	orr.w	r2, r2, #1
 800273a:	601a      	str	r2, [r3, #0]
 800273c:	687b      	ldr	r3, [r7, #4]
 800273e:	2200      	movs	r2, #0
 8002740:	641a      	str	r2, [r3, #64]	; 0x40
 8002742:	687b      	ldr	r3, [r7, #4]
 8002744:	2220      	movs	r2, #32
 8002746:	f883 203d 	strb.w	r2, [r3, #61]	; 0x3d
 800274a:	687b      	ldr	r3, [r7, #4]
 800274c:	2200      	movs	r2, #0
 800274e:	631a      	str	r2, [r3, #48]	; 0x30
 8002750:	687b      	ldr	r3, [r7, #4]
 8002752:	2200      	movs	r2, #0
 8002754:	f883 203e 	strb.w	r2, [r3, #62]	; 0x3e
 8002758:	2300      	movs	r3, #0
 800275a:	4618      	mov	r0, r3
 800275c:	3710      	adds	r7, #16
 800275e:	46bd      	mov	sp, r7
 8002760:	bd80      	pop	{r7, pc}
 8002762:	bf00      	nop
 8002764:	000186a0 	.word	0x000186a0
 8002768:	001e847f 	.word	0x001e847f
 800276c:	003d08ff 	.word	0x003d08ff
 8002770:	431bde83 	.word	0x431bde83
 8002774:	10624dd3 	.word	0x10624dd3

08002778 <HAL_I2C_Master_Transmit>:
 8002778:	b580      	push	{r7, lr}
 800277a:	b088      	sub	sp, #32
 800277c:	af02      	add	r7, sp, #8
 800277e:	60f8      	str	r0, [r7, #12]
 8002780:	607a      	str	r2, [r7, #4]
 8002782:	461a      	mov	r2, r3
 8002784:	460b      	mov	r3, r1
 8002786:	817b      	strh	r3, [r7, #10]
 8002788:	4613      	mov	r3, r2
 800278a:	813b      	strh	r3, [r7, #8]
 800278c:	f7fe fe06 	bl	800139c <HAL_GetTick>
 8002790:	6178      	str	r0, [r7, #20]
 8002792:	68fb      	ldr	r3, [r7, #12]
 8002794:	f893 303d 	ldrb.w	r3, [r3, #61]	; 0x3d
 8002798:	b2db      	uxtb	r3, r3
 800279a:	2b20      	cmp	r3, #32
 800279c:	f040 80e0 	bne.w	8002960 <HAL_I2C_Master_Transmit+0x1e8>
 80027a0:	697b      	ldr	r3, [r7, #20]
 80027a2:	9300      	str	r3, [sp, #0]
 80027a4:	2319      	movs	r3, #25
 80027a6:	2201      	movs	r2, #1
 80027a8:	4970      	ldr	r1, [pc, #448]	; (800296c <HAL_I2C_Master_Transmit+0x1f4>)
 80027aa:	68f8      	ldr	r0, [r7, #12]
 80027ac:	f000 f964 	bl	8002a78 <I2C_WaitOnFlagUntilTimeout>
 80027b0:	4603      	mov	r3, r0
 80027b2:	2b00      	cmp	r3, #0
 80027b4:	d001      	beq.n	80027ba <HAL_I2C_Master_Transmit+0x42>
 80027b6:	2302      	movs	r3, #2
 80027b8:	e0d3      	b.n	8002962 <HAL_I2C_Master_Transmit+0x1ea>
 80027ba:	68fb      	ldr	r3, [r7, #12]
 80027bc:	f893 303c 	ldrb.w	r3, [r3, #60]	; 0x3c
 80027c0:	2b01      	cmp	r3, #1
 80027c2:	d101      	bne.n	80027c8 <HAL_I2C_Master_Transmit+0x50>
 80027c4:	2302      	movs	r3, #2
 80027c6:	e0cc      	b.n	8002962 <HAL_I2C_Master_Transmit+0x1ea>
 80027c8:	68fb      	ldr	r3, [r7, #12]
 80027ca:	2201      	movs	r2, #1
 80027cc:	f883 203c 	strb.w	r2, [r3, #60]	; 0x3c
 80027d0:	68fb      	ldr	r3, [r7, #12]
 80027d2:	681b      	ldr	r3, [r3, #0]
 80027d4:	681b      	ldr	r3, [r3, #0]
 80027d6:	f003 0301 	and.w	r3, r3, #1
 80027da:	2b01      	cmp	r3, #1
 80027dc:	d007      	beq.n	80027ee <HAL_I2C_Master_Transmit+0x76>
 80027de:	68fb      	ldr	r3, [r7, #12]
 80027e0:	681b      	ldr	r3, [r3, #0]
 80027e2:	681a      	ldr	r2, [r3, #0]
 80027e4:	68fb      	ldr	r3, [r7, #12]
 80027e6:	681b      	ldr	r3, [r3, #0]
 80027e8:	f042 0201 	orr.w	r2, r2, #1
 80027ec:	601a      	str	r2, [r3, #0]
 80027ee:	68fb      	ldr	r3, [r7, #12]
 80027f0:	681b      	ldr	r3, [r3, #0]
 80027f2:	681a      	ldr	r2, [r3, #0]
 80027f4:	68fb      	ldr	r3, [r7, #12]
 80027f6:	681b      	ldr	r3, [r3, #0]
 80027f8:	f422 6200 	bic.w	r2, r2, #2048	; 0x800
 80027fc:	601a      	str	r2, [r3, #0]
 80027fe:	68fb      	ldr	r3, [r7, #12]
 8002800:	2221      	movs	r2, #33	; 0x21
 8002802:	f883 203d 	strb.w	r2, [r3, #61]	; 0x3d
 8002806:	68fb      	ldr	r3, [r7, #12]
 8002808:	2210      	movs	r2, #16
 800280a:	f883 203e 	strb.w	r2, [r3, #62]	; 0x3e
 800280e:	68fb      	ldr	r3, [r7, #12]
 8002810:	2200      	movs	r2, #0
 8002812:	641a      	str	r2, [r3, #64]	; 0x40
 8002814:	68fb      	ldr	r3, [r7, #12]
 8002816:	687a      	ldr	r2, [r7, #4]
 8002818:	625a      	str	r2, [r3, #36]	; 0x24
 800281a:	68fb      	ldr	r3, [r7, #12]
 800281c:	893a      	ldrh	r2, [r7, #8]
 800281e:	855a      	strh	r2, [r3, #42]	; 0x2a
 8002820:	68fb      	ldr	r3, [r7, #12]
 8002822:	8d5b      	ldrh	r3, [r3, #42]	; 0x2a
 8002824:	b29a      	uxth	r2, r3
 8002826:	68fb      	ldr	r3, [r7, #12]
 8002828:	851a      	strh	r2, [r3, #40]	; 0x28
 800282a:	68fb      	ldr	r3, [r7, #12]
 800282c:	4a50      	ldr	r2, [pc, #320]	; (8002970 <HAL_I2C_Master_Transmit+0x1f8>)
 800282e:	62da      	str	r2, [r3, #44]	; 0x2c
 8002830:	8979      	ldrh	r1, [r7, #10]
 8002832:	697b      	ldr	r3, [r7, #20]
 8002834:	6a3a      	ldr	r2, [r7, #32]
 8002836:	68f8      	ldr	r0, [r7, #12]
 8002838:	f000 f89c 	bl	8002974 <I2C_MasterRequestWrite>
 800283c:	4603      	mov	r3, r0
 800283e:	2b00      	cmp	r3, #0
 8002840:	d001      	beq.n	8002846 <HAL_I2C_Master_Transmit+0xce>
 8002842:	2301      	movs	r3, #1
 8002844:	e08d      	b.n	8002962 <HAL_I2C_Master_Transmit+0x1ea>
 8002846:	2300      	movs	r3, #0
 8002848:	613b      	str	r3, [r7, #16]
 800284a:	68fb      	ldr	r3, [r7, #12]
 800284c:	681b      	ldr	r3, [r3, #0]
 800284e:	695b      	ldr	r3, [r3, #20]
 8002850:	613b      	str	r3, [r7, #16]
 8002852:	68fb      	ldr	r3, [r7, #12]
 8002854:	681b      	ldr	r3, [r3, #0]
 8002856:	699b      	ldr	r3, [r3, #24]
 8002858:	613b      	str	r3, [r7, #16]
 800285a:	693b      	ldr	r3, [r7, #16]
 800285c:	e066      	b.n	800292c <HAL_I2C_Master_Transmit+0x1b4>
 800285e:	697a      	ldr	r2, [r7, #20]
 8002860:	6a39      	ldr	r1, [r7, #32]
 8002862:	68f8      	ldr	r0, [r7, #12]
 8002864:	f000 f9de 	bl	8002c24 <I2C_WaitOnTXEFlagUntilTimeout>
 8002868:	4603      	mov	r3, r0
 800286a:	2b00      	cmp	r3, #0
 800286c:	d00d      	beq.n	800288a <HAL_I2C_Master_Transmit+0x112>
 800286e:	68fb      	ldr	r3, [r7, #12]
 8002870:	6c1b      	ldr	r3, [r3, #64]	; 0x40
 8002872:	2b04      	cmp	r3, #4
 8002874:	d107      	bne.n	8002886 <HAL_I2C_Master_Transmit+0x10e>
 8002876:	68fb      	ldr	r3, [r7, #12]
 8002878:	681b      	ldr	r3, [r3, #0]
 800287a:	681a      	ldr	r2, [r3, #0]
 800287c:	68fb      	ldr	r3, [r7, #12]
 800287e:	681b      	ldr	r3, [r3, #0]
 8002880:	f442 7200 	orr.w	r2, r2, #512	; 0x200
 8002884:	601a      	str	r2, [r3, #0]
 8002886:	2301      	movs	r3, #1
 8002888:	e06b      	b.n	8002962 <HAL_I2C_Master_Transmit+0x1ea>
 800288a:	68fb      	ldr	r3, [r7, #12]
 800288c:	6a5b      	ldr	r3, [r3, #36]	; 0x24
 800288e:	781a      	ldrb	r2, [r3, #0]
 8002890:	68fb      	ldr	r3, [r7, #12]
 8002892:	681b      	ldr	r3, [r3, #0]
 8002894:	611a      	str	r2, [r3, #16]
 8002896:	68fb      	ldr	r3, [r7, #12]
 8002898:	6a5b      	ldr	r3, [r3, #36]	; 0x24
 800289a:	1c5a      	adds	r2, r3, #1
 800289c:	68fb      	ldr	r3, [r7, #12]
 800289e:	625a      	str	r2, [r3, #36]	; 0x24
 80028a0:	68fb      	ldr	r3, [r7, #12]
 80028a2:	8d5b      	ldrh	r3, [r3, #42]	; 0x2a
 80028a4:	b29b      	uxth	r3, r3
 80028a6:	3b01      	subs	r3, #1
 80028a8:	b29a      	uxth	r2, r3
 80028aa:	68fb      	ldr	r3, [r7, #12]
 80028ac:	855a      	strh	r2, [r3, #42]	; 0x2a
 80028ae:	68fb      	ldr	r3, [r7, #12]
 80028b0:	8d1b      	ldrh	r3, [r3, #40]	; 0x28
 80028b2:	3b01      	subs	r3, #1
 80028b4:	b29a      	uxth	r2, r3
 80028b6:	68fb      	ldr	r3, [r7, #12]
 80028b8:	851a      	strh	r2, [r3, #40]	; 0x28
 80028ba:	68fb      	ldr	r3, [r7, #12]
 80028bc:	681b      	ldr	r3, [r3, #0]
 80028be:	695b      	ldr	r3, [r3, #20]
 80028c0:	f003 0304 	and.w	r3, r3, #4
 80028c4:	2b04      	cmp	r3, #4
 80028c6:	d11b      	bne.n	8002900 <HAL_I2C_Master_Transmit+0x188>
 80028c8:	68fb      	ldr	r3, [r7, #12]
 80028ca:	8d1b      	ldrh	r3, [r3, #40]	; 0x28
 80028cc:	2b00      	cmp	r3, #0
 80028ce:	d017      	beq.n	8002900 <HAL_I2C_Master_Transmit+0x188>
 80028d0:	68fb      	ldr	r3, [r7, #12]
 80028d2:	6a5b      	ldr	r3, [r3, #36]	; 0x24
 80028d4:	781a      	ldrb	r2, [r3, #0]
 80028d6:	68fb      	ldr	r3, [r7, #12]
 80028d8:	681b      	ldr	r3, [r3, #0]
 80028da:	611a      	str	r2, [r3, #16]
 80028dc:	68fb      	ldr	r3, [r7, #12]
 80028de:	6a5b      	ldr	r3, [r3, #36]	; 0x24
 80028e0:	1c5a      	adds	r2, r3, #1
 80028e2:	68fb      	ldr	r3, [r7, #12]
 80028e4:	625a      	str	r2, [r3, #36]	; 0x24
 80028e6:	68fb      	ldr	r3, [r7, #12]
 80028e8:	8d5b      	ldrh	r3, [r3, #42]	; 0x2a
 80028ea:	b29b      	uxth	r3, r3
 80028ec:	3b01      	subs	r3, #1
 80028ee:	b29a      	uxth	r2, r3
 80028f0:	68fb      	ldr	r3, [r7, #12]
 80028f2:	855a      	strh	r2, [r3, #42]	; 0x2a
 80028f4:	68fb      	ldr	r3, [r7, #12]
 80028f6:	8d1b      	ldrh	r3, [r3, #40]	; 0x28
 80028f8:	3b01      	subs	r3, #1
 80028fa:	b29a      	uxth	r2, r3
 80028fc:	68fb      	ldr	r3, [r7, #12]
 80028fe:	851a      	strh	r2, [r3, #40]	; 0x28
 8002900:	697a      	ldr	r2, [r7, #20]
 8002902:	6a39      	ldr	r1, [r7, #32]
 8002904:	68f8      	ldr	r0, [r7, #12]
 8002906:	f000 f9ce 	bl	8002ca6 <I2C_WaitOnBTFFlagUntilTimeout>
 800290a:	4603      	mov	r3, r0
 800290c:	2b00      	cmp	r3, #0
 800290e:	d00d      	beq.n	800292c <HAL_I2C_Master_Transmit+0x1b4>
 8002910:	68fb      	ldr	r3, [r7, #12]
 8002912:	6c1b      	ldr	r3, [r3, #64]	; 0x40
 8002914:	2b04      	cmp	r3, #4
 8002916:	d107      	bne.n	8002928 <HAL_I2C_Master_Transmit+0x1b0>
 8002918:	68fb      	ldr	r3, [r7, #12]
 800291a:	681b      	ldr	r3, [r3, #0]
 800291c:	681a      	ldr	r2, [r3, #0]
 800291e:	68fb      	ldr	r3, [r7, #12]
 8002920:	681b      	ldr	r3, [r3, #0]
 8002922:	f442 7200 	orr.w	r2, r2, #512	; 0x200
 8002926:	601a      	str	r2, [r3, #0]
 8002928:	2301      	movs	r3, #1
 800292a:	e01a      	b.n	8002962 <HAL_I2C_Master_Transmit+0x1ea>
 800292c:	68fb      	ldr	r3, [r7, #12]
 800292e:	8d1b      	ldrh	r3, [r3, #40]	; 0x28
 8002930:	2b00      	cmp	r3, #0
 8002932:	d194      	bne.n	800285e <HAL_I2C_Master_Transmit+0xe6>
 8002934:	68fb      	ldr	r3, [r7, #12]
 8002936:	681b      	ldr	r3, [r3, #0]
 8002938:	681a      	ldr	r2, [r3, #0]
 800293a:	68fb      	ldr	r3, [r7, #12]
 800293c:	681b      	ldr	r3, [r3, #0]
 800293e:	f442 7200 	orr.w	r2, r2, #512	; 0x200
 8002942:	601a      	str	r2, [r3, #0]
 8002944:	68fb      	ldr	r3, [r7, #12]
 8002946:	2220      	movs	r2, #32
 8002948:	f883 203d 	strb.w	r2, [r3, #61]	; 0x3d
 800294c:	68fb      	ldr	r3, [r7, #12]
 800294e:	2200      	movs	r2, #0
 8002950:	f883 203e 	strb.w	r2, [r3, #62]	; 0x3e
 8002954:	68fb      	ldr	r3, [r7, #12]
 8002956:	2200      	movs	r2, #0
 8002958:	f883 203c 	strb.w	r2, [r3, #60]	; 0x3c
 800295c:	2300      	movs	r3, #0
 800295e:	e000      	b.n	8002962 <HAL_I2C_Master_Transmit+0x1ea>
 8002960:	2302      	movs	r3, #2
 8002962:	4618      	mov	r0, r3
 8002964:	3718      	adds	r7, #24
 8002966:	46bd      	mov	sp, r7
 8002968:	bd80      	pop	{r7, pc}
 800296a:	bf00      	nop
 800296c:	00100002 	.word	0x00100002
 8002970:	ffff0000 	.word	0xffff0000

08002974 <I2C_MasterRequestWrite>:
 8002974:	b580      	push	{r7, lr}
 8002976:	b088      	sub	sp, #32
 8002978:	af02      	add	r7, sp, #8
 800297a:	60f8      	str	r0, [r7, #12]
 800297c:	607a      	str	r2, [r7, #4]
 800297e:	603b      	str	r3, [r7, #0]
 8002980:	460b      	mov	r3, r1
 8002982:	817b      	strh	r3, [r7, #10]
 8002984:	68fb      	ldr	r3, [r7, #12]
 8002986:	6adb      	ldr	r3, [r3, #44]	; 0x2c
 8002988:	617b      	str	r3, [r7, #20]
 800298a:	697b      	ldr	r3, [r7, #20]
 800298c:	2b08      	cmp	r3, #8
 800298e:	d006      	beq.n	800299e <I2C_MasterRequestWrite+0x2a>
 8002990:	697b      	ldr	r3, [r7, #20]
 8002992:	2b01      	cmp	r3, #1
 8002994:	d003      	beq.n	800299e <I2C_MasterRequestWrite+0x2a>
 8002996:	697b      	ldr	r3, [r7, #20]
 8002998:	f513 3f80 	cmn.w	r3, #65536	; 0x10000
 800299c:	d108      	bne.n	80029b0 <I2C_MasterRequestWrite+0x3c>
 800299e:	68fb      	ldr	r3, [r7, #12]
 80029a0:	681b      	ldr	r3, [r3, #0]
 80029a2:	681a      	ldr	r2, [r3, #0]
 80029a4:	68fb      	ldr	r3, [r7, #12]
 80029a6:	681b      	ldr	r3, [r3, #0]
 80029a8:	f442 7280 	orr.w	r2, r2, #256	; 0x100
 80029ac:	601a      	str	r2, [r3, #0]
 80029ae:	e00b      	b.n	80029c8 <I2C_MasterRequestWrite+0x54>
 80029b0:	68fb      	ldr	r3, [r7, #12]
 80029b2:	6b1b      	ldr	r3, [r3, #48]	; 0x30
 80029b4:	2b12      	cmp	r3, #18
 80029b6:	d107      	bne.n	80029c8 <I2C_MasterRequestWrite+0x54>
 80029b8:	68fb      	ldr	r3, [r7, #12]
 80029ba:	681b      	ldr	r3, [r3, #0]
 80029bc:	681a      	ldr	r2, [r3, #0]
 80029be:	68fb      	ldr	r3, [r7, #12]
 80029c0:	681b      	ldr	r3, [r3, #0]
 80029c2:	f442 7280 	orr.w	r2, r2, #256	; 0x100
 80029c6:	601a      	str	r2, [r3, #0]
 80029c8:	683b      	ldr	r3, [r7, #0]
 80029ca:	9300      	str	r3, [sp, #0]
 80029cc:	687b      	ldr	r3, [r7, #4]
 80029ce:	2200      	movs	r2, #0
 80029d0:	f04f 1101 	mov.w	r1, #65537	; 0x10001
 80029d4:	68f8      	ldr	r0, [r7, #12]
 80029d6:	f000 f84f 	bl	8002a78 <I2C_WaitOnFlagUntilTimeout>
 80029da:	4603      	mov	r3, r0
 80029dc:	2b00      	cmp	r3, #0
 80029de:	d00d      	beq.n	80029fc <I2C_MasterRequestWrite+0x88>
 80029e0:	68fb      	ldr	r3, [r7, #12]
 80029e2:	681b      	ldr	r3, [r3, #0]
 80029e4:	681b      	ldr	r3, [r3, #0]
 80029e6:	f403 7380 	and.w	r3, r3, #256	; 0x100
 80029ea:	f5b3 7f80 	cmp.w	r3, #256	; 0x100
 80029ee:	d103      	bne.n	80029f8 <I2C_MasterRequestWrite+0x84>
 80029f0:	68fb      	ldr	r3, [r7, #12]
 80029f2:	f44f 7200 	mov.w	r2, #512	; 0x200
 80029f6:	641a      	str	r2, [r3, #64]	; 0x40
 80029f8:	2303      	movs	r3, #3
 80029fa:	e035      	b.n	8002a68 <I2C_MasterRequestWrite+0xf4>
 80029fc:	68fb      	ldr	r3, [r7, #12]
 80029fe:	691b      	ldr	r3, [r3, #16]
 8002a00:	f5b3 4f80 	cmp.w	r3, #16384	; 0x4000
 8002a04:	d108      	bne.n	8002a18 <I2C_MasterRequestWrite+0xa4>
 8002a06:	897b      	ldrh	r3, [r7, #10]
 8002a08:	b2db      	uxtb	r3, r3
 8002a0a:	461a      	mov	r2, r3
 8002a0c:	68fb      	ldr	r3, [r7, #12]
 8002a0e:	681b      	ldr	r3, [r3, #0]
 8002a10:	f002 02fe 	and.w	r2, r2, #254	; 0xfe
 8002a14:	611a      	str	r2, [r3, #16]
 8002a16:	e01b      	b.n	8002a50 <I2C_MasterRequestWrite+0xdc>
 8002a18:	897b      	ldrh	r3, [r7, #10]
 8002a1a:	11db      	asrs	r3, r3, #7
 8002a1c:	b2db      	uxtb	r3, r3
 8002a1e:	f003 0306 	and.w	r3, r3, #6
 8002a22:	b2db      	uxtb	r3, r3
 8002a24:	f063 030f 	orn	r3, r3, #15
 8002a28:	b2da      	uxtb	r2, r3
 8002a2a:	68fb      	ldr	r3, [r7, #12]
 8002a2c:	681b      	ldr	r3, [r3, #0]
 8002a2e:	611a      	str	r2, [r3, #16]
 8002a30:	683b      	ldr	r3, [r7, #0]
 8002a32:	687a      	ldr	r2, [r7, #4]
 8002a34:	490e      	ldr	r1, [pc, #56]	; (8002a70 <I2C_MasterRequestWrite+0xfc>)
 8002a36:	68f8      	ldr	r0, [r7, #12]
 8002a38:	f000 f875 	bl	8002b26 <I2C_WaitOnMasterAddressFlagUntilTimeout>
 8002a3c:	4603      	mov	r3, r0
 8002a3e:	2b00      	cmp	r3, #0
 8002a40:	d001      	beq.n	8002a46 <I2C_MasterRequestWrite+0xd2>
 8002a42:	2301      	movs	r3, #1
 8002a44:	e010      	b.n	8002a68 <I2C_MasterRequestWrite+0xf4>
 8002a46:	897b      	ldrh	r3, [r7, #10]
 8002a48:	b2da      	uxtb	r2, r3
 8002a4a:	68fb      	ldr	r3, [r7, #12]
 8002a4c:	681b      	ldr	r3, [r3, #0]
 8002a4e:	611a      	str	r2, [r3, #16]
 8002a50:	683b      	ldr	r3, [r7, #0]
 8002a52:	687a      	ldr	r2, [r7, #4]
 8002a54:	4907      	ldr	r1, [pc, #28]	; (8002a74 <I2C_MasterRequestWrite+0x100>)
 8002a56:	68f8      	ldr	r0, [r7, #12]
 8002a58:	f000 f865 	bl	8002b26 <I2C_WaitOnMasterAddressFlagUntilTimeout>
 8002a5c:	4603      	mov	r3, r0
 8002a5e:	2b00      	cmp	r3, #0
 8002a60:	d001      	beq.n	8002a66 <I2C_MasterRequestWrite+0xf2>
 8002a62:	2301      	movs	r3, #1
 8002a64:	e000      	b.n	8002a68 <I2C_MasterRequestWrite+0xf4>
 8002a66:	2300      	movs	r3, #0
 8002a68:	4618      	mov	r0, r3
 8002a6a:	3718      	adds	r7, #24
 8002a6c:	46bd      	mov	sp, r7
 8002a6e:	bd80      	pop	{r7, pc}
 8002a70:	00010008 	.word	0x00010008
 8002a74:	00010002 	.word	0x00010002

08002a78 <I2C_WaitOnFlagUntilTimeout>:
 8002a78:	b580      	push	{r7, lr}
 8002a7a:	b084      	sub	sp, #16
 8002a7c:	af00      	add	r7, sp, #0
 8002a7e:	60f8      	str	r0, [r7, #12]
 8002a80:	60b9      	str	r1, [r7, #8]
 8002a82:	603b      	str	r3, [r7, #0]
 8002a84:	4613      	mov	r3, r2
 8002a86:	71fb      	strb	r3, [r7, #7]
 8002a88:	e025      	b.n	8002ad6 <I2C_WaitOnFlagUntilTimeout+0x5e>
 8002a8a:	683b      	ldr	r3, [r7, #0]
 8002a8c:	f1b3 3fff 	cmp.w	r3, #4294967295
 8002a90:	d021      	beq.n	8002ad6 <I2C_WaitOnFlagUntilTimeout+0x5e>
 8002a92:	f7fe fc83 	bl	800139c <HAL_GetTick>
 8002a96:	4602      	mov	r2, r0
 8002a98:	69bb      	ldr	r3, [r7, #24]
 8002a9a:	1ad3      	subs	r3, r2, r3
 8002a9c:	683a      	ldr	r2, [r7, #0]
 8002a9e:	429a      	cmp	r2, r3
 8002aa0:	d302      	bcc.n	8002aa8 <I2C_WaitOnFlagUntilTimeout+0x30>
 8002aa2:	683b      	ldr	r3, [r7, #0]
 8002aa4:	2b00      	cmp	r3, #0
 8002aa6:	d116      	bne.n	8002ad6 <I2C_WaitOnFlagUntilTimeout+0x5e>
 8002aa8:	68fb      	ldr	r3, [r7, #12]
 8002aaa:	2200      	movs	r2, #0
 8002aac:	631a      	str	r2, [r3, #48]	; 0x30
 8002aae:	68fb      	ldr	r3, [r7, #12]
 8002ab0:	2220      	movs	r2, #32
 8002ab2:	f883 203d 	strb.w	r2, [r3, #61]	; 0x3d
 8002ab6:	68fb      	ldr	r3, [r7, #12]
 8002ab8:	2200      	movs	r2, #0
 8002aba:	f883 203e 	strb.w	r2, [r3, #62]	; 0x3e
 8002abe:	68fb      	ldr	r3, [r7, #12]
 8002ac0:	6c1b      	ldr	r3, [r3, #64]	; 0x40
 8002ac2:	f043 0220 	orr.w	r2, r3, #32
 8002ac6:	68fb      	ldr	r3, [r7, #12]
 8002ac8:	641a      	str	r2, [r3, #64]	; 0x40
 8002aca:	68fb      	ldr	r3, [r7, #12]
 8002acc:	2200      	movs	r2, #0
 8002ace:	f883 203c 	strb.w	r2, [r3, #60]	; 0x3c
 8002ad2:	2301      	movs	r3, #1
 8002ad4:	e023      	b.n	8002b1e <I2C_WaitOnFlagUntilTimeout+0xa6>
 8002ad6:	68bb      	ldr	r3, [r7, #8]
 8002ad8:	0c1b      	lsrs	r3, r3, #16
 8002ada:	b2db      	uxtb	r3, r3
 8002adc:	2b01      	cmp	r3, #1
 8002ade:	d10d      	bne.n	8002afc <I2C_WaitOnFlagUntilTimeout+0x84>
 8002ae0:	68fb      	ldr	r3, [r7, #12]
 8002ae2:	681b      	ldr	r3, [r3, #0]
 8002ae4:	695b      	ldr	r3, [r3, #20]
 8002ae6:	43da      	mvns	r2, r3
 8002ae8:	68bb      	ldr	r3, [r7, #8]
 8002aea:	4013      	ands	r3, r2
 8002aec:	b29b      	uxth	r3, r3
 8002aee:	2b00      	cmp	r3, #0
 8002af0:	bf0c      	ite	eq
 8002af2:	2301      	moveq	r3, #1
 8002af4:	2300      	movne	r3, #0
 8002af6:	b2db      	uxtb	r3, r3
 8002af8:	461a      	mov	r2, r3
 8002afa:	e00c      	b.n	8002b16 <I2C_WaitOnFlagUntilTimeout+0x9e>
 8002afc:	68fb      	ldr	r3, [r7, #12]
 8002afe:	681b      	ldr	r3, [r3, #0]
 8002b00:	699b      	ldr	r3, [r3, #24]
 8002b02:	43da      	mvns	r2, r3
 8002b04:	68bb      	ldr	r3, [r7, #8]
 8002b06:	4013      	ands	r3, r2
 8002b08:	b29b      	uxth	r3, r3
 8002b0a:	2b00      	cmp	r3, #0
 8002b0c:	bf0c      	ite	eq
 8002b0e:	2301      	moveq	r3, #1
 8002b10:	2300      	movne	r3, #0
 8002b12:	b2db      	uxtb	r3, r3
 8002b14:	461a      	mov	r2, r3
 8002b16:	79fb      	ldrb	r3, [r7, #7]
 8002b18:	429a      	cmp	r2, r3
 8002b1a:	d0b6      	beq.n	8002a8a <I2C_WaitOnFlagUntilTimeout+0x12>
 8002b1c:	2300      	movs	r3, #0
 8002b1e:	4618      	mov	r0, r3
 8002b20:	3710      	adds	r7, #16
 8002b22:	46bd      	mov	sp, r7
 8002b24:	bd80      	pop	{r7, pc}

08002b26 <I2C_WaitOnMasterAddressFlagUntilTimeout>:
 8002b26:	b580      	push	{r7, lr}
 8002b28:	b084      	sub	sp, #16
 8002b2a:	af00      	add	r7, sp, #0
 8002b2c:	60f8      	str	r0, [r7, #12]
 8002b2e:	60b9      	str	r1, [r7, #8]
 8002b30:	607a      	str	r2, [r7, #4]
 8002b32:	603b      	str	r3, [r7, #0]
 8002b34:	e051      	b.n	8002bda <I2C_WaitOnMasterAddressFlagUntilTimeout+0xb4>
 8002b36:	68fb      	ldr	r3, [r7, #12]
 8002b38:	681b      	ldr	r3, [r3, #0]
 8002b3a:	695b      	ldr	r3, [r3, #20]
 8002b3c:	f403 6380 	and.w	r3, r3, #1024	; 0x400
 8002b40:	f5b3 6f80 	cmp.w	r3, #1024	; 0x400
 8002b44:	d123      	bne.n	8002b8e <I2C_WaitOnMasterAddressFlagUntilTimeout+0x68>
 8002b46:	68fb      	ldr	r3, [r7, #12]
 8002b48:	681b      	ldr	r3, [r3, #0]
 8002b4a:	681a      	ldr	r2, [r3, #0]
 8002b4c:	68fb      	ldr	r3, [r7, #12]
 8002b4e:	681b      	ldr	r3, [r3, #0]
 8002b50:	f442 7200 	orr.w	r2, r2, #512	; 0x200
 8002b54:	601a      	str	r2, [r3, #0]
 8002b56:	68fb      	ldr	r3, [r7, #12]
 8002b58:	681b      	ldr	r3, [r3, #0]
 8002b5a:	f46f 6280 	mvn.w	r2, #1024	; 0x400
 8002b5e:	615a      	str	r2, [r3, #20]
 8002b60:	68fb      	ldr	r3, [r7, #12]
 8002b62:	2200      	movs	r2, #0
 8002b64:	631a      	str	r2, [r3, #48]	; 0x30
 8002b66:	68fb      	ldr	r3, [r7, #12]
 8002b68:	2220      	movs	r2, #32
 8002b6a:	f883 203d 	strb.w	r2, [r3, #61]	; 0x3d
 8002b6e:	68fb      	ldr	r3, [r7, #12]
 8002b70:	2200      	movs	r2, #0
 8002b72:	f883 203e 	strb.w	r2, [r3, #62]	; 0x3e
 8002b76:	68fb      	ldr	r3, [r7, #12]
 8002b78:	6c1b      	ldr	r3, [r3, #64]	; 0x40
 8002b7a:	f043 0204 	orr.w	r2, r3, #4
 8002b7e:	68fb      	ldr	r3, [r7, #12]
 8002b80:	641a      	str	r2, [r3, #64]	; 0x40
 8002b82:	68fb      	ldr	r3, [r7, #12]
 8002b84:	2200      	movs	r2, #0
 8002b86:	f883 203c 	strb.w	r2, [r3, #60]	; 0x3c
 8002b8a:	2301      	movs	r3, #1
 8002b8c:	e046      	b.n	8002c1c <I2C_WaitOnMasterAddressFlagUntilTimeout+0xf6>
 8002b8e:	687b      	ldr	r3, [r7, #4]
 8002b90:	f1b3 3fff 	cmp.w	r3, #4294967295
 8002b94:	d021      	beq.n	8002bda <I2C_WaitOnMasterAddressFlagUntilTimeout+0xb4>
 8002b96:	f7fe fc01 	bl	800139c <HAL_GetTick>
 8002b9a:	4602      	mov	r2, r0
 8002b9c:	683b      	ldr	r3, [r7, #0]
 8002b9e:	1ad3      	subs	r3, r2, r3
 8002ba0:	687a      	ldr	r2, [r7, #4]
 8002ba2:	429a      	cmp	r2, r3
 8002ba4:	d302      	bcc.n	8002bac <I2C_WaitOnMasterAddressFlagUntilTimeout+0x86>
 8002ba6:	687b      	ldr	r3, [r7, #4]
 8002ba8:	2b00      	cmp	r3, #0
 8002baa:	d116      	bne.n	8002bda <I2C_WaitOnMasterAddressFlagUntilTimeout+0xb4>
 8002bac:	68fb      	ldr	r3, [r7, #12]
 8002bae:	2200      	movs	r2, #0
 8002bb0:	631a      	str	r2, [r3, #48]	; 0x30
 8002bb2:	68fb      	ldr	r3, [r7, #12]
 8002bb4:	2220      	movs	r2, #32
 8002bb6:	f883 203d 	strb.w	r2, [r3, #61]	; 0x3d
 8002bba:	68fb      	ldr	r3, [r7, #12]
 8002bbc:	2200      	movs	r2, #0
 8002bbe:	f883 203e 	strb.w	r2, [r3, #62]	; 0x3e
 8002bc2:	68fb      	ldr	r3, [r7, #12]
 8002bc4:	6c1b      	ldr	r3, [r3, #64]	; 0x40
 8002bc6:	f043 0220 	orr.w	r2, r3, #32
 8002bca:	68fb      	ldr	r3, [r7, #12]
 8002bcc:	641a      	str	r2, [r3, #64]	; 0x40
 8002bce:	68fb      	ldr	r3, [r7, #12]
 8002bd0:	2200      	movs	r2, #0
 8002bd2:	f883 203c 	strb.w	r2, [r3, #60]	; 0x3c
 8002bd6:	2301      	movs	r3, #1
 8002bd8:	e020      	b.n	8002c1c <I2C_WaitOnMasterAddressFlagUntilTimeout+0xf6>
 8002bda:	68bb      	ldr	r3, [r7, #8]
 8002bdc:	0c1b      	lsrs	r3, r3, #16
 8002bde:	b2db      	uxtb	r3, r3
 8002be0:	2b01      	cmp	r3, #1
 8002be2:	d10c      	bne.n	8002bfe <I2C_WaitOnMasterAddressFlagUntilTimeout+0xd8>
 8002be4:	68fb      	ldr	r3, [r7, #12]
 8002be6:	681b      	ldr	r3, [r3, #0]
 8002be8:	695b      	ldr	r3, [r3, #20]
 8002bea:	43da      	mvns	r2, r3
 8002bec:	68bb      	ldr	r3, [r7, #8]
 8002bee:	4013      	ands	r3, r2
 8002bf0:	b29b      	uxth	r3, r3
 8002bf2:	2b00      	cmp	r3, #0
 8002bf4:	bf14      	ite	ne
 8002bf6:	2301      	movne	r3, #1
 8002bf8:	2300      	moveq	r3, #0
 8002bfa:	b2db      	uxtb	r3, r3
 8002bfc:	e00b      	b.n	8002c16 <I2C_WaitOnMasterAddressFlagUntilTimeout+0xf0>
 8002bfe:	68fb      	ldr	r3, [r7, #12]
 8002c00:	681b      	ldr	r3, [r3, #0]
 8002c02:	699b      	ldr	r3, [r3, #24]
 8002c04:	43da      	mvns	r2, r3
 8002c06:	68bb      	ldr	r3, [r7, #8]
 8002c08:	4013      	ands	r3, r2
 8002c0a:	b29b      	uxth	r3, r3
 8002c0c:	2b00      	cmp	r3, #0
 8002c0e:	bf14      	ite	ne
 8002c10:	2301      	movne	r3, #1
 8002c12:	2300      	moveq	r3, #0
 8002c14:	b2db      	uxtb	r3, r3
 8002c16:	2b00      	cmp	r3, #0
 8002c18:	d18d      	bne.n	8002b36 <I2C_WaitOnMasterAddressFlagUntilTimeout+0x10>
 8002c1a:	2300      	movs	r3, #0
 8002c1c:	4618      	mov	r0, r3
 8002c1e:	3710      	adds	r7, #16
 8002c20:	46bd      	mov	sp, r7
 8002c22:	bd80      	pop	{r7, pc}

08002c24 <I2C_WaitOnTXEFlagUntilTimeout>:
 8002c24:	b580      	push	{r7, lr}
 8002c26:	b084      	sub	sp, #16
 8002c28:	af00      	add	r7, sp, #0
 8002c2a:	60f8      	str	r0, [r7, #12]
 8002c2c:	60b9      	str	r1, [r7, #8]
 8002c2e:	607a      	str	r2, [r7, #4]
 8002c30:	e02d      	b.n	8002c8e <I2C_WaitOnTXEFlagUntilTimeout+0x6a>
 8002c32:	68f8      	ldr	r0, [r7, #12]
 8002c34:	f000 f878 	bl	8002d28 <I2C_IsAcknowledgeFailed>
 8002c38:	4603      	mov	r3, r0
 8002c3a:	2b00      	cmp	r3, #0
 8002c3c:	d001      	beq.n	8002c42 <I2C_WaitOnTXEFlagUntilTimeout+0x1e>
 8002c3e:	2301      	movs	r3, #1
 8002c40:	e02d      	b.n	8002c9e <I2C_WaitOnTXEFlagUntilTimeout+0x7a>
 8002c42:	68bb      	ldr	r3, [r7, #8]
 8002c44:	f1b3 3fff 	cmp.w	r3, #4294967295
 8002c48:	d021      	beq.n	8002c8e <I2C_WaitOnTXEFlagUntilTimeout+0x6a>
 8002c4a:	f7fe fba7 	bl	800139c <HAL_GetTick>
 8002c4e:	4602      	mov	r2, r0
 8002c50:	687b      	ldr	r3, [r7, #4]
 8002c52:	1ad3      	subs	r3, r2, r3
 8002c54:	68ba      	ldr	r2, [r7, #8]
 8002c56:	429a      	cmp	r2, r3
 8002c58:	d302      	bcc.n	8002c60 <I2C_WaitOnTXEFlagUntilTimeout+0x3c>
 8002c5a:	68bb      	ldr	r3, [r7, #8]
 8002c5c:	2b00      	cmp	r3, #0
 8002c5e:	d116      	bne.n	8002c8e <I2C_WaitOnTXEFlagUntilTimeout+0x6a>
 8002c60:	68fb      	ldr	r3, [r7, #12]
 8002c62:	2200      	movs	r2, #0
 8002c64:	631a      	str	r2, [r3, #48]	; 0x30
 8002c66:	68fb      	ldr	r3, [r7, #12]
 8002c68:	2220      	movs	r2, #32
 8002c6a:	f883 203d 	strb.w	r2, [r3, #61]	; 0x3d
 8002c6e:	68fb      	ldr	r3, [r7, #12]
 8002c70:	2200      	movs	r2, #0
 8002c72:	f883 203e 	strb.w	r2, [r3, #62]	; 0x3e
 8002c76:	68fb      	ldr	r3, [r7, #12]
 8002c78:	6c1b      	ldr	r3, [r3, #64]	; 0x40
 8002c7a:	f043 0220 	orr.w	r2, r3, #32
 8002c7e:	68fb      	ldr	r3, [r7, #12]
 8002c80:	641a      	str	r2, [r3, #64]	; 0x40
 8002c82:	68fb      	ldr	r3, [r7, #12]
 8002c84:	2200      	movs	r2, #0
 8002c86:	f883 203c 	strb.w	r2, [r3, #60]	; 0x3c
 8002c8a:	2301      	movs	r3, #1
 8002c8c:	e007      	b.n	8002c9e <I2C_WaitOnTXEFlagUntilTimeout+0x7a>
 8002c8e:	68fb      	ldr	r3, [r7, #12]
 8002c90:	681b      	ldr	r3, [r3, #0]
 8002c92:	695b      	ldr	r3, [r3, #20]
 8002c94:	f003 0380 	and.w	r3, r3, #128	; 0x80
 8002c98:	2b80      	cmp	r3, #128	; 0x80
 8002c9a:	d1ca      	bne.n	8002c32 <I2C_WaitOnTXEFlagUntilTimeout+0xe>
 8002c9c:	2300      	movs	r3, #0
 8002c9e:	4618      	mov	r0, r3
 8002ca0:	3710      	adds	r7, #16
 8002ca2:	46bd      	mov	sp, r7
 8002ca4:	bd80      	pop	{r7, pc}

08002ca6 <I2C_WaitOnBTFFlagUntilTimeout>:
 8002ca6:	b580      	push	{r7, lr}
 8002ca8:	b084      	sub	sp, #16
 8002caa:	af00      	add	r7, sp, #0
 8002cac:	60f8      	str	r0, [r7, #12]
 8002cae:	60b9      	str	r1, [r7, #8]
 8002cb0:	607a      	str	r2, [r7, #4]
 8002cb2:	e02d      	b.n	8002d10 <I2C_WaitOnBTFFlagUntilTimeout+0x6a>
 8002cb4:	68f8      	ldr	r0, [r7, #12]
 8002cb6:	f000 f837 	bl	8002d28 <I2C_IsAcknowledgeFailed>
 8002cba:	4603      	mov	r3, r0
 8002cbc:	2b00      	cmp	r3, #0
 8002cbe:	d001      	beq.n	8002cc4 <I2C_WaitOnBTFFlagUntilTimeout+0x1e>
 8002cc0:	2301      	movs	r3, #1
 8002cc2:	e02d      	b.n	8002d20 <I2C_WaitOnBTFFlagUntilTimeout+0x7a>
 8002cc4:	68bb      	ldr	r3, [r7, #8]
 8002cc6:	f1b3 3fff 	cmp.w	r3, #4294967295
 8002cca:	d021      	beq.n	8002d10 <I2C_WaitOnBTFFlagUntilTimeout+0x6a>
 8002ccc:	f7fe fb66 	bl	800139c <HAL_GetTick>
 8002cd0:	4602      	mov	r2, r0
 8002cd2:	687b      	ldr	r3, [r7, #4]
 8002cd4:	1ad3      	subs	r3, r2, r3
 8002cd6:	68ba      	ldr	r2, [r7, #8]
 8002cd8:	429a      	cmp	r2, r3
 8002cda:	d302      	bcc.n	8002ce2 <I2C_WaitOnBTFFlagUntilTimeout+0x3c>
 8002cdc:	68bb      	ldr	r3, [r7, #8]
 8002cde:	2b00      	cmp	r3, #0
 8002ce0:	d116      	bne.n	8002d10 <I2C_WaitOnBTFFlagUntilTimeout+0x6a>
 8002ce2:	68fb      	ldr	r3, [r7, #12]
 8002ce4:	2200      	movs	r2, #0
 8002ce6:	631a      	str	r2, [r3, #48]	; 0x30
 8002ce8:	68fb      	ldr	r3, [r7, #12]
 8002cea:	2220      	movs	r2, #32
 8002cec:	f883 203d 	strb.w	r2, [r3, #61]	; 0x3d
 8002cf0:	68fb      	ldr	r3, [r7, #12]
 8002cf2:	2200      	movs	r2, #0
 8002cf4:	f883 203e 	strb.w	r2, [r3, #62]	; 0x3e
 8002cf8:	68fb      	ldr	r3, [r7, #12]
 8002cfa:	6c1b      	ldr	r3, [r3, #64]	; 0x40
 8002cfc:	f043 0220 	orr.w	r2, r3, #32
 8002d00:	68fb      	ldr	r3, [r7, #12]
 8002d02:	641a      	str	r2, [r3, #64]	; 0x40
 8002d04:	68fb      	ldr	r3, [r7, #12]
 8002d06:	2200      	movs	r2, #0
 8002d08:	f883 203c 	strb.w	r2, [r3, #60]	; 0x3c
 8002d0c:	2301      	movs	r3, #1
 8002d0e:	e007      	b.n	8002d20 <I2C_WaitOnBTFFlagUntilTimeout+0x7a>
 8002d10:	68fb      	ldr	r3, [r7, #12]
 8002d12:	681b      	ldr	r3, [r3, #0]
 8002d14:	695b      	ldr	r3, [r3, #20]
 8002d16:	f003 0304 	and.w	r3, r3, #4
 8002d1a:	2b04      	cmp	r3, #4
 8002d1c:	d1ca      	bne.n	8002cb4 <I2C_WaitOnBTFFlagUntilTimeout+0xe>
 8002d1e:	2300      	movs	r3, #0
 8002d20:	4618      	mov	r0, r3
 8002d22:	3710      	adds	r7, #16
 8002d24:	46bd      	mov	sp, r7
 8002d26:	bd80      	pop	{r7, pc}

08002d28 <I2C_IsAcknowledgeFailed>:
 8002d28:	b480      	push	{r7}
 8002d2a:	b083      	sub	sp, #12
 8002d2c:	af00      	add	r7, sp, #0
 8002d2e:	6078      	str	r0, [r7, #4]
 8002d30:	687b      	ldr	r3, [r7, #4]
 8002d32:	681b      	ldr	r3, [r3, #0]
 8002d34:	695b      	ldr	r3, [r3, #20]
 8002d36:	f403 6380 	and.w	r3, r3, #1024	; 0x400
 8002d3a:	f5b3 6f80 	cmp.w	r3, #1024	; 0x400
 8002d3e:	d11b      	bne.n	8002d78 <I2C_IsAcknowledgeFailed+0x50>
 8002d40:	687b      	ldr	r3, [r7, #4]
 8002d42:	681b      	ldr	r3, [r3, #0]
 8002d44:	f46f 6280 	mvn.w	r2, #1024	; 0x400
 8002d48:	615a      	str	r2, [r3, #20]
 8002d4a:	687b      	ldr	r3, [r7, #4]
 8002d4c:	2200      	movs	r2, #0
 8002d4e:	631a      	str	r2, [r3, #48]	; 0x30
 8002d50:	687b      	ldr	r3, [r7, #4]
 8002d52:	2220      	movs	r2, #32
 8002d54:	f883 203d 	strb.w	r2, [r3, #61]	; 0x3d
 8002d58:	687b      	ldr	r3, [r7, #4]
 8002d5a:	2200      	movs	r2, #0
 8002d5c:	f883 203e 	strb.w	r2, [r3, #62]	; 0x3e
 8002d60:	687b      	ldr	r3, [r7, #4]
 8002d62:	6c1b      	ldr	r3, [r3, #64]	; 0x40
 8002d64:	f043 0204 	orr.w	r2, r3, #4
 8002d68:	687b      	ldr	r3, [r7, #4]
 8002d6a:	641a      	str	r2, [r3, #64]	; 0x40
 8002d6c:	687b      	ldr	r3, [r7, #4]
 8002d6e:	2200      	movs	r2, #0
 8002d70:	f883 203c 	strb.w	r2, [r3, #60]	; 0x3c
 8002d74:	2301      	movs	r3, #1
 8002d76:	e000      	b.n	8002d7a <I2C_IsAcknowledgeFailed+0x52>
 8002d78:	2300      	movs	r3, #0
 8002d7a:	4618      	mov	r0, r3
 8002d7c:	370c      	adds	r7, #12
 8002d7e:	46bd      	mov	sp, r7
 8002d80:	bc80      	pop	{r7}
 8002d82:	4770      	bx	lr

08002d84 <HAL_RCC_OscConfig>:
 8002d84:	b580      	push	{r7, lr}
 8002d86:	b086      	sub	sp, #24
 8002d88:	af00      	add	r7, sp, #0
 8002d8a:	6078      	str	r0, [r7, #4]
 8002d8c:	687b      	ldr	r3, [r7, #4]
 8002d8e:	2b00      	cmp	r3, #0
 8002d90:	d101      	bne.n	8002d96 <HAL_RCC_OscConfig+0x12>
 8002d92:	2301      	movs	r3, #1
 8002d94:	e272      	b.n	800327c <HAL_RCC_OscConfig+0x4f8>
 8002d96:	687b      	ldr	r3, [r7, #4]
 8002d98:	681b      	ldr	r3, [r3, #0]
 8002d9a:	f003 0301 	and.w	r3, r3, #1
 8002d9e:	2b00      	cmp	r3, #0
 8002da0:	f000 8087 	beq.w	8002eb2 <HAL_RCC_OscConfig+0x12e>
 8002da4:	4b92      	ldr	r3, [pc, #584]	; (8002ff0 <HAL_RCC_OscConfig+0x26c>)
 8002da6:	685b      	ldr	r3, [r3, #4]
 8002da8:	f003 030c 	and.w	r3, r3, #12
 8002dac:	2b04      	cmp	r3, #4
 8002dae:	d00c      	beq.n	8002dca <HAL_RCC_OscConfig+0x46>
 8002db0:	4b8f      	ldr	r3, [pc, #572]	; (8002ff0 <HAL_RCC_OscConfig+0x26c>)
 8002db2:	685b      	ldr	r3, [r3, #4]
 8002db4:	f003 030c 	and.w	r3, r3, #12
 8002db8:	2b08      	cmp	r3, #8
 8002dba:	d112      	bne.n	8002de2 <HAL_RCC_OscConfig+0x5e>
 8002dbc:	4b8c      	ldr	r3, [pc, #560]	; (8002ff0 <HAL_RCC_OscConfig+0x26c>)
 8002dbe:	685b      	ldr	r3, [r3, #4]
 8002dc0:	f403 3380 	and.w	r3, r3, #65536	; 0x10000
 8002dc4:	f5b3 3f80 	cmp.w	r3, #65536	; 0x10000
 8002dc8:	d10b      	bne.n	8002de2 <HAL_RCC_OscConfig+0x5e>
 8002dca:	4b89      	ldr	r3, [pc, #548]	; (8002ff0 <HAL_RCC_OscConfig+0x26c>)
 8002dcc:	681b      	ldr	r3, [r3, #0]
 8002dce:	f403 3300 	and.w	r3, r3, #131072	; 0x20000
 8002dd2:	2b00      	cmp	r3, #0
 8002dd4:	d06c      	beq.n	8002eb0 <HAL_RCC_OscConfig+0x12c>
 8002dd6:	687b      	ldr	r3, [r7, #4]
 8002dd8:	685b      	ldr	r3, [r3, #4]
 8002dda:	2b00      	cmp	r3, #0
 8002ddc:	d168      	bne.n	8002eb0 <HAL_RCC_OscConfig+0x12c>
 8002dde:	2301      	movs	r3, #1
 8002de0:	e24c      	b.n	800327c <HAL_RCC_OscConfig+0x4f8>
 8002de2:	687b      	ldr	r3, [r7, #4]
 8002de4:	685b      	ldr	r3, [r3, #4]
 8002de6:	f5b3 3f80 	cmp.w	r3, #65536	; 0x10000
 8002dea:	d106      	bne.n	8002dfa <HAL_RCC_OscConfig+0x76>
 8002dec:	4b80      	ldr	r3, [pc, #512]	; (8002ff0 <HAL_RCC_OscConfig+0x26c>)
 8002dee:	681b      	ldr	r3, [r3, #0]
 8002df0:	4a7f      	ldr	r2, [pc, #508]	; (8002ff0 <HAL_RCC_OscConfig+0x26c>)
 8002df2:	f443 3380 	orr.w	r3, r3, #65536	; 0x10000
 8002df6:	6013      	str	r3, [r2, #0]
 8002df8:	e02e      	b.n	8002e58 <HAL_RCC_OscConfig+0xd4>
 8002dfa:	687b      	ldr	r3, [r7, #4]
 8002dfc:	685b      	ldr	r3, [r3, #4]
 8002dfe:	2b00      	cmp	r3, #0
 8002e00:	d10c      	bne.n	8002e1c <HAL_RCC_OscConfig+0x98>
 8002e02:	4b7b      	ldr	r3, [pc, #492]	; (8002ff0 <HAL_RCC_OscConfig+0x26c>)
 8002e04:	681b      	ldr	r3, [r3, #0]
 8002e06:	4a7a      	ldr	r2, [pc, #488]	; (8002ff0 <HAL_RCC_OscConfig+0x26c>)
 8002e08:	f423 3380 	bic.w	r3, r3, #65536	; 0x10000
 8002e0c:	6013      	str	r3, [r2, #0]
 8002e0e:	4b78      	ldr	r3, [pc, #480]	; (8002ff0 <HAL_RCC_OscConfig+0x26c>)
 8002e10:	681b      	ldr	r3, [r3, #0]
 8002e12:	4a77      	ldr	r2, [pc, #476]	; (8002ff0 <HAL_RCC_OscConfig+0x26c>)
 8002e14:	f423 2380 	bic.w	r3, r3, #262144	; 0x40000
 8002e18:	6013      	str	r3, [r2, #0]
 8002e1a:	e01d      	b.n	8002e58 <HAL_RCC_OscConfig+0xd4>
 8002e1c:	687b      	ldr	r3, [r7, #4]
 8002e1e:	685b      	ldr	r3, [r3, #4]
 8002e20:	f5b3 2fa0 	cmp.w	r3, #327680	; 0x50000
 8002e24:	d10c      	bne.n	8002e40 <HAL_RCC_OscConfig+0xbc>
 8002e26:	4b72      	ldr	r3, [pc, #456]	; (8002ff0 <HAL_RCC_OscConfig+0x26c>)
 8002e28:	681b      	ldr	r3, [r3, #0]
 8002e2a:	4a71      	ldr	r2, [pc, #452]	; (8002ff0 <HAL_RCC_OscConfig+0x26c>)
 8002e2c:	f443 2380 	orr.w	r3, r3, #262144	; 0x40000
 8002e30:	6013      	str	r3, [r2, #0]
 8002e32:	4b6f      	ldr	r3, [pc, #444]	; (8002ff0 <HAL_RCC_OscConfig+0x26c>)
 8002e34:	681b      	ldr	r3, [r3, #0]
 8002e36:	4a6e      	ldr	r2, [pc, #440]	; (8002ff0 <HAL_RCC_OscConfig+0x26c>)
 8002e38:	f443 3380 	orr.w	r3, r3, #65536	; 0x10000
 8002e3c:	6013      	str	r3, [r2, #0]
 8002e3e:	e00b      	b.n	8002e58 <HAL_RCC_OscConfig+0xd4>
 8002e40:	4b6b      	ldr	r3, [pc, #428]	; (8002ff0 <HAL_RCC_OscConfig+0x26c>)
 8002e42:	681b      	ldr	r3, [r3, #0]
 8002e44:	4a6a      	ldr	r2, [pc, #424]	; (8002ff0 <HAL_RCC_OscConfig+0x26c>)
 8002e46:	f423 3380 	bic.w	r3, r3, #65536	; 0x10000
 8002e4a:	6013      	str	r3, [r2, #0]
 8002e4c:	4b68      	ldr	r3, [pc, #416]	; (8002ff0 <HAL_RCC_OscConfig+0x26c>)
 8002e4e:	681b      	ldr	r3, [r3, #0]
 8002e50:	4a67      	ldr	r2, [pc, #412]	; (8002ff0 <HAL_RCC_OscConfig+0x26c>)
 8002e52:	f423 2380 	bic.w	r3, r3, #262144	; 0x40000
 8002e56:	6013      	str	r3, [r2, #0]
 8002e58:	687b      	ldr	r3, [r7, #4]
 8002e5a:	685b      	ldr	r3, [r3, #4]
 8002e5c:	2b00      	cmp	r3, #0
 8002e5e:	d013      	beq.n	8002e88 <HAL_RCC_OscConfig+0x104>
 8002e60:	f7fe fa9c 	bl	800139c <HAL_GetTick>
 8002e64:	6138      	str	r0, [r7, #16]
 8002e66:	e008      	b.n	8002e7a <HAL_RCC_OscConfig+0xf6>
 8002e68:	f7fe fa98 	bl	800139c <HAL_GetTick>
 8002e6c:	4602      	mov	r2, r0
 8002e6e:	693b      	ldr	r3, [r7, #16]
 8002e70:	1ad3      	subs	r3, r2, r3
 8002e72:	2b64      	cmp	r3, #100	; 0x64
 8002e74:	d901      	bls.n	8002e7a <HAL_RCC_OscConfig+0xf6>
 8002e76:	2303      	movs	r3, #3
 8002e78:	e200      	b.n	800327c <HAL_RCC_OscConfig+0x4f8>
 8002e7a:	4b5d      	ldr	r3, [pc, #372]	; (8002ff0 <HAL_RCC_OscConfig+0x26c>)
 8002e7c:	681b      	ldr	r3, [r3, #0]
 8002e7e:	f403 3300 	and.w	r3, r3, #131072	; 0x20000
 8002e82:	2b00      	cmp	r3, #0
 8002e84:	d0f0      	beq.n	8002e68 <HAL_RCC_OscConfig+0xe4>
 8002e86:	e014      	b.n	8002eb2 <HAL_RCC_OscConfig+0x12e>
 8002e88:	f7fe fa88 	bl	800139c <HAL_GetTick>
 8002e8c:	6138      	str	r0, [r7, #16]
 8002e8e:	e008      	b.n	8002ea2 <HAL_RCC_OscConfig+0x11e>
 8002e90:	f7fe fa84 	bl	800139c <HAL_GetTick>
 8002e94:	4602      	mov	r2, r0
 8002e96:	693b      	ldr	r3, [r7, #16]
 8002e98:	1ad3      	subs	r3, r2, r3
 8002e9a:	2b64      	cmp	r3, #100	; 0x64
 8002e9c:	d901      	bls.n	8002ea2 <HAL_RCC_OscConfig+0x11e>
 8002e9e:	2303      	movs	r3, #3
 8002ea0:	e1ec      	b.n	800327c <HAL_RCC_OscConfig+0x4f8>
 8002ea2:	4b53      	ldr	r3, [pc, #332]	; (8002ff0 <HAL_RCC_OscConfig+0x26c>)
 8002ea4:	681b      	ldr	r3, [r3, #0]
 8002ea6:	f403 3300 	and.w	r3, r3, #131072	; 0x20000
 8002eaa:	2b00      	cmp	r3, #0
 8002eac:	d1f0      	bne.n	8002e90 <HAL_RCC_OscConfig+0x10c>
 8002eae:	e000      	b.n	8002eb2 <HAL_RCC_OscConfig+0x12e>
 8002eb0:	bf00      	nop
 8002eb2:	687b      	ldr	r3, [r7, #4]
 8002eb4:	681b      	ldr	r3, [r3, #0]
 8002eb6:	f003 0302 	and.w	r3, r3, #2
 8002eba:	2b00      	cmp	r3, #0
 8002ebc:	d063      	beq.n	8002f86 <HAL_RCC_OscConfig+0x202>
 8002ebe:	4b4c      	ldr	r3, [pc, #304]	; (8002ff0 <HAL_RCC_OscConfig+0x26c>)
 8002ec0:	685b      	ldr	r3, [r3, #4]
 8002ec2:	f003 030c 	and.w	r3, r3, #12
 8002ec6:	2b00      	cmp	r3, #0
 8002ec8:	d00b      	beq.n	8002ee2 <HAL_RCC_OscConfig+0x15e>
 8002eca:	4b49      	ldr	r3, [pc, #292]	; (8002ff0 <HAL_RCC_OscConfig+0x26c>)
 8002ecc:	685b      	ldr	r3, [r3, #4]
 8002ece:	f003 030c 	and.w	r3, r3, #12
 8002ed2:	2b08      	cmp	r3, #8
 8002ed4:	d11c      	bne.n	8002f10 <HAL_RCC_OscConfig+0x18c>
 8002ed6:	4b46      	ldr	r3, [pc, #280]	; (8002ff0 <HAL_RCC_OscConfig+0x26c>)
 8002ed8:	685b      	ldr	r3, [r3, #4]
 8002eda:	f403 3380 	and.w	r3, r3, #65536	; 0x10000
 8002ede:	2b00      	cmp	r3, #0
 8002ee0:	d116      	bne.n	8002f10 <HAL_RCC_OscConfig+0x18c>
 8002ee2:	4b43      	ldr	r3, [pc, #268]	; (8002ff0 <HAL_RCC_OscConfig+0x26c>)
 8002ee4:	681b      	ldr	r3, [r3, #0]
 8002ee6:	f003 0302 	and.w	r3, r3, #2
 8002eea:	2b00      	cmp	r3, #0
 8002eec:	d005      	beq.n	8002efa <HAL_RCC_OscConfig+0x176>
 8002eee:	687b      	ldr	r3, [r7, #4]
 8002ef0:	691b      	ldr	r3, [r3, #16]
 8002ef2:	2b01      	cmp	r3, #1
 8002ef4:	d001      	beq.n	8002efa <HAL_RCC_OscConfig+0x176>
 8002ef6:	2301      	movs	r3, #1
 8002ef8:	e1c0      	b.n	800327c <HAL_RCC_OscConfig+0x4f8>
 8002efa:	4b3d      	ldr	r3, [pc, #244]	; (8002ff0 <HAL_RCC_OscConfig+0x26c>)
 8002efc:	681b      	ldr	r3, [r3, #0]
 8002efe:	f023 02f8 	bic.w	r2, r3, #248	; 0xf8
 8002f02:	687b      	ldr	r3, [r7, #4]
 8002f04:	695b      	ldr	r3, [r3, #20]
 8002f06:	00db      	lsls	r3, r3, #3
 8002f08:	4939      	ldr	r1, [pc, #228]	; (8002ff0 <HAL_RCC_OscConfig+0x26c>)
 8002f0a:	4313      	orrs	r3, r2
 8002f0c:	600b      	str	r3, [r1, #0]
 8002f0e:	e03a      	b.n	8002f86 <HAL_RCC_OscConfig+0x202>
 8002f10:	687b      	ldr	r3, [r7, #4]
 8002f12:	691b      	ldr	r3, [r3, #16]
 8002f14:	2b00      	cmp	r3, #0
 8002f16:	d020      	beq.n	8002f5a <HAL_RCC_OscConfig+0x1d6>
 8002f18:	4b36      	ldr	r3, [pc, #216]	; (8002ff4 <HAL_RCC_OscConfig+0x270>)
 8002f1a:	2201      	movs	r2, #1
 8002f1c:	601a      	str	r2, [r3, #0]
 8002f1e:	f7fe fa3d 	bl	800139c <HAL_GetTick>
 8002f22:	6138      	str	r0, [r7, #16]
 8002f24:	e008      	b.n	8002f38 <HAL_RCC_OscConfig+0x1b4>
 8002f26:	f7fe fa39 	bl	800139c <HAL_GetTick>
 8002f2a:	4602      	mov	r2, r0
 8002f2c:	693b      	ldr	r3, [r7, #16]
 8002f2e:	1ad3      	subs	r3, r2, r3
 8002f30:	2b02      	cmp	r3, #2
 8002f32:	d901      	bls.n	8002f38 <HAL_RCC_OscConfig+0x1b4>
 8002f34:	2303      	movs	r3, #3
 8002f36:	e1a1      	b.n	800327c <HAL_RCC_OscConfig+0x4f8>
 8002f38:	4b2d      	ldr	r3, [pc, #180]	; (8002ff0 <HAL_RCC_OscConfig+0x26c>)
 8002f3a:	681b      	ldr	r3, [r3, #0]
 8002f3c:	f003 0302 	and.w	r3, r3, #2
 8002f40:	2b00      	cmp	r3, #0
 8002f42:	d0f0      	beq.n	8002f26 <HAL_RCC_OscConfig+0x1a2>
 8002f44:	4b2a      	ldr	r3, [pc, #168]	; (8002ff0 <HAL_RCC_OscConfig+0x26c>)
 8002f46:	681b      	ldr	r3, [r3, #0]
 8002f48:	f023 02f8 	bic.w	r2, r3, #248	; 0xf8
 8002f4c:	687b      	ldr	r3, [r7, #4]
 8002f4e:	695b      	ldr	r3, [r3, #20]
 8002f50:	00db      	lsls	r3, r3, #3
 8002f52:	4927      	ldr	r1, [pc, #156]	; (8002ff0 <HAL_RCC_OscConfig+0x26c>)
 8002f54:	4313      	orrs	r3, r2
 8002f56:	600b      	str	r3, [r1, #0]
 8002f58:	e015      	b.n	8002f86 <HAL_RCC_OscConfig+0x202>
 8002f5a:	4b26      	ldr	r3, [pc, #152]	; (8002ff4 <HAL_RCC_OscConfig+0x270>)
 8002f5c:	2200      	movs	r2, #0
 8002f5e:	601a      	str	r2, [r3, #0]
 8002f60:	f7fe fa1c 	bl	800139c <HAL_GetTick>
 8002f64:	6138      	str	r0, [r7, #16]
 8002f66:	e008      	b.n	8002f7a <HAL_RCC_OscConfig+0x1f6>
 8002f68:	f7fe fa18 	bl	800139c <HAL_GetTick>
 8002f6c:	4602      	mov	r2, r0
 8002f6e:	693b      	ldr	r3, [r7, #16]
 8002f70:	1ad3      	subs	r3, r2, r3
 8002f72:	2b02      	cmp	r3, #2
 8002f74:	d901      	bls.n	8002f7a <HAL_RCC_OscConfig+0x1f6>
 8002f76:	2303      	movs	r3, #3
 8002f78:	e180      	b.n	800327c <HAL_RCC_OscConfig+0x4f8>
 8002f7a:	4b1d      	ldr	r3, [pc, #116]	; (8002ff0 <HAL_RCC_OscConfig+0x26c>)
 8002f7c:	681b      	ldr	r3, [r3, #0]
 8002f7e:	f003 0302 	and.w	r3, r3, #2
 8002f82:	2b00      	cmp	r3, #0
 8002f84:	d1f0      	bne.n	8002f68 <HAL_RCC_OscConfig+0x1e4>
 8002f86:	687b      	ldr	r3, [r7, #4]
 8002f88:	681b      	ldr	r3, [r3, #0]
 8002f8a:	f003 0308 	and.w	r3, r3, #8
 8002f8e:	2b00      	cmp	r3, #0
 8002f90:	d03a      	beq.n	8003008 <HAL_RCC_OscConfig+0x284>
 8002f92:	687b      	ldr	r3, [r7, #4]
 8002f94:	699b      	ldr	r3, [r3, #24]
 8002f96:	2b00      	cmp	r3, #0
 8002f98:	d019      	beq.n	8002fce <HAL_RCC_OscConfig+0x24a>
 8002f9a:	4b17      	ldr	r3, [pc, #92]	; (8002ff8 <HAL_RCC_OscConfig+0x274>)
 8002f9c:	2201      	movs	r2, #1
 8002f9e:	601a      	str	r2, [r3, #0]
 8002fa0:	f7fe f9fc 	bl	800139c <HAL_GetTick>
 8002fa4:	6138      	str	r0, [r7, #16]
 8002fa6:	e008      	b.n	8002fba <HAL_RCC_OscConfig+0x236>
 8002fa8:	f7fe f9f8 	bl	800139c <HAL_GetTick>
 8002fac:	4602      	mov	r2, r0
 8002fae:	693b      	ldr	r3, [r7, #16]
 8002fb0:	1ad3      	subs	r3, r2, r3
 8002fb2:	2b02      	cmp	r3, #2
 8002fb4:	d901      	bls.n	8002fba <HAL_RCC_OscConfig+0x236>
 8002fb6:	2303      	movs	r3, #3
 8002fb8:	e160      	b.n	800327c <HAL_RCC_OscConfig+0x4f8>
 8002fba:	4b0d      	ldr	r3, [pc, #52]	; (8002ff0 <HAL_RCC_OscConfig+0x26c>)
 8002fbc:	6a5b      	ldr	r3, [r3, #36]	; 0x24
 8002fbe:	f003 0302 	and.w	r3, r3, #2
 8002fc2:	2b00      	cmp	r3, #0
 8002fc4:	d0f0      	beq.n	8002fa8 <HAL_RCC_OscConfig+0x224>
 8002fc6:	2001      	movs	r0, #1
 8002fc8:	f000 fad8 	bl	800357c <RCC_Delay>
 8002fcc:	e01c      	b.n	8003008 <HAL_RCC_OscConfig+0x284>
 8002fce:	4b0a      	ldr	r3, [pc, #40]	; (8002ff8 <HAL_RCC_OscConfig+0x274>)
 8002fd0:	2200      	movs	r2, #0
 8002fd2:	601a      	str	r2, [r3, #0]
 8002fd4:	f7fe f9e2 	bl	800139c <HAL_GetTick>
 8002fd8:	6138      	str	r0, [r7, #16]
 8002fda:	e00f      	b.n	8002ffc <HAL_RCC_OscConfig+0x278>
 8002fdc:	f7fe f9de 	bl	800139c <HAL_GetTick>
 8002fe0:	4602      	mov	r2, r0
 8002fe2:	693b      	ldr	r3, [r7, #16]
 8002fe4:	1ad3      	subs	r3, r2, r3
 8002fe6:	2b02      	cmp	r3, #2
 8002fe8:	d908      	bls.n	8002ffc <HAL_RCC_OscConfig+0x278>
 8002fea:	2303      	movs	r3, #3
 8002fec:	e146      	b.n	800327c <HAL_RCC_OscConfig+0x4f8>
 8002fee:	bf00      	nop
 8002ff0:	40021000 	.word	0x40021000
 8002ff4:	42420000 	.word	0x42420000
 8002ff8:	42420480 	.word	0x42420480
 8002ffc:	4b92      	ldr	r3, [pc, #584]	; (8003248 <HAL_RCC_OscConfig+0x4c4>)
 8002ffe:	6a5b      	ldr	r3, [r3, #36]	; 0x24
 8003000:	f003 0302 	and.w	r3, r3, #2
 8003004:	2b00      	cmp	r3, #0
 8003006:	d1e9      	bne.n	8002fdc <HAL_RCC_OscConfig+0x258>
 8003008:	687b      	ldr	r3, [r7, #4]
 800300a:	681b      	ldr	r3, [r3, #0]
 800300c:	f003 0304 	and.w	r3, r3, #4
 8003010:	2b00      	cmp	r3, #0
 8003012:	f000 80a6 	beq.w	8003162 <HAL_RCC_OscConfig+0x3de>
 8003016:	2300      	movs	r3, #0
 8003018:	75fb      	strb	r3, [r7, #23]
 800301a:	4b8b      	ldr	r3, [pc, #556]	; (8003248 <HAL_RCC_OscConfig+0x4c4>)
 800301c:	69db      	ldr	r3, [r3, #28]
 800301e:	f003 5380 	and.w	r3, r3, #268435456	; 0x10000000
 8003022:	2b00      	cmp	r3, #0
 8003024:	d10d      	bne.n	8003042 <HAL_RCC_OscConfig+0x2be>
 8003026:	4b88      	ldr	r3, [pc, #544]	; (8003248 <HAL_RCC_OscConfig+0x4c4>)
 8003028:	69db      	ldr	r3, [r3, #28]
 800302a:	4a87      	ldr	r2, [pc, #540]	; (8003248 <HAL_RCC_OscConfig+0x4c4>)
 800302c:	f043 5380 	orr.w	r3, r3, #268435456	; 0x10000000
 8003030:	61d3      	str	r3, [r2, #28]
 8003032:	4b85      	ldr	r3, [pc, #532]	; (8003248 <HAL_RCC_OscConfig+0x4c4>)
 8003034:	69db      	ldr	r3, [r3, #28]
 8003036:	f003 5380 	and.w	r3, r3, #268435456	; 0x10000000
 800303a:	60bb      	str	r3, [r7, #8]
 800303c:	68bb      	ldr	r3, [r7, #8]
 800303e:	2301      	movs	r3, #1
 8003040:	75fb      	strb	r3, [r7, #23]
 8003042:	4b82      	ldr	r3, [pc, #520]	; (800324c <HAL_RCC_OscConfig+0x4c8>)
 8003044:	681b      	ldr	r3, [r3, #0]
 8003046:	f403 7380 	and.w	r3, r3, #256	; 0x100
 800304a:	2b00      	cmp	r3, #0
 800304c:	d118      	bne.n	8003080 <HAL_RCC_OscConfig+0x2fc>
 800304e:	4b7f      	ldr	r3, [pc, #508]	; (800324c <HAL_RCC_OscConfig+0x4c8>)
 8003050:	681b      	ldr	r3, [r3, #0]
 8003052:	4a7e      	ldr	r2, [pc, #504]	; (800324c <HAL_RCC_OscConfig+0x4c8>)
 8003054:	f443 7380 	orr.w	r3, r3, #256	; 0x100
 8003058:	6013      	str	r3, [r2, #0]
 800305a:	f7fe f99f 	bl	800139c <HAL_GetTick>
 800305e:	6138      	str	r0, [r7, #16]
 8003060:	e008      	b.n	8003074 <HAL_RCC_OscConfig+0x2f0>
 8003062:	f7fe f99b 	bl	800139c <HAL_GetTick>
 8003066:	4602      	mov	r2, r0
 8003068:	693b      	ldr	r3, [r7, #16]
 800306a:	1ad3      	subs	r3, r2, r3
 800306c:	2b64      	cmp	r3, #100	; 0x64
 800306e:	d901      	bls.n	8003074 <HAL_RCC_OscConfig+0x2f0>
 8003070:	2303      	movs	r3, #3
 8003072:	e103      	b.n	800327c <HAL_RCC_OscConfig+0x4f8>
 8003074:	4b75      	ldr	r3, [pc, #468]	; (800324c <HAL_RCC_OscConfig+0x4c8>)
 8003076:	681b      	ldr	r3, [r3, #0]
 8003078:	f403 7380 	and.w	r3, r3, #256	; 0x100
 800307c:	2b00      	cmp	r3, #0
 800307e:	d0f0      	beq.n	8003062 <HAL_RCC_OscConfig+0x2de>
 8003080:	687b      	ldr	r3, [r7, #4]
 8003082:	68db      	ldr	r3, [r3, #12]
 8003084:	2b01      	cmp	r3, #1
 8003086:	d106      	bne.n	8003096 <HAL_RCC_OscConfig+0x312>
 8003088:	4b6f      	ldr	r3, [pc, #444]	; (8003248 <HAL_RCC_OscConfig+0x4c4>)
 800308a:	6a1b      	ldr	r3, [r3, #32]
 800308c:	4a6e      	ldr	r2, [pc, #440]	; (8003248 <HAL_RCC_OscConfig+0x4c4>)
 800308e:	f043 0301 	orr.w	r3, r3, #1
 8003092:	6213      	str	r3, [r2, #32]
 8003094:	e02d      	b.n	80030f2 <HAL_RCC_OscConfig+0x36e>
 8003096:	687b      	ldr	r3, [r7, #4]
 8003098:	68db      	ldr	r3, [r3, #12]
 800309a:	2b00      	cmp	r3, #0
 800309c:	d10c      	bne.n	80030b8 <HAL_RCC_OscConfig+0x334>
 800309e:	4b6a      	ldr	r3, [pc, #424]	; (8003248 <HAL_RCC_OscConfig+0x4c4>)
 80030a0:	6a1b      	ldr	r3, [r3, #32]
 80030a2:	4a69      	ldr	r2, [pc, #420]	; (8003248 <HAL_RCC_OscConfig+0x4c4>)
 80030a4:	f023 0301 	bic.w	r3, r3, #1
 80030a8:	6213      	str	r3, [r2, #32]
 80030aa:	4b67      	ldr	r3, [pc, #412]	; (8003248 <HAL_RCC_OscConfig+0x4c4>)
 80030ac:	6a1b      	ldr	r3, [r3, #32]
 80030ae:	4a66      	ldr	r2, [pc, #408]	; (8003248 <HAL_RCC_OscConfig+0x4c4>)
 80030b0:	f023 0304 	bic.w	r3, r3, #4
 80030b4:	6213      	str	r3, [r2, #32]
 80030b6:	e01c      	b.n	80030f2 <HAL_RCC_OscConfig+0x36e>
 80030b8:	687b      	ldr	r3, [r7, #4]
 80030ba:	68db      	ldr	r3, [r3, #12]
 80030bc:	2b05      	cmp	r3, #5
 80030be:	d10c      	bne.n	80030da <HAL_RCC_OscConfig+0x356>
 80030c0:	4b61      	ldr	r3, [pc, #388]	; (8003248 <HAL_RCC_OscConfig+0x4c4>)
 80030c2:	6a1b      	ldr	r3, [r3, #32]
 80030c4:	4a60      	ldr	r2, [pc, #384]	; (8003248 <HAL_RCC_OscConfig+0x4c4>)
 80030c6:	f043 0304 	orr.w	r3, r3, #4
 80030ca:	6213      	str	r3, [r2, #32]
 80030cc:	4b5e      	ldr	r3, [pc, #376]	; (8003248 <HAL_RCC_OscConfig+0x4c4>)
 80030ce:	6a1b      	ldr	r3, [r3, #32]
 80030d0:	4a5d      	ldr	r2, [pc, #372]	; (8003248 <HAL_RCC_OscConfig+0x4c4>)
 80030d2:	f043 0301 	orr.w	r3, r3, #1
 80030d6:	6213      	str	r3, [r2, #32]
 80030d8:	e00b      	b.n	80030f2 <HAL_RCC_OscConfig+0x36e>
 80030da:	4b5b      	ldr	r3, [pc, #364]	; (8003248 <HAL_RCC_OscConfig+0x4c4>)
 80030dc:	6a1b      	ldr	r3, [r3, #32]
 80030de:	4a5a      	ldr	r2, [pc, #360]	; (8003248 <HAL_RCC_OscConfig+0x4c4>)
 80030e0:	f023 0301 	bic.w	r3, r3, #1
 80030e4:	6213      	str	r3, [r2, #32]
 80030e6:	4b58      	ldr	r3, [pc, #352]	; (8003248 <HAL_RCC_OscConfig+0x4c4>)
 80030e8:	6a1b      	ldr	r3, [r3, #32]
 80030ea:	4a57      	ldr	r2, [pc, #348]	; (8003248 <HAL_RCC_OscConfig+0x4c4>)
 80030ec:	f023 0304 	bic.w	r3, r3, #4
 80030f0:	6213      	str	r3, [r2, #32]
 80030f2:	687b      	ldr	r3, [r7, #4]
 80030f4:	68db      	ldr	r3, [r3, #12]
 80030f6:	2b00      	cmp	r3, #0
 80030f8:	d015      	beq.n	8003126 <HAL_RCC_OscConfig+0x3a2>
 80030fa:	f7fe f94f 	bl	800139c <HAL_GetTick>
 80030fe:	6138      	str	r0, [r7, #16]
 8003100:	e00a      	b.n	8003118 <HAL_RCC_OscConfig+0x394>
 8003102:	f7fe f94b 	bl	800139c <HAL_GetTick>
 8003106:	4602      	mov	r2, r0
 8003108:	693b      	ldr	r3, [r7, #16]
 800310a:	1ad3      	subs	r3, r2, r3
 800310c:	f241 3288 	movw	r2, #5000	; 0x1388
 8003110:	4293      	cmp	r3, r2
 8003112:	d901      	bls.n	8003118 <HAL_RCC_OscConfig+0x394>
 8003114:	2303      	movs	r3, #3
 8003116:	e0b1      	b.n	800327c <HAL_RCC_OscConfig+0x4f8>
 8003118:	4b4b      	ldr	r3, [pc, #300]	; (8003248 <HAL_RCC_OscConfig+0x4c4>)
 800311a:	6a1b      	ldr	r3, [r3, #32]
 800311c:	f003 0302 	and.w	r3, r3, #2
 8003120:	2b00      	cmp	r3, #0
 8003122:	d0ee      	beq.n	8003102 <HAL_RCC_OscConfig+0x37e>
 8003124:	e014      	b.n	8003150 <HAL_RCC_OscConfig+0x3cc>
 8003126:	f7fe f939 	bl	800139c <HAL_GetTick>
 800312a:	6138      	str	r0, [r7, #16]
 800312c:	e00a      	b.n	8003144 <HAL_RCC_OscConfig+0x3c0>
 800312e:	f7fe f935 	bl	800139c <HAL_GetTick>
 8003132:	4602      	mov	r2, r0
 8003134:	693b      	ldr	r3, [r7, #16]
 8003136:	1ad3      	subs	r3, r2, r3
 8003138:	f241 3288 	movw	r2, #5000	; 0x1388
 800313c:	4293      	cmp	r3, r2
 800313e:	d901      	bls.n	8003144 <HAL_RCC_OscConfig+0x3c0>
 8003140:	2303      	movs	r3, #3
 8003142:	e09b      	b.n	800327c <HAL_RCC_OscConfig+0x4f8>
 8003144:	4b40      	ldr	r3, [pc, #256]	; (8003248 <HAL_RCC_OscConfig+0x4c4>)
 8003146:	6a1b      	ldr	r3, [r3, #32]
 8003148:	f003 0302 	and.w	r3, r3, #2
 800314c:	2b00      	cmp	r3, #0
 800314e:	d1ee      	bne.n	800312e <HAL_RCC_OscConfig+0x3aa>
 8003150:	7dfb      	ldrb	r3, [r7, #23]
 8003152:	2b01      	cmp	r3, #1
 8003154:	d105      	bne.n	8003162 <HAL_RCC_OscConfig+0x3de>
 8003156:	4b3c      	ldr	r3, [pc, #240]	; (8003248 <HAL_RCC_OscConfig+0x4c4>)
 8003158:	69db      	ldr	r3, [r3, #28]
 800315a:	4a3b      	ldr	r2, [pc, #236]	; (8003248 <HAL_RCC_OscConfig+0x4c4>)
 800315c:	f023 5380 	bic.w	r3, r3, #268435456	; 0x10000000
 8003160:	61d3      	str	r3, [r2, #28]
 8003162:	687b      	ldr	r3, [r7, #4]
 8003164:	69db      	ldr	r3, [r3, #28]
 8003166:	2b00      	cmp	r3, #0
 8003168:	f000 8087 	beq.w	800327a <HAL_RCC_OscConfig+0x4f6>
 800316c:	4b36      	ldr	r3, [pc, #216]	; (8003248 <HAL_RCC_OscConfig+0x4c4>)
 800316e:	685b      	ldr	r3, [r3, #4]
 8003170:	f003 030c 	and.w	r3, r3, #12
 8003174:	2b08      	cmp	r3, #8
 8003176:	d061      	beq.n	800323c <HAL_RCC_OscConfig+0x4b8>
 8003178:	687b      	ldr	r3, [r7, #4]
 800317a:	69db      	ldr	r3, [r3, #28]
 800317c:	2b02      	cmp	r3, #2
 800317e:	d146      	bne.n	800320e <HAL_RCC_OscConfig+0x48a>
 8003180:	4b33      	ldr	r3, [pc, #204]	; (8003250 <HAL_RCC_OscConfig+0x4cc>)
 8003182:	2200      	movs	r2, #0
 8003184:	601a      	str	r2, [r3, #0]
 8003186:	f7fe f909 	bl	800139c <HAL_GetTick>
 800318a:	6138      	str	r0, [r7, #16]
 800318c:	e008      	b.n	80031a0 <HAL_RCC_OscConfig+0x41c>
 800318e:	f7fe f905 	bl	800139c <HAL_GetTick>
 8003192:	4602      	mov	r2, r0
 8003194:	693b      	ldr	r3, [r7, #16]
 8003196:	1ad3      	subs	r3, r2, r3
 8003198:	2b02      	cmp	r3, #2
 800319a:	d901      	bls.n	80031a0 <HAL_RCC_OscConfig+0x41c>
 800319c:	2303      	movs	r3, #3
 800319e:	e06d      	b.n	800327c <HAL_RCC_OscConfig+0x4f8>
 80031a0:	4b29      	ldr	r3, [pc, #164]	; (8003248 <HAL_RCC_OscConfig+0x4c4>)
 80031a2:	681b      	ldr	r3, [r3, #0]
 80031a4:	f003 7300 	and.w	r3, r3, #33554432	; 0x2000000
 80031a8:	2b00      	cmp	r3, #0
 80031aa:	d1f0      	bne.n	800318e <HAL_RCC_OscConfig+0x40a>
 80031ac:	687b      	ldr	r3, [r7, #4]
 80031ae:	6a1b      	ldr	r3, [r3, #32]
 80031b0:	f5b3 3f80 	cmp.w	r3, #65536	; 0x10000
 80031b4:	d108      	bne.n	80031c8 <HAL_RCC_OscConfig+0x444>
 80031b6:	4b24      	ldr	r3, [pc, #144]	; (8003248 <HAL_RCC_OscConfig+0x4c4>)
 80031b8:	685b      	ldr	r3, [r3, #4]
 80031ba:	f423 3200 	bic.w	r2, r3, #131072	; 0x20000
 80031be:	687b      	ldr	r3, [r7, #4]
 80031c0:	689b      	ldr	r3, [r3, #8]
 80031c2:	4921      	ldr	r1, [pc, #132]	; (8003248 <HAL_RCC_OscConfig+0x4c4>)
 80031c4:	4313      	orrs	r3, r2
 80031c6:	604b      	str	r3, [r1, #4]
 80031c8:	4b1f      	ldr	r3, [pc, #124]	; (8003248 <HAL_RCC_OscConfig+0x4c4>)
 80031ca:	685b      	ldr	r3, [r3, #4]
 80031cc:	f423 1274 	bic.w	r2, r3, #3997696	; 0x3d0000
 80031d0:	687b      	ldr	r3, [r7, #4]
 80031d2:	6a19      	ldr	r1, [r3, #32]
 80031d4:	687b      	ldr	r3, [r7, #4]
 80031d6:	6a5b      	ldr	r3, [r3, #36]	; 0x24
 80031d8:	430b      	orrs	r3, r1
 80031da:	491b      	ldr	r1, [pc, #108]	; (8003248 <HAL_RCC_OscConfig+0x4c4>)
 80031dc:	4313      	orrs	r3, r2
 80031de:	604b      	str	r3, [r1, #4]
 80031e0:	4b1b      	ldr	r3, [pc, #108]	; (8003250 <HAL_RCC_OscConfig+0x4cc>)
 80031e2:	2201      	movs	r2, #1
 80031e4:	601a      	str	r2, [r3, #0]
 80031e6:	f7fe f8d9 	bl	800139c <HAL_GetTick>
 80031ea:	6138      	str	r0, [r7, #16]
 80031ec:	e008      	b.n	8003200 <HAL_RCC_OscConfig+0x47c>
 80031ee:	f7fe f8d5 	bl	800139c <HAL_GetTick>
 80031f2:	4602      	mov	r2, r0
 80031f4:	693b      	ldr	r3, [r7, #16]
 80031f6:	1ad3      	subs	r3, r2, r3
 80031f8:	2b02      	cmp	r3, #2
 80031fa:	d901      	bls.n	8003200 <HAL_RCC_OscConfig+0x47c>
 80031fc:	2303      	movs	r3, #3
 80031fe:	e03d      	b.n	800327c <HAL_RCC_OscConfig+0x4f8>
 8003200:	4b11      	ldr	r3, [pc, #68]	; (8003248 <HAL_RCC_OscConfig+0x4c4>)
 8003202:	681b      	ldr	r3, [r3, #0]
 8003204:	f003 7300 	and.w	r3, r3, #33554432	; 0x2000000
 8003208:	2b00      	cmp	r3, #0
 800320a:	d0f0      	beq.n	80031ee <HAL_RCC_OscConfig+0x46a>
 800320c:	e035      	b.n	800327a <HAL_RCC_OscConfig+0x4f6>
 800320e:	4b10      	ldr	r3, [pc, #64]	; (8003250 <HAL_RCC_OscConfig+0x4cc>)
 8003210:	2200      	movs	r2, #0
 8003212:	601a      	str	r2, [r3, #0]
 8003214:	f7fe f8c2 	bl	800139c <HAL_GetTick>
 8003218:	6138      	str	r0, [r7, #16]
 800321a:	e008      	b.n	800322e <HAL_RCC_OscConfig+0x4aa>
 800321c:	f7fe f8be 	bl	800139c <HAL_GetTick>
 8003220:	4602      	mov	r2, r0
 8003222:	693b      	ldr	r3, [r7, #16]
 8003224:	1ad3      	subs	r3, r2, r3
 8003226:	2b02      	cmp	r3, #2
 8003228:	d901      	bls.n	800322e <HAL_RCC_OscConfig+0x4aa>
 800322a:	2303      	movs	r3, #3
 800322c:	e026      	b.n	800327c <HAL_RCC_OscConfig+0x4f8>
 800322e:	4b06      	ldr	r3, [pc, #24]	; (8003248 <HAL_RCC_OscConfig+0x4c4>)
 8003230:	681b      	ldr	r3, [r3, #0]
 8003232:	f003 7300 	and.w	r3, r3, #33554432	; 0x2000000
 8003236:	2b00      	cmp	r3, #0
 8003238:	d1f0      	bne.n	800321c <HAL_RCC_OscConfig+0x498>
 800323a:	e01e      	b.n	800327a <HAL_RCC_OscConfig+0x4f6>
 800323c:	687b      	ldr	r3, [r7, #4]
 800323e:	69db      	ldr	r3, [r3, #28]
 8003240:	2b01      	cmp	r3, #1
 8003242:	d107      	bne.n	8003254 <HAL_RCC_OscConfig+0x4d0>
 8003244:	2301      	movs	r3, #1
 8003246:	e019      	b.n	800327c <HAL_RCC_OscConfig+0x4f8>
 8003248:	40021000 	.word	0x40021000
 800324c:	40007000 	.word	0x40007000
 8003250:	42420060 	.word	0x42420060
 8003254:	4b0b      	ldr	r3, [pc, #44]	; (8003284 <HAL_RCC_OscConfig+0x500>)
 8003256:	685b      	ldr	r3, [r3, #4]
 8003258:	60fb      	str	r3, [r7, #12]
 800325a:	68fb      	ldr	r3, [r7, #12]
 800325c:	f403 3280 	and.w	r2, r3, #65536	; 0x10000
 8003260:	687b      	ldr	r3, [r7, #4]
 8003262:	6a1b      	ldr	r3, [r3, #32]
 8003264:	429a      	cmp	r2, r3
 8003266:	d106      	bne.n	8003276 <HAL_RCC_OscConfig+0x4f2>
 8003268:	68fb      	ldr	r3, [r7, #12]
 800326a:	f403 1270 	and.w	r2, r3, #3932160	; 0x3c0000
 800326e:	687b      	ldr	r3, [r7, #4]
 8003270:	6a5b      	ldr	r3, [r3, #36]	; 0x24
 8003272:	429a      	cmp	r2, r3
 8003274:	d001      	beq.n	800327a <HAL_RCC_OscConfig+0x4f6>
 8003276:	2301      	movs	r3, #1
 8003278:	e000      	b.n	800327c <HAL_RCC_OscConfig+0x4f8>
 800327a:	2300      	movs	r3, #0
 800327c:	4618      	mov	r0, r3
 800327e:	3718      	adds	r7, #24
 8003280:	46bd      	mov	sp, r7
 8003282:	bd80      	pop	{r7, pc}
 8003284:	40021000 	.word	0x40021000

08003288 <HAL_RCC_ClockConfig>:
 8003288:	b580      	push	{r7, lr}
 800328a:	b084      	sub	sp, #16
 800328c:	af00      	add	r7, sp, #0
 800328e:	6078      	str	r0, [r7, #4]
 8003290:	6039      	str	r1, [r7, #0]
 8003292:	687b      	ldr	r3, [r7, #4]
 8003294:	2b00      	cmp	r3, #0
 8003296:	d101      	bne.n	800329c <HAL_RCC_ClockConfig+0x14>
 8003298:	2301      	movs	r3, #1
 800329a:	e0d0      	b.n	800343e <HAL_RCC_ClockConfig+0x1b6>
 800329c:	4b6a      	ldr	r3, [pc, #424]	; (8003448 <HAL_RCC_ClockConfig+0x1c0>)
 800329e:	681b      	ldr	r3, [r3, #0]
 80032a0:	f003 0307 	and.w	r3, r3, #7
 80032a4:	683a      	ldr	r2, [r7, #0]
 80032a6:	429a      	cmp	r2, r3
 80032a8:	d910      	bls.n	80032cc <HAL_RCC_ClockConfig+0x44>
 80032aa:	4b67      	ldr	r3, [pc, #412]	; (8003448 <HAL_RCC_ClockConfig+0x1c0>)
 80032ac:	681b      	ldr	r3, [r3, #0]
 80032ae:	f023 0207 	bic.w	r2, r3, #7
 80032b2:	4965      	ldr	r1, [pc, #404]	; (8003448 <HAL_RCC_ClockConfig+0x1c0>)
 80032b4:	683b      	ldr	r3, [r7, #0]
 80032b6:	4313      	orrs	r3, r2
 80032b8:	600b      	str	r3, [r1, #0]
 80032ba:	4b63      	ldr	r3, [pc, #396]	; (8003448 <HAL_RCC_ClockConfig+0x1c0>)
 80032bc:	681b      	ldr	r3, [r3, #0]
 80032be:	f003 0307 	and.w	r3, r3, #7
 80032c2:	683a      	ldr	r2, [r7, #0]
 80032c4:	429a      	cmp	r2, r3
 80032c6:	d001      	beq.n	80032cc <HAL_RCC_ClockConfig+0x44>
 80032c8:	2301      	movs	r3, #1
 80032ca:	e0b8      	b.n	800343e <HAL_RCC_ClockConfig+0x1b6>
 80032cc:	687b      	ldr	r3, [r7, #4]
 80032ce:	681b      	ldr	r3, [r3, #0]
 80032d0:	f003 0302 	and.w	r3, r3, #2
 80032d4:	2b00      	cmp	r3, #0
 80032d6:	d020      	beq.n	800331a <HAL_RCC_ClockConfig+0x92>
 80032d8:	687b      	ldr	r3, [r7, #4]
 80032da:	681b      	ldr	r3, [r3, #0]
 80032dc:	f003 0304 	and.w	r3, r3, #4
 80032e0:	2b00      	cmp	r3, #0
 80032e2:	d005      	beq.n	80032f0 <HAL_RCC_ClockConfig+0x68>
 80032e4:	4b59      	ldr	r3, [pc, #356]	; (800344c <HAL_RCC_ClockConfig+0x1c4>)
 80032e6:	685b      	ldr	r3, [r3, #4]
 80032e8:	4a58      	ldr	r2, [pc, #352]	; (800344c <HAL_RCC_ClockConfig+0x1c4>)
 80032ea:	f443 63e0 	orr.w	r3, r3, #1792	; 0x700
 80032ee:	6053      	str	r3, [r2, #4]
 80032f0:	687b      	ldr	r3, [r7, #4]
 80032f2:	681b      	ldr	r3, [r3, #0]
 80032f4:	f003 0308 	and.w	r3, r3, #8
 80032f8:	2b00      	cmp	r3, #0
 80032fa:	d005      	beq.n	8003308 <HAL_RCC_ClockConfig+0x80>
 80032fc:	4b53      	ldr	r3, [pc, #332]	; (800344c <HAL_RCC_ClockConfig+0x1c4>)
 80032fe:	685b      	ldr	r3, [r3, #4]
 8003300:	4a52      	ldr	r2, [pc, #328]	; (800344c <HAL_RCC_ClockConfig+0x1c4>)
 8003302:	f443 5360 	orr.w	r3, r3, #14336	; 0x3800
 8003306:	6053      	str	r3, [r2, #4]
 8003308:	4b50      	ldr	r3, [pc, #320]	; (800344c <HAL_RCC_ClockConfig+0x1c4>)
 800330a:	685b      	ldr	r3, [r3, #4]
 800330c:	f023 02f0 	bic.w	r2, r3, #240	; 0xf0
 8003310:	687b      	ldr	r3, [r7, #4]
 8003312:	689b      	ldr	r3, [r3, #8]
 8003314:	494d      	ldr	r1, [pc, #308]	; (800344c <HAL_RCC_ClockConfig+0x1c4>)
 8003316:	4313      	orrs	r3, r2
 8003318:	604b      	str	r3, [r1, #4]
 800331a:	687b      	ldr	r3, [r7, #4]
 800331c:	681b      	ldr	r3, [r3, #0]
 800331e:	f003 0301 	and.w	r3, r3, #1
 8003322:	2b00      	cmp	r3, #0
 8003324:	d040      	beq.n	80033a8 <HAL_RCC_ClockConfig+0x120>
 8003326:	687b      	ldr	r3, [r7, #4]
 8003328:	685b      	ldr	r3, [r3, #4]
 800332a:	2b01      	cmp	r3, #1
 800332c:	d107      	bne.n	800333e <HAL_RCC_ClockConfig+0xb6>
 800332e:	4b47      	ldr	r3, [pc, #284]	; (800344c <HAL_RCC_ClockConfig+0x1c4>)
 8003330:	681b      	ldr	r3, [r3, #0]
 8003332:	f403 3300 	and.w	r3, r3, #131072	; 0x20000
 8003336:	2b00      	cmp	r3, #0
 8003338:	d115      	bne.n	8003366 <HAL_RCC_ClockConfig+0xde>
 800333a:	2301      	movs	r3, #1
 800333c:	e07f      	b.n	800343e <HAL_RCC_ClockConfig+0x1b6>
 800333e:	687b      	ldr	r3, [r7, #4]
 8003340:	685b      	ldr	r3, [r3, #4]
 8003342:	2b02      	cmp	r3, #2
 8003344:	d107      	bne.n	8003356 <HAL_RCC_ClockConfig+0xce>
 8003346:	4b41      	ldr	r3, [pc, #260]	; (800344c <HAL_RCC_ClockConfig+0x1c4>)
 8003348:	681b      	ldr	r3, [r3, #0]
 800334a:	f003 7300 	and.w	r3, r3, #33554432	; 0x2000000
 800334e:	2b00      	cmp	r3, #0
 8003350:	d109      	bne.n	8003366 <HAL_RCC_ClockConfig+0xde>
 8003352:	2301      	movs	r3, #1
 8003354:	e073      	b.n	800343e <HAL_RCC_ClockConfig+0x1b6>
 8003356:	4b3d      	ldr	r3, [pc, #244]	; (800344c <HAL_RCC_ClockConfig+0x1c4>)
 8003358:	681b      	ldr	r3, [r3, #0]
 800335a:	f003 0302 	and.w	r3, r3, #2
 800335e:	2b00      	cmp	r3, #0
 8003360:	d101      	bne.n	8003366 <HAL_RCC_ClockConfig+0xde>
 8003362:	2301      	movs	r3, #1
 8003364:	e06b      	b.n	800343e <HAL_RCC_ClockConfig+0x1b6>
 8003366:	4b39      	ldr	r3, [pc, #228]	; (800344c <HAL_RCC_ClockConfig+0x1c4>)
 8003368:	685b      	ldr	r3, [r3, #4]
 800336a:	f023 0203 	bic.w	r2, r3, #3
 800336e:	687b      	ldr	r3, [r7, #4]
 8003370:	685b      	ldr	r3, [r3, #4]
 8003372:	4936      	ldr	r1, [pc, #216]	; (800344c <HAL_RCC_ClockConfig+0x1c4>)
 8003374:	4313      	orrs	r3, r2
 8003376:	604b      	str	r3, [r1, #4]
 8003378:	f7fe f810 	bl	800139c <HAL_GetTick>
 800337c:	60f8      	str	r0, [r7, #12]
 800337e:	e00a      	b.n	8003396 <HAL_RCC_ClockConfig+0x10e>
 8003380:	f7fe f80c 	bl	800139c <HAL_GetTick>
 8003384:	4602      	mov	r2, r0
 8003386:	68fb      	ldr	r3, [r7, #12]
 8003388:	1ad3      	subs	r3, r2, r3
 800338a:	f241 3288 	movw	r2, #5000	; 0x1388
 800338e:	4293      	cmp	r3, r2
 8003390:	d901      	bls.n	8003396 <HAL_RCC_ClockConfig+0x10e>
 8003392:	2303      	movs	r3, #3
 8003394:	e053      	b.n	800343e <HAL_RCC_ClockConfig+0x1b6>
 8003396:	4b2d      	ldr	r3, [pc, #180]	; (800344c <HAL_RCC_ClockConfig+0x1c4>)
 8003398:	685b      	ldr	r3, [r3, #4]
 800339a:	f003 020c 	and.w	r2, r3, #12
 800339e:	687b      	ldr	r3, [r7, #4]
 80033a0:	685b      	ldr	r3, [r3, #4]
 80033a2:	009b      	lsls	r3, r3, #2
 80033a4:	429a      	cmp	r2, r3
 80033a6:	d1eb      	bne.n	8003380 <HAL_RCC_ClockConfig+0xf8>
 80033a8:	4b27      	ldr	r3, [pc, #156]	; (8003448 <HAL_RCC_ClockConfig+0x1c0>)
 80033aa:	681b      	ldr	r3, [r3, #0]
 80033ac:	f003 0307 	and.w	r3, r3, #7
 80033b0:	683a      	ldr	r2, [r7, #0]
 80033b2:	429a      	cmp	r2, r3
 80033b4:	d210      	bcs.n	80033d8 <HAL_RCC_ClockConfig+0x150>
 80033b6:	4b24      	ldr	r3, [pc, #144]	; (8003448 <HAL_RCC_ClockConfig+0x1c0>)
 80033b8:	681b      	ldr	r3, [r3, #0]
 80033ba:	f023 0207 	bic.w	r2, r3, #7
 80033be:	4922      	ldr	r1, [pc, #136]	; (8003448 <HAL_RCC_ClockConfig+0x1c0>)
 80033c0:	683b      	ldr	r3, [r7, #0]
 80033c2:	4313      	orrs	r3, r2
 80033c4:	600b      	str	r3, [r1, #0]
 80033c6:	4b20      	ldr	r3, [pc, #128]	; (8003448 <HAL_RCC_ClockConfig+0x1c0>)
 80033c8:	681b      	ldr	r3, [r3, #0]
 80033ca:	f003 0307 	and.w	r3, r3, #7
 80033ce:	683a      	ldr	r2, [r7, #0]
 80033d0:	429a      	cmp	r2, r3
 80033d2:	d001      	beq.n	80033d8 <HAL_RCC_ClockConfig+0x150>
 80033d4:	2301      	movs	r3, #1
 80033d6:	e032      	b.n	800343e <HAL_RCC_ClockConfig+0x1b6>
 80033d8:	687b      	ldr	r3, [r7, #4]
 80033da:	681b      	ldr	r3, [r3, #0]
 80033dc:	f003 0304 	and.w	r3, r3, #4
 80033e0:	2b00      	cmp	r3, #0
 80033e2:	d008      	beq.n	80033f6 <HAL_RCC_ClockConfig+0x16e>
 80033e4:	4b19      	ldr	r3, [pc, #100]	; (800344c <HAL_RCC_ClockConfig+0x1c4>)
 80033e6:	685b      	ldr	r3, [r3, #4]
 80033e8:	f423 62e0 	bic.w	r2, r3, #1792	; 0x700
 80033ec:	687b      	ldr	r3, [r7, #4]
 80033ee:	68db      	ldr	r3, [r3, #12]
 80033f0:	4916      	ldr	r1, [pc, #88]	; (800344c <HAL_RCC_ClockConfig+0x1c4>)
 80033f2:	4313      	orrs	r3, r2
 80033f4:	604b      	str	r3, [r1, #4]
 80033f6:	687b      	ldr	r3, [r7, #4]
 80033f8:	681b      	ldr	r3, [r3, #0]
 80033fa:	f003 0308 	and.w	r3, r3, #8
 80033fe:	2b00      	cmp	r3, #0
 8003400:	d009      	beq.n	8003416 <HAL_RCC_ClockConfig+0x18e>
 8003402:	4b12      	ldr	r3, [pc, #72]	; (800344c <HAL_RCC_ClockConfig+0x1c4>)
 8003404:	685b      	ldr	r3, [r3, #4]
 8003406:	f423 5260 	bic.w	r2, r3, #14336	; 0x3800
 800340a:	687b      	ldr	r3, [r7, #4]
 800340c:	691b      	ldr	r3, [r3, #16]
 800340e:	00db      	lsls	r3, r3, #3
 8003410:	490e      	ldr	r1, [pc, #56]	; (800344c <HAL_RCC_ClockConfig+0x1c4>)
 8003412:	4313      	orrs	r3, r2
 8003414:	604b      	str	r3, [r1, #4]
 8003416:	f000 f821 	bl	800345c <HAL_RCC_GetSysClockFreq>
 800341a:	4602      	mov	r2, r0
 800341c:	4b0b      	ldr	r3, [pc, #44]	; (800344c <HAL_RCC_ClockConfig+0x1c4>)
 800341e:	685b      	ldr	r3, [r3, #4]
 8003420:	091b      	lsrs	r3, r3, #4
 8003422:	f003 030f 	and.w	r3, r3, #15
 8003426:	490a      	ldr	r1, [pc, #40]	; (8003450 <HAL_RCC_ClockConfig+0x1c8>)
 8003428:	5ccb      	ldrb	r3, [r1, r3]
 800342a:	fa22 f303 	lsr.w	r3, r2, r3
 800342e:	4a09      	ldr	r2, [pc, #36]	; (8003454 <HAL_RCC_ClockConfig+0x1cc>)
 8003430:	6013      	str	r3, [r2, #0]
 8003432:	4b09      	ldr	r3, [pc, #36]	; (8003458 <HAL_RCC_ClockConfig+0x1d0>)
 8003434:	681b      	ldr	r3, [r3, #0]
 8003436:	4618      	mov	r0, r3
 8003438:	f7fd ff6e 	bl	8001318 <HAL_InitTick>
 800343c:	2300      	movs	r3, #0
 800343e:	4618      	mov	r0, r3
 8003440:	3710      	adds	r7, #16
 8003442:	46bd      	mov	sp, r7
 8003444:	bd80      	pop	{r7, pc}
 8003446:	bf00      	nop
 8003448:	40022000 	.word	0x40022000
 800344c:	40021000 	.word	0x40021000
 8003450:	080062a0 	.word	0x080062a0
 8003454:	20000004 	.word	0x20000004
 8003458:	20000008 	.word	0x20000008

0800345c <HAL_RCC_GetSysClockFreq>:
 800345c:	b490      	push	{r4, r7}
 800345e:	b08a      	sub	sp, #40	; 0x28
 8003460:	af00      	add	r7, sp, #0
 8003462:	4b29      	ldr	r3, [pc, #164]	; (8003508 <HAL_RCC_GetSysClockFreq+0xac>)
 8003464:	1d3c      	adds	r4, r7, #4
 8003466:	cb0f      	ldmia	r3, {r0, r1, r2, r3}
 8003468:	e884 000f 	stmia.w	r4, {r0, r1, r2, r3}
 800346c:	f240 2301 	movw	r3, #513	; 0x201
 8003470:	803b      	strh	r3, [r7, #0]
 8003472:	2300      	movs	r3, #0
 8003474:	61fb      	str	r3, [r7, #28]
 8003476:	2300      	movs	r3, #0
 8003478:	61bb      	str	r3, [r7, #24]
 800347a:	2300      	movs	r3, #0
 800347c:	627b      	str	r3, [r7, #36]	; 0x24
 800347e:	2300      	movs	r3, #0
 8003480:	617b      	str	r3, [r7, #20]
 8003482:	2300      	movs	r3, #0
 8003484:	623b      	str	r3, [r7, #32]
 8003486:	4b21      	ldr	r3, [pc, #132]	; (800350c <HAL_RCC_GetSysClockFreq+0xb0>)
 8003488:	685b      	ldr	r3, [r3, #4]
 800348a:	61fb      	str	r3, [r7, #28]
 800348c:	69fb      	ldr	r3, [r7, #28]
 800348e:	f003 030c 	and.w	r3, r3, #12
 8003492:	2b04      	cmp	r3, #4
 8003494:	d002      	beq.n	800349c <HAL_RCC_GetSysClockFreq+0x40>
 8003496:	2b08      	cmp	r3, #8
 8003498:	d003      	beq.n	80034a2 <HAL_RCC_GetSysClockFreq+0x46>
 800349a:	e02b      	b.n	80034f4 <HAL_RCC_GetSysClockFreq+0x98>
 800349c:	4b1c      	ldr	r3, [pc, #112]	; (8003510 <HAL_RCC_GetSysClockFreq+0xb4>)
 800349e:	623b      	str	r3, [r7, #32]
 80034a0:	e02b      	b.n	80034fa <HAL_RCC_GetSysClockFreq+0x9e>
 80034a2:	69fb      	ldr	r3, [r7, #28]
 80034a4:	0c9b      	lsrs	r3, r3, #18
 80034a6:	f003 030f 	and.w	r3, r3, #15
 80034aa:	3328      	adds	r3, #40	; 0x28
 80034ac:	443b      	add	r3, r7
 80034ae:	f813 3c24 	ldrb.w	r3, [r3, #-36]
 80034b2:	617b      	str	r3, [r7, #20]
 80034b4:	69fb      	ldr	r3, [r7, #28]
 80034b6:	f403 3380 	and.w	r3, r3, #65536	; 0x10000
 80034ba:	2b00      	cmp	r3, #0
 80034bc:	d012      	beq.n	80034e4 <HAL_RCC_GetSysClockFreq+0x88>
 80034be:	4b13      	ldr	r3, [pc, #76]	; (800350c <HAL_RCC_GetSysClockFreq+0xb0>)
 80034c0:	685b      	ldr	r3, [r3, #4]
 80034c2:	0c5b      	lsrs	r3, r3, #17
 80034c4:	f003 0301 	and.w	r3, r3, #1
 80034c8:	3328      	adds	r3, #40	; 0x28
 80034ca:	443b      	add	r3, r7
 80034cc:	f813 3c28 	ldrb.w	r3, [r3, #-40]
 80034d0:	61bb      	str	r3, [r7, #24]
 80034d2:	697b      	ldr	r3, [r7, #20]
 80034d4:	4a0e      	ldr	r2, [pc, #56]	; (8003510 <HAL_RCC_GetSysClockFreq+0xb4>)
 80034d6:	fb03 f202 	mul.w	r2, r3, r2
 80034da:	69bb      	ldr	r3, [r7, #24]
 80034dc:	fbb2 f3f3 	udiv	r3, r2, r3
 80034e0:	627b      	str	r3, [r7, #36]	; 0x24
 80034e2:	e004      	b.n	80034ee <HAL_RCC_GetSysClockFreq+0x92>
 80034e4:	697b      	ldr	r3, [r7, #20]
 80034e6:	4a0b      	ldr	r2, [pc, #44]	; (8003514 <HAL_RCC_GetSysClockFreq+0xb8>)
 80034e8:	fb02 f303 	mul.w	r3, r2, r3
 80034ec:	627b      	str	r3, [r7, #36]	; 0x24
 80034ee:	6a7b      	ldr	r3, [r7, #36]	; 0x24
 80034f0:	623b      	str	r3, [r7, #32]
 80034f2:	e002      	b.n	80034fa <HAL_RCC_GetSysClockFreq+0x9e>
 80034f4:	4b06      	ldr	r3, [pc, #24]	; (8003510 <HAL_RCC_GetSysClockFreq+0xb4>)
 80034f6:	623b      	str	r3, [r7, #32]
 80034f8:	bf00      	nop
 80034fa:	6a3b      	ldr	r3, [r7, #32]
 80034fc:	4618      	mov	r0, r3
 80034fe:	3728      	adds	r7, #40	; 0x28
 8003500:	46bd      	mov	sp, r7
 8003502:	bc90      	pop	{r4, r7}
 8003504:	4770      	bx	lr
 8003506:	bf00      	nop
 8003508:	08006290 	.word	0x08006290
 800350c:	40021000 	.word	0x40021000
 8003510:	007a1200 	.word	0x007a1200
 8003514:	003d0900 	.word	0x003d0900

08003518 <HAL_RCC_GetHCLKFreq>:
 8003518:	b480      	push	{r7}
 800351a:	af00      	add	r7, sp, #0
 800351c:	4b02      	ldr	r3, [pc, #8]	; (8003528 <HAL_RCC_GetHCLKFreq+0x10>)
 800351e:	681b      	ldr	r3, [r3, #0]
 8003520:	4618      	mov	r0, r3
 8003522:	46bd      	mov	sp, r7
 8003524:	bc80      	pop	{r7}
 8003526:	4770      	bx	lr
 8003528:	20000004 	.word	0x20000004

0800352c <HAL_RCC_GetPCLK1Freq>:
 800352c:	b580      	push	{r7, lr}
 800352e:	af00      	add	r7, sp, #0
 8003530:	f7ff fff2 	bl	8003518 <HAL_RCC_GetHCLKFreq>
 8003534:	4602      	mov	r2, r0
 8003536:	4b05      	ldr	r3, [pc, #20]	; (800354c <HAL_RCC_GetPCLK1Freq+0x20>)
 8003538:	685b      	ldr	r3, [r3, #4]
 800353a:	0a1b      	lsrs	r3, r3, #8
 800353c:	f003 0307 	and.w	r3, r3, #7
 8003540:	4903      	ldr	r1, [pc, #12]	; (8003550 <HAL_RCC_GetPCLK1Freq+0x24>)
 8003542:	5ccb      	ldrb	r3, [r1, r3]
 8003544:	fa22 f303 	lsr.w	r3, r2, r3
 8003548:	4618      	mov	r0, r3
 800354a:	bd80      	pop	{r7, pc}
 800354c:	40021000 	.word	0x40021000
 8003550:	080062b0 	.word	0x080062b0

08003554 <HAL_RCC_GetPCLK2Freq>:
 8003554:	b580      	push	{r7, lr}
 8003556:	af00      	add	r7, sp, #0
 8003558:	f7ff ffde 	bl	8003518 <HAL_RCC_GetHCLKFreq>
 800355c:	4602      	mov	r2, r0
 800355e:	4b05      	ldr	r3, [pc, #20]	; (8003574 <HAL_RCC_GetPCLK2Freq+0x20>)
 8003560:	685b      	ldr	r3, [r3, #4]
 8003562:	0adb      	lsrs	r3, r3, #11
 8003564:	f003 0307 	and.w	r3, r3, #7
 8003568:	4903      	ldr	r1, [pc, #12]	; (8003578 <HAL_RCC_GetPCLK2Freq+0x24>)
 800356a:	5ccb      	ldrb	r3, [r1, r3]
 800356c:	fa22 f303 	lsr.w	r3, r2, r3
 8003570:	4618      	mov	r0, r3
 8003572:	bd80      	pop	{r7, pc}
 8003574:	40021000 	.word	0x40021000
 8003578:	080062b0 	.word	0x080062b0

0800357c <RCC_Delay>:
 800357c:	b480      	push	{r7}
 800357e:	b085      	sub	sp, #20
 8003580:	af00      	add	r7, sp, #0
 8003582:	6078      	str	r0, [r7, #4]
 8003584:	4b0a      	ldr	r3, [pc, #40]	; (80035b0 <RCC_Delay+0x34>)
 8003586:	681b      	ldr	r3, [r3, #0]
 8003588:	4a0a      	ldr	r2, [pc, #40]	; (80035b4 <RCC_Delay+0x38>)
 800358a:	fba2 2303 	umull	r2, r3, r2, r3
 800358e:	0a5b      	lsrs	r3, r3, #9
 8003590:	687a      	ldr	r2, [r7, #4]
 8003592:	fb02 f303 	mul.w	r3, r2, r3
 8003596:	60fb      	str	r3, [r7, #12]
 8003598:	bf00      	nop
 800359a:	68fb      	ldr	r3, [r7, #12]
 800359c:	1e5a      	subs	r2, r3, #1
 800359e:	60fa      	str	r2, [r7, #12]
 80035a0:	2b00      	cmp	r3, #0
 80035a2:	d1f9      	bne.n	8003598 <RCC_Delay+0x1c>
 80035a4:	bf00      	nop
 80035a6:	bf00      	nop
 80035a8:	3714      	adds	r7, #20
 80035aa:	46bd      	mov	sp, r7
 80035ac:	bc80      	pop	{r7}
 80035ae:	4770      	bx	lr
 80035b0:	20000004 	.word	0x20000004
 80035b4:	10624dd3 	.word	0x10624dd3

080035b8 <HAL_RCCEx_PeriphCLKConfig>:
 80035b8:	b580      	push	{r7, lr}
 80035ba:	b086      	sub	sp, #24
 80035bc:	af00      	add	r7, sp, #0
 80035be:	6078      	str	r0, [r7, #4]
 80035c0:	2300      	movs	r3, #0
 80035c2:	613b      	str	r3, [r7, #16]
 80035c4:	2300      	movs	r3, #0
 80035c6:	60fb      	str	r3, [r7, #12]
 80035c8:	687b      	ldr	r3, [r7, #4]
 80035ca:	681b      	ldr	r3, [r3, #0]
 80035cc:	f003 0301 	and.w	r3, r3, #1
 80035d0:	2b00      	cmp	r3, #0
 80035d2:	d07d      	beq.n	80036d0 <HAL_RCCEx_PeriphCLKConfig+0x118>
 80035d4:	2300      	movs	r3, #0
 80035d6:	75fb      	strb	r3, [r7, #23]
 80035d8:	4b4f      	ldr	r3, [pc, #316]	; (8003718 <HAL_RCCEx_PeriphCLKConfig+0x160>)
 80035da:	69db      	ldr	r3, [r3, #28]
 80035dc:	f003 5380 	and.w	r3, r3, #268435456	; 0x10000000
 80035e0:	2b00      	cmp	r3, #0
 80035e2:	d10d      	bne.n	8003600 <HAL_RCCEx_PeriphCLKConfig+0x48>
 80035e4:	4b4c      	ldr	r3, [pc, #304]	; (8003718 <HAL_RCCEx_PeriphCLKConfig+0x160>)
 80035e6:	69db      	ldr	r3, [r3, #28]
 80035e8:	4a4b      	ldr	r2, [pc, #300]	; (8003718 <HAL_RCCEx_PeriphCLKConfig+0x160>)
 80035ea:	f043 5380 	orr.w	r3, r3, #268435456	; 0x10000000
 80035ee:	61d3      	str	r3, [r2, #28]
 80035f0:	4b49      	ldr	r3, [pc, #292]	; (8003718 <HAL_RCCEx_PeriphCLKConfig+0x160>)
 80035f2:	69db      	ldr	r3, [r3, #28]
 80035f4:	f003 5380 	and.w	r3, r3, #268435456	; 0x10000000
 80035f8:	60bb      	str	r3, [r7, #8]
 80035fa:	68bb      	ldr	r3, [r7, #8]
 80035fc:	2301      	movs	r3, #1
 80035fe:	75fb      	strb	r3, [r7, #23]
 8003600:	4b46      	ldr	r3, [pc, #280]	; (800371c <HAL_RCCEx_PeriphCLKConfig+0x164>)
 8003602:	681b      	ldr	r3, [r3, #0]
 8003604:	f403 7380 	and.w	r3, r3, #256	; 0x100
 8003608:	2b00      	cmp	r3, #0
 800360a:	d118      	bne.n	800363e <HAL_RCCEx_PeriphCLKConfig+0x86>
 800360c:	4b43      	ldr	r3, [pc, #268]	; (800371c <HAL_RCCEx_PeriphCLKConfig+0x164>)
 800360e:	681b      	ldr	r3, [r3, #0]
 8003610:	4a42      	ldr	r2, [pc, #264]	; (800371c <HAL_RCCEx_PeriphCLKConfig+0x164>)
 8003612:	f443 7380 	orr.w	r3, r3, #256	; 0x100
 8003616:	6013      	str	r3, [r2, #0]
 8003618:	f7fd fec0 	bl	800139c <HAL_GetTick>
 800361c:	6138      	str	r0, [r7, #16]
 800361e:	e008      	b.n	8003632 <HAL_RCCEx_PeriphCLKConfig+0x7a>
 8003620:	f7fd febc 	bl	800139c <HAL_GetTick>
 8003624:	4602      	mov	r2, r0
 8003626:	693b      	ldr	r3, [r7, #16]
 8003628:	1ad3      	subs	r3, r2, r3
 800362a:	2b64      	cmp	r3, #100	; 0x64
 800362c:	d901      	bls.n	8003632 <HAL_RCCEx_PeriphCLKConfig+0x7a>
 800362e:	2303      	movs	r3, #3
 8003630:	e06d      	b.n	800370e <HAL_RCCEx_PeriphCLKConfig+0x156>
 8003632:	4b3a      	ldr	r3, [pc, #232]	; (800371c <HAL_RCCEx_PeriphCLKConfig+0x164>)
 8003634:	681b      	ldr	r3, [r3, #0]
 8003636:	f403 7380 	and.w	r3, r3, #256	; 0x100
 800363a:	2b00      	cmp	r3, #0
 800363c:	d0f0      	beq.n	8003620 <HAL_RCCEx_PeriphCLKConfig+0x68>
 800363e:	4b36      	ldr	r3, [pc, #216]	; (8003718 <HAL_RCCEx_PeriphCLKConfig+0x160>)
 8003640:	6a1b      	ldr	r3, [r3, #32]
 8003642:	f403 7340 	and.w	r3, r3, #768	; 0x300
 8003646:	60fb      	str	r3, [r7, #12]
 8003648:	68fb      	ldr	r3, [r7, #12]
 800364a:	2b00      	cmp	r3, #0
 800364c:	d02e      	beq.n	80036ac <HAL_RCCEx_PeriphCLKConfig+0xf4>
 800364e:	687b      	ldr	r3, [r7, #4]
 8003650:	685b      	ldr	r3, [r3, #4]
 8003652:	f403 7340 	and.w	r3, r3, #768	; 0x300
 8003656:	68fa      	ldr	r2, [r7, #12]
 8003658:	429a      	cmp	r2, r3
 800365a:	d027      	beq.n	80036ac <HAL_RCCEx_PeriphCLKConfig+0xf4>
 800365c:	4b2e      	ldr	r3, [pc, #184]	; (8003718 <HAL_RCCEx_PeriphCLKConfig+0x160>)
 800365e:	6a1b      	ldr	r3, [r3, #32]
 8003660:	f423 7340 	bic.w	r3, r3, #768	; 0x300
 8003664:	60fb      	str	r3, [r7, #12]
 8003666:	4b2e      	ldr	r3, [pc, #184]	; (8003720 <HAL_RCCEx_PeriphCLKConfig+0x168>)
 8003668:	2201      	movs	r2, #1
 800366a:	601a      	str	r2, [r3, #0]
 800366c:	4b2c      	ldr	r3, [pc, #176]	; (8003720 <HAL_RCCEx_PeriphCLKConfig+0x168>)
 800366e:	2200      	movs	r2, #0
 8003670:	601a      	str	r2, [r3, #0]
 8003672:	4a29      	ldr	r2, [pc, #164]	; (8003718 <HAL_RCCEx_PeriphCLKConfig+0x160>)
 8003674:	68fb      	ldr	r3, [r7, #12]
 8003676:	6213      	str	r3, [r2, #32]
 8003678:	68fb      	ldr	r3, [r7, #12]
 800367a:	f003 0301 	and.w	r3, r3, #1
 800367e:	2b00      	cmp	r3, #0
 8003680:	d014      	beq.n	80036ac <HAL_RCCEx_PeriphCLKConfig+0xf4>
 8003682:	f7fd fe8b 	bl	800139c <HAL_GetTick>
 8003686:	6138      	str	r0, [r7, #16]
 8003688:	e00a      	b.n	80036a0 <HAL_RCCEx_PeriphCLKConfig+0xe8>
 800368a:	f7fd fe87 	bl	800139c <HAL_GetTick>
 800368e:	4602      	mov	r2, r0
 8003690:	693b      	ldr	r3, [r7, #16]
 8003692:	1ad3      	subs	r3, r2, r3
 8003694:	f241 3288 	movw	r2, #5000	; 0x1388
 8003698:	4293      	cmp	r3, r2
 800369a:	d901      	bls.n	80036a0 <HAL_RCCEx_PeriphCLKConfig+0xe8>
 800369c:	2303      	movs	r3, #3
 800369e:	e036      	b.n	800370e <HAL_RCCEx_PeriphCLKConfig+0x156>
 80036a0:	4b1d      	ldr	r3, [pc, #116]	; (8003718 <HAL_RCCEx_PeriphCLKConfig+0x160>)
 80036a2:	6a1b      	ldr	r3, [r3, #32]
 80036a4:	f003 0302 	and.w	r3, r3, #2
 80036a8:	2b00      	cmp	r3, #0
 80036aa:	d0ee      	beq.n	800368a <HAL_RCCEx_PeriphCLKConfig+0xd2>
 80036ac:	4b1a      	ldr	r3, [pc, #104]	; (8003718 <HAL_RCCEx_PeriphCLKConfig+0x160>)
 80036ae:	6a1b      	ldr	r3, [r3, #32]
 80036b0:	f423 7240 	bic.w	r2, r3, #768	; 0x300
 80036b4:	687b      	ldr	r3, [r7, #4]
 80036b6:	685b      	ldr	r3, [r3, #4]
 80036b8:	4917      	ldr	r1, [pc, #92]	; (8003718 <HAL_RCCEx_PeriphCLKConfig+0x160>)
 80036ba:	4313      	orrs	r3, r2
 80036bc:	620b      	str	r3, [r1, #32]
 80036be:	7dfb      	ldrb	r3, [r7, #23]
 80036c0:	2b01      	cmp	r3, #1
 80036c2:	d105      	bne.n	80036d0 <HAL_RCCEx_PeriphCLKConfig+0x118>
 80036c4:	4b14      	ldr	r3, [pc, #80]	; (8003718 <HAL_RCCEx_PeriphCLKConfig+0x160>)
 80036c6:	69db      	ldr	r3, [r3, #28]
 80036c8:	4a13      	ldr	r2, [pc, #76]	; (8003718 <HAL_RCCEx_PeriphCLKConfig+0x160>)
 80036ca:	f023 5380 	bic.w	r3, r3, #268435456	; 0x10000000
 80036ce:	61d3      	str	r3, [r2, #28]
 80036d0:	687b      	ldr	r3, [r7, #4]
 80036d2:	681b      	ldr	r3, [r3, #0]
 80036d4:	f003 0302 	and.w	r3, r3, #2
 80036d8:	2b00      	cmp	r3, #0
 80036da:	d008      	beq.n	80036ee <HAL_RCCEx_PeriphCLKConfig+0x136>
 80036dc:	4b0e      	ldr	r3, [pc, #56]	; (8003718 <HAL_RCCEx_PeriphCLKConfig+0x160>)
 80036de:	685b      	ldr	r3, [r3, #4]
 80036e0:	f423 4240 	bic.w	r2, r3, #49152	; 0xc000
 80036e4:	687b      	ldr	r3, [r7, #4]
 80036e6:	689b      	ldr	r3, [r3, #8]
 80036e8:	490b      	ldr	r1, [pc, #44]	; (8003718 <HAL_RCCEx_PeriphCLKConfig+0x160>)
 80036ea:	4313      	orrs	r3, r2
 80036ec:	604b      	str	r3, [r1, #4]
 80036ee:	687b      	ldr	r3, [r7, #4]
 80036f0:	681b      	ldr	r3, [r3, #0]
 80036f2:	f003 0310 	and.w	r3, r3, #16
 80036f6:	2b00      	cmp	r3, #0
 80036f8:	d008      	beq.n	800370c <HAL_RCCEx_PeriphCLKConfig+0x154>
 80036fa:	4b07      	ldr	r3, [pc, #28]	; (8003718 <HAL_RCCEx_PeriphCLKConfig+0x160>)
 80036fc:	685b      	ldr	r3, [r3, #4]
 80036fe:	f423 0280 	bic.w	r2, r3, #4194304	; 0x400000
 8003702:	687b      	ldr	r3, [r7, #4]
 8003704:	68db      	ldr	r3, [r3, #12]
 8003706:	4904      	ldr	r1, [pc, #16]	; (8003718 <HAL_RCCEx_PeriphCLKConfig+0x160>)
 8003708:	4313      	orrs	r3, r2
 800370a:	604b      	str	r3, [r1, #4]
 800370c:	2300      	movs	r3, #0
 800370e:	4618      	mov	r0, r3
 8003710:	3718      	adds	r7, #24
 8003712:	46bd      	mov	sp, r7
 8003714:	bd80      	pop	{r7, pc}
 8003716:	bf00      	nop
 8003718:	40021000 	.word	0x40021000
 800371c:	40007000 	.word	0x40007000
 8003720:	42420440 	.word	0x42420440

08003724 <HAL_TIM_Base_Init>:
 8003724:	b580      	push	{r7, lr}
 8003726:	b082      	sub	sp, #8
 8003728:	af00      	add	r7, sp, #0
 800372a:	6078      	str	r0, [r7, #4]
 800372c:	687b      	ldr	r3, [r7, #4]
 800372e:	2b00      	cmp	r3, #0
 8003730:	d101      	bne.n	8003736 <HAL_TIM_Base_Init+0x12>
 8003732:	2301      	movs	r3, #1
 8003734:	e041      	b.n	80037ba <HAL_TIM_Base_Init+0x96>
 8003736:	687b      	ldr	r3, [r7, #4]
 8003738:	f893 303d 	ldrb.w	r3, [r3, #61]	; 0x3d
 800373c:	b2db      	uxtb	r3, r3
 800373e:	2b00      	cmp	r3, #0
 8003740:	d106      	bne.n	8003750 <HAL_TIM_Base_Init+0x2c>
 8003742:	687b      	ldr	r3, [r7, #4]
 8003744:	2200      	movs	r2, #0
 8003746:	f883 203c 	strb.w	r2, [r3, #60]	; 0x3c
 800374a:	6878      	ldr	r0, [r7, #4]
 800374c:	f7fd fbc0 	bl	8000ed0 <HAL_TIM_Base_MspInit>
 8003750:	687b      	ldr	r3, [r7, #4]
 8003752:	2202      	movs	r2, #2
 8003754:	f883 203d 	strb.w	r2, [r3, #61]	; 0x3d
 8003758:	687b      	ldr	r3, [r7, #4]
 800375a:	681a      	ldr	r2, [r3, #0]
 800375c:	687b      	ldr	r3, [r7, #4]
 800375e:	3304      	adds	r3, #4
 8003760:	4619      	mov	r1, r3
 8003762:	4610      	mov	r0, r2
 8003764:	f000 fe96 	bl	8004494 <TIM_Base_SetConfig>
 8003768:	687b      	ldr	r3, [r7, #4]
 800376a:	2201      	movs	r2, #1
 800376c:	f883 2046 	strb.w	r2, [r3, #70]	; 0x46
 8003770:	687b      	ldr	r3, [r7, #4]
 8003772:	2201      	movs	r2, #1
 8003774:	f883 203e 	strb.w	r2, [r3, #62]	; 0x3e
 8003778:	687b      	ldr	r3, [r7, #4]
 800377a:	2201      	movs	r2, #1
 800377c:	f883 203f 	strb.w	r2, [r3, #63]	; 0x3f
 8003780:	687b      	ldr	r3, [r7, #4]
 8003782:	2201      	movs	r2, #1
 8003784:	f883 2040 	strb.w	r2, [r3, #64]	; 0x40
 8003788:	687b      	ldr	r3, [r7, #4]
 800378a:	2201      	movs	r2, #1
 800378c:	f883 2041 	strb.w	r2, [r3, #65]	; 0x41
 8003790:	687b      	ldr	r3, [r7, #4]
 8003792:	2201      	movs	r2, #1
 8003794:	f883 2042 	strb.w	r2, [r3, #66]	; 0x42
 8003798:	687b      	ldr	r3, [r7, #4]
 800379a:	2201      	movs	r2, #1
 800379c:	f883 2043 	strb.w	r2, [r3, #67]	; 0x43
 80037a0:	687b      	ldr	r3, [r7, #4]
 80037a2:	2201      	movs	r2, #1
 80037a4:	f883 2044 	strb.w	r2, [r3, #68]	; 0x44
 80037a8:	687b      	ldr	r3, [r7, #4]
 80037aa:	2201      	movs	r2, #1
 80037ac:	f883 2045 	strb.w	r2, [r3, #69]	; 0x45
 80037b0:	687b      	ldr	r3, [r7, #4]
 80037b2:	2201      	movs	r2, #1
 80037b4:	f883 203d 	strb.w	r2, [r3, #61]	; 0x3d
 80037b8:	2300      	movs	r3, #0
 80037ba:	4618      	mov	r0, r3
 80037bc:	3708      	adds	r7, #8
 80037be:	46bd      	mov	sp, r7
 80037c0:	bd80      	pop	{r7, pc}
	...

080037c4 <HAL_TIM_Base_Start_IT>:
 80037c4:	b480      	push	{r7}
 80037c6:	b085      	sub	sp, #20
 80037c8:	af00      	add	r7, sp, #0
 80037ca:	6078      	str	r0, [r7, #4]
 80037cc:	687b      	ldr	r3, [r7, #4]
 80037ce:	f893 303d 	ldrb.w	r3, [r3, #61]	; 0x3d
 80037d2:	b2db      	uxtb	r3, r3
 80037d4:	2b01      	cmp	r3, #1
 80037d6:	d001      	beq.n	80037dc <HAL_TIM_Base_Start_IT+0x18>
 80037d8:	2301      	movs	r3, #1
 80037da:	e03a      	b.n	8003852 <HAL_TIM_Base_Start_IT+0x8e>
 80037dc:	687b      	ldr	r3, [r7, #4]
 80037de:	2202      	movs	r2, #2
 80037e0:	f883 203d 	strb.w	r2, [r3, #61]	; 0x3d
 80037e4:	687b      	ldr	r3, [r7, #4]
 80037e6:	681b      	ldr	r3, [r3, #0]
 80037e8:	68da      	ldr	r2, [r3, #12]
 80037ea:	687b      	ldr	r3, [r7, #4]
 80037ec:	681b      	ldr	r3, [r3, #0]
 80037ee:	f042 0201 	orr.w	r2, r2, #1
 80037f2:	60da      	str	r2, [r3, #12]
 80037f4:	687b      	ldr	r3, [r7, #4]
 80037f6:	681b      	ldr	r3, [r3, #0]
 80037f8:	4a18      	ldr	r2, [pc, #96]	; (800385c <HAL_TIM_Base_Start_IT+0x98>)
 80037fa:	4293      	cmp	r3, r2
 80037fc:	d00e      	beq.n	800381c <HAL_TIM_Base_Start_IT+0x58>
 80037fe:	687b      	ldr	r3, [r7, #4]
 8003800:	681b      	ldr	r3, [r3, #0]
 8003802:	f1b3 4f80 	cmp.w	r3, #1073741824	; 0x40000000
 8003806:	d009      	beq.n	800381c <HAL_TIM_Base_Start_IT+0x58>
 8003808:	687b      	ldr	r3, [r7, #4]
 800380a:	681b      	ldr	r3, [r3, #0]
 800380c:	4a14      	ldr	r2, [pc, #80]	; (8003860 <HAL_TIM_Base_Start_IT+0x9c>)
 800380e:	4293      	cmp	r3, r2
 8003810:	d004      	beq.n	800381c <HAL_TIM_Base_Start_IT+0x58>
 8003812:	687b      	ldr	r3, [r7, #4]
 8003814:	681b      	ldr	r3, [r3, #0]
 8003816:	4a13      	ldr	r2, [pc, #76]	; (8003864 <HAL_TIM_Base_Start_IT+0xa0>)
 8003818:	4293      	cmp	r3, r2
 800381a:	d111      	bne.n	8003840 <HAL_TIM_Base_Start_IT+0x7c>
 800381c:	687b      	ldr	r3, [r7, #4]
 800381e:	681b      	ldr	r3, [r3, #0]
 8003820:	689b      	ldr	r3, [r3, #8]
 8003822:	f003 0307 	and.w	r3, r3, #7
 8003826:	60fb      	str	r3, [r7, #12]
 8003828:	68fb      	ldr	r3, [r7, #12]
 800382a:	2b06      	cmp	r3, #6
 800382c:	d010      	beq.n	8003850 <HAL_TIM_Base_Start_IT+0x8c>
 800382e:	687b      	ldr	r3, [r7, #4]
 8003830:	681b      	ldr	r3, [r3, #0]
 8003832:	681a      	ldr	r2, [r3, #0]
 8003834:	687b      	ldr	r3, [r7, #4]
 8003836:	681b      	ldr	r3, [r3, #0]
 8003838:	f042 0201 	orr.w	r2, r2, #1
 800383c:	601a      	str	r2, [r3, #0]
 800383e:	e007      	b.n	8003850 <HAL_TIM_Base_Start_IT+0x8c>
 8003840:	687b      	ldr	r3, [r7, #4]
 8003842:	681b      	ldr	r3, [r3, #0]
 8003844:	681a      	ldr	r2, [r3, #0]
 8003846:	687b      	ldr	r3, [r7, #4]
 8003848:	681b      	ldr	r3, [r3, #0]
 800384a:	f042 0201 	orr.w	r2, r2, #1
 800384e:	601a      	str	r2, [r3, #0]
 8003850:	2300      	movs	r3, #0
 8003852:	4618      	mov	r0, r3
 8003854:	3714      	adds	r7, #20
 8003856:	46bd      	mov	sp, r7
 8003858:	bc80      	pop	{r7}
 800385a:	4770      	bx	lr
 800385c:	40012c00 	.word	0x40012c00
 8003860:	40000400 	.word	0x40000400
 8003864:	40000800 	.word	0x40000800

08003868 <HAL_TIM_OC_Init>:
 8003868:	b580      	push	{r7, lr}
 800386a:	b082      	sub	sp, #8
 800386c:	af00      	add	r7, sp, #0
 800386e:	6078      	str	r0, [r7, #4]
 8003870:	687b      	ldr	r3, [r7, #4]
 8003872:	2b00      	cmp	r3, #0
 8003874:	d101      	bne.n	800387a <HAL_TIM_OC_Init+0x12>
 8003876:	2301      	movs	r3, #1
 8003878:	e041      	b.n	80038fe <HAL_TIM_OC_Init+0x96>
 800387a:	687b      	ldr	r3, [r7, #4]
 800387c:	f893 303d 	ldrb.w	r3, [r3, #61]	; 0x3d
 8003880:	b2db      	uxtb	r3, r3
 8003882:	2b00      	cmp	r3, #0
 8003884:	d106      	bne.n	8003894 <HAL_TIM_OC_Init+0x2c>
 8003886:	687b      	ldr	r3, [r7, #4]
 8003888:	2200      	movs	r2, #0
 800388a:	f883 203c 	strb.w	r2, [r3, #60]	; 0x3c
 800388e:	6878      	ldr	r0, [r7, #4]
 8003890:	f000 f839 	bl	8003906 <HAL_TIM_OC_MspInit>
 8003894:	687b      	ldr	r3, [r7, #4]
 8003896:	2202      	movs	r2, #2
 8003898:	f883 203d 	strb.w	r2, [r3, #61]	; 0x3d
 800389c:	687b      	ldr	r3, [r7, #4]
 800389e:	681a      	ldr	r2, [r3, #0]
 80038a0:	687b      	ldr	r3, [r7, #4]
 80038a2:	3304      	adds	r3, #4
 80038a4:	4619      	mov	r1, r3
 80038a6:	4610      	mov	r0, r2
 80038a8:	f000 fdf4 	bl	8004494 <TIM_Base_SetConfig>
 80038ac:	687b      	ldr	r3, [r7, #4]
 80038ae:	2201      	movs	r2, #1
 80038b0:	f883 2046 	strb.w	r2, [r3, #70]	; 0x46
 80038b4:	687b      	ldr	r3, [r7, #4]
 80038b6:	2201      	movs	r2, #1
 80038b8:	f883 203e 	strb.w	r2, [r3, #62]	; 0x3e
 80038bc:	687b      	ldr	r3, [r7, #4]
 80038be:	2201      	movs	r2, #1
 80038c0:	f883 203f 	strb.w	r2, [r3, #63]	; 0x3f
 80038c4:	687b      	ldr	r3, [r7, #4]
 80038c6:	2201      	movs	r2, #1
 80038c8:	f883 2040 	strb.w	r2, [r3, #64]	; 0x40
 80038cc:	687b      	ldr	r3, [r7, #4]
 80038ce:	2201      	movs	r2, #1
 80038d0:	f883 2041 	strb.w	r2, [r3, #65]	; 0x41
 80038d4:	687b      	ldr	r3, [r7, #4]
 80038d6:	2201      	movs	r2, #1
 80038d8:	f883 2042 	strb.w	r2, [r3, #66]	; 0x42
 80038dc:	687b      	ldr	r3, [r7, #4]
 80038de:	2201      	movs	r2, #1
 80038e0:	f883 2043 	strb.w	r2, [r3, #67]	; 0x43
 80038e4:	687b      	ldr	r3, [r7, #4]
 80038e6:	2201      	movs	r2, #1
 80038e8:	f883 2044 	strb.w	r2, [r3, #68]	; 0x44
 80038ec:	687b      	ldr	r3, [r7, #4]
 80038ee:	2201      	movs	r2, #1
 80038f0:	f883 2045 	strb.w	r2, [r3, #69]	; 0x45
 80038f4:	687b      	ldr	r3, [r7, #4]
 80038f6:	2201      	movs	r2, #1
 80038f8:	f883 203d 	strb.w	r2, [r3, #61]	; 0x3d
 80038fc:	2300      	movs	r3, #0
 80038fe:	4618      	mov	r0, r3
 8003900:	3708      	adds	r7, #8
 8003902:	46bd      	mov	sp, r7
 8003904:	bd80      	pop	{r7, pc}

08003906 <HAL_TIM_OC_MspInit>:
 8003906:	b480      	push	{r7}
 8003908:	b083      	sub	sp, #12
 800390a:	af00      	add	r7, sp, #0
 800390c:	6078      	str	r0, [r7, #4]
 800390e:	bf00      	nop
 8003910:	370c      	adds	r7, #12
 8003912:	46bd      	mov	sp, r7
 8003914:	bc80      	pop	{r7}
 8003916:	4770      	bx	lr

08003918 <HAL_TIM_OC_Start_IT>:
 8003918:	b580      	push	{r7, lr}
 800391a:	b084      	sub	sp, #16
 800391c:	af00      	add	r7, sp, #0
 800391e:	6078      	str	r0, [r7, #4]
 8003920:	6039      	str	r1, [r7, #0]
 8003922:	683b      	ldr	r3, [r7, #0]
 8003924:	2b00      	cmp	r3, #0
 8003926:	d109      	bne.n	800393c <HAL_TIM_OC_Start_IT+0x24>
 8003928:	687b      	ldr	r3, [r7, #4]
 800392a:	f893 303e 	ldrb.w	r3, [r3, #62]	; 0x3e
 800392e:	b2db      	uxtb	r3, r3
 8003930:	2b01      	cmp	r3, #1
 8003932:	bf14      	ite	ne
 8003934:	2301      	movne	r3, #1
 8003936:	2300      	moveq	r3, #0
 8003938:	b2db      	uxtb	r3, r3
 800393a:	e022      	b.n	8003982 <HAL_TIM_OC_Start_IT+0x6a>
 800393c:	683b      	ldr	r3, [r7, #0]
 800393e:	2b04      	cmp	r3, #4
 8003940:	d109      	bne.n	8003956 <HAL_TIM_OC_Start_IT+0x3e>
 8003942:	687b      	ldr	r3, [r7, #4]
 8003944:	f893 303f 	ldrb.w	r3, [r3, #63]	; 0x3f
 8003948:	b2db      	uxtb	r3, r3
 800394a:	2b01      	cmp	r3, #1
 800394c:	bf14      	ite	ne
 800394e:	2301      	movne	r3, #1
 8003950:	2300      	moveq	r3, #0
 8003952:	b2db      	uxtb	r3, r3
 8003954:	e015      	b.n	8003982 <HAL_TIM_OC_Start_IT+0x6a>
 8003956:	683b      	ldr	r3, [r7, #0]
 8003958:	2b08      	cmp	r3, #8
 800395a:	d109      	bne.n	8003970 <HAL_TIM_OC_Start_IT+0x58>
 800395c:	687b      	ldr	r3, [r7, #4]
 800395e:	f893 3040 	ldrb.w	r3, [r3, #64]	; 0x40
 8003962:	b2db      	uxtb	r3, r3
 8003964:	2b01      	cmp	r3, #1
 8003966:	bf14      	ite	ne
 8003968:	2301      	movne	r3, #1
 800396a:	2300      	moveq	r3, #0
 800396c:	b2db      	uxtb	r3, r3
 800396e:	e008      	b.n	8003982 <HAL_TIM_OC_Start_IT+0x6a>
 8003970:	687b      	ldr	r3, [r7, #4]
 8003972:	f893 3041 	ldrb.w	r3, [r3, #65]	; 0x41
 8003976:	b2db      	uxtb	r3, r3
 8003978:	2b01      	cmp	r3, #1
 800397a:	bf14      	ite	ne
 800397c:	2301      	movne	r3, #1
 800397e:	2300      	moveq	r3, #0
 8003980:	b2db      	uxtb	r3, r3
 8003982:	2b00      	cmp	r3, #0
 8003984:	d001      	beq.n	800398a <HAL_TIM_OC_Start_IT+0x72>
 8003986:	2301      	movs	r3, #1
 8003988:	e0a4      	b.n	8003ad4 <HAL_TIM_OC_Start_IT+0x1bc>
 800398a:	683b      	ldr	r3, [r7, #0]
 800398c:	2b00      	cmp	r3, #0
 800398e:	d104      	bne.n	800399a <HAL_TIM_OC_Start_IT+0x82>
 8003990:	687b      	ldr	r3, [r7, #4]
 8003992:	2202      	movs	r2, #2
 8003994:	f883 203e 	strb.w	r2, [r3, #62]	; 0x3e
 8003998:	e013      	b.n	80039c2 <HAL_TIM_OC_Start_IT+0xaa>
 800399a:	683b      	ldr	r3, [r7, #0]
 800399c:	2b04      	cmp	r3, #4
 800399e:	d104      	bne.n	80039aa <HAL_TIM_OC_Start_IT+0x92>
 80039a0:	687b      	ldr	r3, [r7, #4]
 80039a2:	2202      	movs	r2, #2
 80039a4:	f883 203f 	strb.w	r2, [r3, #63]	; 0x3f
 80039a8:	e00b      	b.n	80039c2 <HAL_TIM_OC_Start_IT+0xaa>
 80039aa:	683b      	ldr	r3, [r7, #0]
 80039ac:	2b08      	cmp	r3, #8
 80039ae:	d104      	bne.n	80039ba <HAL_TIM_OC_Start_IT+0xa2>
 80039b0:	687b      	ldr	r3, [r7, #4]
 80039b2:	2202      	movs	r2, #2
 80039b4:	f883 2040 	strb.w	r2, [r3, #64]	; 0x40
 80039b8:	e003      	b.n	80039c2 <HAL_TIM_OC_Start_IT+0xaa>
 80039ba:	687b      	ldr	r3, [r7, #4]
 80039bc:	2202      	movs	r2, #2
 80039be:	f883 2041 	strb.w	r2, [r3, #65]	; 0x41
 80039c2:	683b      	ldr	r3, [r7, #0]
 80039c4:	2b0c      	cmp	r3, #12
 80039c6:	d841      	bhi.n	8003a4c <HAL_TIM_OC_Start_IT+0x134>
 80039c8:	a201      	add	r2, pc, #4	; (adr r2, 80039d0 <HAL_TIM_OC_Start_IT+0xb8>)
 80039ca:	f852 f023 	ldr.w	pc, [r2, r3, lsl #2]
 80039ce:	bf00      	nop
 80039d0:	08003a05 	.word	0x08003a05
 80039d4:	08003a4d 	.word	0x08003a4d
 80039d8:	08003a4d 	.word	0x08003a4d
 80039dc:	08003a4d 	.word	0x08003a4d
 80039e0:	08003a17 	.word	0x08003a17
 80039e4:	08003a4d 	.word	0x08003a4d
 80039e8:	08003a4d 	.word	0x08003a4d
 80039ec:	08003a4d 	.word	0x08003a4d
 80039f0:	08003a29 	.word	0x08003a29
 80039f4:	08003a4d 	.word	0x08003a4d
 80039f8:	08003a4d 	.word	0x08003a4d
 80039fc:	08003a4d 	.word	0x08003a4d
 8003a00:	08003a3b 	.word	0x08003a3b
 8003a04:	687b      	ldr	r3, [r7, #4]
 8003a06:	681b      	ldr	r3, [r3, #0]
 8003a08:	68da      	ldr	r2, [r3, #12]
 8003a0a:	687b      	ldr	r3, [r7, #4]
 8003a0c:	681b      	ldr	r3, [r3, #0]
 8003a0e:	f042 0202 	orr.w	r2, r2, #2
 8003a12:	60da      	str	r2, [r3, #12]
 8003a14:	e01b      	b.n	8003a4e <HAL_TIM_OC_Start_IT+0x136>
 8003a16:	687b      	ldr	r3, [r7, #4]
 8003a18:	681b      	ldr	r3, [r3, #0]
 8003a1a:	68da      	ldr	r2, [r3, #12]
 8003a1c:	687b      	ldr	r3, [r7, #4]
 8003a1e:	681b      	ldr	r3, [r3, #0]
 8003a20:	f042 0204 	orr.w	r2, r2, #4
 8003a24:	60da      	str	r2, [r3, #12]
 8003a26:	e012      	b.n	8003a4e <HAL_TIM_OC_Start_IT+0x136>
 8003a28:	687b      	ldr	r3, [r7, #4]
 8003a2a:	681b      	ldr	r3, [r3, #0]
 8003a2c:	68da      	ldr	r2, [r3, #12]
 8003a2e:	687b      	ldr	r3, [r7, #4]
 8003a30:	681b      	ldr	r3, [r3, #0]
 8003a32:	f042 0208 	orr.w	r2, r2, #8
 8003a36:	60da      	str	r2, [r3, #12]
 8003a38:	e009      	b.n	8003a4e <HAL_TIM_OC_Start_IT+0x136>
 8003a3a:	687b      	ldr	r3, [r7, #4]
 8003a3c:	681b      	ldr	r3, [r3, #0]
 8003a3e:	68da      	ldr	r2, [r3, #12]
 8003a40:	687b      	ldr	r3, [r7, #4]
 8003a42:	681b      	ldr	r3, [r3, #0]
 8003a44:	f042 0210 	orr.w	r2, r2, #16
 8003a48:	60da      	str	r2, [r3, #12]
 8003a4a:	e000      	b.n	8003a4e <HAL_TIM_OC_Start_IT+0x136>
 8003a4c:	bf00      	nop
 8003a4e:	687b      	ldr	r3, [r7, #4]
 8003a50:	681b      	ldr	r3, [r3, #0]
 8003a52:	2201      	movs	r2, #1
 8003a54:	6839      	ldr	r1, [r7, #0]
 8003a56:	4618      	mov	r0, r3
 8003a58:	f000 ff9c 	bl	8004994 <TIM_CCxChannelCmd>
 8003a5c:	687b      	ldr	r3, [r7, #4]
 8003a5e:	681b      	ldr	r3, [r3, #0]
 8003a60:	4a1e      	ldr	r2, [pc, #120]	; (8003adc <HAL_TIM_OC_Start_IT+0x1c4>)
 8003a62:	4293      	cmp	r3, r2
 8003a64:	d107      	bne.n	8003a76 <HAL_TIM_OC_Start_IT+0x15e>
 8003a66:	687b      	ldr	r3, [r7, #4]
 8003a68:	681b      	ldr	r3, [r3, #0]
 8003a6a:	6c5a      	ldr	r2, [r3, #68]	; 0x44
 8003a6c:	687b      	ldr	r3, [r7, #4]
 8003a6e:	681b      	ldr	r3, [r3, #0]
 8003a70:	f442 4200 	orr.w	r2, r2, #32768	; 0x8000
 8003a74:	645a      	str	r2, [r3, #68]	; 0x44
 8003a76:	687b      	ldr	r3, [r7, #4]
 8003a78:	681b      	ldr	r3, [r3, #0]
 8003a7a:	4a18      	ldr	r2, [pc, #96]	; (8003adc <HAL_TIM_OC_Start_IT+0x1c4>)
 8003a7c:	4293      	cmp	r3, r2
 8003a7e:	d00e      	beq.n	8003a9e <HAL_TIM_OC_Start_IT+0x186>
 8003a80:	687b      	ldr	r3, [r7, #4]
 8003a82:	681b      	ldr	r3, [r3, #0]
 8003a84:	f1b3 4f80 	cmp.w	r3, #1073741824	; 0x40000000
 8003a88:	d009      	beq.n	8003a9e <HAL_TIM_OC_Start_IT+0x186>
 8003a8a:	687b      	ldr	r3, [r7, #4]
 8003a8c:	681b      	ldr	r3, [r3, #0]
 8003a8e:	4a14      	ldr	r2, [pc, #80]	; (8003ae0 <HAL_TIM_OC_Start_IT+0x1c8>)
 8003a90:	4293      	cmp	r3, r2
 8003a92:	d004      	beq.n	8003a9e <HAL_TIM_OC_Start_IT+0x186>
 8003a94:	687b      	ldr	r3, [r7, #4]
 8003a96:	681b      	ldr	r3, [r3, #0]
 8003a98:	4a12      	ldr	r2, [pc, #72]	; (8003ae4 <HAL_TIM_OC_Start_IT+0x1cc>)
 8003a9a:	4293      	cmp	r3, r2
 8003a9c:	d111      	bne.n	8003ac2 <HAL_TIM_OC_Start_IT+0x1aa>
 8003a9e:	687b      	ldr	r3, [r7, #4]
 8003aa0:	681b      	ldr	r3, [r3, #0]
 8003aa2:	689b      	ldr	r3, [r3, #8]
 8003aa4:	f003 0307 	and.w	r3, r3, #7
 8003aa8:	60fb      	str	r3, [r7, #12]
 8003aaa:	68fb      	ldr	r3, [r7, #12]
 8003aac:	2b06      	cmp	r3, #6
 8003aae:	d010      	beq.n	8003ad2 <HAL_TIM_OC_Start_IT+0x1ba>
 8003ab0:	687b      	ldr	r3, [r7, #4]
 8003ab2:	681b      	ldr	r3, [r3, #0]
 8003ab4:	681a      	ldr	r2, [r3, #0]
 8003ab6:	687b      	ldr	r3, [r7, #4]
 8003ab8:	681b      	ldr	r3, [r3, #0]
 8003aba:	f042 0201 	orr.w	r2, r2, #1
 8003abe:	601a      	str	r2, [r3, #0]
 8003ac0:	e007      	b.n	8003ad2 <HAL_TIM_OC_Start_IT+0x1ba>
 8003ac2:	687b      	ldr	r3, [r7, #4]
 8003ac4:	681b      	ldr	r3, [r3, #0]
 8003ac6:	681a      	ldr	r2, [r3, #0]
 8003ac8:	687b      	ldr	r3, [r7, #4]
 8003aca:	681b      	ldr	r3, [r3, #0]
 8003acc:	f042 0201 	orr.w	r2, r2, #1
 8003ad0:	601a      	str	r2, [r3, #0]
 8003ad2:	2300      	movs	r3, #0
 8003ad4:	4618      	mov	r0, r3
 8003ad6:	3710      	adds	r7, #16
 8003ad8:	46bd      	mov	sp, r7
 8003ada:	bd80      	pop	{r7, pc}
 8003adc:	40012c00 	.word	0x40012c00
 8003ae0:	40000400 	.word	0x40000400
 8003ae4:	40000800 	.word	0x40000800

08003ae8 <HAL_TIM_PWM_Init>:
 8003ae8:	b580      	push	{r7, lr}
 8003aea:	b082      	sub	sp, #8
 8003aec:	af00      	add	r7, sp, #0
 8003aee:	6078      	str	r0, [r7, #4]
 8003af0:	687b      	ldr	r3, [r7, #4]
 8003af2:	2b00      	cmp	r3, #0
 8003af4:	d101      	bne.n	8003afa <HAL_TIM_PWM_Init+0x12>
 8003af6:	2301      	movs	r3, #1
 8003af8:	e041      	b.n	8003b7e <HAL_TIM_PWM_Init+0x96>
 8003afa:	687b      	ldr	r3, [r7, #4]
 8003afc:	f893 303d 	ldrb.w	r3, [r3, #61]	; 0x3d
 8003b00:	b2db      	uxtb	r3, r3
 8003b02:	2b00      	cmp	r3, #0
 8003b04:	d106      	bne.n	8003b14 <HAL_TIM_PWM_Init+0x2c>
 8003b06:	687b      	ldr	r3, [r7, #4]
 8003b08:	2200      	movs	r2, #0
 8003b0a:	f883 203c 	strb.w	r2, [r3, #60]	; 0x3c
 8003b0e:	6878      	ldr	r0, [r7, #4]
 8003b10:	f000 f839 	bl	8003b86 <HAL_TIM_PWM_MspInit>
 8003b14:	687b      	ldr	r3, [r7, #4]
 8003b16:	2202      	movs	r2, #2
 8003b18:	f883 203d 	strb.w	r2, [r3, #61]	; 0x3d
 8003b1c:	687b      	ldr	r3, [r7, #4]
 8003b1e:	681a      	ldr	r2, [r3, #0]
 8003b20:	687b      	ldr	r3, [r7, #4]
 8003b22:	3304      	adds	r3, #4
 8003b24:	4619      	mov	r1, r3
 8003b26:	4610      	mov	r0, r2
 8003b28:	f000 fcb4 	bl	8004494 <TIM_Base_SetConfig>
 8003b2c:	687b      	ldr	r3, [r7, #4]
 8003b2e:	2201      	movs	r2, #1
 8003b30:	f883 2046 	strb.w	r2, [r3, #70]	; 0x46
 8003b34:	687b      	ldr	r3, [r7, #4]
 8003b36:	2201      	movs	r2, #1
 8003b38:	f883 203e 	strb.w	r2, [r3, #62]	; 0x3e
 8003b3c:	687b      	ldr	r3, [r7, #4]
 8003b3e:	2201      	movs	r2, #1
 8003b40:	f883 203f 	strb.w	r2, [r3, #63]	; 0x3f
 8003b44:	687b      	ldr	r3, [r7, #4]
 8003b46:	2201      	movs	r2, #1
 8003b48:	f883 2040 	strb.w	r2, [r3, #64]	; 0x40
 8003b4c:	687b      	ldr	r3, [r7, #4]
 8003b4e:	2201      	movs	r2, #1
 8003b50:	f883 2041 	strb.w	r2, [r3, #65]	; 0x41
 8003b54:	687b      	ldr	r3, [r7, #4]
 8003b56:	2201      	movs	r2, #1
 8003b58:	f883 2042 	strb.w	r2, [r3, #66]	; 0x42
 8003b5c:	687b      	ldr	r3, [r7, #4]
 8003b5e:	2201      	movs	r2, #1
 8003b60:	f883 2043 	strb.w	r2, [r3, #67]	; 0x43
 8003b64:	687b      	ldr	r3, [r7, #4]
 8003b66:	2201      	movs	r2, #1
 8003b68:	f883 2044 	strb.w	r2, [r3, #68]	; 0x44
 8003b6c:	687b      	ldr	r3, [r7, #4]
 8003b6e:	2201      	movs	r2, #1
 8003b70:	f883 2045 	strb.w	r2, [r3, #69]	; 0x45
 8003b74:	687b      	ldr	r3, [r7, #4]
 8003b76:	2201      	movs	r2, #1
 8003b78:	f883 203d 	strb.w	r2, [r3, #61]	; 0x3d
 8003b7c:	2300      	movs	r3, #0
 8003b7e:	4618      	mov	r0, r3
 8003b80:	3708      	adds	r7, #8
 8003b82:	46bd      	mov	sp, r7
 8003b84:	bd80      	pop	{r7, pc}

08003b86 <HAL_TIM_PWM_MspInit>:
 8003b86:	b480      	push	{r7}
 8003b88:	b083      	sub	sp, #12
 8003b8a:	af00      	add	r7, sp, #0
 8003b8c:	6078      	str	r0, [r7, #4]
 8003b8e:	bf00      	nop
 8003b90:	370c      	adds	r7, #12
 8003b92:	46bd      	mov	sp, r7
 8003b94:	bc80      	pop	{r7}
 8003b96:	4770      	bx	lr

08003b98 <HAL_TIM_PWM_Start>:
 8003b98:	b580      	push	{r7, lr}
 8003b9a:	b084      	sub	sp, #16
 8003b9c:	af00      	add	r7, sp, #0
 8003b9e:	6078      	str	r0, [r7, #4]
 8003ba0:	6039      	str	r1, [r7, #0]
 8003ba2:	683b      	ldr	r3, [r7, #0]
 8003ba4:	2b00      	cmp	r3, #0
 8003ba6:	d109      	bne.n	8003bbc <HAL_TIM_PWM_Start+0x24>
 8003ba8:	687b      	ldr	r3, [r7, #4]
 8003baa:	f893 303e 	ldrb.w	r3, [r3, #62]	; 0x3e
 8003bae:	b2db      	uxtb	r3, r3
 8003bb0:	2b01      	cmp	r3, #1
 8003bb2:	bf14      	ite	ne
 8003bb4:	2301      	movne	r3, #1
 8003bb6:	2300      	moveq	r3, #0
 8003bb8:	b2db      	uxtb	r3, r3
 8003bba:	e022      	b.n	8003c02 <HAL_TIM_PWM_Start+0x6a>
 8003bbc:	683b      	ldr	r3, [r7, #0]
 8003bbe:	2b04      	cmp	r3, #4
 8003bc0:	d109      	bne.n	8003bd6 <HAL_TIM_PWM_Start+0x3e>
 8003bc2:	687b      	ldr	r3, [r7, #4]
 8003bc4:	f893 303f 	ldrb.w	r3, [r3, #63]	; 0x3f
 8003bc8:	b2db      	uxtb	r3, r3
 8003bca:	2b01      	cmp	r3, #1
 8003bcc:	bf14      	ite	ne
 8003bce:	2301      	movne	r3, #1
 8003bd0:	2300      	moveq	r3, #0
 8003bd2:	b2db      	uxtb	r3, r3
 8003bd4:	e015      	b.n	8003c02 <HAL_TIM_PWM_Start+0x6a>
 8003bd6:	683b      	ldr	r3, [r7, #0]
 8003bd8:	2b08      	cmp	r3, #8
 8003bda:	d109      	bne.n	8003bf0 <HAL_TIM_PWM_Start+0x58>
 8003bdc:	687b      	ldr	r3, [r7, #4]
 8003bde:	f893 3040 	ldrb.w	r3, [r3, #64]	; 0x40
 8003be2:	b2db      	uxtb	r3, r3
 8003be4:	2b01      	cmp	r3, #1
 8003be6:	bf14      	ite	ne
 8003be8:	2301      	movne	r3, #1
 8003bea:	2300      	moveq	r3, #0
 8003bec:	b2db      	uxtb	r3, r3
 8003bee:	e008      	b.n	8003c02 <HAL_TIM_PWM_Start+0x6a>
 8003bf0:	687b      	ldr	r3, [r7, #4]
 8003bf2:	f893 3041 	ldrb.w	r3, [r3, #65]	; 0x41
 8003bf6:	b2db      	uxtb	r3, r3
 8003bf8:	2b01      	cmp	r3, #1
 8003bfa:	bf14      	ite	ne
 8003bfc:	2301      	movne	r3, #1
 8003bfe:	2300      	moveq	r3, #0
 8003c00:	b2db      	uxtb	r3, r3
 8003c02:	2b00      	cmp	r3, #0
 8003c04:	d001      	beq.n	8003c0a <HAL_TIM_PWM_Start+0x72>
 8003c06:	2301      	movs	r3, #1
 8003c08:	e05e      	b.n	8003cc8 <HAL_TIM_PWM_Start+0x130>
 8003c0a:	683b      	ldr	r3, [r7, #0]
 8003c0c:	2b00      	cmp	r3, #0
 8003c0e:	d104      	bne.n	8003c1a <HAL_TIM_PWM_Start+0x82>
 8003c10:	687b      	ldr	r3, [r7, #4]
 8003c12:	2202      	movs	r2, #2
 8003c14:	f883 203e 	strb.w	r2, [r3, #62]	; 0x3e
 8003c18:	e013      	b.n	8003c42 <HAL_TIM_PWM_Start+0xaa>
 8003c1a:	683b      	ldr	r3, [r7, #0]
 8003c1c:	2b04      	cmp	r3, #4
 8003c1e:	d104      	bne.n	8003c2a <HAL_TIM_PWM_Start+0x92>
 8003c20:	687b      	ldr	r3, [r7, #4]
 8003c22:	2202      	movs	r2, #2
 8003c24:	f883 203f 	strb.w	r2, [r3, #63]	; 0x3f
 8003c28:	e00b      	b.n	8003c42 <HAL_TIM_PWM_Start+0xaa>
 8003c2a:	683b      	ldr	r3, [r7, #0]
 8003c2c:	2b08      	cmp	r3, #8
 8003c2e:	d104      	bne.n	8003c3a <HAL_TIM_PWM_Start+0xa2>
 8003c30:	687b      	ldr	r3, [r7, #4]
 8003c32:	2202      	movs	r2, #2
 8003c34:	f883 2040 	strb.w	r2, [r3, #64]	; 0x40
 8003c38:	e003      	b.n	8003c42 <HAL_TIM_PWM_Start+0xaa>
 8003c3a:	687b      	ldr	r3, [r7, #4]
 8003c3c:	2202      	movs	r2, #2
 8003c3e:	f883 2041 	strb.w	r2, [r3, #65]	; 0x41
 8003c42:	687b      	ldr	r3, [r7, #4]
 8003c44:	681b      	ldr	r3, [r3, #0]
 8003c46:	2201      	movs	r2, #1
 8003c48:	6839      	ldr	r1, [r7, #0]
 8003c4a:	4618      	mov	r0, r3
 8003c4c:	f000 fea2 	bl	8004994 <TIM_CCxChannelCmd>
 8003c50:	687b      	ldr	r3, [r7, #4]
 8003c52:	681b      	ldr	r3, [r3, #0]
 8003c54:	4a1e      	ldr	r2, [pc, #120]	; (8003cd0 <HAL_TIM_PWM_Start+0x138>)
 8003c56:	4293      	cmp	r3, r2
 8003c58:	d107      	bne.n	8003c6a <HAL_TIM_PWM_Start+0xd2>
 8003c5a:	687b      	ldr	r3, [r7, #4]
 8003c5c:	681b      	ldr	r3, [r3, #0]
 8003c5e:	6c5a      	ldr	r2, [r3, #68]	; 0x44
 8003c60:	687b      	ldr	r3, [r7, #4]
 8003c62:	681b      	ldr	r3, [r3, #0]
 8003c64:	f442 4200 	orr.w	r2, r2, #32768	; 0x8000
 8003c68:	645a      	str	r2, [r3, #68]	; 0x44
 8003c6a:	687b      	ldr	r3, [r7, #4]
 8003c6c:	681b      	ldr	r3, [r3, #0]
 8003c6e:	4a18      	ldr	r2, [pc, #96]	; (8003cd0 <HAL_TIM_PWM_Start+0x138>)
 8003c70:	4293      	cmp	r3, r2
 8003c72:	d00e      	beq.n	8003c92 <HAL_TIM_PWM_Start+0xfa>
 8003c74:	687b      	ldr	r3, [r7, #4]
 8003c76:	681b      	ldr	r3, [r3, #0]
 8003c78:	f1b3 4f80 	cmp.w	r3, #1073741824	; 0x40000000
 8003c7c:	d009      	beq.n	8003c92 <HAL_TIM_PWM_Start+0xfa>
 8003c7e:	687b      	ldr	r3, [r7, #4]
 8003c80:	681b      	ldr	r3, [r3, #0]
 8003c82:	4a14      	ldr	r2, [pc, #80]	; (8003cd4 <HAL_TIM_PWM_Start+0x13c>)
 8003c84:	4293      	cmp	r3, r2
 8003c86:	d004      	beq.n	8003c92 <HAL_TIM_PWM_Start+0xfa>
 8003c88:	687b      	ldr	r3, [r7, #4]
 8003c8a:	681b      	ldr	r3, [r3, #0]
 8003c8c:	4a12      	ldr	r2, [pc, #72]	; (8003cd8 <HAL_TIM_PWM_Start+0x140>)
 8003c8e:	4293      	cmp	r3, r2
 8003c90:	d111      	bne.n	8003cb6 <HAL_TIM_PWM_Start+0x11e>
 8003c92:	687b      	ldr	r3, [r7, #4]
 8003c94:	681b      	ldr	r3, [r3, #0]
 8003c96:	689b      	ldr	r3, [r3, #8]
 8003c98:	f003 0307 	and.w	r3, r3, #7
 8003c9c:	60fb      	str	r3, [r7, #12]
 8003c9e:	68fb      	ldr	r3, [r7, #12]
 8003ca0:	2b06      	cmp	r3, #6
 8003ca2:	d010      	beq.n	8003cc6 <HAL_TIM_PWM_Start+0x12e>
 8003ca4:	687b      	ldr	r3, [r7, #4]
 8003ca6:	681b      	ldr	r3, [r3, #0]
 8003ca8:	681a      	ldr	r2, [r3, #0]
 8003caa:	687b      	ldr	r3, [r7, #4]
 8003cac:	681b      	ldr	r3, [r3, #0]
 8003cae:	f042 0201 	orr.w	r2, r2, #1
 8003cb2:	601a      	str	r2, [r3, #0]
 8003cb4:	e007      	b.n	8003cc6 <HAL_TIM_PWM_Start+0x12e>
 8003cb6:	687b      	ldr	r3, [r7, #4]
 8003cb8:	681b      	ldr	r3, [r3, #0]
 8003cba:	681a      	ldr	r2, [r3, #0]
 8003cbc:	687b      	ldr	r3, [r7, #4]
 8003cbe:	681b      	ldr	r3, [r3, #0]
 8003cc0:	f042 0201 	orr.w	r2, r2, #1
 8003cc4:	601a      	str	r2, [r3, #0]
 8003cc6:	2300      	movs	r3, #0
 8003cc8:	4618      	mov	r0, r3
 8003cca:	3710      	adds	r7, #16
 8003ccc:	46bd      	mov	sp, r7
 8003cce:	bd80      	pop	{r7, pc}
 8003cd0:	40012c00 	.word	0x40012c00
 8003cd4:	40000400 	.word	0x40000400
 8003cd8:	40000800 	.word	0x40000800

08003cdc <HAL_TIM_PWM_Start_IT>:
 8003cdc:	b580      	push	{r7, lr}
 8003cde:	b084      	sub	sp, #16
 8003ce0:	af00      	add	r7, sp, #0
 8003ce2:	6078      	str	r0, [r7, #4]
 8003ce4:	6039      	str	r1, [r7, #0]
 8003ce6:	683b      	ldr	r3, [r7, #0]
 8003ce8:	2b00      	cmp	r3, #0
 8003cea:	d109      	bne.n	8003d00 <HAL_TIM_PWM_Start_IT+0x24>
 8003cec:	687b      	ldr	r3, [r7, #4]
 8003cee:	f893 303e 	ldrb.w	r3, [r3, #62]	; 0x3e
 8003cf2:	b2db      	uxtb	r3, r3
 8003cf4:	2b01      	cmp	r3, #1
 8003cf6:	bf14      	ite	ne
 8003cf8:	2301      	movne	r3, #1
 8003cfa:	2300      	moveq	r3, #0
 8003cfc:	b2db      	uxtb	r3, r3
 8003cfe:	e022      	b.n	8003d46 <HAL_TIM_PWM_Start_IT+0x6a>
 8003d00:	683b      	ldr	r3, [r7, #0]
 8003d02:	2b04      	cmp	r3, #4
 8003d04:	d109      	bne.n	8003d1a <HAL_TIM_PWM_Start_IT+0x3e>
 8003d06:	687b      	ldr	r3, [r7, #4]
 8003d08:	f893 303f 	ldrb.w	r3, [r3, #63]	; 0x3f
 8003d0c:	b2db      	uxtb	r3, r3
 8003d0e:	2b01      	cmp	r3, #1
 8003d10:	bf14      	ite	ne
 8003d12:	2301      	movne	r3, #1
 8003d14:	2300      	moveq	r3, #0
 8003d16:	b2db      	uxtb	r3, r3
 8003d18:	e015      	b.n	8003d46 <HAL_TIM_PWM_Start_IT+0x6a>
 8003d1a:	683b      	ldr	r3, [r7, #0]
 8003d1c:	2b08      	cmp	r3, #8
 8003d1e:	d109      	bne.n	8003d34 <HAL_TIM_PWM_Start_IT+0x58>
 8003d20:	687b      	ldr	r3, [r7, #4]
 8003d22:	f893 3040 	ldrb.w	r3, [r3, #64]	; 0x40
 8003d26:	b2db      	uxtb	r3, r3
 8003d28:	2b01      	cmp	r3, #1
 8003d2a:	bf14      	ite	ne
 8003d2c:	2301      	movne	r3, #1
 8003d2e:	2300      	moveq	r3, #0
 8003d30:	b2db      	uxtb	r3, r3
 8003d32:	e008      	b.n	8003d46 <HAL_TIM_PWM_Start_IT+0x6a>
 8003d34:	687b      	ldr	r3, [r7, #4]
 8003d36:	f893 3041 	ldrb.w	r3, [r3, #65]	; 0x41
 8003d3a:	b2db      	uxtb	r3, r3
 8003d3c:	2b01      	cmp	r3, #1
 8003d3e:	bf14      	ite	ne
 8003d40:	2301      	movne	r3, #1
 8003d42:	2300      	moveq	r3, #0
 8003d44:	b2db      	uxtb	r3, r3
 8003d46:	2b00      	cmp	r3, #0
 8003d48:	d001      	beq.n	8003d4e <HAL_TIM_PWM_Start_IT+0x72>
 8003d4a:	2301      	movs	r3, #1
 8003d4c:	e0a4      	b.n	8003e98 <HAL_TIM_PWM_Start_IT+0x1bc>
 8003d4e:	683b      	ldr	r3, [r7, #0]
 8003d50:	2b00      	cmp	r3, #0
 8003d52:	d104      	bne.n	8003d5e <HAL_TIM_PWM_Start_IT+0x82>
 8003d54:	687b      	ldr	r3, [r7, #4]
 8003d56:	2202      	movs	r2, #2
 8003d58:	f883 203e 	strb.w	r2, [r3, #62]	; 0x3e
 8003d5c:	e013      	b.n	8003d86 <HAL_TIM_PWM_Start_IT+0xaa>
 8003d5e:	683b      	ldr	r3, [r7, #0]
 8003d60:	2b04      	cmp	r3, #4
 8003d62:	d104      	bne.n	8003d6e <HAL_TIM_PWM_Start_IT+0x92>
 8003d64:	687b      	ldr	r3, [r7, #4]
 8003d66:	2202      	movs	r2, #2
 8003d68:	f883 203f 	strb.w	r2, [r3, #63]	; 0x3f
 8003d6c:	e00b      	b.n	8003d86 <HAL_TIM_PWM_Start_IT+0xaa>
 8003d6e:	683b      	ldr	r3, [r7, #0]
 8003d70:	2b08      	cmp	r3, #8
 8003d72:	d104      	bne.n	8003d7e <HAL_TIM_PWM_Start_IT+0xa2>
 8003d74:	687b      	ldr	r3, [r7, #4]
 8003d76:	2202      	movs	r2, #2
 8003d78:	f883 2040 	strb.w	r2, [r3, #64]	; 0x40
 8003d7c:	e003      	b.n	8003d86 <HAL_TIM_PWM_Start_IT+0xaa>
 8003d7e:	687b      	ldr	r3, [r7, #4]
 8003d80:	2202      	movs	r2, #2
 8003d82:	f883 2041 	strb.w	r2, [r3, #65]	; 0x41
 8003d86:	683b      	ldr	r3, [r7, #0]
 8003d88:	2b0c      	cmp	r3, #12
 8003d8a:	d841      	bhi.n	8003e10 <HAL_TIM_PWM_Start_IT+0x134>
 8003d8c:	a201      	add	r2, pc, #4	; (adr r2, 8003d94 <HAL_TIM_PWM_Start_IT+0xb8>)
 8003d8e:	f852 f023 	ldr.w	pc, [r2, r3, lsl #2]
 8003d92:	bf00      	nop
 8003d94:	08003dc9 	.word	0x08003dc9
 8003d98:	08003e11 	.word	0x08003e11
 8003d9c:	08003e11 	.word	0x08003e11
 8003da0:	08003e11 	.word	0x08003e11
 8003da4:	08003ddb 	.word	0x08003ddb
 8003da8:	08003e11 	.word	0x08003e11
 8003dac:	08003e11 	.word	0x08003e11
 8003db0:	08003e11 	.word	0x08003e11
 8003db4:	08003ded 	.word	0x08003ded
 8003db8:	08003e11 	.word	0x08003e11
 8003dbc:	08003e11 	.word	0x08003e11
 8003dc0:	08003e11 	.word	0x08003e11
 8003dc4:	08003dff 	.word	0x08003dff
 8003dc8:	687b      	ldr	r3, [r7, #4]
 8003dca:	681b      	ldr	r3, [r3, #0]
 8003dcc:	68da      	ldr	r2, [r3, #12]
 8003dce:	687b      	ldr	r3, [r7, #4]
 8003dd0:	681b      	ldr	r3, [r3, #0]
 8003dd2:	f042 0202 	orr.w	r2, r2, #2
 8003dd6:	60da      	str	r2, [r3, #12]
 8003dd8:	e01b      	b.n	8003e12 <HAL_TIM_PWM_Start_IT+0x136>
 8003dda:	687b      	ldr	r3, [r7, #4]
 8003ddc:	681b      	ldr	r3, [r3, #0]
 8003dde:	68da      	ldr	r2, [r3, #12]
 8003de0:	687b      	ldr	r3, [r7, #4]
 8003de2:	681b      	ldr	r3, [r3, #0]
 8003de4:	f042 0204 	orr.w	r2, r2, #4
 8003de8:	60da      	str	r2, [r3, #12]
 8003dea:	e012      	b.n	8003e12 <HAL_TIM_PWM_Start_IT+0x136>
 8003dec:	687b      	ldr	r3, [r7, #4]
 8003dee:	681b      	ldr	r3, [r3, #0]
 8003df0:	68da      	ldr	r2, [r3, #12]
 8003df2:	687b      	ldr	r3, [r7, #4]
 8003df4:	681b      	ldr	r3, [r3, #0]
 8003df6:	f042 0208 	orr.w	r2, r2, #8
 8003dfa:	60da      	str	r2, [r3, #12]
 8003dfc:	e009      	b.n	8003e12 <HAL_TIM_PWM_Start_IT+0x136>
 8003dfe:	687b      	ldr	r3, [r7, #4]
 8003e00:	681b      	ldr	r3, [r3, #0]
 8003e02:	68da      	ldr	r2, [r3, #12]
 8003e04:	687b      	ldr	r3, [r7, #4]
 8003e06:	681b      	ldr	r3, [r3, #0]
 8003e08:	f042 0210 	orr.w	r2, r2, #16
 8003e0c:	60da      	str	r2, [r3, #12]
 8003e0e:	e000      	b.n	8003e12 <HAL_TIM_PWM_Start_IT+0x136>
 8003e10:	bf00      	nop
 8003e12:	687b      	ldr	r3, [r7, #4]
 8003e14:	681b      	ldr	r3, [r3, #0]
 8003e16:	2201      	movs	r2, #1
 8003e18:	6839      	ldr	r1, [r7, #0]
 8003e1a:	4618      	mov	r0, r3
 8003e1c:	f000 fdba 	bl	8004994 <TIM_CCxChannelCmd>
 8003e20:	687b      	ldr	r3, [r7, #4]
 8003e22:	681b      	ldr	r3, [r3, #0]
 8003e24:	4a1e      	ldr	r2, [pc, #120]	; (8003ea0 <HAL_TIM_PWM_Start_IT+0x1c4>)
 8003e26:	4293      	cmp	r3, r2
 8003e28:	d107      	bne.n	8003e3a <HAL_TIM_PWM_Start_IT+0x15e>
 8003e2a:	687b      	ldr	r3, [r7, #4]
 8003e2c:	681b      	ldr	r3, [r3, #0]
 8003e2e:	6c5a      	ldr	r2, [r3, #68]	; 0x44
 8003e30:	687b      	ldr	r3, [r7, #4]
 8003e32:	681b      	ldr	r3, [r3, #0]
 8003e34:	f442 4200 	orr.w	r2, r2, #32768	; 0x8000
 8003e38:	645a      	str	r2, [r3, #68]	; 0x44
 8003e3a:	687b      	ldr	r3, [r7, #4]
 8003e3c:	681b      	ldr	r3, [r3, #0]
 8003e3e:	4a18      	ldr	r2, [pc, #96]	; (8003ea0 <HAL_TIM_PWM_Start_IT+0x1c4>)
 8003e40:	4293      	cmp	r3, r2
 8003e42:	d00e      	beq.n	8003e62 <HAL_TIM_PWM_Start_IT+0x186>
 8003e44:	687b      	ldr	r3, [r7, #4]
 8003e46:	681b      	ldr	r3, [r3, #0]
 8003e48:	f1b3 4f80 	cmp.w	r3, #1073741824	; 0x40000000
 8003e4c:	d009      	beq.n	8003e62 <HAL_TIM_PWM_Start_IT+0x186>
 8003e4e:	687b      	ldr	r3, [r7, #4]
 8003e50:	681b      	ldr	r3, [r3, #0]
 8003e52:	4a14      	ldr	r2, [pc, #80]	; (8003ea4 <HAL_TIM_PWM_Start_IT+0x1c8>)
 8003e54:	4293      	cmp	r3, r2
 8003e56:	d004      	beq.n	8003e62 <HAL_TIM_PWM_Start_IT+0x186>
 8003e58:	687b      	ldr	r3, [r7, #4]
 8003e5a:	681b      	ldr	r3, [r3, #0]
 8003e5c:	4a12      	ldr	r2, [pc, #72]	; (8003ea8 <HAL_TIM_PWM_Start_IT+0x1cc>)
 8003e5e:	4293      	cmp	r3, r2
 8003e60:	d111      	bne.n	8003e86 <HAL_TIM_PWM_Start_IT+0x1aa>
 8003e62:	687b      	ldr	r3, [r7, #4]
 8003e64:	681b      	ldr	r3, [r3, #0]
 8003e66:	689b      	ldr	r3, [r3, #8]
 8003e68:	f003 0307 	and.w	r3, r3, #7
 8003e6c:	60fb      	str	r3, [r7, #12]
 8003e6e:	68fb      	ldr	r3, [r7, #12]
 8003e70:	2b06      	cmp	r3, #6
 8003e72:	d010      	beq.n	8003e96 <HAL_TIM_PWM_Start_IT+0x1ba>
 8003e74:	687b      	ldr	r3, [r7, #4]
 8003e76:	681b      	ldr	r3, [r3, #0]
 8003e78:	681a      	ldr	r2, [r3, #0]
 8003e7a:	687b      	ldr	r3, [r7, #4]
 8003e7c:	681b      	ldr	r3, [r3, #0]
 8003e7e:	f042 0201 	orr.w	r2, r2, #1
 8003e82:	601a      	str	r2, [r3, #0]
 8003e84:	e007      	b.n	8003e96 <HAL_TIM_PWM_Start_IT+0x1ba>
 8003e86:	687b      	ldr	r3, [r7, #4]
 8003e88:	681b      	ldr	r3, [r3, #0]
 8003e8a:	681a      	ldr	r2, [r3, #0]
 8003e8c:	687b      	ldr	r3, [r7, #4]
 8003e8e:	681b      	ldr	r3, [r3, #0]
 8003e90:	f042 0201 	orr.w	r2, r2, #1
 8003e94:	601a      	str	r2, [r3, #0]
 8003e96:	2300      	movs	r3, #0
 8003e98:	4618      	mov	r0, r3
 8003e9a:	3710      	adds	r7, #16
 8003e9c:	46bd      	mov	sp, r7
 8003e9e:	bd80      	pop	{r7, pc}
 8003ea0:	40012c00 	.word	0x40012c00
 8003ea4:	40000400 	.word	0x40000400
 8003ea8:	40000800 	.word	0x40000800

08003eac <HAL_TIM_IRQHandler>:
 8003eac:	b580      	push	{r7, lr}
 8003eae:	b082      	sub	sp, #8
 8003eb0:	af00      	add	r7, sp, #0
 8003eb2:	6078      	str	r0, [r7, #4]
 8003eb4:	687b      	ldr	r3, [r7, #4]
 8003eb6:	681b      	ldr	r3, [r3, #0]
 8003eb8:	691b      	ldr	r3, [r3, #16]
 8003eba:	f003 0302 	and.w	r3, r3, #2
 8003ebe:	2b02      	cmp	r3, #2
 8003ec0:	d122      	bne.n	8003f08 <HAL_TIM_IRQHandler+0x5c>
 8003ec2:	687b      	ldr	r3, [r7, #4]
 8003ec4:	681b      	ldr	r3, [r3, #0]
 8003ec6:	68db      	ldr	r3, [r3, #12]
 8003ec8:	f003 0302 	and.w	r3, r3, #2
 8003ecc:	2b02      	cmp	r3, #2
 8003ece:	d11b      	bne.n	8003f08 <HAL_TIM_IRQHandler+0x5c>
 8003ed0:	687b      	ldr	r3, [r7, #4]
 8003ed2:	681b      	ldr	r3, [r3, #0]
 8003ed4:	f06f 0202 	mvn.w	r2, #2
 8003ed8:	611a      	str	r2, [r3, #16]
 8003eda:	687b      	ldr	r3, [r7, #4]
 8003edc:	2201      	movs	r2, #1
 8003ede:	771a      	strb	r2, [r3, #28]
 8003ee0:	687b      	ldr	r3, [r7, #4]
 8003ee2:	681b      	ldr	r3, [r3, #0]
 8003ee4:	699b      	ldr	r3, [r3, #24]
 8003ee6:	f003 0303 	and.w	r3, r3, #3
 8003eea:	2b00      	cmp	r3, #0
 8003eec:	d003      	beq.n	8003ef6 <HAL_TIM_IRQHandler+0x4a>
 8003eee:	6878      	ldr	r0, [r7, #4]
 8003ef0:	f000 fabe 	bl	8004470 <HAL_TIM_IC_CaptureCallback>
 8003ef4:	e005      	b.n	8003f02 <HAL_TIM_IRQHandler+0x56>
 8003ef6:	6878      	ldr	r0, [r7, #4]
 8003ef8:	f7fc feb0 	bl	8000c5c <HAL_TIM_OC_DelayElapsedCallback>
 8003efc:	6878      	ldr	r0, [r7, #4]
 8003efe:	f7fc fec9 	bl	8000c94 <HAL_TIM_PWM_PulseFinishedCallback>
 8003f02:	687b      	ldr	r3, [r7, #4]
 8003f04:	2200      	movs	r2, #0
 8003f06:	771a      	strb	r2, [r3, #28]
 8003f08:	687b      	ldr	r3, [r7, #4]
 8003f0a:	681b      	ldr	r3, [r3, #0]
 8003f0c:	691b      	ldr	r3, [r3, #16]
 8003f0e:	f003 0304 	and.w	r3, r3, #4
 8003f12:	2b04      	cmp	r3, #4
 8003f14:	d122      	bne.n	8003f5c <HAL_TIM_IRQHandler+0xb0>
 8003f16:	687b      	ldr	r3, [r7, #4]
 8003f18:	681b      	ldr	r3, [r3, #0]
 8003f1a:	68db      	ldr	r3, [r3, #12]
 8003f1c:	f003 0304 	and.w	r3, r3, #4
 8003f20:	2b04      	cmp	r3, #4
 8003f22:	d11b      	bne.n	8003f5c <HAL_TIM_IRQHandler+0xb0>
 8003f24:	687b      	ldr	r3, [r7, #4]
 8003f26:	681b      	ldr	r3, [r3, #0]
 8003f28:	f06f 0204 	mvn.w	r2, #4
 8003f2c:	611a      	str	r2, [r3, #16]
 8003f2e:	687b      	ldr	r3, [r7, #4]
 8003f30:	2202      	movs	r2, #2
 8003f32:	771a      	strb	r2, [r3, #28]
 8003f34:	687b      	ldr	r3, [r7, #4]
 8003f36:	681b      	ldr	r3, [r3, #0]
 8003f38:	699b      	ldr	r3, [r3, #24]
 8003f3a:	f403 7340 	and.w	r3, r3, #768	; 0x300
 8003f3e:	2b00      	cmp	r3, #0
 8003f40:	d003      	beq.n	8003f4a <HAL_TIM_IRQHandler+0x9e>
 8003f42:	6878      	ldr	r0, [r7, #4]
 8003f44:	f000 fa94 	bl	8004470 <HAL_TIM_IC_CaptureCallback>
 8003f48:	e005      	b.n	8003f56 <HAL_TIM_IRQHandler+0xaa>
 8003f4a:	6878      	ldr	r0, [r7, #4]
 8003f4c:	f7fc fe86 	bl	8000c5c <HAL_TIM_OC_DelayElapsedCallback>
 8003f50:	6878      	ldr	r0, [r7, #4]
 8003f52:	f7fc fe9f 	bl	8000c94 <HAL_TIM_PWM_PulseFinishedCallback>
 8003f56:	687b      	ldr	r3, [r7, #4]
 8003f58:	2200      	movs	r2, #0
 8003f5a:	771a      	strb	r2, [r3, #28]
 8003f5c:	687b      	ldr	r3, [r7, #4]
 8003f5e:	681b      	ldr	r3, [r3, #0]
 8003f60:	691b      	ldr	r3, [r3, #16]
 8003f62:	f003 0308 	and.w	r3, r3, #8
 8003f66:	2b08      	cmp	r3, #8
 8003f68:	d122      	bne.n	8003fb0 <HAL_TIM_IRQHandler+0x104>
 8003f6a:	687b      	ldr	r3, [r7, #4]
 8003f6c:	681b      	ldr	r3, [r3, #0]
 8003f6e:	68db      	ldr	r3, [r3, #12]
 8003f70:	f003 0308 	and.w	r3, r3, #8
 8003f74:	2b08      	cmp	r3, #8
 8003f76:	d11b      	bne.n	8003fb0 <HAL_TIM_IRQHandler+0x104>
 8003f78:	687b      	ldr	r3, [r7, #4]
 8003f7a:	681b      	ldr	r3, [r3, #0]
 8003f7c:	f06f 0208 	mvn.w	r2, #8
 8003f80:	611a      	str	r2, [r3, #16]
 8003f82:	687b      	ldr	r3, [r7, #4]
 8003f84:	2204      	movs	r2, #4
 8003f86:	771a      	strb	r2, [r3, #28]
 8003f88:	687b      	ldr	r3, [r7, #4]
 8003f8a:	681b      	ldr	r3, [r3, #0]
 8003f8c:	69db      	ldr	r3, [r3, #28]
 8003f8e:	f003 0303 	and.w	r3, r3, #3
 8003f92:	2b00      	cmp	r3, #0
 8003f94:	d003      	beq.n	8003f9e <HAL_TIM_IRQHandler+0xf2>
 8003f96:	6878      	ldr	r0, [r7, #4]
 8003f98:	f000 fa6a 	bl	8004470 <HAL_TIM_IC_CaptureCallback>
 8003f9c:	e005      	b.n	8003faa <HAL_TIM_IRQHandler+0xfe>
 8003f9e:	6878      	ldr	r0, [r7, #4]
 8003fa0:	f7fc fe5c 	bl	8000c5c <HAL_TIM_OC_DelayElapsedCallback>
 8003fa4:	6878      	ldr	r0, [r7, #4]
 8003fa6:	f7fc fe75 	bl	8000c94 <HAL_TIM_PWM_PulseFinishedCallback>
 8003faa:	687b      	ldr	r3, [r7, #4]
 8003fac:	2200      	movs	r2, #0
 8003fae:	771a      	strb	r2, [r3, #28]
 8003fb0:	687b      	ldr	r3, [r7, #4]
 8003fb2:	681b      	ldr	r3, [r3, #0]
 8003fb4:	691b      	ldr	r3, [r3, #16]
 8003fb6:	f003 0310 	and.w	r3, r3, #16
 8003fba:	2b10      	cmp	r3, #16
 8003fbc:	d122      	bne.n	8004004 <HAL_TIM_IRQHandler+0x158>
 8003fbe:	687b      	ldr	r3, [r7, #4]
 8003fc0:	681b      	ldr	r3, [r3, #0]
 8003fc2:	68db      	ldr	r3, [r3, #12]
 8003fc4:	f003 0310 	and.w	r3, r3, #16
 8003fc8:	2b10      	cmp	r3, #16
 8003fca:	d11b      	bne.n	8004004 <HAL_TIM_IRQHandler+0x158>
 8003fcc:	687b      	ldr	r3, [r7, #4]
 8003fce:	681b      	ldr	r3, [r3, #0]
 8003fd0:	f06f 0210 	mvn.w	r2, #16
 8003fd4:	611a      	str	r2, [r3, #16]
 8003fd6:	687b      	ldr	r3, [r7, #4]
 8003fd8:	2208      	movs	r2, #8
 8003fda:	771a      	strb	r2, [r3, #28]
 8003fdc:	687b      	ldr	r3, [r7, #4]
 8003fde:	681b      	ldr	r3, [r3, #0]
 8003fe0:	69db      	ldr	r3, [r3, #28]
 8003fe2:	f403 7340 	and.w	r3, r3, #768	; 0x300
 8003fe6:	2b00      	cmp	r3, #0
 8003fe8:	d003      	beq.n	8003ff2 <HAL_TIM_IRQHandler+0x146>
 8003fea:	6878      	ldr	r0, [r7, #4]
 8003fec:	f000 fa40 	bl	8004470 <HAL_TIM_IC_CaptureCallback>
 8003ff0:	e005      	b.n	8003ffe <HAL_TIM_IRQHandler+0x152>
 8003ff2:	6878      	ldr	r0, [r7, #4]
 8003ff4:	f7fc fe32 	bl	8000c5c <HAL_TIM_OC_DelayElapsedCallback>
 8003ff8:	6878      	ldr	r0, [r7, #4]
 8003ffa:	f7fc fe4b 	bl	8000c94 <HAL_TIM_PWM_PulseFinishedCallback>
 8003ffe:	687b      	ldr	r3, [r7, #4]
 8004000:	2200      	movs	r2, #0
 8004002:	771a      	strb	r2, [r3, #28]
 8004004:	687b      	ldr	r3, [r7, #4]
 8004006:	681b      	ldr	r3, [r3, #0]
 8004008:	691b      	ldr	r3, [r3, #16]
 800400a:	f003 0301 	and.w	r3, r3, #1
 800400e:	2b01      	cmp	r3, #1
 8004010:	d10e      	bne.n	8004030 <HAL_TIM_IRQHandler+0x184>
 8004012:	687b      	ldr	r3, [r7, #4]
 8004014:	681b      	ldr	r3, [r3, #0]
 8004016:	68db      	ldr	r3, [r3, #12]
 8004018:	f003 0301 	and.w	r3, r3, #1
 800401c:	2b01      	cmp	r3, #1
 800401e:	d107      	bne.n	8004030 <HAL_TIM_IRQHandler+0x184>
 8004020:	687b      	ldr	r3, [r7, #4]
 8004022:	681b      	ldr	r3, [r3, #0]
 8004024:	f06f 0201 	mvn.w	r2, #1
 8004028:	611a      	str	r2, [r3, #16]
 800402a:	6878      	ldr	r0, [r7, #4]
 800402c:	f7fc fdce 	bl	8000bcc <HAL_TIM_PeriodElapsedCallback>
 8004030:	687b      	ldr	r3, [r7, #4]
 8004032:	681b      	ldr	r3, [r3, #0]
 8004034:	691b      	ldr	r3, [r3, #16]
 8004036:	f003 0380 	and.w	r3, r3, #128	; 0x80
 800403a:	2b80      	cmp	r3, #128	; 0x80
 800403c:	d10e      	bne.n	800405c <HAL_TIM_IRQHandler+0x1b0>
 800403e:	687b      	ldr	r3, [r7, #4]
 8004040:	681b      	ldr	r3, [r3, #0]
 8004042:	68db      	ldr	r3, [r3, #12]
 8004044:	f003 0380 	and.w	r3, r3, #128	; 0x80
 8004048:	2b80      	cmp	r3, #128	; 0x80
 800404a:	d107      	bne.n	800405c <HAL_TIM_IRQHandler+0x1b0>
 800404c:	687b      	ldr	r3, [r7, #4]
 800404e:	681b      	ldr	r3, [r3, #0]
 8004050:	f06f 0280 	mvn.w	r2, #128	; 0x80
 8004054:	611a      	str	r2, [r3, #16]
 8004056:	6878      	ldr	r0, [r7, #4]
 8004058:	f000 fd78 	bl	8004b4c <HAL_TIMEx_BreakCallback>
 800405c:	687b      	ldr	r3, [r7, #4]
 800405e:	681b      	ldr	r3, [r3, #0]
 8004060:	691b      	ldr	r3, [r3, #16]
 8004062:	f003 0340 	and.w	r3, r3, #64	; 0x40
 8004066:	2b40      	cmp	r3, #64	; 0x40
 8004068:	d10e      	bne.n	8004088 <HAL_TIM_IRQHandler+0x1dc>
 800406a:	687b      	ldr	r3, [r7, #4]
 800406c:	681b      	ldr	r3, [r3, #0]
 800406e:	68db      	ldr	r3, [r3, #12]
 8004070:	f003 0340 	and.w	r3, r3, #64	; 0x40
 8004074:	2b40      	cmp	r3, #64	; 0x40
 8004076:	d107      	bne.n	8004088 <HAL_TIM_IRQHandler+0x1dc>
 8004078:	687b      	ldr	r3, [r7, #4]
 800407a:	681b      	ldr	r3, [r3, #0]
 800407c:	f06f 0240 	mvn.w	r2, #64	; 0x40
 8004080:	611a      	str	r2, [r3, #16]
 8004082:	6878      	ldr	r0, [r7, #4]
 8004084:	f000 f9fd 	bl	8004482 <HAL_TIM_TriggerCallback>
 8004088:	687b      	ldr	r3, [r7, #4]
 800408a:	681b      	ldr	r3, [r3, #0]
 800408c:	691b      	ldr	r3, [r3, #16]
 800408e:	f003 0320 	and.w	r3, r3, #32
 8004092:	2b20      	cmp	r3, #32
 8004094:	d10e      	bne.n	80040b4 <HAL_TIM_IRQHandler+0x208>
 8004096:	687b      	ldr	r3, [r7, #4]
 8004098:	681b      	ldr	r3, [r3, #0]
 800409a:	68db      	ldr	r3, [r3, #12]
 800409c:	f003 0320 	and.w	r3, r3, #32
 80040a0:	2b20      	cmp	r3, #32
 80040a2:	d107      	bne.n	80040b4 <HAL_TIM_IRQHandler+0x208>
 80040a4:	687b      	ldr	r3, [r7, #4]
 80040a6:	681b      	ldr	r3, [r3, #0]
 80040a8:	f06f 0220 	mvn.w	r2, #32
 80040ac:	611a      	str	r2, [r3, #16]
 80040ae:	6878      	ldr	r0, [r7, #4]
 80040b0:	f000 fd43 	bl	8004b3a <HAL_TIMEx_CommutCallback>
 80040b4:	bf00      	nop
 80040b6:	3708      	adds	r7, #8
 80040b8:	46bd      	mov	sp, r7
 80040ba:	bd80      	pop	{r7, pc}

080040bc <HAL_TIM_OC_ConfigChannel>:
 80040bc:	b580      	push	{r7, lr}
 80040be:	b084      	sub	sp, #16
 80040c0:	af00      	add	r7, sp, #0
 80040c2:	60f8      	str	r0, [r7, #12]
 80040c4:	60b9      	str	r1, [r7, #8]
 80040c6:	607a      	str	r2, [r7, #4]
 80040c8:	68fb      	ldr	r3, [r7, #12]
 80040ca:	f893 303c 	ldrb.w	r3, [r3, #60]	; 0x3c
 80040ce:	2b01      	cmp	r3, #1
 80040d0:	d101      	bne.n	80040d6 <HAL_TIM_OC_ConfigChannel+0x1a>
 80040d2:	2302      	movs	r3, #2
 80040d4:	e046      	b.n	8004164 <HAL_TIM_OC_ConfigChannel+0xa8>
 80040d6:	68fb      	ldr	r3, [r7, #12]
 80040d8:	2201      	movs	r2, #1
 80040da:	f883 203c 	strb.w	r2, [r3, #60]	; 0x3c
 80040de:	687b      	ldr	r3, [r7, #4]
 80040e0:	2b0c      	cmp	r3, #12
 80040e2:	d839      	bhi.n	8004158 <HAL_TIM_OC_ConfigChannel+0x9c>
 80040e4:	a201      	add	r2, pc, #4	; (adr r2, 80040ec <HAL_TIM_OC_ConfigChannel+0x30>)
 80040e6:	f852 f023 	ldr.w	pc, [r2, r3, lsl #2]
 80040ea:	bf00      	nop
 80040ec:	08004121 	.word	0x08004121
 80040f0:	08004159 	.word	0x08004159
 80040f4:	08004159 	.word	0x08004159
 80040f8:	08004159 	.word	0x08004159
 80040fc:	0800412f 	.word	0x0800412f
 8004100:	08004159 	.word	0x08004159
 8004104:	08004159 	.word	0x08004159
 8004108:	08004159 	.word	0x08004159
 800410c:	0800413d 	.word	0x0800413d
 8004110:	08004159 	.word	0x08004159
 8004114:	08004159 	.word	0x08004159
 8004118:	08004159 	.word	0x08004159
 800411c:	0800414b 	.word	0x0800414b
 8004120:	68fb      	ldr	r3, [r7, #12]
 8004122:	681b      	ldr	r3, [r3, #0]
 8004124:	68b9      	ldr	r1, [r7, #8]
 8004126:	4618      	mov	r0, r3
 8004128:	f000 fa16 	bl	8004558 <TIM_OC1_SetConfig>
 800412c:	e015      	b.n	800415a <HAL_TIM_OC_ConfigChannel+0x9e>
 800412e:	68fb      	ldr	r3, [r7, #12]
 8004130:	681b      	ldr	r3, [r3, #0]
 8004132:	68b9      	ldr	r1, [r7, #8]
 8004134:	4618      	mov	r0, r3
 8004136:	f000 fa75 	bl	8004624 <TIM_OC2_SetConfig>
 800413a:	e00e      	b.n	800415a <HAL_TIM_OC_ConfigChannel+0x9e>
 800413c:	68fb      	ldr	r3, [r7, #12]
 800413e:	681b      	ldr	r3, [r3, #0]
 8004140:	68b9      	ldr	r1, [r7, #8]
 8004142:	4618      	mov	r0, r3
 8004144:	f000 fad8 	bl	80046f8 <TIM_OC3_SetConfig>
 8004148:	e007      	b.n	800415a <HAL_TIM_OC_ConfigChannel+0x9e>
 800414a:	68fb      	ldr	r3, [r7, #12]
 800414c:	681b      	ldr	r3, [r3, #0]
 800414e:	68b9      	ldr	r1, [r7, #8]
 8004150:	4618      	mov	r0, r3
 8004152:	f000 fb3b 	bl	80047cc <TIM_OC4_SetConfig>
 8004156:	e000      	b.n	800415a <HAL_TIM_OC_ConfigChannel+0x9e>
 8004158:	bf00      	nop
 800415a:	68fb      	ldr	r3, [r7, #12]
 800415c:	2200      	movs	r2, #0
 800415e:	f883 203c 	strb.w	r2, [r3, #60]	; 0x3c
 8004162:	2300      	movs	r3, #0
 8004164:	4618      	mov	r0, r3
 8004166:	3710      	adds	r7, #16
 8004168:	46bd      	mov	sp, r7
 800416a:	bd80      	pop	{r7, pc}

0800416c <HAL_TIM_PWM_ConfigChannel>:
 800416c:	b580      	push	{r7, lr}
 800416e:	b084      	sub	sp, #16
 8004170:	af00      	add	r7, sp, #0
 8004172:	60f8      	str	r0, [r7, #12]
 8004174:	60b9      	str	r1, [r7, #8]
 8004176:	607a      	str	r2, [r7, #4]
 8004178:	68fb      	ldr	r3, [r7, #12]
 800417a:	f893 303c 	ldrb.w	r3, [r3, #60]	; 0x3c
 800417e:	2b01      	cmp	r3, #1
 8004180:	d101      	bne.n	8004186 <HAL_TIM_PWM_ConfigChannel+0x1a>
 8004182:	2302      	movs	r3, #2
 8004184:	e0ac      	b.n	80042e0 <HAL_TIM_PWM_ConfigChannel+0x174>
 8004186:	68fb      	ldr	r3, [r7, #12]
 8004188:	2201      	movs	r2, #1
 800418a:	f883 203c 	strb.w	r2, [r3, #60]	; 0x3c
 800418e:	687b      	ldr	r3, [r7, #4]
 8004190:	2b0c      	cmp	r3, #12
 8004192:	f200 809f 	bhi.w	80042d4 <HAL_TIM_PWM_ConfigChannel+0x168>
 8004196:	a201      	add	r2, pc, #4	; (adr r2, 800419c <HAL_TIM_PWM_ConfigChannel+0x30>)
 8004198:	f852 f023 	ldr.w	pc, [r2, r3, lsl #2]
 800419c:	080041d1 	.word	0x080041d1
 80041a0:	080042d5 	.word	0x080042d5
 80041a4:	080042d5 	.word	0x080042d5
 80041a8:	080042d5 	.word	0x080042d5
 80041ac:	08004211 	.word	0x08004211
 80041b0:	080042d5 	.word	0x080042d5
 80041b4:	080042d5 	.word	0x080042d5
 80041b8:	080042d5 	.word	0x080042d5
 80041bc:	08004253 	.word	0x08004253
 80041c0:	080042d5 	.word	0x080042d5
 80041c4:	080042d5 	.word	0x080042d5
 80041c8:	080042d5 	.word	0x080042d5
 80041cc:	08004293 	.word	0x08004293
 80041d0:	68fb      	ldr	r3, [r7, #12]
 80041d2:	681b      	ldr	r3, [r3, #0]
 80041d4:	68b9      	ldr	r1, [r7, #8]
 80041d6:	4618      	mov	r0, r3
 80041d8:	f000 f9be 	bl	8004558 <TIM_OC1_SetConfig>
 80041dc:	68fb      	ldr	r3, [r7, #12]
 80041de:	681b      	ldr	r3, [r3, #0]
 80041e0:	699a      	ldr	r2, [r3, #24]
 80041e2:	68fb      	ldr	r3, [r7, #12]
 80041e4:	681b      	ldr	r3, [r3, #0]
 80041e6:	f042 0208 	orr.w	r2, r2, #8
 80041ea:	619a      	str	r2, [r3, #24]
 80041ec:	68fb      	ldr	r3, [r7, #12]
 80041ee:	681b      	ldr	r3, [r3, #0]
 80041f0:	699a      	ldr	r2, [r3, #24]
 80041f2:	68fb      	ldr	r3, [r7, #12]
 80041f4:	681b      	ldr	r3, [r3, #0]
 80041f6:	f022 0204 	bic.w	r2, r2, #4
 80041fa:	619a      	str	r2, [r3, #24]
 80041fc:	68fb      	ldr	r3, [r7, #12]
 80041fe:	681b      	ldr	r3, [r3, #0]
 8004200:	6999      	ldr	r1, [r3, #24]
 8004202:	68bb      	ldr	r3, [r7, #8]
 8004204:	691a      	ldr	r2, [r3, #16]
 8004206:	68fb      	ldr	r3, [r7, #12]
 8004208:	681b      	ldr	r3, [r3, #0]
 800420a:	430a      	orrs	r2, r1
 800420c:	619a      	str	r2, [r3, #24]
 800420e:	e062      	b.n	80042d6 <HAL_TIM_PWM_ConfigChannel+0x16a>
 8004210:	68fb      	ldr	r3, [r7, #12]
 8004212:	681b      	ldr	r3, [r3, #0]
 8004214:	68b9      	ldr	r1, [r7, #8]
 8004216:	4618      	mov	r0, r3
 8004218:	f000 fa04 	bl	8004624 <TIM_OC2_SetConfig>
 800421c:	68fb      	ldr	r3, [r7, #12]
 800421e:	681b      	ldr	r3, [r3, #0]
 8004220:	699a      	ldr	r2, [r3, #24]
 8004222:	68fb      	ldr	r3, [r7, #12]
 8004224:	681b      	ldr	r3, [r3, #0]
 8004226:	f442 6200 	orr.w	r2, r2, #2048	; 0x800
 800422a:	619a      	str	r2, [r3, #24]
 800422c:	68fb      	ldr	r3, [r7, #12]
 800422e:	681b      	ldr	r3, [r3, #0]
 8004230:	699a      	ldr	r2, [r3, #24]
 8004232:	68fb      	ldr	r3, [r7, #12]
 8004234:	681b      	ldr	r3, [r3, #0]
 8004236:	f422 6280 	bic.w	r2, r2, #1024	; 0x400
 800423a:	619a      	str	r2, [r3, #24]
 800423c:	68fb      	ldr	r3, [r7, #12]
 800423e:	681b      	ldr	r3, [r3, #0]
 8004240:	6999      	ldr	r1, [r3, #24]
 8004242:	68bb      	ldr	r3, [r7, #8]
 8004244:	691b      	ldr	r3, [r3, #16]
 8004246:	021a      	lsls	r2, r3, #8
 8004248:	68fb      	ldr	r3, [r7, #12]
 800424a:	681b      	ldr	r3, [r3, #0]
 800424c:	430a      	orrs	r2, r1
 800424e:	619a      	str	r2, [r3, #24]
 8004250:	e041      	b.n	80042d6 <HAL_TIM_PWM_ConfigChannel+0x16a>
 8004252:	68fb      	ldr	r3, [r7, #12]
 8004254:	681b      	ldr	r3, [r3, #0]
 8004256:	68b9      	ldr	r1, [r7, #8]
 8004258:	4618      	mov	r0, r3
 800425a:	f000 fa4d 	bl	80046f8 <TIM_OC3_SetConfig>
 800425e:	68fb      	ldr	r3, [r7, #12]
 8004260:	681b      	ldr	r3, [r3, #0]
 8004262:	69da      	ldr	r2, [r3, #28]
 8004264:	68fb      	ldr	r3, [r7, #12]
 8004266:	681b      	ldr	r3, [r3, #0]
 8004268:	f042 0208 	orr.w	r2, r2, #8
 800426c:	61da      	str	r2, [r3, #28]
 800426e:	68fb      	ldr	r3, [r7, #12]
 8004270:	681b      	ldr	r3, [r3, #0]
 8004272:	69da      	ldr	r2, [r3, #28]
 8004274:	68fb      	ldr	r3, [r7, #12]
 8004276:	681b      	ldr	r3, [r3, #0]
 8004278:	f022 0204 	bic.w	r2, r2, #4
 800427c:	61da      	str	r2, [r3, #28]
 800427e:	68fb      	ldr	r3, [r7, #12]
 8004280:	681b      	ldr	r3, [r3, #0]
 8004282:	69d9      	ldr	r1, [r3, #28]
 8004284:	68bb      	ldr	r3, [r7, #8]
 8004286:	691a      	ldr	r2, [r3, #16]
 8004288:	68fb      	ldr	r3, [r7, #12]
 800428a:	681b      	ldr	r3, [r3, #0]
 800428c:	430a      	orrs	r2, r1
 800428e:	61da      	str	r2, [r3, #28]
 8004290:	e021      	b.n	80042d6 <HAL_TIM_PWM_ConfigChannel+0x16a>
 8004292:	68fb      	ldr	r3, [r7, #12]
 8004294:	681b      	ldr	r3, [r3, #0]
 8004296:	68b9      	ldr	r1, [r7, #8]
 8004298:	4618      	mov	r0, r3
 800429a:	f000 fa97 	bl	80047cc <TIM_OC4_SetConfig>
 800429e:	68fb      	ldr	r3, [r7, #12]
 80042a0:	681b      	ldr	r3, [r3, #0]
 80042a2:	69da      	ldr	r2, [r3, #28]
 80042a4:	68fb      	ldr	r3, [r7, #12]
 80042a6:	681b      	ldr	r3, [r3, #0]
 80042a8:	f442 6200 	orr.w	r2, r2, #2048	; 0x800
 80042ac:	61da      	str	r2, [r3, #28]
 80042ae:	68fb      	ldr	r3, [r7, #12]
 80042b0:	681b      	ldr	r3, [r3, #0]
 80042b2:	69da      	ldr	r2, [r3, #28]
 80042b4:	68fb      	ldr	r3, [r7, #12]
 80042b6:	681b      	ldr	r3, [r3, #0]
 80042b8:	f422 6280 	bic.w	r2, r2, #1024	; 0x400
 80042bc:	61da      	str	r2, [r3, #28]
 80042be:	68fb      	ldr	r3, [r7, #12]
 80042c0:	681b      	ldr	r3, [r3, #0]
 80042c2:	69d9      	ldr	r1, [r3, #28]
 80042c4:	68bb      	ldr	r3, [r7, #8]
 80042c6:	691b      	ldr	r3, [r3, #16]
 80042c8:	021a      	lsls	r2, r3, #8
 80042ca:	68fb      	ldr	r3, [r7, #12]
 80042cc:	681b      	ldr	r3, [r3, #0]
 80042ce:	430a      	orrs	r2, r1
 80042d0:	61da      	str	r2, [r3, #28]
 80042d2:	e000      	b.n	80042d6 <HAL_TIM_PWM_ConfigChannel+0x16a>
 80042d4:	bf00      	nop
 80042d6:	68fb      	ldr	r3, [r7, #12]
 80042d8:	2200      	movs	r2, #0
 80042da:	f883 203c 	strb.w	r2, [r3, #60]	; 0x3c
 80042de:	2300      	movs	r3, #0
 80042e0:	4618      	mov	r0, r3
 80042e2:	3710      	adds	r7, #16
 80042e4:	46bd      	mov	sp, r7
 80042e6:	bd80      	pop	{r7, pc}

080042e8 <HAL_TIM_ConfigClockSource>:
 80042e8:	b580      	push	{r7, lr}
 80042ea:	b084      	sub	sp, #16
 80042ec:	af00      	add	r7, sp, #0
 80042ee:	6078      	str	r0, [r7, #4]
 80042f0:	6039      	str	r1, [r7, #0]
 80042f2:	687b      	ldr	r3, [r7, #4]
 80042f4:	f893 303c 	ldrb.w	r3, [r3, #60]	; 0x3c
 80042f8:	2b01      	cmp	r3, #1
 80042fa:	d101      	bne.n	8004300 <HAL_TIM_ConfigClockSource+0x18>
 80042fc:	2302      	movs	r3, #2
 80042fe:	e0b3      	b.n	8004468 <HAL_TIM_ConfigClockSource+0x180>
 8004300:	687b      	ldr	r3, [r7, #4]
 8004302:	2201      	movs	r2, #1
 8004304:	f883 203c 	strb.w	r2, [r3, #60]	; 0x3c
 8004308:	687b      	ldr	r3, [r7, #4]
 800430a:	2202      	movs	r2, #2
 800430c:	f883 203d 	strb.w	r2, [r3, #61]	; 0x3d
 8004310:	687b      	ldr	r3, [r7, #4]
 8004312:	681b      	ldr	r3, [r3, #0]
 8004314:	689b      	ldr	r3, [r3, #8]
 8004316:	60fb      	str	r3, [r7, #12]
 8004318:	68fb      	ldr	r3, [r7, #12]
 800431a:	f023 0377 	bic.w	r3, r3, #119	; 0x77
 800431e:	60fb      	str	r3, [r7, #12]
 8004320:	68fb      	ldr	r3, [r7, #12]
 8004322:	f423 437f 	bic.w	r3, r3, #65280	; 0xff00
 8004326:	60fb      	str	r3, [r7, #12]
 8004328:	687b      	ldr	r3, [r7, #4]
 800432a:	681b      	ldr	r3, [r3, #0]
 800432c:	68fa      	ldr	r2, [r7, #12]
 800432e:	609a      	str	r2, [r3, #8]
 8004330:	683b      	ldr	r3, [r7, #0]
 8004332:	681b      	ldr	r3, [r3, #0]
 8004334:	f5b3 5f00 	cmp.w	r3, #8192	; 0x2000
 8004338:	d03e      	beq.n	80043b8 <HAL_TIM_ConfigClockSource+0xd0>
 800433a:	f5b3 5f00 	cmp.w	r3, #8192	; 0x2000
 800433e:	f200 8087 	bhi.w	8004450 <HAL_TIM_ConfigClockSource+0x168>
 8004342:	f5b3 5f80 	cmp.w	r3, #4096	; 0x1000
 8004346:	f000 8085 	beq.w	8004454 <HAL_TIM_ConfigClockSource+0x16c>
 800434a:	f5b3 5f80 	cmp.w	r3, #4096	; 0x1000
 800434e:	d87f      	bhi.n	8004450 <HAL_TIM_ConfigClockSource+0x168>
 8004350:	2b70      	cmp	r3, #112	; 0x70
 8004352:	d01a      	beq.n	800438a <HAL_TIM_ConfigClockSource+0xa2>
 8004354:	2b70      	cmp	r3, #112	; 0x70
 8004356:	d87b      	bhi.n	8004450 <HAL_TIM_ConfigClockSource+0x168>
 8004358:	2b60      	cmp	r3, #96	; 0x60
 800435a:	d050      	beq.n	80043fe <HAL_TIM_ConfigClockSource+0x116>
 800435c:	2b60      	cmp	r3, #96	; 0x60
 800435e:	d877      	bhi.n	8004450 <HAL_TIM_ConfigClockSource+0x168>
 8004360:	2b50      	cmp	r3, #80	; 0x50
 8004362:	d03c      	beq.n	80043de <HAL_TIM_ConfigClockSource+0xf6>
 8004364:	2b50      	cmp	r3, #80	; 0x50
 8004366:	d873      	bhi.n	8004450 <HAL_TIM_ConfigClockSource+0x168>
 8004368:	2b40      	cmp	r3, #64	; 0x40
 800436a:	d058      	beq.n	800441e <HAL_TIM_ConfigClockSource+0x136>
 800436c:	2b40      	cmp	r3, #64	; 0x40
 800436e:	d86f      	bhi.n	8004450 <HAL_TIM_ConfigClockSource+0x168>
 8004370:	2b30      	cmp	r3, #48	; 0x30
 8004372:	d064      	beq.n	800443e <HAL_TIM_ConfigClockSource+0x156>
 8004374:	2b30      	cmp	r3, #48	; 0x30
 8004376:	d86b      	bhi.n	8004450 <HAL_TIM_ConfigClockSource+0x168>
 8004378:	2b20      	cmp	r3, #32
 800437a:	d060      	beq.n	800443e <HAL_TIM_ConfigClockSource+0x156>
 800437c:	2b20      	cmp	r3, #32
 800437e:	d867      	bhi.n	8004450 <HAL_TIM_ConfigClockSource+0x168>
 8004380:	2b00      	cmp	r3, #0
 8004382:	d05c      	beq.n	800443e <HAL_TIM_ConfigClockSource+0x156>
 8004384:	2b10      	cmp	r3, #16
 8004386:	d05a      	beq.n	800443e <HAL_TIM_ConfigClockSource+0x156>
 8004388:	e062      	b.n	8004450 <HAL_TIM_ConfigClockSource+0x168>
 800438a:	687b      	ldr	r3, [r7, #4]
 800438c:	6818      	ldr	r0, [r3, #0]
 800438e:	683b      	ldr	r3, [r7, #0]
 8004390:	6899      	ldr	r1, [r3, #8]
 8004392:	683b      	ldr	r3, [r7, #0]
 8004394:	685a      	ldr	r2, [r3, #4]
 8004396:	683b      	ldr	r3, [r7, #0]
 8004398:	68db      	ldr	r3, [r3, #12]
 800439a:	f000 fadc 	bl	8004956 <TIM_ETR_SetConfig>
 800439e:	687b      	ldr	r3, [r7, #4]
 80043a0:	681b      	ldr	r3, [r3, #0]
 80043a2:	689b      	ldr	r3, [r3, #8]
 80043a4:	60fb      	str	r3, [r7, #12]
 80043a6:	68fb      	ldr	r3, [r7, #12]
 80043a8:	f043 0377 	orr.w	r3, r3, #119	; 0x77
 80043ac:	60fb      	str	r3, [r7, #12]
 80043ae:	687b      	ldr	r3, [r7, #4]
 80043b0:	681b      	ldr	r3, [r3, #0]
 80043b2:	68fa      	ldr	r2, [r7, #12]
 80043b4:	609a      	str	r2, [r3, #8]
 80043b6:	e04e      	b.n	8004456 <HAL_TIM_ConfigClockSource+0x16e>
 80043b8:	687b      	ldr	r3, [r7, #4]
 80043ba:	6818      	ldr	r0, [r3, #0]
 80043bc:	683b      	ldr	r3, [r7, #0]
 80043be:	6899      	ldr	r1, [r3, #8]
 80043c0:	683b      	ldr	r3, [r7, #0]
 80043c2:	685a      	ldr	r2, [r3, #4]
 80043c4:	683b      	ldr	r3, [r7, #0]
 80043c6:	68db      	ldr	r3, [r3, #12]
 80043c8:	f000 fac5 	bl	8004956 <TIM_ETR_SetConfig>
 80043cc:	687b      	ldr	r3, [r7, #4]
 80043ce:	681b      	ldr	r3, [r3, #0]
 80043d0:	689a      	ldr	r2, [r3, #8]
 80043d2:	687b      	ldr	r3, [r7, #4]
 80043d4:	681b      	ldr	r3, [r3, #0]
 80043d6:	f442 4280 	orr.w	r2, r2, #16384	; 0x4000
 80043da:	609a      	str	r2, [r3, #8]
 80043dc:	e03b      	b.n	8004456 <HAL_TIM_ConfigClockSource+0x16e>
 80043de:	687b      	ldr	r3, [r7, #4]
 80043e0:	6818      	ldr	r0, [r3, #0]
 80043e2:	683b      	ldr	r3, [r7, #0]
 80043e4:	6859      	ldr	r1, [r3, #4]
 80043e6:	683b      	ldr	r3, [r7, #0]
 80043e8:	68db      	ldr	r3, [r3, #12]
 80043ea:	461a      	mov	r2, r3
 80043ec:	f000 fa3c 	bl	8004868 <TIM_TI1_ConfigInputStage>
 80043f0:	687b      	ldr	r3, [r7, #4]
 80043f2:	681b      	ldr	r3, [r3, #0]
 80043f4:	2150      	movs	r1, #80	; 0x50
 80043f6:	4618      	mov	r0, r3
 80043f8:	f000 fa93 	bl	8004922 <TIM_ITRx_SetConfig>
 80043fc:	e02b      	b.n	8004456 <HAL_TIM_ConfigClockSource+0x16e>
 80043fe:	687b      	ldr	r3, [r7, #4]
 8004400:	6818      	ldr	r0, [r3, #0]
 8004402:	683b      	ldr	r3, [r7, #0]
 8004404:	6859      	ldr	r1, [r3, #4]
 8004406:	683b      	ldr	r3, [r7, #0]
 8004408:	68db      	ldr	r3, [r3, #12]
 800440a:	461a      	mov	r2, r3
 800440c:	f000 fa5a 	bl	80048c4 <TIM_TI2_ConfigInputStage>
 8004410:	687b      	ldr	r3, [r7, #4]
 8004412:	681b      	ldr	r3, [r3, #0]
 8004414:	2160      	movs	r1, #96	; 0x60
 8004416:	4618      	mov	r0, r3
 8004418:	f000 fa83 	bl	8004922 <TIM_ITRx_SetConfig>
 800441c:	e01b      	b.n	8004456 <HAL_TIM_ConfigClockSource+0x16e>
 800441e:	687b      	ldr	r3, [r7, #4]
 8004420:	6818      	ldr	r0, [r3, #0]
 8004422:	683b      	ldr	r3, [r7, #0]
 8004424:	6859      	ldr	r1, [r3, #4]
 8004426:	683b      	ldr	r3, [r7, #0]
 8004428:	68db      	ldr	r3, [r3, #12]
 800442a:	461a      	mov	r2, r3
 800442c:	f000 fa1c 	bl	8004868 <TIM_TI1_ConfigInputStage>
 8004430:	687b      	ldr	r3, [r7, #4]
 8004432:	681b      	ldr	r3, [r3, #0]
 8004434:	2140      	movs	r1, #64	; 0x40
 8004436:	4618      	mov	r0, r3
 8004438:	f000 fa73 	bl	8004922 <TIM_ITRx_SetConfig>
 800443c:	e00b      	b.n	8004456 <HAL_TIM_ConfigClockSource+0x16e>
 800443e:	687b      	ldr	r3, [r7, #4]
 8004440:	681a      	ldr	r2, [r3, #0]
 8004442:	683b      	ldr	r3, [r7, #0]
 8004444:	681b      	ldr	r3, [r3, #0]
 8004446:	4619      	mov	r1, r3
 8004448:	4610      	mov	r0, r2
 800444a:	f000 fa6a 	bl	8004922 <TIM_ITRx_SetConfig>
 800444e:	e002      	b.n	8004456 <HAL_TIM_ConfigClockSource+0x16e>
 8004450:	bf00      	nop
 8004452:	e000      	b.n	8004456 <HAL_TIM_ConfigClockSource+0x16e>
 8004454:	bf00      	nop
 8004456:	687b      	ldr	r3, [r7, #4]
 8004458:	2201      	movs	r2, #1
 800445a:	f883 203d 	strb.w	r2, [r3, #61]	; 0x3d
 800445e:	687b      	ldr	r3, [r7, #4]
 8004460:	2200      	movs	r2, #0
 8004462:	f883 203c 	strb.w	r2, [r3, #60]	; 0x3c
 8004466:	2300      	movs	r3, #0
 8004468:	4618      	mov	r0, r3
 800446a:	3710      	adds	r7, #16
 800446c:	46bd      	mov	sp, r7
 800446e:	bd80      	pop	{r7, pc}

08004470 <HAL_TIM_IC_CaptureCallback>:
 8004470:	b480      	push	{r7}
 8004472:	b083      	sub	sp, #12
 8004474:	af00      	add	r7, sp, #0
 8004476:	6078      	str	r0, [r7, #4]
 8004478:	bf00      	nop
 800447a:	370c      	adds	r7, #12
 800447c:	46bd      	mov	sp, r7
 800447e:	bc80      	pop	{r7}
 8004480:	4770      	bx	lr

08004482 <HAL_TIM_TriggerCallback>:
 8004482:	b480      	push	{r7}
 8004484:	b083      	sub	sp, #12
 8004486:	af00      	add	r7, sp, #0
 8004488:	6078      	str	r0, [r7, #4]
 800448a:	bf00      	nop
 800448c:	370c      	adds	r7, #12
 800448e:	46bd      	mov	sp, r7
 8004490:	bc80      	pop	{r7}
 8004492:	4770      	bx	lr

08004494 <TIM_Base_SetConfig>:
 8004494:	b480      	push	{r7}
 8004496:	b085      	sub	sp, #20
 8004498:	af00      	add	r7, sp, #0
 800449a:	6078      	str	r0, [r7, #4]
 800449c:	6039      	str	r1, [r7, #0]
 800449e:	687b      	ldr	r3, [r7, #4]
 80044a0:	681b      	ldr	r3, [r3, #0]
 80044a2:	60fb      	str	r3, [r7, #12]
 80044a4:	687b      	ldr	r3, [r7, #4]
 80044a6:	4a29      	ldr	r2, [pc, #164]	; (800454c <TIM_Base_SetConfig+0xb8>)
 80044a8:	4293      	cmp	r3, r2
 80044aa:	d00b      	beq.n	80044c4 <TIM_Base_SetConfig+0x30>
 80044ac:	687b      	ldr	r3, [r7, #4]
 80044ae:	f1b3 4f80 	cmp.w	r3, #1073741824	; 0x40000000
 80044b2:	d007      	beq.n	80044c4 <TIM_Base_SetConfig+0x30>
 80044b4:	687b      	ldr	r3, [r7, #4]
 80044b6:	4a26      	ldr	r2, [pc, #152]	; (8004550 <TIM_Base_SetConfig+0xbc>)
 80044b8:	4293      	cmp	r3, r2
 80044ba:	d003      	beq.n	80044c4 <TIM_Base_SetConfig+0x30>
 80044bc:	687b      	ldr	r3, [r7, #4]
 80044be:	4a25      	ldr	r2, [pc, #148]	; (8004554 <TIM_Base_SetConfig+0xc0>)
 80044c0:	4293      	cmp	r3, r2
 80044c2:	d108      	bne.n	80044d6 <TIM_Base_SetConfig+0x42>
 80044c4:	68fb      	ldr	r3, [r7, #12]
 80044c6:	f023 0370 	bic.w	r3, r3, #112	; 0x70
 80044ca:	60fb      	str	r3, [r7, #12]
 80044cc:	683b      	ldr	r3, [r7, #0]
 80044ce:	685b      	ldr	r3, [r3, #4]
 80044d0:	68fa      	ldr	r2, [r7, #12]
 80044d2:	4313      	orrs	r3, r2
 80044d4:	60fb      	str	r3, [r7, #12]
 80044d6:	687b      	ldr	r3, [r7, #4]
 80044d8:	4a1c      	ldr	r2, [pc, #112]	; (800454c <TIM_Base_SetConfig+0xb8>)
 80044da:	4293      	cmp	r3, r2
 80044dc:	d00b      	beq.n	80044f6 <TIM_Base_SetConfig+0x62>
 80044de:	687b      	ldr	r3, [r7, #4]
 80044e0:	f1b3 4f80 	cmp.w	r3, #1073741824	; 0x40000000
 80044e4:	d007      	beq.n	80044f6 <TIM_Base_SetConfig+0x62>
 80044e6:	687b      	ldr	r3, [r7, #4]
 80044e8:	4a19      	ldr	r2, [pc, #100]	; (8004550 <TIM_Base_SetConfig+0xbc>)
 80044ea:	4293      	cmp	r3, r2
 80044ec:	d003      	beq.n	80044f6 <TIM_Base_SetConfig+0x62>
 80044ee:	687b      	ldr	r3, [r7, #4]
 80044f0:	4a18      	ldr	r2, [pc, #96]	; (8004554 <TIM_Base_SetConfig+0xc0>)
 80044f2:	4293      	cmp	r3, r2
 80044f4:	d108      	bne.n	8004508 <TIM_Base_SetConfig+0x74>
 80044f6:	68fb      	ldr	r3, [r7, #12]
 80044f8:	f423 7340 	bic.w	r3, r3, #768	; 0x300
 80044fc:	60fb      	str	r3, [r7, #12]
 80044fe:	683b      	ldr	r3, [r7, #0]
 8004500:	68db      	ldr	r3, [r3, #12]
 8004502:	68fa      	ldr	r2, [r7, #12]
 8004504:	4313      	orrs	r3, r2
 8004506:	60fb      	str	r3, [r7, #12]
 8004508:	68fb      	ldr	r3, [r7, #12]
 800450a:	f023 0280 	bic.w	r2, r3, #128	; 0x80
 800450e:	683b      	ldr	r3, [r7, #0]
 8004510:	695b      	ldr	r3, [r3, #20]
 8004512:	4313      	orrs	r3, r2
 8004514:	60fb      	str	r3, [r7, #12]
 8004516:	687b      	ldr	r3, [r7, #4]
 8004518:	68fa      	ldr	r2, [r7, #12]
 800451a:	601a      	str	r2, [r3, #0]
 800451c:	683b      	ldr	r3, [r7, #0]
 800451e:	689a      	ldr	r2, [r3, #8]
 8004520:	687b      	ldr	r3, [r7, #4]
 8004522:	62da      	str	r2, [r3, #44]	; 0x2c
 8004524:	683b      	ldr	r3, [r7, #0]
 8004526:	681a      	ldr	r2, [r3, #0]
 8004528:	687b      	ldr	r3, [r7, #4]
 800452a:	629a      	str	r2, [r3, #40]	; 0x28
 800452c:	687b      	ldr	r3, [r7, #4]
 800452e:	4a07      	ldr	r2, [pc, #28]	; (800454c <TIM_Base_SetConfig+0xb8>)
 8004530:	4293      	cmp	r3, r2
 8004532:	d103      	bne.n	800453c <TIM_Base_SetConfig+0xa8>
 8004534:	683b      	ldr	r3, [r7, #0]
 8004536:	691a      	ldr	r2, [r3, #16]
 8004538:	687b      	ldr	r3, [r7, #4]
 800453a:	631a      	str	r2, [r3, #48]	; 0x30
 800453c:	687b      	ldr	r3, [r7, #4]
 800453e:	2201      	movs	r2, #1
 8004540:	615a      	str	r2, [r3, #20]
 8004542:	bf00      	nop
 8004544:	3714      	adds	r7, #20
 8004546:	46bd      	mov	sp, r7
 8004548:	bc80      	pop	{r7}
 800454a:	4770      	bx	lr
 800454c:	40012c00 	.word	0x40012c00
 8004550:	40000400 	.word	0x40000400
 8004554:	40000800 	.word	0x40000800

08004558 <TIM_OC1_SetConfig>:
 8004558:	b480      	push	{r7}
 800455a:	b087      	sub	sp, #28
 800455c:	af00      	add	r7, sp, #0
 800455e:	6078      	str	r0, [r7, #4]
 8004560:	6039      	str	r1, [r7, #0]
 8004562:	687b      	ldr	r3, [r7, #4]
 8004564:	6a1b      	ldr	r3, [r3, #32]
 8004566:	f023 0201 	bic.w	r2, r3, #1
 800456a:	687b      	ldr	r3, [r7, #4]
 800456c:	621a      	str	r2, [r3, #32]
 800456e:	687b      	ldr	r3, [r7, #4]
 8004570:	6a1b      	ldr	r3, [r3, #32]
 8004572:	617b      	str	r3, [r7, #20]
 8004574:	687b      	ldr	r3, [r7, #4]
 8004576:	685b      	ldr	r3, [r3, #4]
 8004578:	613b      	str	r3, [r7, #16]
 800457a:	687b      	ldr	r3, [r7, #4]
 800457c:	699b      	ldr	r3, [r3, #24]
 800457e:	60fb      	str	r3, [r7, #12]
 8004580:	68fb      	ldr	r3, [r7, #12]
 8004582:	f023 0370 	bic.w	r3, r3, #112	; 0x70
 8004586:	60fb      	str	r3, [r7, #12]
 8004588:	68fb      	ldr	r3, [r7, #12]
 800458a:	f023 0303 	bic.w	r3, r3, #3
 800458e:	60fb      	str	r3, [r7, #12]
 8004590:	683b      	ldr	r3, [r7, #0]
 8004592:	681b      	ldr	r3, [r3, #0]
 8004594:	68fa      	ldr	r2, [r7, #12]
 8004596:	4313      	orrs	r3, r2
 8004598:	60fb      	str	r3, [r7, #12]
 800459a:	697b      	ldr	r3, [r7, #20]
 800459c:	f023 0302 	bic.w	r3, r3, #2
 80045a0:	617b      	str	r3, [r7, #20]
 80045a2:	683b      	ldr	r3, [r7, #0]
 80045a4:	689b      	ldr	r3, [r3, #8]
 80045a6:	697a      	ldr	r2, [r7, #20]
 80045a8:	4313      	orrs	r3, r2
 80045aa:	617b      	str	r3, [r7, #20]
 80045ac:	687b      	ldr	r3, [r7, #4]
 80045ae:	4a1c      	ldr	r2, [pc, #112]	; (8004620 <TIM_OC1_SetConfig+0xc8>)
 80045b0:	4293      	cmp	r3, r2
 80045b2:	d10c      	bne.n	80045ce <TIM_OC1_SetConfig+0x76>
 80045b4:	697b      	ldr	r3, [r7, #20]
 80045b6:	f023 0308 	bic.w	r3, r3, #8
 80045ba:	617b      	str	r3, [r7, #20]
 80045bc:	683b      	ldr	r3, [r7, #0]
 80045be:	68db      	ldr	r3, [r3, #12]
 80045c0:	697a      	ldr	r2, [r7, #20]
 80045c2:	4313      	orrs	r3, r2
 80045c4:	617b      	str	r3, [r7, #20]
 80045c6:	697b      	ldr	r3, [r7, #20]
 80045c8:	f023 0304 	bic.w	r3, r3, #4
 80045cc:	617b      	str	r3, [r7, #20]
 80045ce:	687b      	ldr	r3, [r7, #4]
 80045d0:	4a13      	ldr	r2, [pc, #76]	; (8004620 <TIM_OC1_SetConfig+0xc8>)
 80045d2:	4293      	cmp	r3, r2
 80045d4:	d111      	bne.n	80045fa <TIM_OC1_SetConfig+0xa2>
 80045d6:	693b      	ldr	r3, [r7, #16]
 80045d8:	f423 7380 	bic.w	r3, r3, #256	; 0x100
 80045dc:	613b      	str	r3, [r7, #16]
 80045de:	693b      	ldr	r3, [r7, #16]
 80045e0:	f423 7300 	bic.w	r3, r3, #512	; 0x200
 80045e4:	613b      	str	r3, [r7, #16]
 80045e6:	683b      	ldr	r3, [r7, #0]
 80045e8:	695b      	ldr	r3, [r3, #20]
 80045ea:	693a      	ldr	r2, [r7, #16]
 80045ec:	4313      	orrs	r3, r2
 80045ee:	613b      	str	r3, [r7, #16]
 80045f0:	683b      	ldr	r3, [r7, #0]
 80045f2:	699b      	ldr	r3, [r3, #24]
 80045f4:	693a      	ldr	r2, [r7, #16]
 80045f6:	4313      	orrs	r3, r2
 80045f8:	613b      	str	r3, [r7, #16]
 80045fa:	687b      	ldr	r3, [r7, #4]
 80045fc:	693a      	ldr	r2, [r7, #16]
 80045fe:	605a      	str	r2, [r3, #4]
 8004600:	687b      	ldr	r3, [r7, #4]
 8004602:	68fa      	ldr	r2, [r7, #12]
 8004604:	619a      	str	r2, [r3, #24]
 8004606:	683b      	ldr	r3, [r7, #0]
 8004608:	685a      	ldr	r2, [r3, #4]
 800460a:	687b      	ldr	r3, [r7, #4]
 800460c:	635a      	str	r2, [r3, #52]	; 0x34
 800460e:	687b      	ldr	r3, [r7, #4]
 8004610:	697a      	ldr	r2, [r7, #20]
 8004612:	621a      	str	r2, [r3, #32]
 8004614:	bf00      	nop
 8004616:	371c      	adds	r7, #28
 8004618:	46bd      	mov	sp, r7
 800461a:	bc80      	pop	{r7}
 800461c:	4770      	bx	lr
 800461e:	bf00      	nop
 8004620:	40012c00 	.word	0x40012c00

08004624 <TIM_OC2_SetConfig>:
 8004624:	b480      	push	{r7}
 8004626:	b087      	sub	sp, #28
 8004628:	af00      	add	r7, sp, #0
 800462a:	6078      	str	r0, [r7, #4]
 800462c:	6039      	str	r1, [r7, #0]
 800462e:	687b      	ldr	r3, [r7, #4]
 8004630:	6a1b      	ldr	r3, [r3, #32]
 8004632:	f023 0210 	bic.w	r2, r3, #16
 8004636:	687b      	ldr	r3, [r7, #4]
 8004638:	621a      	str	r2, [r3, #32]
 800463a:	687b      	ldr	r3, [r7, #4]
 800463c:	6a1b      	ldr	r3, [r3, #32]
 800463e:	617b      	str	r3, [r7, #20]
 8004640:	687b      	ldr	r3, [r7, #4]
 8004642:	685b      	ldr	r3, [r3, #4]
 8004644:	613b      	str	r3, [r7, #16]
 8004646:	687b      	ldr	r3, [r7, #4]
 8004648:	699b      	ldr	r3, [r3, #24]
 800464a:	60fb      	str	r3, [r7, #12]
 800464c:	68fb      	ldr	r3, [r7, #12]
 800464e:	f423 43e0 	bic.w	r3, r3, #28672	; 0x7000
 8004652:	60fb      	str	r3, [r7, #12]
 8004654:	68fb      	ldr	r3, [r7, #12]
 8004656:	f423 7340 	bic.w	r3, r3, #768	; 0x300
 800465a:	60fb      	str	r3, [r7, #12]
 800465c:	683b      	ldr	r3, [r7, #0]
 800465e:	681b      	ldr	r3, [r3, #0]
 8004660:	021b      	lsls	r3, r3, #8
 8004662:	68fa      	ldr	r2, [r7, #12]
 8004664:	4313      	orrs	r3, r2
 8004666:	60fb      	str	r3, [r7, #12]
 8004668:	697b      	ldr	r3, [r7, #20]
 800466a:	f023 0320 	bic.w	r3, r3, #32
 800466e:	617b      	str	r3, [r7, #20]
 8004670:	683b      	ldr	r3, [r7, #0]
 8004672:	689b      	ldr	r3, [r3, #8]
 8004674:	011b      	lsls	r3, r3, #4
 8004676:	697a      	ldr	r2, [r7, #20]
 8004678:	4313      	orrs	r3, r2
 800467a:	617b      	str	r3, [r7, #20]
 800467c:	687b      	ldr	r3, [r7, #4]
 800467e:	4a1d      	ldr	r2, [pc, #116]	; (80046f4 <TIM_OC2_SetConfig+0xd0>)
 8004680:	4293      	cmp	r3, r2
 8004682:	d10d      	bne.n	80046a0 <TIM_OC2_SetConfig+0x7c>
 8004684:	697b      	ldr	r3, [r7, #20]
 8004686:	f023 0380 	bic.w	r3, r3, #128	; 0x80
 800468a:	617b      	str	r3, [r7, #20]
 800468c:	683b      	ldr	r3, [r7, #0]
 800468e:	68db      	ldr	r3, [r3, #12]
 8004690:	011b      	lsls	r3, r3, #4
 8004692:	697a      	ldr	r2, [r7, #20]
 8004694:	4313      	orrs	r3, r2
 8004696:	617b      	str	r3, [r7, #20]
 8004698:	697b      	ldr	r3, [r7, #20]
 800469a:	f023 0340 	bic.w	r3, r3, #64	; 0x40
 800469e:	617b      	str	r3, [r7, #20]
 80046a0:	687b      	ldr	r3, [r7, #4]
 80046a2:	4a14      	ldr	r2, [pc, #80]	; (80046f4 <TIM_OC2_SetConfig+0xd0>)
 80046a4:	4293      	cmp	r3, r2
 80046a6:	d113      	bne.n	80046d0 <TIM_OC2_SetConfig+0xac>
 80046a8:	693b      	ldr	r3, [r7, #16]
 80046aa:	f423 6380 	bic.w	r3, r3, #1024	; 0x400
 80046ae:	613b      	str	r3, [r7, #16]
 80046b0:	693b      	ldr	r3, [r7, #16]
 80046b2:	f423 6300 	bic.w	r3, r3, #2048	; 0x800
 80046b6:	613b      	str	r3, [r7, #16]
 80046b8:	683b      	ldr	r3, [r7, #0]
 80046ba:	695b      	ldr	r3, [r3, #20]
 80046bc:	009b      	lsls	r3, r3, #2
 80046be:	693a      	ldr	r2, [r7, #16]
 80046c0:	4313      	orrs	r3, r2
 80046c2:	613b      	str	r3, [r7, #16]
 80046c4:	683b      	ldr	r3, [r7, #0]
 80046c6:	699b      	ldr	r3, [r3, #24]
 80046c8:	009b      	lsls	r3, r3, #2
 80046ca:	693a      	ldr	r2, [r7, #16]
 80046cc:	4313      	orrs	r3, r2
 80046ce:	613b      	str	r3, [r7, #16]
 80046d0:	687b      	ldr	r3, [r7, #4]
 80046d2:	693a      	ldr	r2, [r7, #16]
 80046d4:	605a      	str	r2, [r3, #4]
 80046d6:	687b      	ldr	r3, [r7, #4]
 80046d8:	68fa      	ldr	r2, [r7, #12]
 80046da:	619a      	str	r2, [r3, #24]
 80046dc:	683b      	ldr	r3, [r7, #0]
 80046de:	685a      	ldr	r2, [r3, #4]
 80046e0:	687b      	ldr	r3, [r7, #4]
 80046e2:	639a      	str	r2, [r3, #56]	; 0x38
 80046e4:	687b      	ldr	r3, [r7, #4]
 80046e6:	697a      	ldr	r2, [r7, #20]
 80046e8:	621a      	str	r2, [r3, #32]
 80046ea:	bf00      	nop
 80046ec:	371c      	adds	r7, #28
 80046ee:	46bd      	mov	sp, r7
 80046f0:	bc80      	pop	{r7}
 80046f2:	4770      	bx	lr
 80046f4:	40012c00 	.word	0x40012c00

080046f8 <TIM_OC3_SetConfig>:
 80046f8:	b480      	push	{r7}
 80046fa:	b087      	sub	sp, #28
 80046fc:	af00      	add	r7, sp, #0
 80046fe:	6078      	str	r0, [r7, #4]
 8004700:	6039      	str	r1, [r7, #0]
 8004702:	687b      	ldr	r3, [r7, #4]
 8004704:	6a1b      	ldr	r3, [r3, #32]
 8004706:	f423 7280 	bic.w	r2, r3, #256	; 0x100
 800470a:	687b      	ldr	r3, [r7, #4]
 800470c:	621a      	str	r2, [r3, #32]
 800470e:	687b      	ldr	r3, [r7, #4]
 8004710:	6a1b      	ldr	r3, [r3, #32]
 8004712:	617b      	str	r3, [r7, #20]
 8004714:	687b      	ldr	r3, [r7, #4]
 8004716:	685b      	ldr	r3, [r3, #4]
 8004718:	613b      	str	r3, [r7, #16]
 800471a:	687b      	ldr	r3, [r7, #4]
 800471c:	69db      	ldr	r3, [r3, #28]
 800471e:	60fb      	str	r3, [r7, #12]
 8004720:	68fb      	ldr	r3, [r7, #12]
 8004722:	f023 0370 	bic.w	r3, r3, #112	; 0x70
 8004726:	60fb      	str	r3, [r7, #12]
 8004728:	68fb      	ldr	r3, [r7, #12]
 800472a:	f023 0303 	bic.w	r3, r3, #3
 800472e:	60fb      	str	r3, [r7, #12]
 8004730:	683b      	ldr	r3, [r7, #0]
 8004732:	681b      	ldr	r3, [r3, #0]
 8004734:	68fa      	ldr	r2, [r7, #12]
 8004736:	4313      	orrs	r3, r2
 8004738:	60fb      	str	r3, [r7, #12]
 800473a:	697b      	ldr	r3, [r7, #20]
 800473c:	f423 7300 	bic.w	r3, r3, #512	; 0x200
 8004740:	617b      	str	r3, [r7, #20]
 8004742:	683b      	ldr	r3, [r7, #0]
 8004744:	689b      	ldr	r3, [r3, #8]
 8004746:	021b      	lsls	r3, r3, #8
 8004748:	697a      	ldr	r2, [r7, #20]
 800474a:	4313      	orrs	r3, r2
 800474c:	617b      	str	r3, [r7, #20]
 800474e:	687b      	ldr	r3, [r7, #4]
 8004750:	4a1d      	ldr	r2, [pc, #116]	; (80047c8 <TIM_OC3_SetConfig+0xd0>)
 8004752:	4293      	cmp	r3, r2
 8004754:	d10d      	bne.n	8004772 <TIM_OC3_SetConfig+0x7a>
 8004756:	697b      	ldr	r3, [r7, #20]
 8004758:	f423 6300 	bic.w	r3, r3, #2048	; 0x800
 800475c:	617b      	str	r3, [r7, #20]
 800475e:	683b      	ldr	r3, [r7, #0]
 8004760:	68db      	ldr	r3, [r3, #12]
 8004762:	021b      	lsls	r3, r3, #8
 8004764:	697a      	ldr	r2, [r7, #20]
 8004766:	4313      	orrs	r3, r2
 8004768:	617b      	str	r3, [r7, #20]
 800476a:	697b      	ldr	r3, [r7, #20]
 800476c:	f423 6380 	bic.w	r3, r3, #1024	; 0x400
 8004770:	617b      	str	r3, [r7, #20]
 8004772:	687b      	ldr	r3, [r7, #4]
 8004774:	4a14      	ldr	r2, [pc, #80]	; (80047c8 <TIM_OC3_SetConfig+0xd0>)
 8004776:	4293      	cmp	r3, r2
 8004778:	d113      	bne.n	80047a2 <TIM_OC3_SetConfig+0xaa>
 800477a:	693b      	ldr	r3, [r7, #16]
 800477c:	f423 5380 	bic.w	r3, r3, #4096	; 0x1000
 8004780:	613b      	str	r3, [r7, #16]
 8004782:	693b      	ldr	r3, [r7, #16]
 8004784:	f423 5300 	bic.w	r3, r3, #8192	; 0x2000
 8004788:	613b      	str	r3, [r7, #16]
 800478a:	683b      	ldr	r3, [r7, #0]
 800478c:	695b      	ldr	r3, [r3, #20]
 800478e:	011b      	lsls	r3, r3, #4
 8004790:	693a      	ldr	r2, [r7, #16]
 8004792:	4313      	orrs	r3, r2
 8004794:	613b      	str	r3, [r7, #16]
 8004796:	683b      	ldr	r3, [r7, #0]
 8004798:	699b      	ldr	r3, [r3, #24]
 800479a:	011b      	lsls	r3, r3, #4
 800479c:	693a      	ldr	r2, [r7, #16]
 800479e:	4313      	orrs	r3, r2
 80047a0:	613b      	str	r3, [r7, #16]
 80047a2:	687b      	ldr	r3, [r7, #4]
 80047a4:	693a      	ldr	r2, [r7, #16]
 80047a6:	605a      	str	r2, [r3, #4]
 80047a8:	687b      	ldr	r3, [r7, #4]
 80047aa:	68fa      	ldr	r2, [r7, #12]
 80047ac:	61da      	str	r2, [r3, #28]
 80047ae:	683b      	ldr	r3, [r7, #0]
 80047b0:	685a      	ldr	r2, [r3, #4]
 80047b2:	687b      	ldr	r3, [r7, #4]
 80047b4:	63da      	str	r2, [r3, #60]	; 0x3c
 80047b6:	687b      	ldr	r3, [r7, #4]
 80047b8:	697a      	ldr	r2, [r7, #20]
 80047ba:	621a      	str	r2, [r3, #32]
 80047bc:	bf00      	nop
 80047be:	371c      	adds	r7, #28
 80047c0:	46bd      	mov	sp, r7
 80047c2:	bc80      	pop	{r7}
 80047c4:	4770      	bx	lr
 80047c6:	bf00      	nop
 80047c8:	40012c00 	.word	0x40012c00

080047cc <TIM_OC4_SetConfig>:
 80047cc:	b480      	push	{r7}
 80047ce:	b087      	sub	sp, #28
 80047d0:	af00      	add	r7, sp, #0
 80047d2:	6078      	str	r0, [r7, #4]
 80047d4:	6039      	str	r1, [r7, #0]
 80047d6:	687b      	ldr	r3, [r7, #4]
 80047d8:	6a1b      	ldr	r3, [r3, #32]
 80047da:	f423 5280 	bic.w	r2, r3, #4096	; 0x1000
 80047de:	687b      	ldr	r3, [r7, #4]
 80047e0:	621a      	str	r2, [r3, #32]
 80047e2:	687b      	ldr	r3, [r7, #4]
 80047e4:	6a1b      	ldr	r3, [r3, #32]
 80047e6:	613b      	str	r3, [r7, #16]
 80047e8:	687b      	ldr	r3, [r7, #4]
 80047ea:	685b      	ldr	r3, [r3, #4]
 80047ec:	617b      	str	r3, [r7, #20]
 80047ee:	687b      	ldr	r3, [r7, #4]
 80047f0:	69db      	ldr	r3, [r3, #28]
 80047f2:	60fb      	str	r3, [r7, #12]
 80047f4:	68fb      	ldr	r3, [r7, #12]
 80047f6:	f423 43e0 	bic.w	r3, r3, #28672	; 0x7000
 80047fa:	60fb      	str	r3, [r7, #12]
 80047fc:	68fb      	ldr	r3, [r7, #12]
 80047fe:	f423 7340 	bic.w	r3, r3, #768	; 0x300
 8004802:	60fb      	str	r3, [r7, #12]
 8004804:	683b      	ldr	r3, [r7, #0]
 8004806:	681b      	ldr	r3, [r3, #0]
 8004808:	021b      	lsls	r3, r3, #8
 800480a:	68fa      	ldr	r2, [r7, #12]
 800480c:	4313      	orrs	r3, r2
 800480e:	60fb      	str	r3, [r7, #12]
 8004810:	693b      	ldr	r3, [r7, #16]
 8004812:	f423 5300 	bic.w	r3, r3, #8192	; 0x2000
 8004816:	613b      	str	r3, [r7, #16]
 8004818:	683b      	ldr	r3, [r7, #0]
 800481a:	689b      	ldr	r3, [r3, #8]
 800481c:	031b      	lsls	r3, r3, #12
 800481e:	693a      	ldr	r2, [r7, #16]
 8004820:	4313      	orrs	r3, r2
 8004822:	613b      	str	r3, [r7, #16]
 8004824:	687b      	ldr	r3, [r7, #4]
 8004826:	4a0f      	ldr	r2, [pc, #60]	; (8004864 <TIM_OC4_SetConfig+0x98>)
 8004828:	4293      	cmp	r3, r2
 800482a:	d109      	bne.n	8004840 <TIM_OC4_SetConfig+0x74>
 800482c:	697b      	ldr	r3, [r7, #20]
 800482e:	f423 4380 	bic.w	r3, r3, #16384	; 0x4000
 8004832:	617b      	str	r3, [r7, #20]
 8004834:	683b      	ldr	r3, [r7, #0]
 8004836:	695b      	ldr	r3, [r3, #20]
 8004838:	019b      	lsls	r3, r3, #6
 800483a:	697a      	ldr	r2, [r7, #20]
 800483c:	4313      	orrs	r3, r2
 800483e:	617b      	str	r3, [r7, #20]
 8004840:	687b      	ldr	r3, [r7, #4]
 8004842:	697a      	ldr	r2, [r7, #20]
 8004844:	605a      	str	r2, [r3, #4]
 8004846:	687b      	ldr	r3, [r7, #4]
 8004848:	68fa      	ldr	r2, [r7, #12]
 800484a:	61da      	str	r2, [r3, #28]
 800484c:	683b      	ldr	r3, [r7, #0]
 800484e:	685a      	ldr	r2, [r3, #4]
 8004850:	687b      	ldr	r3, [r7, #4]
 8004852:	641a      	str	r2, [r3, #64]	; 0x40
 8004854:	687b      	ldr	r3, [r7, #4]
 8004856:	693a      	ldr	r2, [r7, #16]
 8004858:	621a      	str	r2, [r3, #32]
 800485a:	bf00      	nop
 800485c:	371c      	adds	r7, #28
 800485e:	46bd      	mov	sp, r7
 8004860:	bc80      	pop	{r7}
 8004862:	4770      	bx	lr
 8004864:	40012c00 	.word	0x40012c00

08004868 <TIM_TI1_ConfigInputStage>:
 8004868:	b480      	push	{r7}
 800486a:	b087      	sub	sp, #28
 800486c:	af00      	add	r7, sp, #0
 800486e:	60f8      	str	r0, [r7, #12]
 8004870:	60b9      	str	r1, [r7, #8]
 8004872:	607a      	str	r2, [r7, #4]
 8004874:	68fb      	ldr	r3, [r7, #12]
 8004876:	6a1b      	ldr	r3, [r3, #32]
 8004878:	617b      	str	r3, [r7, #20]
 800487a:	68fb      	ldr	r3, [r7, #12]
 800487c:	6a1b      	ldr	r3, [r3, #32]
 800487e:	f023 0201 	bic.w	r2, r3, #1
 8004882:	68fb      	ldr	r3, [r7, #12]
 8004884:	621a      	str	r2, [r3, #32]
 8004886:	68fb      	ldr	r3, [r7, #12]
 8004888:	699b      	ldr	r3, [r3, #24]
 800488a:	613b      	str	r3, [r7, #16]
 800488c:	693b      	ldr	r3, [r7, #16]
 800488e:	f023 03f0 	bic.w	r3, r3, #240	; 0xf0
 8004892:	613b      	str	r3, [r7, #16]
 8004894:	687b      	ldr	r3, [r7, #4]
 8004896:	011b      	lsls	r3, r3, #4
 8004898:	693a      	ldr	r2, [r7, #16]
 800489a:	4313      	orrs	r3, r2
 800489c:	613b      	str	r3, [r7, #16]
 800489e:	697b      	ldr	r3, [r7, #20]
 80048a0:	f023 030a 	bic.w	r3, r3, #10
 80048a4:	617b      	str	r3, [r7, #20]
 80048a6:	697a      	ldr	r2, [r7, #20]
 80048a8:	68bb      	ldr	r3, [r7, #8]
 80048aa:	4313      	orrs	r3, r2
 80048ac:	617b      	str	r3, [r7, #20]
 80048ae:	68fb      	ldr	r3, [r7, #12]
 80048b0:	693a      	ldr	r2, [r7, #16]
 80048b2:	619a      	str	r2, [r3, #24]
 80048b4:	68fb      	ldr	r3, [r7, #12]
 80048b6:	697a      	ldr	r2, [r7, #20]
 80048b8:	621a      	str	r2, [r3, #32]
 80048ba:	bf00      	nop
 80048bc:	371c      	adds	r7, #28
 80048be:	46bd      	mov	sp, r7
 80048c0:	bc80      	pop	{r7}
 80048c2:	4770      	bx	lr

080048c4 <TIM_TI2_ConfigInputStage>:
 80048c4:	b480      	push	{r7}
 80048c6:	b087      	sub	sp, #28
 80048c8:	af00      	add	r7, sp, #0
 80048ca:	60f8      	str	r0, [r7, #12]
 80048cc:	60b9      	str	r1, [r7, #8]
 80048ce:	607a      	str	r2, [r7, #4]
 80048d0:	68fb      	ldr	r3, [r7, #12]
 80048d2:	6a1b      	ldr	r3, [r3, #32]
 80048d4:	f023 0210 	bic.w	r2, r3, #16
 80048d8:	68fb      	ldr	r3, [r7, #12]
 80048da:	621a      	str	r2, [r3, #32]
 80048dc:	68fb      	ldr	r3, [r7, #12]
 80048de:	699b      	ldr	r3, [r3, #24]
 80048e0:	617b      	str	r3, [r7, #20]
 80048e2:	68fb      	ldr	r3, [r7, #12]
 80048e4:	6a1b      	ldr	r3, [r3, #32]
 80048e6:	613b      	str	r3, [r7, #16]
 80048e8:	697b      	ldr	r3, [r7, #20]
 80048ea:	f423 4370 	bic.w	r3, r3, #61440	; 0xf000
 80048ee:	617b      	str	r3, [r7, #20]
 80048f0:	687b      	ldr	r3, [r7, #4]
 80048f2:	031b      	lsls	r3, r3, #12
 80048f4:	697a      	ldr	r2, [r7, #20]
 80048f6:	4313      	orrs	r3, r2
 80048f8:	617b      	str	r3, [r7, #20]
 80048fa:	693b      	ldr	r3, [r7, #16]
 80048fc:	f023 03a0 	bic.w	r3, r3, #160	; 0xa0
 8004900:	613b      	str	r3, [r7, #16]
 8004902:	68bb      	ldr	r3, [r7, #8]
 8004904:	011b      	lsls	r3, r3, #4
 8004906:	693a      	ldr	r2, [r7, #16]
 8004908:	4313      	orrs	r3, r2
 800490a:	613b      	str	r3, [r7, #16]
 800490c:	68fb      	ldr	r3, [r7, #12]
 800490e:	697a      	ldr	r2, [r7, #20]
 8004910:	619a      	str	r2, [r3, #24]
 8004912:	68fb      	ldr	r3, [r7, #12]
 8004914:	693a      	ldr	r2, [r7, #16]
 8004916:	621a      	str	r2, [r3, #32]
 8004918:	bf00      	nop
 800491a:	371c      	adds	r7, #28
 800491c:	46bd      	mov	sp, r7
 800491e:	bc80      	pop	{r7}
 8004920:	4770      	bx	lr

08004922 <TIM_ITRx_SetConfig>:
 8004922:	b480      	push	{r7}
 8004924:	b085      	sub	sp, #20
 8004926:	af00      	add	r7, sp, #0
 8004928:	6078      	str	r0, [r7, #4]
 800492a:	6039      	str	r1, [r7, #0]
 800492c:	687b      	ldr	r3, [r7, #4]
 800492e:	689b      	ldr	r3, [r3, #8]
 8004930:	60fb      	str	r3, [r7, #12]
 8004932:	68fb      	ldr	r3, [r7, #12]
 8004934:	f023 0370 	bic.w	r3, r3, #112	; 0x70
 8004938:	60fb      	str	r3, [r7, #12]
 800493a:	683a      	ldr	r2, [r7, #0]
 800493c:	68fb      	ldr	r3, [r7, #12]
 800493e:	4313      	orrs	r3, r2
 8004940:	f043 0307 	orr.w	r3, r3, #7
 8004944:	60fb      	str	r3, [r7, #12]
 8004946:	687b      	ldr	r3, [r7, #4]
 8004948:	68fa      	ldr	r2, [r7, #12]
 800494a:	609a      	str	r2, [r3, #8]
 800494c:	bf00      	nop
 800494e:	3714      	adds	r7, #20
 8004950:	46bd      	mov	sp, r7
 8004952:	bc80      	pop	{r7}
 8004954:	4770      	bx	lr

08004956 <TIM_ETR_SetConfig>:
 8004956:	b480      	push	{r7}
 8004958:	b087      	sub	sp, #28
 800495a:	af00      	add	r7, sp, #0
 800495c:	60f8      	str	r0, [r7, #12]
 800495e:	60b9      	str	r1, [r7, #8]
 8004960:	607a      	str	r2, [r7, #4]
 8004962:	603b      	str	r3, [r7, #0]
 8004964:	68fb      	ldr	r3, [r7, #12]
 8004966:	689b      	ldr	r3, [r3, #8]
 8004968:	617b      	str	r3, [r7, #20]
 800496a:	697b      	ldr	r3, [r7, #20]
 800496c:	f423 437f 	bic.w	r3, r3, #65280	; 0xff00
 8004970:	617b      	str	r3, [r7, #20]
 8004972:	683b      	ldr	r3, [r7, #0]
 8004974:	021a      	lsls	r2, r3, #8
 8004976:	687b      	ldr	r3, [r7, #4]
 8004978:	431a      	orrs	r2, r3
 800497a:	68bb      	ldr	r3, [r7, #8]
 800497c:	4313      	orrs	r3, r2
 800497e:	697a      	ldr	r2, [r7, #20]
 8004980:	4313      	orrs	r3, r2
 8004982:	617b      	str	r3, [r7, #20]
 8004984:	68fb      	ldr	r3, [r7, #12]
 8004986:	697a      	ldr	r2, [r7, #20]
 8004988:	609a      	str	r2, [r3, #8]
 800498a:	bf00      	nop
 800498c:	371c      	adds	r7, #28
 800498e:	46bd      	mov	sp, r7
 8004990:	bc80      	pop	{r7}
 8004992:	4770      	bx	lr

08004994 <TIM_CCxChannelCmd>:
 8004994:	b480      	push	{r7}
 8004996:	b087      	sub	sp, #28
 8004998:	af00      	add	r7, sp, #0
 800499a:	60f8      	str	r0, [r7, #12]
 800499c:	60b9      	str	r1, [r7, #8]
 800499e:	607a      	str	r2, [r7, #4]
 80049a0:	68bb      	ldr	r3, [r7, #8]
 80049a2:	f003 031f 	and.w	r3, r3, #31
 80049a6:	2201      	movs	r2, #1
 80049a8:	fa02 f303 	lsl.w	r3, r2, r3
 80049ac:	617b      	str	r3, [r7, #20]
 80049ae:	68fb      	ldr	r3, [r7, #12]
 80049b0:	6a1a      	ldr	r2, [r3, #32]
 80049b2:	697b      	ldr	r3, [r7, #20]
 80049b4:	43db      	mvns	r3, r3
 80049b6:	401a      	ands	r2, r3
 80049b8:	68fb      	ldr	r3, [r7, #12]
 80049ba:	621a      	str	r2, [r3, #32]
 80049bc:	68fb      	ldr	r3, [r7, #12]
 80049be:	6a1a      	ldr	r2, [r3, #32]
 80049c0:	68bb      	ldr	r3, [r7, #8]
 80049c2:	f003 031f 	and.w	r3, r3, #31
 80049c6:	6879      	ldr	r1, [r7, #4]
 80049c8:	fa01 f303 	lsl.w	r3, r1, r3
 80049cc:	431a      	orrs	r2, r3
 80049ce:	68fb      	ldr	r3, [r7, #12]
 80049d0:	621a      	str	r2, [r3, #32]
 80049d2:	bf00      	nop
 80049d4:	371c      	adds	r7, #28
 80049d6:	46bd      	mov	sp, r7
 80049d8:	bc80      	pop	{r7}
 80049da:	4770      	bx	lr

080049dc <HAL_TIMEx_MasterConfigSynchronization>:
 80049dc:	b480      	push	{r7}
 80049de:	b085      	sub	sp, #20
 80049e0:	af00      	add	r7, sp, #0
 80049e2:	6078      	str	r0, [r7, #4]
 80049e4:	6039      	str	r1, [r7, #0]
 80049e6:	687b      	ldr	r3, [r7, #4]
 80049e8:	f893 303c 	ldrb.w	r3, [r3, #60]	; 0x3c
 80049ec:	2b01      	cmp	r3, #1
 80049ee:	d101      	bne.n	80049f4 <HAL_TIMEx_MasterConfigSynchronization+0x18>
 80049f0:	2302      	movs	r3, #2
 80049f2:	e046      	b.n	8004a82 <HAL_TIMEx_MasterConfigSynchronization+0xa6>
 80049f4:	687b      	ldr	r3, [r7, #4]
 80049f6:	2201      	movs	r2, #1
 80049f8:	f883 203c 	strb.w	r2, [r3, #60]	; 0x3c
 80049fc:	687b      	ldr	r3, [r7, #4]
 80049fe:	2202      	movs	r2, #2
 8004a00:	f883 203d 	strb.w	r2, [r3, #61]	; 0x3d
 8004a04:	687b      	ldr	r3, [r7, #4]
 8004a06:	681b      	ldr	r3, [r3, #0]
 8004a08:	685b      	ldr	r3, [r3, #4]
 8004a0a:	60fb      	str	r3, [r7, #12]
 8004a0c:	687b      	ldr	r3, [r7, #4]
 8004a0e:	681b      	ldr	r3, [r3, #0]
 8004a10:	689b      	ldr	r3, [r3, #8]
 8004a12:	60bb      	str	r3, [r7, #8]
 8004a14:	68fb      	ldr	r3, [r7, #12]
 8004a16:	f023 0370 	bic.w	r3, r3, #112	; 0x70
 8004a1a:	60fb      	str	r3, [r7, #12]
 8004a1c:	683b      	ldr	r3, [r7, #0]
 8004a1e:	681b      	ldr	r3, [r3, #0]
 8004a20:	68fa      	ldr	r2, [r7, #12]
 8004a22:	4313      	orrs	r3, r2
 8004a24:	60fb      	str	r3, [r7, #12]
 8004a26:	687b      	ldr	r3, [r7, #4]
 8004a28:	681b      	ldr	r3, [r3, #0]
 8004a2a:	68fa      	ldr	r2, [r7, #12]
 8004a2c:	605a      	str	r2, [r3, #4]
 8004a2e:	687b      	ldr	r3, [r7, #4]
 8004a30:	681b      	ldr	r3, [r3, #0]
 8004a32:	4a16      	ldr	r2, [pc, #88]	; (8004a8c <HAL_TIMEx_MasterConfigSynchronization+0xb0>)
 8004a34:	4293      	cmp	r3, r2
 8004a36:	d00e      	beq.n	8004a56 <HAL_TIMEx_MasterConfigSynchronization+0x7a>
 8004a38:	687b      	ldr	r3, [r7, #4]
 8004a3a:	681b      	ldr	r3, [r3, #0]
 8004a3c:	f1b3 4f80 	cmp.w	r3, #1073741824	; 0x40000000
 8004a40:	d009      	beq.n	8004a56 <HAL_TIMEx_MasterConfigSynchronization+0x7a>
 8004a42:	687b      	ldr	r3, [r7, #4]
 8004a44:	681b      	ldr	r3, [r3, #0]
 8004a46:	4a12      	ldr	r2, [pc, #72]	; (8004a90 <HAL_TIMEx_MasterConfigSynchronization+0xb4>)
 8004a48:	4293      	cmp	r3, r2
 8004a4a:	d004      	beq.n	8004a56 <HAL_TIMEx_MasterConfigSynchronization+0x7a>
 8004a4c:	687b      	ldr	r3, [r7, #4]
 8004a4e:	681b      	ldr	r3, [r3, #0]
 8004a50:	4a10      	ldr	r2, [pc, #64]	; (8004a94 <HAL_TIMEx_MasterConfigSynchronization+0xb8>)
 8004a52:	4293      	cmp	r3, r2
 8004a54:	d10c      	bne.n	8004a70 <HAL_TIMEx_MasterConfigSynchronization+0x94>
 8004a56:	68bb      	ldr	r3, [r7, #8]
 8004a58:	f023 0380 	bic.w	r3, r3, #128	; 0x80
 8004a5c:	60bb      	str	r3, [r7, #8]
 8004a5e:	683b      	ldr	r3, [r7, #0]
 8004a60:	685b      	ldr	r3, [r3, #4]
 8004a62:	68ba      	ldr	r2, [r7, #8]
 8004a64:	4313      	orrs	r3, r2
 8004a66:	60bb      	str	r3, [r7, #8]
 8004a68:	687b      	ldr	r3, [r7, #4]
 8004a6a:	681b      	ldr	r3, [r3, #0]
 8004a6c:	68ba      	ldr	r2, [r7, #8]
 8004a6e:	609a      	str	r2, [r3, #8]
 8004a70:	687b      	ldr	r3, [r7, #4]
 8004a72:	2201      	movs	r2, #1
 8004a74:	f883 203d 	strb.w	r2, [r3, #61]	; 0x3d
 8004a78:	687b      	ldr	r3, [r7, #4]
 8004a7a:	2200      	movs	r2, #0
 8004a7c:	f883 203c 	strb.w	r2, [r3, #60]	; 0x3c
 8004a80:	2300      	movs	r3, #0
 8004a82:	4618      	mov	r0, r3
 8004a84:	3714      	adds	r7, #20
 8004a86:	46bd      	mov	sp, r7
 8004a88:	bc80      	pop	{r7}
 8004a8a:	4770      	bx	lr
 8004a8c:	40012c00 	.word	0x40012c00
 8004a90:	40000400 	.word	0x40000400
 8004a94:	40000800 	.word	0x40000800

08004a98 <HAL_TIMEx_ConfigBreakDeadTime>:
 8004a98:	b480      	push	{r7}
 8004a9a:	b085      	sub	sp, #20
 8004a9c:	af00      	add	r7, sp, #0
 8004a9e:	6078      	str	r0, [r7, #4]
 8004aa0:	6039      	str	r1, [r7, #0]
 8004aa2:	2300      	movs	r3, #0
 8004aa4:	60fb      	str	r3, [r7, #12]
 8004aa6:	687b      	ldr	r3, [r7, #4]
 8004aa8:	f893 303c 	ldrb.w	r3, [r3, #60]	; 0x3c
 8004aac:	2b01      	cmp	r3, #1
 8004aae:	d101      	bne.n	8004ab4 <HAL_TIMEx_ConfigBreakDeadTime+0x1c>
 8004ab0:	2302      	movs	r3, #2
 8004ab2:	e03d      	b.n	8004b30 <HAL_TIMEx_ConfigBreakDeadTime+0x98>
 8004ab4:	687b      	ldr	r3, [r7, #4]
 8004ab6:	2201      	movs	r2, #1
 8004ab8:	f883 203c 	strb.w	r2, [r3, #60]	; 0x3c
 8004abc:	68fb      	ldr	r3, [r7, #12]
 8004abe:	f023 02ff 	bic.w	r2, r3, #255	; 0xff
 8004ac2:	683b      	ldr	r3, [r7, #0]
 8004ac4:	68db      	ldr	r3, [r3, #12]
 8004ac6:	4313      	orrs	r3, r2
 8004ac8:	60fb      	str	r3, [r7, #12]
 8004aca:	68fb      	ldr	r3, [r7, #12]
 8004acc:	f423 7240 	bic.w	r2, r3, #768	; 0x300
 8004ad0:	683b      	ldr	r3, [r7, #0]
 8004ad2:	689b      	ldr	r3, [r3, #8]
 8004ad4:	4313      	orrs	r3, r2
 8004ad6:	60fb      	str	r3, [r7, #12]
 8004ad8:	68fb      	ldr	r3, [r7, #12]
 8004ada:	f423 6280 	bic.w	r2, r3, #1024	; 0x400
 8004ade:	683b      	ldr	r3, [r7, #0]
 8004ae0:	685b      	ldr	r3, [r3, #4]
 8004ae2:	4313      	orrs	r3, r2
 8004ae4:	60fb      	str	r3, [r7, #12]
 8004ae6:	68fb      	ldr	r3, [r7, #12]
 8004ae8:	f423 6200 	bic.w	r2, r3, #2048	; 0x800
 8004aec:	683b      	ldr	r3, [r7, #0]
 8004aee:	681b      	ldr	r3, [r3, #0]
 8004af0:	4313      	orrs	r3, r2
 8004af2:	60fb      	str	r3, [r7, #12]
 8004af4:	68fb      	ldr	r3, [r7, #12]
 8004af6:	f423 5280 	bic.w	r2, r3, #4096	; 0x1000
 8004afa:	683b      	ldr	r3, [r7, #0]
 8004afc:	691b      	ldr	r3, [r3, #16]
 8004afe:	4313      	orrs	r3, r2
 8004b00:	60fb      	str	r3, [r7, #12]
 8004b02:	68fb      	ldr	r3, [r7, #12]
 8004b04:	f423 5200 	bic.w	r2, r3, #8192	; 0x2000
 8004b08:	683b      	ldr	r3, [r7, #0]
 8004b0a:	695b      	ldr	r3, [r3, #20]
 8004b0c:	4313      	orrs	r3, r2
 8004b0e:	60fb      	str	r3, [r7, #12]
 8004b10:	68fb      	ldr	r3, [r7, #12]
 8004b12:	f423 4280 	bic.w	r2, r3, #16384	; 0x4000
 8004b16:	683b      	ldr	r3, [r7, #0]
 8004b18:	69db      	ldr	r3, [r3, #28]
 8004b1a:	4313      	orrs	r3, r2
 8004b1c:	60fb      	str	r3, [r7, #12]
 8004b1e:	687b      	ldr	r3, [r7, #4]
 8004b20:	681b      	ldr	r3, [r3, #0]
 8004b22:	68fa      	ldr	r2, [r7, #12]
 8004b24:	645a      	str	r2, [r3, #68]	; 0x44
 8004b26:	687b      	ldr	r3, [r7, #4]
 8004b28:	2200      	movs	r2, #0
 8004b2a:	f883 203c 	strb.w	r2, [r3, #60]	; 0x3c
 8004b2e:	2300      	movs	r3, #0
 8004b30:	4618      	mov	r0, r3
 8004b32:	3714      	adds	r7, #20
 8004b34:	46bd      	mov	sp, r7
 8004b36:	bc80      	pop	{r7}
 8004b38:	4770      	bx	lr

08004b3a <HAL_TIMEx_CommutCallback>:
 8004b3a:	b480      	push	{r7}
 8004b3c:	b083      	sub	sp, #12
 8004b3e:	af00      	add	r7, sp, #0
 8004b40:	6078      	str	r0, [r7, #4]
 8004b42:	bf00      	nop
 8004b44:	370c      	adds	r7, #12
 8004b46:	46bd      	mov	sp, r7
 8004b48:	bc80      	pop	{r7}
 8004b4a:	4770      	bx	lr

08004b4c <HAL_TIMEx_BreakCallback>:
 8004b4c:	b480      	push	{r7}
 8004b4e:	b083      	sub	sp, #12
 8004b50:	af00      	add	r7, sp, #0
 8004b52:	6078      	str	r0, [r7, #4]
 8004b54:	bf00      	nop
 8004b56:	370c      	adds	r7, #12
 8004b58:	46bd      	mov	sp, r7
 8004b5a:	bc80      	pop	{r7}
 8004b5c:	4770      	bx	lr

08004b5e <HAL_UART_Init>:
 8004b5e:	b580      	push	{r7, lr}
 8004b60:	b082      	sub	sp, #8
 8004b62:	af00      	add	r7, sp, #0
 8004b64:	6078      	str	r0, [r7, #4]
 8004b66:	687b      	ldr	r3, [r7, #4]
 8004b68:	2b00      	cmp	r3, #0
 8004b6a:	d101      	bne.n	8004b70 <HAL_UART_Init+0x12>
 8004b6c:	2301      	movs	r3, #1
 8004b6e:	e03f      	b.n	8004bf0 <HAL_UART_Init+0x92>
 8004b70:	687b      	ldr	r3, [r7, #4]
 8004b72:	f893 303d 	ldrb.w	r3, [r3, #61]	; 0x3d
 8004b76:	b2db      	uxtb	r3, r3
 8004b78:	2b00      	cmp	r3, #0
 8004b7a:	d106      	bne.n	8004b8a <HAL_UART_Init+0x2c>
 8004b7c:	687b      	ldr	r3, [r7, #4]
 8004b7e:	2200      	movs	r2, #0
 8004b80:	f883 203c 	strb.w	r2, [r3, #60]	; 0x3c
 8004b84:	6878      	ldr	r0, [r7, #4]
 8004b86:	f7fc fa4b 	bl	8001020 <HAL_UART_MspInit>
 8004b8a:	687b      	ldr	r3, [r7, #4]
 8004b8c:	2224      	movs	r2, #36	; 0x24
 8004b8e:	f883 203d 	strb.w	r2, [r3, #61]	; 0x3d
 8004b92:	687b      	ldr	r3, [r7, #4]
 8004b94:	681b      	ldr	r3, [r3, #0]
 8004b96:	68da      	ldr	r2, [r3, #12]
 8004b98:	687b      	ldr	r3, [r7, #4]
 8004b9a:	681b      	ldr	r3, [r3, #0]
 8004b9c:	f422 5200 	bic.w	r2, r2, #8192	; 0x2000
 8004ba0:	60da      	str	r2, [r3, #12]
 8004ba2:	6878      	ldr	r0, [r7, #4]
 8004ba4:	f000 f904 	bl	8004db0 <UART_SetConfig>
 8004ba8:	687b      	ldr	r3, [r7, #4]
 8004baa:	681b      	ldr	r3, [r3, #0]
 8004bac:	691a      	ldr	r2, [r3, #16]
 8004bae:	687b      	ldr	r3, [r7, #4]
 8004bb0:	681b      	ldr	r3, [r3, #0]
 8004bb2:	f422 4290 	bic.w	r2, r2, #18432	; 0x4800
 8004bb6:	611a      	str	r2, [r3, #16]
 8004bb8:	687b      	ldr	r3, [r7, #4]
 8004bba:	681b      	ldr	r3, [r3, #0]
 8004bbc:	695a      	ldr	r2, [r3, #20]
 8004bbe:	687b      	ldr	r3, [r7, #4]
 8004bc0:	681b      	ldr	r3, [r3, #0]
 8004bc2:	f022 022a 	bic.w	r2, r2, #42	; 0x2a
 8004bc6:	615a      	str	r2, [r3, #20]
 8004bc8:	687b      	ldr	r3, [r7, #4]
 8004bca:	681b      	ldr	r3, [r3, #0]
 8004bcc:	68da      	ldr	r2, [r3, #12]
 8004bce:	687b      	ldr	r3, [r7, #4]
 8004bd0:	681b      	ldr	r3, [r3, #0]
 8004bd2:	f442 5200 	orr.w	r2, r2, #8192	; 0x2000
 8004bd6:	60da      	str	r2, [r3, #12]
 8004bd8:	687b      	ldr	r3, [r7, #4]
 8004bda:	2200      	movs	r2, #0
 8004bdc:	641a      	str	r2, [r3, #64]	; 0x40
 8004bde:	687b      	ldr	r3, [r7, #4]
 8004be0:	2220      	movs	r2, #32
 8004be2:	f883 203d 	strb.w	r2, [r3, #61]	; 0x3d
 8004be6:	687b      	ldr	r3, [r7, #4]
 8004be8:	2220      	movs	r2, #32
 8004bea:	f883 203e 	strb.w	r2, [r3, #62]	; 0x3e
 8004bee:	2300      	movs	r3, #0
 8004bf0:	4618      	mov	r0, r3
 8004bf2:	3708      	adds	r7, #8
 8004bf4:	46bd      	mov	sp, r7
 8004bf6:	bd80      	pop	{r7, pc}

08004bf8 <HAL_UART_Transmit>:
 8004bf8:	b580      	push	{r7, lr}
 8004bfa:	b08a      	sub	sp, #40	; 0x28
 8004bfc:	af02      	add	r7, sp, #8
 8004bfe:	60f8      	str	r0, [r7, #12]
 8004c00:	60b9      	str	r1, [r7, #8]
 8004c02:	603b      	str	r3, [r7, #0]
 8004c04:	4613      	mov	r3, r2
 8004c06:	80fb      	strh	r3, [r7, #6]
 8004c08:	2300      	movs	r3, #0
 8004c0a:	617b      	str	r3, [r7, #20]
 8004c0c:	68fb      	ldr	r3, [r7, #12]
 8004c0e:	f893 303d 	ldrb.w	r3, [r3, #61]	; 0x3d
 8004c12:	b2db      	uxtb	r3, r3
 8004c14:	2b20      	cmp	r3, #32
 8004c16:	d17c      	bne.n	8004d12 <HAL_UART_Transmit+0x11a>
 8004c18:	68bb      	ldr	r3, [r7, #8]
 8004c1a:	2b00      	cmp	r3, #0
 8004c1c:	d002      	beq.n	8004c24 <HAL_UART_Transmit+0x2c>
 8004c1e:	88fb      	ldrh	r3, [r7, #6]
 8004c20:	2b00      	cmp	r3, #0
 8004c22:	d101      	bne.n	8004c28 <HAL_UART_Transmit+0x30>
 8004c24:	2301      	movs	r3, #1
 8004c26:	e075      	b.n	8004d14 <HAL_UART_Transmit+0x11c>
 8004c28:	68fb      	ldr	r3, [r7, #12]
 8004c2a:	f893 303c 	ldrb.w	r3, [r3, #60]	; 0x3c
 8004c2e:	2b01      	cmp	r3, #1
 8004c30:	d101      	bne.n	8004c36 <HAL_UART_Transmit+0x3e>
 8004c32:	2302      	movs	r3, #2
 8004c34:	e06e      	b.n	8004d14 <HAL_UART_Transmit+0x11c>
 8004c36:	68fb      	ldr	r3, [r7, #12]
 8004c38:	2201      	movs	r2, #1
 8004c3a:	f883 203c 	strb.w	r2, [r3, #60]	; 0x3c
 8004c3e:	68fb      	ldr	r3, [r7, #12]
 8004c40:	2200      	movs	r2, #0
 8004c42:	641a      	str	r2, [r3, #64]	; 0x40
 8004c44:	68fb      	ldr	r3, [r7, #12]
 8004c46:	2221      	movs	r2, #33	; 0x21
 8004c48:	f883 203d 	strb.w	r2, [r3, #61]	; 0x3d
 8004c4c:	f7fc fba6 	bl	800139c <HAL_GetTick>
 8004c50:	6178      	str	r0, [r7, #20]
 8004c52:	68fb      	ldr	r3, [r7, #12]
 8004c54:	88fa      	ldrh	r2, [r7, #6]
 8004c56:	849a      	strh	r2, [r3, #36]	; 0x24
 8004c58:	68fb      	ldr	r3, [r7, #12]
 8004c5a:	88fa      	ldrh	r2, [r7, #6]
 8004c5c:	84da      	strh	r2, [r3, #38]	; 0x26
 8004c5e:	68fb      	ldr	r3, [r7, #12]
 8004c60:	689b      	ldr	r3, [r3, #8]
 8004c62:	f5b3 5f80 	cmp.w	r3, #4096	; 0x1000
 8004c66:	d108      	bne.n	8004c7a <HAL_UART_Transmit+0x82>
 8004c68:	68fb      	ldr	r3, [r7, #12]
 8004c6a:	691b      	ldr	r3, [r3, #16]
 8004c6c:	2b00      	cmp	r3, #0
 8004c6e:	d104      	bne.n	8004c7a <HAL_UART_Transmit+0x82>
 8004c70:	2300      	movs	r3, #0
 8004c72:	61fb      	str	r3, [r7, #28]
 8004c74:	68bb      	ldr	r3, [r7, #8]
 8004c76:	61bb      	str	r3, [r7, #24]
 8004c78:	e003      	b.n	8004c82 <HAL_UART_Transmit+0x8a>
 8004c7a:	68bb      	ldr	r3, [r7, #8]
 8004c7c:	61fb      	str	r3, [r7, #28]
 8004c7e:	2300      	movs	r3, #0
 8004c80:	61bb      	str	r3, [r7, #24]
 8004c82:	68fb      	ldr	r3, [r7, #12]
 8004c84:	2200      	movs	r2, #0
 8004c86:	f883 203c 	strb.w	r2, [r3, #60]	; 0x3c
 8004c8a:	e02a      	b.n	8004ce2 <HAL_UART_Transmit+0xea>
 8004c8c:	683b      	ldr	r3, [r7, #0]
 8004c8e:	9300      	str	r3, [sp, #0]
 8004c90:	697b      	ldr	r3, [r7, #20]
 8004c92:	2200      	movs	r2, #0
 8004c94:	2180      	movs	r1, #128	; 0x80
 8004c96:	68f8      	ldr	r0, [r7, #12]
 8004c98:	f000 f840 	bl	8004d1c <UART_WaitOnFlagUntilTimeout>
 8004c9c:	4603      	mov	r3, r0
 8004c9e:	2b00      	cmp	r3, #0
 8004ca0:	d001      	beq.n	8004ca6 <HAL_UART_Transmit+0xae>
 8004ca2:	2303      	movs	r3, #3
 8004ca4:	e036      	b.n	8004d14 <HAL_UART_Transmit+0x11c>
 8004ca6:	69fb      	ldr	r3, [r7, #28]
 8004ca8:	2b00      	cmp	r3, #0
 8004caa:	d10b      	bne.n	8004cc4 <HAL_UART_Transmit+0xcc>
 8004cac:	69bb      	ldr	r3, [r7, #24]
 8004cae:	881b      	ldrh	r3, [r3, #0]
 8004cb0:	461a      	mov	r2, r3
 8004cb2:	68fb      	ldr	r3, [r7, #12]
 8004cb4:	681b      	ldr	r3, [r3, #0]
 8004cb6:	f3c2 0208 	ubfx	r2, r2, #0, #9
 8004cba:	605a      	str	r2, [r3, #4]
 8004cbc:	69bb      	ldr	r3, [r7, #24]
 8004cbe:	3302      	adds	r3, #2
 8004cc0:	61bb      	str	r3, [r7, #24]
 8004cc2:	e007      	b.n	8004cd4 <HAL_UART_Transmit+0xdc>
 8004cc4:	69fb      	ldr	r3, [r7, #28]
 8004cc6:	781a      	ldrb	r2, [r3, #0]
 8004cc8:	68fb      	ldr	r3, [r7, #12]
 8004cca:	681b      	ldr	r3, [r3, #0]
 8004ccc:	605a      	str	r2, [r3, #4]
 8004cce:	69fb      	ldr	r3, [r7, #28]
 8004cd0:	3301      	adds	r3, #1
 8004cd2:	61fb      	str	r3, [r7, #28]
 8004cd4:	68fb      	ldr	r3, [r7, #12]
 8004cd6:	8cdb      	ldrh	r3, [r3, #38]	; 0x26
 8004cd8:	b29b      	uxth	r3, r3
 8004cda:	3b01      	subs	r3, #1
 8004cdc:	b29a      	uxth	r2, r3
 8004cde:	68fb      	ldr	r3, [r7, #12]
 8004ce0:	84da      	strh	r2, [r3, #38]	; 0x26
 8004ce2:	68fb      	ldr	r3, [r7, #12]
 8004ce4:	8cdb      	ldrh	r3, [r3, #38]	; 0x26
 8004ce6:	b29b      	uxth	r3, r3
 8004ce8:	2b00      	cmp	r3, #0
 8004cea:	d1cf      	bne.n	8004c8c <HAL_UART_Transmit+0x94>
 8004cec:	683b      	ldr	r3, [r7, #0]
 8004cee:	9300      	str	r3, [sp, #0]
 8004cf0:	697b      	ldr	r3, [r7, #20]
 8004cf2:	2200      	movs	r2, #0
 8004cf4:	2140      	movs	r1, #64	; 0x40
 8004cf6:	68f8      	ldr	r0, [r7, #12]
 8004cf8:	f000 f810 	bl	8004d1c <UART_WaitOnFlagUntilTimeout>
 8004cfc:	4603      	mov	r3, r0
 8004cfe:	2b00      	cmp	r3, #0
 8004d00:	d001      	beq.n	8004d06 <HAL_UART_Transmit+0x10e>
 8004d02:	2303      	movs	r3, #3
 8004d04:	e006      	b.n	8004d14 <HAL_UART_Transmit+0x11c>
 8004d06:	68fb      	ldr	r3, [r7, #12]
 8004d08:	2220      	movs	r2, #32
 8004d0a:	f883 203d 	strb.w	r2, [r3, #61]	; 0x3d
 8004d0e:	2300      	movs	r3, #0
 8004d10:	e000      	b.n	8004d14 <HAL_UART_Transmit+0x11c>
 8004d12:	2302      	movs	r3, #2
 8004d14:	4618      	mov	r0, r3
 8004d16:	3720      	adds	r7, #32
 8004d18:	46bd      	mov	sp, r7
 8004d1a:	bd80      	pop	{r7, pc}

08004d1c <UART_WaitOnFlagUntilTimeout>:
 8004d1c:	b580      	push	{r7, lr}
 8004d1e:	b084      	sub	sp, #16
 8004d20:	af00      	add	r7, sp, #0
 8004d22:	60f8      	str	r0, [r7, #12]
 8004d24:	60b9      	str	r1, [r7, #8]
 8004d26:	603b      	str	r3, [r7, #0]
 8004d28:	4613      	mov	r3, r2
 8004d2a:	71fb      	strb	r3, [r7, #7]
 8004d2c:	e02c      	b.n	8004d88 <UART_WaitOnFlagUntilTimeout+0x6c>
 8004d2e:	69bb      	ldr	r3, [r7, #24]
 8004d30:	f1b3 3fff 	cmp.w	r3, #4294967295
 8004d34:	d028      	beq.n	8004d88 <UART_WaitOnFlagUntilTimeout+0x6c>
 8004d36:	69bb      	ldr	r3, [r7, #24]
 8004d38:	2b00      	cmp	r3, #0
 8004d3a:	d007      	beq.n	8004d4c <UART_WaitOnFlagUntilTimeout+0x30>
 8004d3c:	f7fc fb2e 	bl	800139c <HAL_GetTick>
 8004d40:	4602      	mov	r2, r0
 8004d42:	683b      	ldr	r3, [r7, #0]
 8004d44:	1ad3      	subs	r3, r2, r3
 8004d46:	69ba      	ldr	r2, [r7, #24]
 8004d48:	429a      	cmp	r2, r3
 8004d4a:	d21d      	bcs.n	8004d88 <UART_WaitOnFlagUntilTimeout+0x6c>
 8004d4c:	68fb      	ldr	r3, [r7, #12]
 8004d4e:	681b      	ldr	r3, [r3, #0]
 8004d50:	68da      	ldr	r2, [r3, #12]
 8004d52:	68fb      	ldr	r3, [r7, #12]
 8004d54:	681b      	ldr	r3, [r3, #0]
 8004d56:	f422 72d0 	bic.w	r2, r2, #416	; 0x1a0
 8004d5a:	60da      	str	r2, [r3, #12]
 8004d5c:	68fb      	ldr	r3, [r7, #12]
 8004d5e:	681b      	ldr	r3, [r3, #0]
 8004d60:	695a      	ldr	r2, [r3, #20]
 8004d62:	68fb      	ldr	r3, [r7, #12]
 8004d64:	681b      	ldr	r3, [r3, #0]
 8004d66:	f022 0201 	bic.w	r2, r2, #1
 8004d6a:	615a      	str	r2, [r3, #20]
 8004d6c:	68fb      	ldr	r3, [r7, #12]
 8004d6e:	2220      	movs	r2, #32
 8004d70:	f883 203d 	strb.w	r2, [r3, #61]	; 0x3d
 8004d74:	68fb      	ldr	r3, [r7, #12]
 8004d76:	2220      	movs	r2, #32
 8004d78:	f883 203e 	strb.w	r2, [r3, #62]	; 0x3e
 8004d7c:	68fb      	ldr	r3, [r7, #12]
 8004d7e:	2200      	movs	r2, #0
 8004d80:	f883 203c 	strb.w	r2, [r3, #60]	; 0x3c
 8004d84:	2303      	movs	r3, #3
 8004d86:	e00f      	b.n	8004da8 <UART_WaitOnFlagUntilTimeout+0x8c>
 8004d88:	68fb      	ldr	r3, [r7, #12]
 8004d8a:	681b      	ldr	r3, [r3, #0]
 8004d8c:	681a      	ldr	r2, [r3, #0]
 8004d8e:	68bb      	ldr	r3, [r7, #8]
 8004d90:	4013      	ands	r3, r2
 8004d92:	68ba      	ldr	r2, [r7, #8]
 8004d94:	429a      	cmp	r2, r3
 8004d96:	bf0c      	ite	eq
 8004d98:	2301      	moveq	r3, #1
 8004d9a:	2300      	movne	r3, #0
 8004d9c:	b2db      	uxtb	r3, r3
 8004d9e:	461a      	mov	r2, r3
 8004da0:	79fb      	ldrb	r3, [r7, #7]
 8004da2:	429a      	cmp	r2, r3
 8004da4:	d0c3      	beq.n	8004d2e <UART_WaitOnFlagUntilTimeout+0x12>
 8004da6:	2300      	movs	r3, #0
 8004da8:	4618      	mov	r0, r3
 8004daa:	3710      	adds	r7, #16
 8004dac:	46bd      	mov	sp, r7
 8004dae:	bd80      	pop	{r7, pc}

08004db0 <UART_SetConfig>:
 8004db0:	b580      	push	{r7, lr}
 8004db2:	b084      	sub	sp, #16
 8004db4:	af00      	add	r7, sp, #0
 8004db6:	6078      	str	r0, [r7, #4]
 8004db8:	687b      	ldr	r3, [r7, #4]
 8004dba:	681b      	ldr	r3, [r3, #0]
 8004dbc:	691b      	ldr	r3, [r3, #16]
 8004dbe:	f423 5140 	bic.w	r1, r3, #12288	; 0x3000
 8004dc2:	687b      	ldr	r3, [r7, #4]
 8004dc4:	68da      	ldr	r2, [r3, #12]
 8004dc6:	687b      	ldr	r3, [r7, #4]
 8004dc8:	681b      	ldr	r3, [r3, #0]
 8004dca:	430a      	orrs	r2, r1
 8004dcc:	611a      	str	r2, [r3, #16]
 8004dce:	687b      	ldr	r3, [r7, #4]
 8004dd0:	689a      	ldr	r2, [r3, #8]
 8004dd2:	687b      	ldr	r3, [r7, #4]
 8004dd4:	691b      	ldr	r3, [r3, #16]
 8004dd6:	431a      	orrs	r2, r3
 8004dd8:	687b      	ldr	r3, [r7, #4]
 8004dda:	695b      	ldr	r3, [r3, #20]
 8004ddc:	4313      	orrs	r3, r2
 8004dde:	60bb      	str	r3, [r7, #8]
 8004de0:	687b      	ldr	r3, [r7, #4]
 8004de2:	681b      	ldr	r3, [r3, #0]
 8004de4:	68db      	ldr	r3, [r3, #12]
 8004de6:	f423 53b0 	bic.w	r3, r3, #5632	; 0x1600
 8004dea:	f023 030c 	bic.w	r3, r3, #12
 8004dee:	687a      	ldr	r2, [r7, #4]
 8004df0:	6812      	ldr	r2, [r2, #0]
 8004df2:	68b9      	ldr	r1, [r7, #8]
 8004df4:	430b      	orrs	r3, r1
 8004df6:	60d3      	str	r3, [r2, #12]
 8004df8:	687b      	ldr	r3, [r7, #4]
 8004dfa:	681b      	ldr	r3, [r3, #0]
 8004dfc:	695b      	ldr	r3, [r3, #20]
 8004dfe:	f423 7140 	bic.w	r1, r3, #768	; 0x300
 8004e02:	687b      	ldr	r3, [r7, #4]
 8004e04:	699a      	ldr	r2, [r3, #24]
 8004e06:	687b      	ldr	r3, [r7, #4]
 8004e08:	681b      	ldr	r3, [r3, #0]
 8004e0a:	430a      	orrs	r2, r1
 8004e0c:	615a      	str	r2, [r3, #20]
 8004e0e:	687b      	ldr	r3, [r7, #4]
 8004e10:	681b      	ldr	r3, [r3, #0]
 8004e12:	4a2c      	ldr	r2, [pc, #176]	; (8004ec4 <UART_SetConfig+0x114>)
 8004e14:	4293      	cmp	r3, r2
 8004e16:	d103      	bne.n	8004e20 <UART_SetConfig+0x70>
 8004e18:	f7fe fb9c 	bl	8003554 <HAL_RCC_GetPCLK2Freq>
 8004e1c:	60f8      	str	r0, [r7, #12]
 8004e1e:	e002      	b.n	8004e26 <UART_SetConfig+0x76>
 8004e20:	f7fe fb84 	bl	800352c <HAL_RCC_GetPCLK1Freq>
 8004e24:	60f8      	str	r0, [r7, #12]
 8004e26:	68fa      	ldr	r2, [r7, #12]
 8004e28:	4613      	mov	r3, r2
 8004e2a:	009b      	lsls	r3, r3, #2
 8004e2c:	4413      	add	r3, r2
 8004e2e:	009a      	lsls	r2, r3, #2
 8004e30:	441a      	add	r2, r3
 8004e32:	687b      	ldr	r3, [r7, #4]
 8004e34:	685b      	ldr	r3, [r3, #4]
 8004e36:	009b      	lsls	r3, r3, #2
 8004e38:	fbb2 f3f3 	udiv	r3, r2, r3
 8004e3c:	4a22      	ldr	r2, [pc, #136]	; (8004ec8 <UART_SetConfig+0x118>)
 8004e3e:	fba2 2303 	umull	r2, r3, r2, r3
 8004e42:	095b      	lsrs	r3, r3, #5
 8004e44:	0119      	lsls	r1, r3, #4
 8004e46:	68fa      	ldr	r2, [r7, #12]
 8004e48:	4613      	mov	r3, r2
 8004e4a:	009b      	lsls	r3, r3, #2
 8004e4c:	4413      	add	r3, r2
 8004e4e:	009a      	lsls	r2, r3, #2
 8004e50:	441a      	add	r2, r3
 8004e52:	687b      	ldr	r3, [r7, #4]
 8004e54:	685b      	ldr	r3, [r3, #4]
 8004e56:	009b      	lsls	r3, r3, #2
 8004e58:	fbb2 f2f3 	udiv	r2, r2, r3
 8004e5c:	4b1a      	ldr	r3, [pc, #104]	; (8004ec8 <UART_SetConfig+0x118>)
 8004e5e:	fba3 0302 	umull	r0, r3, r3, r2
 8004e62:	095b      	lsrs	r3, r3, #5
 8004e64:	2064      	movs	r0, #100	; 0x64
 8004e66:	fb00 f303 	mul.w	r3, r0, r3
 8004e6a:	1ad3      	subs	r3, r2, r3
 8004e6c:	011b      	lsls	r3, r3, #4
 8004e6e:	3332      	adds	r3, #50	; 0x32
 8004e70:	4a15      	ldr	r2, [pc, #84]	; (8004ec8 <UART_SetConfig+0x118>)
 8004e72:	fba2 2303 	umull	r2, r3, r2, r3
 8004e76:	095b      	lsrs	r3, r3, #5
 8004e78:	f003 03f0 	and.w	r3, r3, #240	; 0xf0
 8004e7c:	4419      	add	r1, r3
 8004e7e:	68fa      	ldr	r2, [r7, #12]
 8004e80:	4613      	mov	r3, r2
 8004e82:	009b      	lsls	r3, r3, #2
 8004e84:	4413      	add	r3, r2
 8004e86:	009a      	lsls	r2, r3, #2
 8004e88:	441a      	add	r2, r3
 8004e8a:	687b      	ldr	r3, [r7, #4]
 8004e8c:	685b      	ldr	r3, [r3, #4]
 8004e8e:	009b      	lsls	r3, r3, #2
 8004e90:	fbb2 f2f3 	udiv	r2, r2, r3
 8004e94:	4b0c      	ldr	r3, [pc, #48]	; (8004ec8 <UART_SetConfig+0x118>)
 8004e96:	fba3 0302 	umull	r0, r3, r3, r2
 8004e9a:	095b      	lsrs	r3, r3, #5
 8004e9c:	2064      	movs	r0, #100	; 0x64
 8004e9e:	fb00 f303 	mul.w	r3, r0, r3
 8004ea2:	1ad3      	subs	r3, r2, r3
 8004ea4:	011b      	lsls	r3, r3, #4
 8004ea6:	3332      	adds	r3, #50	; 0x32
 8004ea8:	4a07      	ldr	r2, [pc, #28]	; (8004ec8 <UART_SetConfig+0x118>)
 8004eaa:	fba2 2303 	umull	r2, r3, r2, r3
 8004eae:	095b      	lsrs	r3, r3, #5
 8004eb0:	f003 020f 	and.w	r2, r3, #15
 8004eb4:	687b      	ldr	r3, [r7, #4]
 8004eb6:	681b      	ldr	r3, [r3, #0]
 8004eb8:	440a      	add	r2, r1
 8004eba:	609a      	str	r2, [r3, #8]
 8004ebc:	bf00      	nop
 8004ebe:	3710      	adds	r7, #16
 8004ec0:	46bd      	mov	sp, r7
 8004ec2:	bd80      	pop	{r7, pc}
 8004ec4:	40013800 	.word	0x40013800
 8004ec8:	51eb851f 	.word	0x51eb851f

08004ecc <__errno>:
 8004ecc:	4b01      	ldr	r3, [pc, #4]	; (8004ed4 <__errno+0x8>)
 8004ece:	6818      	ldr	r0, [r3, #0]
 8004ed0:	4770      	bx	lr
 8004ed2:	bf00      	nop
 8004ed4:	20000010 	.word	0x20000010

08004ed8 <__libc_init_array>:
 8004ed8:	b570      	push	{r4, r5, r6, lr}
 8004eda:	2600      	movs	r6, #0
 8004edc:	4d0c      	ldr	r5, [pc, #48]	; (8004f10 <__libc_init_array+0x38>)
 8004ede:	4c0d      	ldr	r4, [pc, #52]	; (8004f14 <__libc_init_array+0x3c>)
 8004ee0:	1b64      	subs	r4, r4, r5
 8004ee2:	10a4      	asrs	r4, r4, #2
 8004ee4:	42a6      	cmp	r6, r4
 8004ee6:	d109      	bne.n	8004efc <__libc_init_array+0x24>
 8004ee8:	f001 f992 	bl	8006210 <_init>
 8004eec:	2600      	movs	r6, #0
 8004eee:	4d0a      	ldr	r5, [pc, #40]	; (8004f18 <__libc_init_array+0x40>)
 8004ef0:	4c0a      	ldr	r4, [pc, #40]	; (8004f1c <__libc_init_array+0x44>)
 8004ef2:	1b64      	subs	r4, r4, r5
 8004ef4:	10a4      	asrs	r4, r4, #2
 8004ef6:	42a6      	cmp	r6, r4
 8004ef8:	d105      	bne.n	8004f06 <__libc_init_array+0x2e>
 8004efa:	bd70      	pop	{r4, r5, r6, pc}
 8004efc:	f855 3b04 	ldr.w	r3, [r5], #4
 8004f00:	4798      	blx	r3
 8004f02:	3601      	adds	r6, #1
 8004f04:	e7ee      	b.n	8004ee4 <__libc_init_array+0xc>
 8004f06:	f855 3b04 	ldr.w	r3, [r5], #4
 8004f0a:	4798      	blx	r3
 8004f0c:	3601      	adds	r6, #1
 8004f0e:	e7f2      	b.n	8004ef6 <__libc_init_array+0x1e>
 8004f10:	08006350 	.word	0x08006350
 8004f14:	08006350 	.word	0x08006350
 8004f18:	08006350 	.word	0x08006350
 8004f1c:	08006354 	.word	0x08006354

08004f20 <memset>:
 8004f20:	4603      	mov	r3, r0
 8004f22:	4402      	add	r2, r0
 8004f24:	4293      	cmp	r3, r2
 8004f26:	d100      	bne.n	8004f2a <memset+0xa>
 8004f28:	4770      	bx	lr
 8004f2a:	f803 1b01 	strb.w	r1, [r3], #1
 8004f2e:	e7f9      	b.n	8004f24 <memset+0x4>

08004f30 <iprintf>:
 8004f30:	b40f      	push	{r0, r1, r2, r3}
 8004f32:	4b0a      	ldr	r3, [pc, #40]	; (8004f5c <iprintf+0x2c>)
 8004f34:	b513      	push	{r0, r1, r4, lr}
 8004f36:	681c      	ldr	r4, [r3, #0]
 8004f38:	b124      	cbz	r4, 8004f44 <iprintf+0x14>
 8004f3a:	69a3      	ldr	r3, [r4, #24]
 8004f3c:	b913      	cbnz	r3, 8004f44 <iprintf+0x14>
 8004f3e:	4620      	mov	r0, r4
 8004f40:	f000 f886 	bl	8005050 <__sinit>
 8004f44:	ab05      	add	r3, sp, #20
 8004f46:	4620      	mov	r0, r4
 8004f48:	9a04      	ldr	r2, [sp, #16]
 8004f4a:	68a1      	ldr	r1, [r4, #8]
 8004f4c:	9301      	str	r3, [sp, #4]
 8004f4e:	f000 fb37 	bl	80055c0 <_vfiprintf_r>
 8004f52:	b002      	add	sp, #8
 8004f54:	e8bd 4010 	ldmia.w	sp!, {r4, lr}
 8004f58:	b004      	add	sp, #16
 8004f5a:	4770      	bx	lr
 8004f5c:	20000010 	.word	0x20000010

08004f60 <siprintf>:
 8004f60:	b40e      	push	{r1, r2, r3}
 8004f62:	f06f 4100 	mvn.w	r1, #2147483648	; 0x80000000
 8004f66:	b500      	push	{lr}
 8004f68:	b09c      	sub	sp, #112	; 0x70
 8004f6a:	ab1d      	add	r3, sp, #116	; 0x74
 8004f6c:	9002      	str	r0, [sp, #8]
 8004f6e:	9006      	str	r0, [sp, #24]
 8004f70:	9107      	str	r1, [sp, #28]
 8004f72:	9104      	str	r1, [sp, #16]
 8004f74:	4808      	ldr	r0, [pc, #32]	; (8004f98 <siprintf+0x38>)
 8004f76:	4909      	ldr	r1, [pc, #36]	; (8004f9c <siprintf+0x3c>)
 8004f78:	f853 2b04 	ldr.w	r2, [r3], #4
 8004f7c:	9105      	str	r1, [sp, #20]
 8004f7e:	6800      	ldr	r0, [r0, #0]
 8004f80:	a902      	add	r1, sp, #8
 8004f82:	9301      	str	r3, [sp, #4]
 8004f84:	f000 f9f4 	bl	8005370 <_svfiprintf_r>
 8004f88:	2200      	movs	r2, #0
 8004f8a:	9b02      	ldr	r3, [sp, #8]
 8004f8c:	701a      	strb	r2, [r3, #0]
 8004f8e:	b01c      	add	sp, #112	; 0x70
 8004f90:	f85d eb04 	ldr.w	lr, [sp], #4
 8004f94:	b003      	add	sp, #12
 8004f96:	4770      	bx	lr
 8004f98:	20000010 	.word	0x20000010
 8004f9c:	ffff0208 	.word	0xffff0208

08004fa0 <std>:
 8004fa0:	2300      	movs	r3, #0
 8004fa2:	b510      	push	{r4, lr}
 8004fa4:	4604      	mov	r4, r0
 8004fa6:	e9c0 3300 	strd	r3, r3, [r0]
 8004faa:	e9c0 3304 	strd	r3, r3, [r0, #16]
 8004fae:	6083      	str	r3, [r0, #8]
 8004fb0:	8181      	strh	r1, [r0, #12]
 8004fb2:	6643      	str	r3, [r0, #100]	; 0x64
 8004fb4:	81c2      	strh	r2, [r0, #14]
 8004fb6:	6183      	str	r3, [r0, #24]
 8004fb8:	4619      	mov	r1, r3
 8004fba:	2208      	movs	r2, #8
 8004fbc:	305c      	adds	r0, #92	; 0x5c
 8004fbe:	f7ff ffaf 	bl	8004f20 <memset>
 8004fc2:	4b05      	ldr	r3, [pc, #20]	; (8004fd8 <std+0x38>)
 8004fc4:	6224      	str	r4, [r4, #32]
 8004fc6:	6263      	str	r3, [r4, #36]	; 0x24
 8004fc8:	4b04      	ldr	r3, [pc, #16]	; (8004fdc <std+0x3c>)
 8004fca:	62a3      	str	r3, [r4, #40]	; 0x28
 8004fcc:	4b04      	ldr	r3, [pc, #16]	; (8004fe0 <std+0x40>)
 8004fce:	62e3      	str	r3, [r4, #44]	; 0x2c
 8004fd0:	4b04      	ldr	r3, [pc, #16]	; (8004fe4 <std+0x44>)
 8004fd2:	6323      	str	r3, [r4, #48]	; 0x30
 8004fd4:	bd10      	pop	{r4, pc}
 8004fd6:	bf00      	nop
 8004fd8:	08005b6d 	.word	0x08005b6d
 8004fdc:	08005b8f 	.word	0x08005b8f
 8004fe0:	08005bc7 	.word	0x08005bc7
 8004fe4:	08005beb 	.word	0x08005beb

08004fe8 <_cleanup_r>:
 8004fe8:	4901      	ldr	r1, [pc, #4]	; (8004ff0 <_cleanup_r+0x8>)
 8004fea:	f000 b8af 	b.w	800514c <_fwalk_reent>
 8004fee:	bf00      	nop
 8004ff0:	08005ebd 	.word	0x08005ebd

08004ff4 <__sfmoreglue>:
 8004ff4:	2268      	movs	r2, #104	; 0x68
 8004ff6:	b570      	push	{r4, r5, r6, lr}
 8004ff8:	1e4d      	subs	r5, r1, #1
 8004ffa:	4355      	muls	r5, r2
 8004ffc:	460e      	mov	r6, r1
 8004ffe:	f105 0174 	add.w	r1, r5, #116	; 0x74
 8005002:	f000 f8e5 	bl	80051d0 <_malloc_r>
 8005006:	4604      	mov	r4, r0
 8005008:	b140      	cbz	r0, 800501c <__sfmoreglue+0x28>
 800500a:	2100      	movs	r1, #0
 800500c:	e9c0 1600 	strd	r1, r6, [r0]
 8005010:	300c      	adds	r0, #12
 8005012:	60a0      	str	r0, [r4, #8]
 8005014:	f105 0268 	add.w	r2, r5, #104	; 0x68
 8005018:	f7ff ff82 	bl	8004f20 <memset>
 800501c:	4620      	mov	r0, r4
 800501e:	bd70      	pop	{r4, r5, r6, pc}

08005020 <__sfp_lock_acquire>:
 8005020:	4801      	ldr	r0, [pc, #4]	; (8005028 <__sfp_lock_acquire+0x8>)
 8005022:	f000 b8b3 	b.w	800518c <__retarget_lock_acquire_recursive>
 8005026:	bf00      	nop
 8005028:	200002a5 	.word	0x200002a5

0800502c <__sfp_lock_release>:
 800502c:	4801      	ldr	r0, [pc, #4]	; (8005034 <__sfp_lock_release+0x8>)
 800502e:	f000 b8ae 	b.w	800518e <__retarget_lock_release_recursive>
 8005032:	bf00      	nop
 8005034:	200002a5 	.word	0x200002a5

08005038 <__sinit_lock_acquire>:
 8005038:	4801      	ldr	r0, [pc, #4]	; (8005040 <__sinit_lock_acquire+0x8>)
 800503a:	f000 b8a7 	b.w	800518c <__retarget_lock_acquire_recursive>
 800503e:	bf00      	nop
 8005040:	200002a6 	.word	0x200002a6

08005044 <__sinit_lock_release>:
 8005044:	4801      	ldr	r0, [pc, #4]	; (800504c <__sinit_lock_release+0x8>)
 8005046:	f000 b8a2 	b.w	800518e <__retarget_lock_release_recursive>
 800504a:	bf00      	nop
 800504c:	200002a6 	.word	0x200002a6

08005050 <__sinit>:
 8005050:	b510      	push	{r4, lr}
 8005052:	4604      	mov	r4, r0
 8005054:	f7ff fff0 	bl	8005038 <__sinit_lock_acquire>
 8005058:	69a3      	ldr	r3, [r4, #24]
 800505a:	b11b      	cbz	r3, 8005064 <__sinit+0x14>
 800505c:	e8bd 4010 	ldmia.w	sp!, {r4, lr}
 8005060:	f7ff bff0 	b.w	8005044 <__sinit_lock_release>
 8005064:	e9c4 3312 	strd	r3, r3, [r4, #72]	; 0x48
 8005068:	6523      	str	r3, [r4, #80]	; 0x50
 800506a:	4b13      	ldr	r3, [pc, #76]	; (80050b8 <__sinit+0x68>)
 800506c:	4a13      	ldr	r2, [pc, #76]	; (80050bc <__sinit+0x6c>)
 800506e:	681b      	ldr	r3, [r3, #0]
 8005070:	62a2      	str	r2, [r4, #40]	; 0x28
 8005072:	42a3      	cmp	r3, r4
 8005074:	bf08      	it	eq
 8005076:	2301      	moveq	r3, #1
 8005078:	4620      	mov	r0, r4
 800507a:	bf08      	it	eq
 800507c:	61a3      	streq	r3, [r4, #24]
 800507e:	f000 f81f 	bl	80050c0 <__sfp>
 8005082:	6060      	str	r0, [r4, #4]
 8005084:	4620      	mov	r0, r4
 8005086:	f000 f81b 	bl	80050c0 <__sfp>
 800508a:	60a0      	str	r0, [r4, #8]
 800508c:	4620      	mov	r0, r4
 800508e:	f000 f817 	bl	80050c0 <__sfp>
 8005092:	2200      	movs	r2, #0
 8005094:	2104      	movs	r1, #4
 8005096:	60e0      	str	r0, [r4, #12]
 8005098:	6860      	ldr	r0, [r4, #4]
 800509a:	f7ff ff81 	bl	8004fa0 <std>
 800509e:	2201      	movs	r2, #1
 80050a0:	2109      	movs	r1, #9
 80050a2:	68a0      	ldr	r0, [r4, #8]
 80050a4:	f7ff ff7c 	bl	8004fa0 <std>
 80050a8:	2202      	movs	r2, #2
 80050aa:	2112      	movs	r1, #18
 80050ac:	68e0      	ldr	r0, [r4, #12]
 80050ae:	f7ff ff77 	bl	8004fa0 <std>
 80050b2:	2301      	movs	r3, #1
 80050b4:	61a3      	str	r3, [r4, #24]
 80050b6:	e7d1      	b.n	800505c <__sinit+0xc>
 80050b8:	080062b8 	.word	0x080062b8
 80050bc:	08004fe9 	.word	0x08004fe9

080050c0 <__sfp>:
 80050c0:	b5f8      	push	{r3, r4, r5, r6, r7, lr}
 80050c2:	4607      	mov	r7, r0
 80050c4:	f7ff ffac 	bl	8005020 <__sfp_lock_acquire>
 80050c8:	4b1e      	ldr	r3, [pc, #120]	; (8005144 <__sfp+0x84>)
 80050ca:	681e      	ldr	r6, [r3, #0]
 80050cc:	69b3      	ldr	r3, [r6, #24]
 80050ce:	b913      	cbnz	r3, 80050d6 <__sfp+0x16>
 80050d0:	4630      	mov	r0, r6
 80050d2:	f7ff ffbd 	bl	8005050 <__sinit>
 80050d6:	3648      	adds	r6, #72	; 0x48
 80050d8:	e9d6 3401 	ldrd	r3, r4, [r6, #4]
 80050dc:	3b01      	subs	r3, #1
 80050de:	d503      	bpl.n	80050e8 <__sfp+0x28>
 80050e0:	6833      	ldr	r3, [r6, #0]
 80050e2:	b30b      	cbz	r3, 8005128 <__sfp+0x68>
 80050e4:	6836      	ldr	r6, [r6, #0]
 80050e6:	e7f7      	b.n	80050d8 <__sfp+0x18>
 80050e8:	f9b4 500c 	ldrsh.w	r5, [r4, #12]
 80050ec:	b9d5      	cbnz	r5, 8005124 <__sfp+0x64>
 80050ee:	4b16      	ldr	r3, [pc, #88]	; (8005148 <__sfp+0x88>)
 80050f0:	f104 0058 	add.w	r0, r4, #88	; 0x58
 80050f4:	60e3      	str	r3, [r4, #12]
 80050f6:	6665      	str	r5, [r4, #100]	; 0x64
 80050f8:	f000 f847 	bl	800518a <__retarget_lock_init_recursive>
 80050fc:	f7ff ff96 	bl	800502c <__sfp_lock_release>
 8005100:	2208      	movs	r2, #8
 8005102:	4629      	mov	r1, r5
 8005104:	e9c4 5501 	strd	r5, r5, [r4, #4]
 8005108:	e9c4 5504 	strd	r5, r5, [r4, #16]
 800510c:	6025      	str	r5, [r4, #0]
 800510e:	61a5      	str	r5, [r4, #24]
 8005110:	f104 005c 	add.w	r0, r4, #92	; 0x5c
 8005114:	f7ff ff04 	bl	8004f20 <memset>
 8005118:	e9c4 550d 	strd	r5, r5, [r4, #52]	; 0x34
 800511c:	e9c4 5512 	strd	r5, r5, [r4, #72]	; 0x48
 8005120:	4620      	mov	r0, r4
 8005122:	bdf8      	pop	{r3, r4, r5, r6, r7, pc}
 8005124:	3468      	adds	r4, #104	; 0x68
 8005126:	e7d9      	b.n	80050dc <__sfp+0x1c>
 8005128:	2104      	movs	r1, #4
 800512a:	4638      	mov	r0, r7
 800512c:	f7ff ff62 	bl	8004ff4 <__sfmoreglue>
 8005130:	4604      	mov	r4, r0
 8005132:	6030      	str	r0, [r6, #0]
 8005134:	2800      	cmp	r0, #0
 8005136:	d1d5      	bne.n	80050e4 <__sfp+0x24>
 8005138:	f7ff ff78 	bl	800502c <__sfp_lock_release>
 800513c:	230c      	movs	r3, #12
 800513e:	603b      	str	r3, [r7, #0]
 8005140:	e7ee      	b.n	8005120 <__sfp+0x60>
 8005142:	bf00      	nop
 8005144:	080062b8 	.word	0x080062b8
 8005148:	ffff0001 	.word	0xffff0001

0800514c <_fwalk_reent>:
 800514c:	e92d 43f8 	stmdb	sp!, {r3, r4, r5, r6, r7, r8, r9, lr}
 8005150:	4606      	mov	r6, r0
 8005152:	4688      	mov	r8, r1
 8005154:	2700      	movs	r7, #0
 8005156:	f100 0448 	add.w	r4, r0, #72	; 0x48
 800515a:	e9d4 9501 	ldrd	r9, r5, [r4, #4]
 800515e:	f1b9 0901 	subs.w	r9, r9, #1
 8005162:	d505      	bpl.n	8005170 <_fwalk_reent+0x24>
 8005164:	6824      	ldr	r4, [r4, #0]
 8005166:	2c00      	cmp	r4, #0
 8005168:	d1f7      	bne.n	800515a <_fwalk_reent+0xe>
 800516a:	4638      	mov	r0, r7
 800516c:	e8bd 83f8 	ldmia.w	sp!, {r3, r4, r5, r6, r7, r8, r9, pc}
 8005170:	89ab      	ldrh	r3, [r5, #12]
 8005172:	2b01      	cmp	r3, #1
 8005174:	d907      	bls.n	8005186 <_fwalk_reent+0x3a>
 8005176:	f9b5 300e 	ldrsh.w	r3, [r5, #14]
 800517a:	3301      	adds	r3, #1
 800517c:	d003      	beq.n	8005186 <_fwalk_reent+0x3a>
 800517e:	4629      	mov	r1, r5
 8005180:	4630      	mov	r0, r6
 8005182:	47c0      	blx	r8
 8005184:	4307      	orrs	r7, r0
 8005186:	3568      	adds	r5, #104	; 0x68
 8005188:	e7e9      	b.n	800515e <_fwalk_reent+0x12>

0800518a <__retarget_lock_init_recursive>:
 800518a:	4770      	bx	lr

0800518c <__retarget_lock_acquire_recursive>:
 800518c:	4770      	bx	lr

0800518e <__retarget_lock_release_recursive>:
 800518e:	4770      	bx	lr

08005190 <sbrk_aligned>:
 8005190:	b570      	push	{r4, r5, r6, lr}
 8005192:	4e0e      	ldr	r6, [pc, #56]	; (80051cc <sbrk_aligned+0x3c>)
 8005194:	460c      	mov	r4, r1
 8005196:	6831      	ldr	r1, [r6, #0]
 8005198:	4605      	mov	r5, r0
 800519a:	b911      	cbnz	r1, 80051a2 <sbrk_aligned+0x12>
 800519c:	f000 fcd6 	bl	8005b4c <_sbrk_r>
 80051a0:	6030      	str	r0, [r6, #0]
 80051a2:	4621      	mov	r1, r4
 80051a4:	4628      	mov	r0, r5
 80051a6:	f000 fcd1 	bl	8005b4c <_sbrk_r>
 80051aa:	1c43      	adds	r3, r0, #1
 80051ac:	d00a      	beq.n	80051c4 <sbrk_aligned+0x34>
 80051ae:	1cc4      	adds	r4, r0, #3
 80051b0:	f024 0403 	bic.w	r4, r4, #3
 80051b4:	42a0      	cmp	r0, r4
 80051b6:	d007      	beq.n	80051c8 <sbrk_aligned+0x38>
 80051b8:	1a21      	subs	r1, r4, r0
 80051ba:	4628      	mov	r0, r5
 80051bc:	f000 fcc6 	bl	8005b4c <_sbrk_r>
 80051c0:	3001      	adds	r0, #1
 80051c2:	d101      	bne.n	80051c8 <sbrk_aligned+0x38>
 80051c4:	f04f 34ff 	mov.w	r4, #4294967295
 80051c8:	4620      	mov	r0, r4
 80051ca:	bd70      	pop	{r4, r5, r6, pc}
 80051cc:	200002ac 	.word	0x200002ac

080051d0 <_malloc_r>:
 80051d0:	e92d 41f0 	stmdb	sp!, {r4, r5, r6, r7, r8, lr}
 80051d4:	1ccd      	adds	r5, r1, #3
 80051d6:	f025 0503 	bic.w	r5, r5, #3
 80051da:	3508      	adds	r5, #8
 80051dc:	2d0c      	cmp	r5, #12
 80051de:	bf38      	it	cc
 80051e0:	250c      	movcc	r5, #12
 80051e2:	2d00      	cmp	r5, #0
 80051e4:	4607      	mov	r7, r0
 80051e6:	db01      	blt.n	80051ec <_malloc_r+0x1c>
 80051e8:	42a9      	cmp	r1, r5
 80051ea:	d905      	bls.n	80051f8 <_malloc_r+0x28>
 80051ec:	230c      	movs	r3, #12
 80051ee:	2600      	movs	r6, #0
 80051f0:	603b      	str	r3, [r7, #0]
 80051f2:	4630      	mov	r0, r6
 80051f4:	e8bd 81f0 	ldmia.w	sp!, {r4, r5, r6, r7, r8, pc}
 80051f8:	4e2e      	ldr	r6, [pc, #184]	; (80052b4 <_malloc_r+0xe4>)
 80051fa:	f000 ff49 	bl	8006090 <__malloc_lock>
 80051fe:	6833      	ldr	r3, [r6, #0]
 8005200:	461c      	mov	r4, r3
 8005202:	bb34      	cbnz	r4, 8005252 <_malloc_r+0x82>
 8005204:	4629      	mov	r1, r5
 8005206:	4638      	mov	r0, r7
 8005208:	f7ff ffc2 	bl	8005190 <sbrk_aligned>
 800520c:	1c43      	adds	r3, r0, #1
 800520e:	4604      	mov	r4, r0
 8005210:	d14d      	bne.n	80052ae <_malloc_r+0xde>
 8005212:	6834      	ldr	r4, [r6, #0]
 8005214:	4626      	mov	r6, r4
 8005216:	2e00      	cmp	r6, #0
 8005218:	d140      	bne.n	800529c <_malloc_r+0xcc>
 800521a:	6823      	ldr	r3, [r4, #0]
 800521c:	4631      	mov	r1, r6
 800521e:	4638      	mov	r0, r7
 8005220:	eb04 0803 	add.w	r8, r4, r3
 8005224:	f000 fc92 	bl	8005b4c <_sbrk_r>
 8005228:	4580      	cmp	r8, r0
 800522a:	d13a      	bne.n	80052a2 <_malloc_r+0xd2>
 800522c:	6821      	ldr	r1, [r4, #0]
 800522e:	3503      	adds	r5, #3
 8005230:	1a6d      	subs	r5, r5, r1
 8005232:	f025 0503 	bic.w	r5, r5, #3
 8005236:	3508      	adds	r5, #8
 8005238:	2d0c      	cmp	r5, #12
 800523a:	bf38      	it	cc
 800523c:	250c      	movcc	r5, #12
 800523e:	4638      	mov	r0, r7
 8005240:	4629      	mov	r1, r5
 8005242:	f7ff ffa5 	bl	8005190 <sbrk_aligned>
 8005246:	3001      	adds	r0, #1
 8005248:	d02b      	beq.n	80052a2 <_malloc_r+0xd2>
 800524a:	6823      	ldr	r3, [r4, #0]
 800524c:	442b      	add	r3, r5
 800524e:	6023      	str	r3, [r4, #0]
 8005250:	e00e      	b.n	8005270 <_malloc_r+0xa0>
 8005252:	6822      	ldr	r2, [r4, #0]
 8005254:	1b52      	subs	r2, r2, r5
 8005256:	d41e      	bmi.n	8005296 <_malloc_r+0xc6>
 8005258:	2a0b      	cmp	r2, #11
 800525a:	d916      	bls.n	800528a <_malloc_r+0xba>
 800525c:	1961      	adds	r1, r4, r5
 800525e:	42a3      	cmp	r3, r4
 8005260:	6025      	str	r5, [r4, #0]
 8005262:	bf18      	it	ne
 8005264:	6059      	strne	r1, [r3, #4]
 8005266:	6863      	ldr	r3, [r4, #4]
 8005268:	bf08      	it	eq
 800526a:	6031      	streq	r1, [r6, #0]
 800526c:	5162      	str	r2, [r4, r5]
 800526e:	604b      	str	r3, [r1, #4]
 8005270:	4638      	mov	r0, r7
 8005272:	f104 060b 	add.w	r6, r4, #11
 8005276:	f000 ff11 	bl	800609c <__malloc_unlock>
 800527a:	f026 0607 	bic.w	r6, r6, #7
 800527e:	1d23      	adds	r3, r4, #4
 8005280:	1af2      	subs	r2, r6, r3
 8005282:	d0b6      	beq.n	80051f2 <_malloc_r+0x22>
 8005284:	1b9b      	subs	r3, r3, r6
 8005286:	50a3      	str	r3, [r4, r2]
 8005288:	e7b3      	b.n	80051f2 <_malloc_r+0x22>
 800528a:	6862      	ldr	r2, [r4, #4]
 800528c:	42a3      	cmp	r3, r4
 800528e:	bf0c      	ite	eq
 8005290:	6032      	streq	r2, [r6, #0]
 8005292:	605a      	strne	r2, [r3, #4]
 8005294:	e7ec      	b.n	8005270 <_malloc_r+0xa0>
 8005296:	4623      	mov	r3, r4
 8005298:	6864      	ldr	r4, [r4, #4]
 800529a:	e7b2      	b.n	8005202 <_malloc_r+0x32>
 800529c:	4634      	mov	r4, r6
 800529e:	6876      	ldr	r6, [r6, #4]
 80052a0:	e7b9      	b.n	8005216 <_malloc_r+0x46>
 80052a2:	230c      	movs	r3, #12
 80052a4:	4638      	mov	r0, r7
 80052a6:	603b      	str	r3, [r7, #0]
 80052a8:	f000 fef8 	bl	800609c <__malloc_unlock>
 80052ac:	e7a1      	b.n	80051f2 <_malloc_r+0x22>
 80052ae:	6025      	str	r5, [r4, #0]
 80052b0:	e7de      	b.n	8005270 <_malloc_r+0xa0>
 80052b2:	bf00      	nop
 80052b4:	200002a8 	.word	0x200002a8

080052b8 <__ssputs_r>:
 80052b8:	e92d 47f0 	stmdb	sp!, {r4, r5, r6, r7, r8, r9, sl, lr}
 80052bc:	688e      	ldr	r6, [r1, #8]
 80052be:	4682      	mov	sl, r0
 80052c0:	429e      	cmp	r6, r3
 80052c2:	460c      	mov	r4, r1
 80052c4:	4690      	mov	r8, r2
 80052c6:	461f      	mov	r7, r3
 80052c8:	d838      	bhi.n	800533c <__ssputs_r+0x84>
 80052ca:	898a      	ldrh	r2, [r1, #12]
 80052cc:	f412 6f90 	tst.w	r2, #1152	; 0x480
 80052d0:	d032      	beq.n	8005338 <__ssputs_r+0x80>
 80052d2:	6825      	ldr	r5, [r4, #0]
 80052d4:	6909      	ldr	r1, [r1, #16]
 80052d6:	3301      	adds	r3, #1
 80052d8:	eba5 0901 	sub.w	r9, r5, r1
 80052dc:	6965      	ldr	r5, [r4, #20]
 80052de:	444b      	add	r3, r9
 80052e0:	eb05 0545 	add.w	r5, r5, r5, lsl #1
 80052e4:	eb05 75d5 	add.w	r5, r5, r5, lsr #31
 80052e8:	106d      	asrs	r5, r5, #1
 80052ea:	429d      	cmp	r5, r3
 80052ec:	bf38      	it	cc
 80052ee:	461d      	movcc	r5, r3
 80052f0:	0553      	lsls	r3, r2, #21
 80052f2:	d531      	bpl.n	8005358 <__ssputs_r+0xa0>
 80052f4:	4629      	mov	r1, r5
 80052f6:	f7ff ff6b 	bl	80051d0 <_malloc_r>
 80052fa:	4606      	mov	r6, r0
 80052fc:	b950      	cbnz	r0, 8005314 <__ssputs_r+0x5c>
 80052fe:	230c      	movs	r3, #12
 8005300:	f04f 30ff 	mov.w	r0, #4294967295
 8005304:	f8ca 3000 	str.w	r3, [sl]
 8005308:	89a3      	ldrh	r3, [r4, #12]
 800530a:	f043 0340 	orr.w	r3, r3, #64	; 0x40
 800530e:	81a3      	strh	r3, [r4, #12]
 8005310:	e8bd 87f0 	ldmia.w	sp!, {r4, r5, r6, r7, r8, r9, sl, pc}
 8005314:	464a      	mov	r2, r9
 8005316:	6921      	ldr	r1, [r4, #16]
 8005318:	f000 fe92 	bl	8006040 <memcpy>
 800531c:	89a3      	ldrh	r3, [r4, #12]
 800531e:	f423 6390 	bic.w	r3, r3, #1152	; 0x480
 8005322:	f043 0380 	orr.w	r3, r3, #128	; 0x80
 8005326:	81a3      	strh	r3, [r4, #12]
 8005328:	6126      	str	r6, [r4, #16]
 800532a:	444e      	add	r6, r9
 800532c:	6026      	str	r6, [r4, #0]
 800532e:	463e      	mov	r6, r7
 8005330:	6165      	str	r5, [r4, #20]
 8005332:	eba5 0509 	sub.w	r5, r5, r9
 8005336:	60a5      	str	r5, [r4, #8]
 8005338:	42be      	cmp	r6, r7
 800533a:	d900      	bls.n	800533e <__ssputs_r+0x86>
 800533c:	463e      	mov	r6, r7
 800533e:	4632      	mov	r2, r6
 8005340:	4641      	mov	r1, r8
 8005342:	6820      	ldr	r0, [r4, #0]
 8005344:	f000 fe8a 	bl	800605c <memmove>
 8005348:	68a3      	ldr	r3, [r4, #8]
 800534a:	2000      	movs	r0, #0
 800534c:	1b9b      	subs	r3, r3, r6
 800534e:	60a3      	str	r3, [r4, #8]
 8005350:	6823      	ldr	r3, [r4, #0]
 8005352:	4433      	add	r3, r6
 8005354:	6023      	str	r3, [r4, #0]
 8005356:	e7db      	b.n	8005310 <__ssputs_r+0x58>
 8005358:	462a      	mov	r2, r5
 800535a:	f000 feed 	bl	8006138 <_realloc_r>
 800535e:	4606      	mov	r6, r0
 8005360:	2800      	cmp	r0, #0
 8005362:	d1e1      	bne.n	8005328 <__ssputs_r+0x70>
 8005364:	4650      	mov	r0, sl
 8005366:	6921      	ldr	r1, [r4, #16]
 8005368:	f000 fe9e 	bl	80060a8 <_free_r>
 800536c:	e7c7      	b.n	80052fe <__ssputs_r+0x46>
	...

08005370 <_svfiprintf_r>:
 8005370:	e92d 4ff0 	stmdb	sp!, {r4, r5, r6, r7, r8, r9, sl, fp, lr}
 8005374:	4698      	mov	r8, r3
 8005376:	898b      	ldrh	r3, [r1, #12]
 8005378:	4607      	mov	r7, r0
 800537a:	061b      	lsls	r3, r3, #24
 800537c:	460d      	mov	r5, r1
 800537e:	4614      	mov	r4, r2
 8005380:	b09d      	sub	sp, #116	; 0x74
 8005382:	d50e      	bpl.n	80053a2 <_svfiprintf_r+0x32>
 8005384:	690b      	ldr	r3, [r1, #16]
 8005386:	b963      	cbnz	r3, 80053a2 <_svfiprintf_r+0x32>
 8005388:	2140      	movs	r1, #64	; 0x40
 800538a:	f7ff ff21 	bl	80051d0 <_malloc_r>
 800538e:	6028      	str	r0, [r5, #0]
 8005390:	6128      	str	r0, [r5, #16]
 8005392:	b920      	cbnz	r0, 800539e <_svfiprintf_r+0x2e>
 8005394:	230c      	movs	r3, #12
 8005396:	603b      	str	r3, [r7, #0]
 8005398:	f04f 30ff 	mov.w	r0, #4294967295
 800539c:	e0d1      	b.n	8005542 <_svfiprintf_r+0x1d2>
 800539e:	2340      	movs	r3, #64	; 0x40
 80053a0:	616b      	str	r3, [r5, #20]
 80053a2:	2300      	movs	r3, #0
 80053a4:	9309      	str	r3, [sp, #36]	; 0x24
 80053a6:	2320      	movs	r3, #32
 80053a8:	f88d 3029 	strb.w	r3, [sp, #41]	; 0x29
 80053ac:	2330      	movs	r3, #48	; 0x30
 80053ae:	f04f 0901 	mov.w	r9, #1
 80053b2:	f8cd 800c 	str.w	r8, [sp, #12]
 80053b6:	f8df 81a4 	ldr.w	r8, [pc, #420]	; 800555c <_svfiprintf_r+0x1ec>
 80053ba:	f88d 302a 	strb.w	r3, [sp, #42]	; 0x2a
 80053be:	4623      	mov	r3, r4
 80053c0:	469a      	mov	sl, r3
 80053c2:	f813 2b01 	ldrb.w	r2, [r3], #1
 80053c6:	b10a      	cbz	r2, 80053cc <_svfiprintf_r+0x5c>
 80053c8:	2a25      	cmp	r2, #37	; 0x25
 80053ca:	d1f9      	bne.n	80053c0 <_svfiprintf_r+0x50>
 80053cc:	ebba 0b04 	subs.w	fp, sl, r4
 80053d0:	d00b      	beq.n	80053ea <_svfiprintf_r+0x7a>
 80053d2:	465b      	mov	r3, fp
 80053d4:	4622      	mov	r2, r4
 80053d6:	4629      	mov	r1, r5
 80053d8:	4638      	mov	r0, r7
 80053da:	f7ff ff6d 	bl	80052b8 <__ssputs_r>
 80053de:	3001      	adds	r0, #1
 80053e0:	f000 80aa 	beq.w	8005538 <_svfiprintf_r+0x1c8>
 80053e4:	9a09      	ldr	r2, [sp, #36]	; 0x24
 80053e6:	445a      	add	r2, fp
 80053e8:	9209      	str	r2, [sp, #36]	; 0x24
 80053ea:	f89a 3000 	ldrb.w	r3, [sl]
 80053ee:	2b00      	cmp	r3, #0
 80053f0:	f000 80a2 	beq.w	8005538 <_svfiprintf_r+0x1c8>
 80053f4:	2300      	movs	r3, #0
 80053f6:	f04f 32ff 	mov.w	r2, #4294967295
 80053fa:	e9cd 2305 	strd	r2, r3, [sp, #20]
 80053fe:	f10a 0a01 	add.w	sl, sl, #1
 8005402:	9304      	str	r3, [sp, #16]
 8005404:	9307      	str	r3, [sp, #28]
 8005406:	f88d 3053 	strb.w	r3, [sp, #83]	; 0x53
 800540a:	931a      	str	r3, [sp, #104]	; 0x68
 800540c:	4654      	mov	r4, sl
 800540e:	2205      	movs	r2, #5
 8005410:	f814 1b01 	ldrb.w	r1, [r4], #1
 8005414:	4851      	ldr	r0, [pc, #324]	; (800555c <_svfiprintf_r+0x1ec>)
 8005416:	f000 fe05 	bl	8006024 <memchr>
 800541a:	9a04      	ldr	r2, [sp, #16]
 800541c:	b9d8      	cbnz	r0, 8005456 <_svfiprintf_r+0xe6>
 800541e:	06d0      	lsls	r0, r2, #27
 8005420:	bf44      	itt	mi
 8005422:	2320      	movmi	r3, #32
 8005424:	f88d 3053 	strbmi.w	r3, [sp, #83]	; 0x53
 8005428:	0711      	lsls	r1, r2, #28
 800542a:	bf44      	itt	mi
 800542c:	232b      	movmi	r3, #43	; 0x2b
 800542e:	f88d 3053 	strbmi.w	r3, [sp, #83]	; 0x53
 8005432:	f89a 3000 	ldrb.w	r3, [sl]
 8005436:	2b2a      	cmp	r3, #42	; 0x2a
 8005438:	d015      	beq.n	8005466 <_svfiprintf_r+0xf6>
 800543a:	4654      	mov	r4, sl
 800543c:	2000      	movs	r0, #0
 800543e:	f04f 0c0a 	mov.w	ip, #10
 8005442:	9a07      	ldr	r2, [sp, #28]
 8005444:	4621      	mov	r1, r4
 8005446:	f811 3b01 	ldrb.w	r3, [r1], #1
 800544a:	3b30      	subs	r3, #48	; 0x30
 800544c:	2b09      	cmp	r3, #9
 800544e:	d94e      	bls.n	80054ee <_svfiprintf_r+0x17e>
 8005450:	b1b0      	cbz	r0, 8005480 <_svfiprintf_r+0x110>
 8005452:	9207      	str	r2, [sp, #28]
 8005454:	e014      	b.n	8005480 <_svfiprintf_r+0x110>
 8005456:	eba0 0308 	sub.w	r3, r0, r8
 800545a:	fa09 f303 	lsl.w	r3, r9, r3
 800545e:	4313      	orrs	r3, r2
 8005460:	46a2      	mov	sl, r4
 8005462:	9304      	str	r3, [sp, #16]
 8005464:	e7d2      	b.n	800540c <_svfiprintf_r+0x9c>
 8005466:	9b03      	ldr	r3, [sp, #12]
 8005468:	1d19      	adds	r1, r3, #4
 800546a:	681b      	ldr	r3, [r3, #0]
 800546c:	9103      	str	r1, [sp, #12]
 800546e:	2b00      	cmp	r3, #0
 8005470:	bfbb      	ittet	lt
 8005472:	425b      	neglt	r3, r3
 8005474:	f042 0202 	orrlt.w	r2, r2, #2
 8005478:	9307      	strge	r3, [sp, #28]
 800547a:	9307      	strlt	r3, [sp, #28]
 800547c:	bfb8      	it	lt
 800547e:	9204      	strlt	r2, [sp, #16]
 8005480:	7823      	ldrb	r3, [r4, #0]
 8005482:	2b2e      	cmp	r3, #46	; 0x2e
 8005484:	d10c      	bne.n	80054a0 <_svfiprintf_r+0x130>
 8005486:	7863      	ldrb	r3, [r4, #1]
 8005488:	2b2a      	cmp	r3, #42	; 0x2a
 800548a:	d135      	bne.n	80054f8 <_svfiprintf_r+0x188>
 800548c:	9b03      	ldr	r3, [sp, #12]
 800548e:	3402      	adds	r4, #2
 8005490:	1d1a      	adds	r2, r3, #4
 8005492:	681b      	ldr	r3, [r3, #0]
 8005494:	9203      	str	r2, [sp, #12]
 8005496:	2b00      	cmp	r3, #0
 8005498:	bfb8      	it	lt
 800549a:	f04f 33ff 	movlt.w	r3, #4294967295
 800549e:	9305      	str	r3, [sp, #20]
 80054a0:	f8df a0bc 	ldr.w	sl, [pc, #188]	; 8005560 <_svfiprintf_r+0x1f0>
 80054a4:	2203      	movs	r2, #3
 80054a6:	4650      	mov	r0, sl
 80054a8:	7821      	ldrb	r1, [r4, #0]
 80054aa:	f000 fdbb 	bl	8006024 <memchr>
 80054ae:	b140      	cbz	r0, 80054c2 <_svfiprintf_r+0x152>
 80054b0:	2340      	movs	r3, #64	; 0x40
 80054b2:	eba0 000a 	sub.w	r0, r0, sl
 80054b6:	fa03 f000 	lsl.w	r0, r3, r0
 80054ba:	9b04      	ldr	r3, [sp, #16]
 80054bc:	3401      	adds	r4, #1
 80054be:	4303      	orrs	r3, r0
 80054c0:	9304      	str	r3, [sp, #16]
 80054c2:	f814 1b01 	ldrb.w	r1, [r4], #1
 80054c6:	2206      	movs	r2, #6
 80054c8:	4826      	ldr	r0, [pc, #152]	; (8005564 <_svfiprintf_r+0x1f4>)
 80054ca:	f88d 1028 	strb.w	r1, [sp, #40]	; 0x28
 80054ce:	f000 fda9 	bl	8006024 <memchr>
 80054d2:	2800      	cmp	r0, #0
 80054d4:	d038      	beq.n	8005548 <_svfiprintf_r+0x1d8>
 80054d6:	4b24      	ldr	r3, [pc, #144]	; (8005568 <_svfiprintf_r+0x1f8>)
 80054d8:	bb1b      	cbnz	r3, 8005522 <_svfiprintf_r+0x1b2>
 80054da:	9b03      	ldr	r3, [sp, #12]
 80054dc:	3307      	adds	r3, #7
 80054de:	f023 0307 	bic.w	r3, r3, #7
 80054e2:	3308      	adds	r3, #8
 80054e4:	9303      	str	r3, [sp, #12]
 80054e6:	9b09      	ldr	r3, [sp, #36]	; 0x24
 80054e8:	4433      	add	r3, r6
 80054ea:	9309      	str	r3, [sp, #36]	; 0x24
 80054ec:	e767      	b.n	80053be <_svfiprintf_r+0x4e>
 80054ee:	460c      	mov	r4, r1
 80054f0:	2001      	movs	r0, #1
 80054f2:	fb0c 3202 	mla	r2, ip, r2, r3
 80054f6:	e7a5      	b.n	8005444 <_svfiprintf_r+0xd4>
 80054f8:	2300      	movs	r3, #0
 80054fa:	f04f 0c0a 	mov.w	ip, #10
 80054fe:	4619      	mov	r1, r3
 8005500:	3401      	adds	r4, #1
 8005502:	9305      	str	r3, [sp, #20]
 8005504:	4620      	mov	r0, r4
 8005506:	f810 2b01 	ldrb.w	r2, [r0], #1
 800550a:	3a30      	subs	r2, #48	; 0x30
 800550c:	2a09      	cmp	r2, #9
 800550e:	d903      	bls.n	8005518 <_svfiprintf_r+0x1a8>
 8005510:	2b00      	cmp	r3, #0
 8005512:	d0c5      	beq.n	80054a0 <_svfiprintf_r+0x130>
 8005514:	9105      	str	r1, [sp, #20]
 8005516:	e7c3      	b.n	80054a0 <_svfiprintf_r+0x130>
 8005518:	4604      	mov	r4, r0
 800551a:	2301      	movs	r3, #1
 800551c:	fb0c 2101 	mla	r1, ip, r1, r2
 8005520:	e7f0      	b.n	8005504 <_svfiprintf_r+0x194>
 8005522:	ab03      	add	r3, sp, #12
 8005524:	9300      	str	r3, [sp, #0]
 8005526:	462a      	mov	r2, r5
 8005528:	4638      	mov	r0, r7
 800552a:	4b10      	ldr	r3, [pc, #64]	; (800556c <_svfiprintf_r+0x1fc>)
 800552c:	a904      	add	r1, sp, #16
 800552e:	f3af 8000 	nop.w
 8005532:	1c42      	adds	r2, r0, #1
 8005534:	4606      	mov	r6, r0
 8005536:	d1d6      	bne.n	80054e6 <_svfiprintf_r+0x176>
 8005538:	89ab      	ldrh	r3, [r5, #12]
 800553a:	065b      	lsls	r3, r3, #25
 800553c:	f53f af2c 	bmi.w	8005398 <_svfiprintf_r+0x28>
 8005540:	9809      	ldr	r0, [sp, #36]	; 0x24
 8005542:	b01d      	add	sp, #116	; 0x74
 8005544:	e8bd 8ff0 	ldmia.w	sp!, {r4, r5, r6, r7, r8, r9, sl, fp, pc}
 8005548:	ab03      	add	r3, sp, #12
 800554a:	9300      	str	r3, [sp, #0]
 800554c:	462a      	mov	r2, r5
 800554e:	4638      	mov	r0, r7
 8005550:	4b06      	ldr	r3, [pc, #24]	; (800556c <_svfiprintf_r+0x1fc>)
 8005552:	a904      	add	r1, sp, #16
 8005554:	f000 f9d4 	bl	8005900 <_printf_i>
 8005558:	e7eb      	b.n	8005532 <_svfiprintf_r+0x1c2>
 800555a:	bf00      	nop
 800555c:	0800631c 	.word	0x0800631c
 8005560:	08006322 	.word	0x08006322
 8005564:	08006326 	.word	0x08006326
 8005568:	00000000 	.word	0x00000000
 800556c:	080052b9 	.word	0x080052b9

08005570 <__sfputc_r>:
 8005570:	6893      	ldr	r3, [r2, #8]
 8005572:	b410      	push	{r4}
 8005574:	3b01      	subs	r3, #1
 8005576:	2b00      	cmp	r3, #0
 8005578:	6093      	str	r3, [r2, #8]
 800557a:	da07      	bge.n	800558c <__sfputc_r+0x1c>
 800557c:	6994      	ldr	r4, [r2, #24]
 800557e:	42a3      	cmp	r3, r4
 8005580:	db01      	blt.n	8005586 <__sfputc_r+0x16>
 8005582:	290a      	cmp	r1, #10
 8005584:	d102      	bne.n	800558c <__sfputc_r+0x1c>
 8005586:	bc10      	pop	{r4}
 8005588:	f000 bb34 	b.w	8005bf4 <__swbuf_r>
 800558c:	6813      	ldr	r3, [r2, #0]
 800558e:	1c58      	adds	r0, r3, #1
 8005590:	6010      	str	r0, [r2, #0]
 8005592:	7019      	strb	r1, [r3, #0]
 8005594:	4608      	mov	r0, r1
 8005596:	bc10      	pop	{r4}
 8005598:	4770      	bx	lr

0800559a <__sfputs_r>:
 800559a:	b5f8      	push	{r3, r4, r5, r6, r7, lr}
 800559c:	4606      	mov	r6, r0
 800559e:	460f      	mov	r7, r1
 80055a0:	4614      	mov	r4, r2
 80055a2:	18d5      	adds	r5, r2, r3
 80055a4:	42ac      	cmp	r4, r5
 80055a6:	d101      	bne.n	80055ac <__sfputs_r+0x12>
 80055a8:	2000      	movs	r0, #0
 80055aa:	e007      	b.n	80055bc <__sfputs_r+0x22>
 80055ac:	463a      	mov	r2, r7
 80055ae:	4630      	mov	r0, r6
 80055b0:	f814 1b01 	ldrb.w	r1, [r4], #1
 80055b4:	f7ff ffdc 	bl	8005570 <__sfputc_r>
 80055b8:	1c43      	adds	r3, r0, #1
 80055ba:	d1f3      	bne.n	80055a4 <__sfputs_r+0xa>
 80055bc:	bdf8      	pop	{r3, r4, r5, r6, r7, pc}
	...

080055c0 <_vfiprintf_r>:
 80055c0:	e92d 4ff0 	stmdb	sp!, {r4, r5, r6, r7, r8, r9, sl, fp, lr}
 80055c4:	460d      	mov	r5, r1
 80055c6:	4614      	mov	r4, r2
 80055c8:	4698      	mov	r8, r3
 80055ca:	4606      	mov	r6, r0
 80055cc:	b09d      	sub	sp, #116	; 0x74
 80055ce:	b118      	cbz	r0, 80055d8 <_vfiprintf_r+0x18>
 80055d0:	6983      	ldr	r3, [r0, #24]
 80055d2:	b90b      	cbnz	r3, 80055d8 <_vfiprintf_r+0x18>
 80055d4:	f7ff fd3c 	bl	8005050 <__sinit>
 80055d8:	4b89      	ldr	r3, [pc, #548]	; (8005800 <_vfiprintf_r+0x240>)
 80055da:	429d      	cmp	r5, r3
 80055dc:	d11b      	bne.n	8005616 <_vfiprintf_r+0x56>
 80055de:	6875      	ldr	r5, [r6, #4]
 80055e0:	6e6b      	ldr	r3, [r5, #100]	; 0x64
 80055e2:	07d9      	lsls	r1, r3, #31
 80055e4:	d405      	bmi.n	80055f2 <_vfiprintf_r+0x32>
 80055e6:	89ab      	ldrh	r3, [r5, #12]
 80055e8:	059a      	lsls	r2, r3, #22
 80055ea:	d402      	bmi.n	80055f2 <_vfiprintf_r+0x32>
 80055ec:	6da8      	ldr	r0, [r5, #88]	; 0x58
 80055ee:	f7ff fdcd 	bl	800518c <__retarget_lock_acquire_recursive>
 80055f2:	89ab      	ldrh	r3, [r5, #12]
 80055f4:	071b      	lsls	r3, r3, #28
 80055f6:	d501      	bpl.n	80055fc <_vfiprintf_r+0x3c>
 80055f8:	692b      	ldr	r3, [r5, #16]
 80055fa:	b9eb      	cbnz	r3, 8005638 <_vfiprintf_r+0x78>
 80055fc:	4629      	mov	r1, r5
 80055fe:	4630      	mov	r0, r6
 8005600:	f000 fb5c 	bl	8005cbc <__swsetup_r>
 8005604:	b1c0      	cbz	r0, 8005638 <_vfiprintf_r+0x78>
 8005606:	6e6b      	ldr	r3, [r5, #100]	; 0x64
 8005608:	07dc      	lsls	r4, r3, #31
 800560a:	d50e      	bpl.n	800562a <_vfiprintf_r+0x6a>
 800560c:	f04f 30ff 	mov.w	r0, #4294967295
 8005610:	b01d      	add	sp, #116	; 0x74
 8005612:	e8bd 8ff0 	ldmia.w	sp!, {r4, r5, r6, r7, r8, r9, sl, fp, pc}
 8005616:	4b7b      	ldr	r3, [pc, #492]	; (8005804 <_vfiprintf_r+0x244>)
 8005618:	429d      	cmp	r5, r3
 800561a:	d101      	bne.n	8005620 <_vfiprintf_r+0x60>
 800561c:	68b5      	ldr	r5, [r6, #8]
 800561e:	e7df      	b.n	80055e0 <_vfiprintf_r+0x20>
 8005620:	4b79      	ldr	r3, [pc, #484]	; (8005808 <_vfiprintf_r+0x248>)
 8005622:	429d      	cmp	r5, r3
 8005624:	bf08      	it	eq
 8005626:	68f5      	ldreq	r5, [r6, #12]
 8005628:	e7da      	b.n	80055e0 <_vfiprintf_r+0x20>
 800562a:	89ab      	ldrh	r3, [r5, #12]
 800562c:	0598      	lsls	r0, r3, #22
 800562e:	d4ed      	bmi.n	800560c <_vfiprintf_r+0x4c>
 8005630:	6da8      	ldr	r0, [r5, #88]	; 0x58
 8005632:	f7ff fdac 	bl	800518e <__retarget_lock_release_recursive>
 8005636:	e7e9      	b.n	800560c <_vfiprintf_r+0x4c>
 8005638:	2300      	movs	r3, #0
 800563a:	9309      	str	r3, [sp, #36]	; 0x24
 800563c:	2320      	movs	r3, #32
 800563e:	f88d 3029 	strb.w	r3, [sp, #41]	; 0x29
 8005642:	2330      	movs	r3, #48	; 0x30
 8005644:	f04f 0901 	mov.w	r9, #1
 8005648:	f8cd 800c 	str.w	r8, [sp, #12]
 800564c:	f8df 81bc 	ldr.w	r8, [pc, #444]	; 800580c <_vfiprintf_r+0x24c>
 8005650:	f88d 302a 	strb.w	r3, [sp, #42]	; 0x2a
 8005654:	4623      	mov	r3, r4
 8005656:	469a      	mov	sl, r3
 8005658:	f813 2b01 	ldrb.w	r2, [r3], #1
 800565c:	b10a      	cbz	r2, 8005662 <_vfiprintf_r+0xa2>
 800565e:	2a25      	cmp	r2, #37	; 0x25
 8005660:	d1f9      	bne.n	8005656 <_vfiprintf_r+0x96>
 8005662:	ebba 0b04 	subs.w	fp, sl, r4
 8005666:	d00b      	beq.n	8005680 <_vfiprintf_r+0xc0>
 8005668:	465b      	mov	r3, fp
 800566a:	4622      	mov	r2, r4
 800566c:	4629      	mov	r1, r5
 800566e:	4630      	mov	r0, r6
 8005670:	f7ff ff93 	bl	800559a <__sfputs_r>
 8005674:	3001      	adds	r0, #1
 8005676:	f000 80aa 	beq.w	80057ce <_vfiprintf_r+0x20e>
 800567a:	9a09      	ldr	r2, [sp, #36]	; 0x24
 800567c:	445a      	add	r2, fp
 800567e:	9209      	str	r2, [sp, #36]	; 0x24
 8005680:	f89a 3000 	ldrb.w	r3, [sl]
 8005684:	2b00      	cmp	r3, #0
 8005686:	f000 80a2 	beq.w	80057ce <_vfiprintf_r+0x20e>
 800568a:	2300      	movs	r3, #0
 800568c:	f04f 32ff 	mov.w	r2, #4294967295
 8005690:	e9cd 2305 	strd	r2, r3, [sp, #20]
 8005694:	f10a 0a01 	add.w	sl, sl, #1
 8005698:	9304      	str	r3, [sp, #16]
 800569a:	9307      	str	r3, [sp, #28]
 800569c:	f88d 3053 	strb.w	r3, [sp, #83]	; 0x53
 80056a0:	931a      	str	r3, [sp, #104]	; 0x68
 80056a2:	4654      	mov	r4, sl
 80056a4:	2205      	movs	r2, #5
 80056a6:	f814 1b01 	ldrb.w	r1, [r4], #1
 80056aa:	4858      	ldr	r0, [pc, #352]	; (800580c <_vfiprintf_r+0x24c>)
 80056ac:	f000 fcba 	bl	8006024 <memchr>
 80056b0:	9a04      	ldr	r2, [sp, #16]
 80056b2:	b9d8      	cbnz	r0, 80056ec <_vfiprintf_r+0x12c>
 80056b4:	06d1      	lsls	r1, r2, #27
 80056b6:	bf44      	itt	mi
 80056b8:	2320      	movmi	r3, #32
 80056ba:	f88d 3053 	strbmi.w	r3, [sp, #83]	; 0x53
 80056be:	0713      	lsls	r3, r2, #28
 80056c0:	bf44      	itt	mi
 80056c2:	232b      	movmi	r3, #43	; 0x2b
 80056c4:	f88d 3053 	strbmi.w	r3, [sp, #83]	; 0x53
 80056c8:	f89a 3000 	ldrb.w	r3, [sl]
 80056cc:	2b2a      	cmp	r3, #42	; 0x2a
 80056ce:	d015      	beq.n	80056fc <_vfiprintf_r+0x13c>
 80056d0:	4654      	mov	r4, sl
 80056d2:	2000      	movs	r0, #0
 80056d4:	f04f 0c0a 	mov.w	ip, #10
 80056d8:	9a07      	ldr	r2, [sp, #28]
 80056da:	4621      	mov	r1, r4
 80056dc:	f811 3b01 	ldrb.w	r3, [r1], #1
 80056e0:	3b30      	subs	r3, #48	; 0x30
 80056e2:	2b09      	cmp	r3, #9
 80056e4:	d94e      	bls.n	8005784 <_vfiprintf_r+0x1c4>
 80056e6:	b1b0      	cbz	r0, 8005716 <_vfiprintf_r+0x156>
 80056e8:	9207      	str	r2, [sp, #28]
 80056ea:	e014      	b.n	8005716 <_vfiprintf_r+0x156>
 80056ec:	eba0 0308 	sub.w	r3, r0, r8
 80056f0:	fa09 f303 	lsl.w	r3, r9, r3
 80056f4:	4313      	orrs	r3, r2
 80056f6:	46a2      	mov	sl, r4
 80056f8:	9304      	str	r3, [sp, #16]
 80056fa:	e7d2      	b.n	80056a2 <_vfiprintf_r+0xe2>
 80056fc:	9b03      	ldr	r3, [sp, #12]
 80056fe:	1d19      	adds	r1, r3, #4
 8005700:	681b      	ldr	r3, [r3, #0]
 8005702:	9103      	str	r1, [sp, #12]
 8005704:	2b00      	cmp	r3, #0
 8005706:	bfbb      	ittet	lt
 8005708:	425b      	neglt	r3, r3
 800570a:	f042 0202 	orrlt.w	r2, r2, #2
 800570e:	9307      	strge	r3, [sp, #28]
 8005710:	9307      	strlt	r3, [sp, #28]
 8005712:	bfb8      	it	lt
 8005714:	9204      	strlt	r2, [sp, #16]
 8005716:	7823      	ldrb	r3, [r4, #0]
 8005718:	2b2e      	cmp	r3, #46	; 0x2e
 800571a:	d10c      	bne.n	8005736 <_vfiprintf_r+0x176>
 800571c:	7863      	ldrb	r3, [r4, #1]
 800571e:	2b2a      	cmp	r3, #42	; 0x2a
 8005720:	d135      	bne.n	800578e <_vfiprintf_r+0x1ce>
 8005722:	9b03      	ldr	r3, [sp, #12]
 8005724:	3402      	adds	r4, #2
 8005726:	1d1a      	adds	r2, r3, #4
 8005728:	681b      	ldr	r3, [r3, #0]
 800572a:	9203      	str	r2, [sp, #12]
 800572c:	2b00      	cmp	r3, #0
 800572e:	bfb8      	it	lt
 8005730:	f04f 33ff 	movlt.w	r3, #4294967295
 8005734:	9305      	str	r3, [sp, #20]
 8005736:	f8df a0d8 	ldr.w	sl, [pc, #216]	; 8005810 <_vfiprintf_r+0x250>
 800573a:	2203      	movs	r2, #3
 800573c:	4650      	mov	r0, sl
 800573e:	7821      	ldrb	r1, [r4, #0]
 8005740:	f000 fc70 	bl	8006024 <memchr>
 8005744:	b140      	cbz	r0, 8005758 <_vfiprintf_r+0x198>
 8005746:	2340      	movs	r3, #64	; 0x40
 8005748:	eba0 000a 	sub.w	r0, r0, sl
 800574c:	fa03 f000 	lsl.w	r0, r3, r0
 8005750:	9b04      	ldr	r3, [sp, #16]
 8005752:	3401      	adds	r4, #1
 8005754:	4303      	orrs	r3, r0
 8005756:	9304      	str	r3, [sp, #16]
 8005758:	f814 1b01 	ldrb.w	r1, [r4], #1
 800575c:	2206      	movs	r2, #6
 800575e:	482d      	ldr	r0, [pc, #180]	; (8005814 <_vfiprintf_r+0x254>)
 8005760:	f88d 1028 	strb.w	r1, [sp, #40]	; 0x28
 8005764:	f000 fc5e 	bl	8006024 <memchr>
 8005768:	2800      	cmp	r0, #0
 800576a:	d03f      	beq.n	80057ec <_vfiprintf_r+0x22c>
 800576c:	4b2a      	ldr	r3, [pc, #168]	; (8005818 <_vfiprintf_r+0x258>)
 800576e:	bb1b      	cbnz	r3, 80057b8 <_vfiprintf_r+0x1f8>
 8005770:	9b03      	ldr	r3, [sp, #12]
 8005772:	3307      	adds	r3, #7
 8005774:	f023 0307 	bic.w	r3, r3, #7
 8005778:	3308      	adds	r3, #8
 800577a:	9303      	str	r3, [sp, #12]
 800577c:	9b09      	ldr	r3, [sp, #36]	; 0x24
 800577e:	443b      	add	r3, r7
 8005780:	9309      	str	r3, [sp, #36]	; 0x24
 8005782:	e767      	b.n	8005654 <_vfiprintf_r+0x94>
 8005784:	460c      	mov	r4, r1
 8005786:	2001      	movs	r0, #1
 8005788:	fb0c 3202 	mla	r2, ip, r2, r3
 800578c:	e7a5      	b.n	80056da <_vfiprintf_r+0x11a>
 800578e:	2300      	movs	r3, #0
 8005790:	f04f 0c0a 	mov.w	ip, #10
 8005794:	4619      	mov	r1, r3
 8005796:	3401      	adds	r4, #1
 8005798:	9305      	str	r3, [sp, #20]
 800579a:	4620      	mov	r0, r4
 800579c:	f810 2b01 	ldrb.w	r2, [r0], #1
 80057a0:	3a30      	subs	r2, #48	; 0x30
 80057a2:	2a09      	cmp	r2, #9
 80057a4:	d903      	bls.n	80057ae <_vfiprintf_r+0x1ee>
 80057a6:	2b00      	cmp	r3, #0
 80057a8:	d0c5      	beq.n	8005736 <_vfiprintf_r+0x176>
 80057aa:	9105      	str	r1, [sp, #20]
 80057ac:	e7c3      	b.n	8005736 <_vfiprintf_r+0x176>
 80057ae:	4604      	mov	r4, r0
 80057b0:	2301      	movs	r3, #1
 80057b2:	fb0c 2101 	mla	r1, ip, r1, r2
 80057b6:	e7f0      	b.n	800579a <_vfiprintf_r+0x1da>
 80057b8:	ab03      	add	r3, sp, #12
 80057ba:	9300      	str	r3, [sp, #0]
 80057bc:	462a      	mov	r2, r5
 80057be:	4630      	mov	r0, r6
 80057c0:	4b16      	ldr	r3, [pc, #88]	; (800581c <_vfiprintf_r+0x25c>)
 80057c2:	a904      	add	r1, sp, #16
 80057c4:	f3af 8000 	nop.w
 80057c8:	4607      	mov	r7, r0
 80057ca:	1c78      	adds	r0, r7, #1
 80057cc:	d1d6      	bne.n	800577c <_vfiprintf_r+0x1bc>
 80057ce:	6e6b      	ldr	r3, [r5, #100]	; 0x64
 80057d0:	07d9      	lsls	r1, r3, #31
 80057d2:	d405      	bmi.n	80057e0 <_vfiprintf_r+0x220>
 80057d4:	89ab      	ldrh	r3, [r5, #12]
 80057d6:	059a      	lsls	r2, r3, #22
 80057d8:	d402      	bmi.n	80057e0 <_vfiprintf_r+0x220>
 80057da:	6da8      	ldr	r0, [r5, #88]	; 0x58
 80057dc:	f7ff fcd7 	bl	800518e <__retarget_lock_release_recursive>
 80057e0:	89ab      	ldrh	r3, [r5, #12]
 80057e2:	065b      	lsls	r3, r3, #25
 80057e4:	f53f af12 	bmi.w	800560c <_vfiprintf_r+0x4c>
 80057e8:	9809      	ldr	r0, [sp, #36]	; 0x24
 80057ea:	e711      	b.n	8005610 <_vfiprintf_r+0x50>
 80057ec:	ab03      	add	r3, sp, #12
 80057ee:	9300      	str	r3, [sp, #0]
 80057f0:	462a      	mov	r2, r5
 80057f2:	4630      	mov	r0, r6
 80057f4:	4b09      	ldr	r3, [pc, #36]	; (800581c <_vfiprintf_r+0x25c>)
 80057f6:	a904      	add	r1, sp, #16
 80057f8:	f000 f882 	bl	8005900 <_printf_i>
 80057fc:	e7e4      	b.n	80057c8 <_vfiprintf_r+0x208>
 80057fe:	bf00      	nop
 8005800:	080062dc 	.word	0x080062dc
 8005804:	080062fc 	.word	0x080062fc
 8005808:	080062bc 	.word	0x080062bc
 800580c:	0800631c 	.word	0x0800631c
 8005810:	08006322 	.word	0x08006322
 8005814:	08006326 	.word	0x08006326
 8005818:	00000000 	.word	0x00000000
 800581c:	0800559b 	.word	0x0800559b

08005820 <_printf_common>:
 8005820:	e92d 47f0 	stmdb	sp!, {r4, r5, r6, r7, r8, r9, sl, lr}
 8005824:	4616      	mov	r6, r2
 8005826:	4699      	mov	r9, r3
 8005828:	688a      	ldr	r2, [r1, #8]
 800582a:	690b      	ldr	r3, [r1, #16]
 800582c:	4607      	mov	r7, r0
 800582e:	4293      	cmp	r3, r2
 8005830:	bfb8      	it	lt
 8005832:	4613      	movlt	r3, r2
 8005834:	6033      	str	r3, [r6, #0]
 8005836:	f891 2043 	ldrb.w	r2, [r1, #67]	; 0x43
 800583a:	460c      	mov	r4, r1
 800583c:	f8dd 8020 	ldr.w	r8, [sp, #32]
 8005840:	b10a      	cbz	r2, 8005846 <_printf_common+0x26>
 8005842:	3301      	adds	r3, #1
 8005844:	6033      	str	r3, [r6, #0]
 8005846:	6823      	ldr	r3, [r4, #0]
 8005848:	0699      	lsls	r1, r3, #26
 800584a:	bf42      	ittt	mi
 800584c:	6833      	ldrmi	r3, [r6, #0]
 800584e:	3302      	addmi	r3, #2
 8005850:	6033      	strmi	r3, [r6, #0]
 8005852:	6825      	ldr	r5, [r4, #0]
 8005854:	f015 0506 	ands.w	r5, r5, #6
 8005858:	d106      	bne.n	8005868 <_printf_common+0x48>
 800585a:	f104 0a19 	add.w	sl, r4, #25
 800585e:	68e3      	ldr	r3, [r4, #12]
 8005860:	6832      	ldr	r2, [r6, #0]
 8005862:	1a9b      	subs	r3, r3, r2
 8005864:	42ab      	cmp	r3, r5
 8005866:	dc28      	bgt.n	80058ba <_printf_common+0x9a>
 8005868:	f894 2043 	ldrb.w	r2, [r4, #67]	; 0x43
 800586c:	1e13      	subs	r3, r2, #0
 800586e:	6822      	ldr	r2, [r4, #0]
 8005870:	bf18      	it	ne
 8005872:	2301      	movne	r3, #1
 8005874:	0692      	lsls	r2, r2, #26
 8005876:	d42d      	bmi.n	80058d4 <_printf_common+0xb4>
 8005878:	4649      	mov	r1, r9
 800587a:	4638      	mov	r0, r7
 800587c:	f104 0243 	add.w	r2, r4, #67	; 0x43
 8005880:	47c0      	blx	r8
 8005882:	3001      	adds	r0, #1
 8005884:	d020      	beq.n	80058c8 <_printf_common+0xa8>
 8005886:	6823      	ldr	r3, [r4, #0]
 8005888:	68e5      	ldr	r5, [r4, #12]
 800588a:	f003 0306 	and.w	r3, r3, #6
 800588e:	2b04      	cmp	r3, #4
 8005890:	bf18      	it	ne
 8005892:	2500      	movne	r5, #0
 8005894:	6832      	ldr	r2, [r6, #0]
 8005896:	f04f 0600 	mov.w	r6, #0
 800589a:	68a3      	ldr	r3, [r4, #8]
 800589c:	bf08      	it	eq
 800589e:	1aad      	subeq	r5, r5, r2
 80058a0:	6922      	ldr	r2, [r4, #16]
 80058a2:	bf08      	it	eq
 80058a4:	ea25 75e5 	biceq.w	r5, r5, r5, asr #31
 80058a8:	4293      	cmp	r3, r2
 80058aa:	bfc4      	itt	gt
 80058ac:	1a9b      	subgt	r3, r3, r2
 80058ae:	18ed      	addgt	r5, r5, r3
 80058b0:	341a      	adds	r4, #26
 80058b2:	42b5      	cmp	r5, r6
 80058b4:	d11a      	bne.n	80058ec <_printf_common+0xcc>
 80058b6:	2000      	movs	r0, #0
 80058b8:	e008      	b.n	80058cc <_printf_common+0xac>
 80058ba:	2301      	movs	r3, #1
 80058bc:	4652      	mov	r2, sl
 80058be:	4649      	mov	r1, r9
 80058c0:	4638      	mov	r0, r7
 80058c2:	47c0      	blx	r8
 80058c4:	3001      	adds	r0, #1
 80058c6:	d103      	bne.n	80058d0 <_printf_common+0xb0>
 80058c8:	f04f 30ff 	mov.w	r0, #4294967295
 80058cc:	e8bd 87f0 	ldmia.w	sp!, {r4, r5, r6, r7, r8, r9, sl, pc}
 80058d0:	3501      	adds	r5, #1
 80058d2:	e7c4      	b.n	800585e <_printf_common+0x3e>
 80058d4:	2030      	movs	r0, #48	; 0x30
 80058d6:	18e1      	adds	r1, r4, r3
 80058d8:	f881 0043 	strb.w	r0, [r1, #67]	; 0x43
 80058dc:	1c5a      	adds	r2, r3, #1
 80058de:	f894 1045 	ldrb.w	r1, [r4, #69]	; 0x45
 80058e2:	4422      	add	r2, r4
 80058e4:	3302      	adds	r3, #2
 80058e6:	f882 1043 	strb.w	r1, [r2, #67]	; 0x43
 80058ea:	e7c5      	b.n	8005878 <_printf_common+0x58>
 80058ec:	2301      	movs	r3, #1
 80058ee:	4622      	mov	r2, r4
 80058f0:	4649      	mov	r1, r9
 80058f2:	4638      	mov	r0, r7
 80058f4:	47c0      	blx	r8
 80058f6:	3001      	adds	r0, #1
 80058f8:	d0e6      	beq.n	80058c8 <_printf_common+0xa8>
 80058fa:	3601      	adds	r6, #1
 80058fc:	e7d9      	b.n	80058b2 <_printf_common+0x92>
	...

08005900 <_printf_i>:
 8005900:	e92d 47ff 	stmdb	sp!, {r0, r1, r2, r3, r4, r5, r6, r7, r8, r9, sl, lr}
 8005904:	7e0f      	ldrb	r7, [r1, #24]
 8005906:	4691      	mov	r9, r2
 8005908:	2f78      	cmp	r7, #120	; 0x78
 800590a:	4680      	mov	r8, r0
 800590c:	460c      	mov	r4, r1
 800590e:	469a      	mov	sl, r3
 8005910:	9d0c      	ldr	r5, [sp, #48]	; 0x30
 8005912:	f101 0243 	add.w	r2, r1, #67	; 0x43
 8005916:	d807      	bhi.n	8005928 <_printf_i+0x28>
 8005918:	2f62      	cmp	r7, #98	; 0x62
 800591a:	d80a      	bhi.n	8005932 <_printf_i+0x32>
 800591c:	2f00      	cmp	r7, #0
 800591e:	f000 80d9 	beq.w	8005ad4 <_printf_i+0x1d4>
 8005922:	2f58      	cmp	r7, #88	; 0x58
 8005924:	f000 80a4 	beq.w	8005a70 <_printf_i+0x170>
 8005928:	f104 0542 	add.w	r5, r4, #66	; 0x42
 800592c:	f884 7042 	strb.w	r7, [r4, #66]	; 0x42
 8005930:	e03a      	b.n	80059a8 <_printf_i+0xa8>
 8005932:	f1a7 0363 	sub.w	r3, r7, #99	; 0x63
 8005936:	2b15      	cmp	r3, #21
 8005938:	d8f6      	bhi.n	8005928 <_printf_i+0x28>
 800593a:	a101      	add	r1, pc, #4	; (adr r1, 8005940 <_printf_i+0x40>)
 800593c:	f851 f023 	ldr.w	pc, [r1, r3, lsl #2]
 8005940:	08005999 	.word	0x08005999
 8005944:	080059ad 	.word	0x080059ad
 8005948:	08005929 	.word	0x08005929
 800594c:	08005929 	.word	0x08005929
 8005950:	08005929 	.word	0x08005929
 8005954:	08005929 	.word	0x08005929
 8005958:	080059ad 	.word	0x080059ad
 800595c:	08005929 	.word	0x08005929
 8005960:	08005929 	.word	0x08005929
 8005964:	08005929 	.word	0x08005929
 8005968:	08005929 	.word	0x08005929
 800596c:	08005abb 	.word	0x08005abb
 8005970:	080059dd 	.word	0x080059dd
 8005974:	08005a9d 	.word	0x08005a9d
 8005978:	08005929 	.word	0x08005929
 800597c:	08005929 	.word	0x08005929
 8005980:	08005add 	.word	0x08005add
 8005984:	08005929 	.word	0x08005929
 8005988:	080059dd 	.word	0x080059dd
 800598c:	08005929 	.word	0x08005929
 8005990:	08005929 	.word	0x08005929
 8005994:	08005aa5 	.word	0x08005aa5
 8005998:	682b      	ldr	r3, [r5, #0]
 800599a:	1d1a      	adds	r2, r3, #4
 800599c:	681b      	ldr	r3, [r3, #0]
 800599e:	602a      	str	r2, [r5, #0]
 80059a0:	f104 0542 	add.w	r5, r4, #66	; 0x42
 80059a4:	f884 3042 	strb.w	r3, [r4, #66]	; 0x42
 80059a8:	2301      	movs	r3, #1
 80059aa:	e0a4      	b.n	8005af6 <_printf_i+0x1f6>
 80059ac:	6820      	ldr	r0, [r4, #0]
 80059ae:	6829      	ldr	r1, [r5, #0]
 80059b0:	0606      	lsls	r6, r0, #24
 80059b2:	f101 0304 	add.w	r3, r1, #4
 80059b6:	d50a      	bpl.n	80059ce <_printf_i+0xce>
 80059b8:	680e      	ldr	r6, [r1, #0]
 80059ba:	602b      	str	r3, [r5, #0]
 80059bc:	2e00      	cmp	r6, #0
 80059be:	da03      	bge.n	80059c8 <_printf_i+0xc8>
 80059c0:	232d      	movs	r3, #45	; 0x2d
 80059c2:	4276      	negs	r6, r6
 80059c4:	f884 3043 	strb.w	r3, [r4, #67]	; 0x43
 80059c8:	230a      	movs	r3, #10
 80059ca:	485e      	ldr	r0, [pc, #376]	; (8005b44 <_printf_i+0x244>)
 80059cc:	e019      	b.n	8005a02 <_printf_i+0x102>
 80059ce:	680e      	ldr	r6, [r1, #0]
 80059d0:	f010 0f40 	tst.w	r0, #64	; 0x40
 80059d4:	602b      	str	r3, [r5, #0]
 80059d6:	bf18      	it	ne
 80059d8:	b236      	sxthne	r6, r6
 80059da:	e7ef      	b.n	80059bc <_printf_i+0xbc>
 80059dc:	682b      	ldr	r3, [r5, #0]
 80059de:	6820      	ldr	r0, [r4, #0]
 80059e0:	1d19      	adds	r1, r3, #4
 80059e2:	6029      	str	r1, [r5, #0]
 80059e4:	0601      	lsls	r1, r0, #24
 80059e6:	d501      	bpl.n	80059ec <_printf_i+0xec>
 80059e8:	681e      	ldr	r6, [r3, #0]
 80059ea:	e002      	b.n	80059f2 <_printf_i+0xf2>
 80059ec:	0646      	lsls	r6, r0, #25
 80059ee:	d5fb      	bpl.n	80059e8 <_printf_i+0xe8>
 80059f0:	881e      	ldrh	r6, [r3, #0]
 80059f2:	2f6f      	cmp	r7, #111	; 0x6f
 80059f4:	bf0c      	ite	eq
 80059f6:	2308      	moveq	r3, #8
 80059f8:	230a      	movne	r3, #10
 80059fa:	4852      	ldr	r0, [pc, #328]	; (8005b44 <_printf_i+0x244>)
 80059fc:	2100      	movs	r1, #0
 80059fe:	f884 1043 	strb.w	r1, [r4, #67]	; 0x43
 8005a02:	6865      	ldr	r5, [r4, #4]
 8005a04:	2d00      	cmp	r5, #0
 8005a06:	bfa8      	it	ge
 8005a08:	6821      	ldrge	r1, [r4, #0]
 8005a0a:	60a5      	str	r5, [r4, #8]
 8005a0c:	bfa4      	itt	ge
 8005a0e:	f021 0104 	bicge.w	r1, r1, #4
 8005a12:	6021      	strge	r1, [r4, #0]
 8005a14:	b90e      	cbnz	r6, 8005a1a <_printf_i+0x11a>
 8005a16:	2d00      	cmp	r5, #0
 8005a18:	d04d      	beq.n	8005ab6 <_printf_i+0x1b6>
 8005a1a:	4615      	mov	r5, r2
 8005a1c:	fbb6 f1f3 	udiv	r1, r6, r3
 8005a20:	fb03 6711 	mls	r7, r3, r1, r6
 8005a24:	5dc7      	ldrb	r7, [r0, r7]
 8005a26:	f805 7d01 	strb.w	r7, [r5, #-1]!
 8005a2a:	4637      	mov	r7, r6
 8005a2c:	42bb      	cmp	r3, r7
 8005a2e:	460e      	mov	r6, r1
 8005a30:	d9f4      	bls.n	8005a1c <_printf_i+0x11c>
 8005a32:	2b08      	cmp	r3, #8
 8005a34:	d10b      	bne.n	8005a4e <_printf_i+0x14e>
 8005a36:	6823      	ldr	r3, [r4, #0]
 8005a38:	07de      	lsls	r6, r3, #31
 8005a3a:	d508      	bpl.n	8005a4e <_printf_i+0x14e>
 8005a3c:	6923      	ldr	r3, [r4, #16]
 8005a3e:	6861      	ldr	r1, [r4, #4]
 8005a40:	4299      	cmp	r1, r3
 8005a42:	bfde      	ittt	le
 8005a44:	2330      	movle	r3, #48	; 0x30
 8005a46:	f805 3c01 	strble.w	r3, [r5, #-1]
 8005a4a:	f105 35ff 	addle.w	r5, r5, #4294967295
 8005a4e:	1b52      	subs	r2, r2, r5
 8005a50:	6122      	str	r2, [r4, #16]
 8005a52:	464b      	mov	r3, r9
 8005a54:	4621      	mov	r1, r4
 8005a56:	4640      	mov	r0, r8
 8005a58:	f8cd a000 	str.w	sl, [sp]
 8005a5c:	aa03      	add	r2, sp, #12
 8005a5e:	f7ff fedf 	bl	8005820 <_printf_common>
 8005a62:	3001      	adds	r0, #1
 8005a64:	d14c      	bne.n	8005b00 <_printf_i+0x200>
 8005a66:	f04f 30ff 	mov.w	r0, #4294967295
 8005a6a:	b004      	add	sp, #16
 8005a6c:	e8bd 87f0 	ldmia.w	sp!, {r4, r5, r6, r7, r8, r9, sl, pc}
 8005a70:	4834      	ldr	r0, [pc, #208]	; (8005b44 <_printf_i+0x244>)
 8005a72:	f881 7045 	strb.w	r7, [r1, #69]	; 0x45
 8005a76:	6829      	ldr	r1, [r5, #0]
 8005a78:	6823      	ldr	r3, [r4, #0]
 8005a7a:	f851 6b04 	ldr.w	r6, [r1], #4
 8005a7e:	6029      	str	r1, [r5, #0]
 8005a80:	061d      	lsls	r5, r3, #24
 8005a82:	d514      	bpl.n	8005aae <_printf_i+0x1ae>
 8005a84:	07df      	lsls	r7, r3, #31
 8005a86:	bf44      	itt	mi
 8005a88:	f043 0320 	orrmi.w	r3, r3, #32
 8005a8c:	6023      	strmi	r3, [r4, #0]
 8005a8e:	b91e      	cbnz	r6, 8005a98 <_printf_i+0x198>
 8005a90:	6823      	ldr	r3, [r4, #0]
 8005a92:	f023 0320 	bic.w	r3, r3, #32
 8005a96:	6023      	str	r3, [r4, #0]
 8005a98:	2310      	movs	r3, #16
 8005a9a:	e7af      	b.n	80059fc <_printf_i+0xfc>
 8005a9c:	6823      	ldr	r3, [r4, #0]
 8005a9e:	f043 0320 	orr.w	r3, r3, #32
 8005aa2:	6023      	str	r3, [r4, #0]
 8005aa4:	2378      	movs	r3, #120	; 0x78
 8005aa6:	4828      	ldr	r0, [pc, #160]	; (8005b48 <_printf_i+0x248>)
 8005aa8:	f884 3045 	strb.w	r3, [r4, #69]	; 0x45
 8005aac:	e7e3      	b.n	8005a76 <_printf_i+0x176>
 8005aae:	0659      	lsls	r1, r3, #25
 8005ab0:	bf48      	it	mi
 8005ab2:	b2b6      	uxthmi	r6, r6
 8005ab4:	e7e6      	b.n	8005a84 <_printf_i+0x184>
 8005ab6:	4615      	mov	r5, r2
 8005ab8:	e7bb      	b.n	8005a32 <_printf_i+0x132>
 8005aba:	682b      	ldr	r3, [r5, #0]
 8005abc:	6826      	ldr	r6, [r4, #0]
 8005abe:	1d18      	adds	r0, r3, #4
 8005ac0:	6961      	ldr	r1, [r4, #20]
 8005ac2:	6028      	str	r0, [r5, #0]
 8005ac4:	0635      	lsls	r5, r6, #24
 8005ac6:	681b      	ldr	r3, [r3, #0]
 8005ac8:	d501      	bpl.n	8005ace <_printf_i+0x1ce>
 8005aca:	6019      	str	r1, [r3, #0]
 8005acc:	e002      	b.n	8005ad4 <_printf_i+0x1d4>
 8005ace:	0670      	lsls	r0, r6, #25
 8005ad0:	d5fb      	bpl.n	8005aca <_printf_i+0x1ca>
 8005ad2:	8019      	strh	r1, [r3, #0]
 8005ad4:	2300      	movs	r3, #0
 8005ad6:	4615      	mov	r5, r2
 8005ad8:	6123      	str	r3, [r4, #16]
 8005ada:	e7ba      	b.n	8005a52 <_printf_i+0x152>
 8005adc:	682b      	ldr	r3, [r5, #0]
 8005ade:	2100      	movs	r1, #0
 8005ae0:	1d1a      	adds	r2, r3, #4
 8005ae2:	602a      	str	r2, [r5, #0]
 8005ae4:	681d      	ldr	r5, [r3, #0]
 8005ae6:	6862      	ldr	r2, [r4, #4]
 8005ae8:	4628      	mov	r0, r5
 8005aea:	f000 fa9b 	bl	8006024 <memchr>
 8005aee:	b108      	cbz	r0, 8005af4 <_printf_i+0x1f4>
 8005af0:	1b40      	subs	r0, r0, r5
 8005af2:	6060      	str	r0, [r4, #4]
 8005af4:	6863      	ldr	r3, [r4, #4]
 8005af6:	6123      	str	r3, [r4, #16]
 8005af8:	2300      	movs	r3, #0
 8005afa:	f884 3043 	strb.w	r3, [r4, #67]	; 0x43
 8005afe:	e7a8      	b.n	8005a52 <_printf_i+0x152>
 8005b00:	462a      	mov	r2, r5
 8005b02:	4649      	mov	r1, r9
 8005b04:	4640      	mov	r0, r8
 8005b06:	6923      	ldr	r3, [r4, #16]
 8005b08:	47d0      	blx	sl
 8005b0a:	3001      	adds	r0, #1
 8005b0c:	d0ab      	beq.n	8005a66 <_printf_i+0x166>
 8005b0e:	6823      	ldr	r3, [r4, #0]
 8005b10:	079b      	lsls	r3, r3, #30
 8005b12:	d413      	bmi.n	8005b3c <_printf_i+0x23c>
 8005b14:	68e0      	ldr	r0, [r4, #12]
 8005b16:	9b03      	ldr	r3, [sp, #12]
 8005b18:	4298      	cmp	r0, r3
 8005b1a:	bfb8      	it	lt
 8005b1c:	4618      	movlt	r0, r3
 8005b1e:	e7a4      	b.n	8005a6a <_printf_i+0x16a>
 8005b20:	2301      	movs	r3, #1
 8005b22:	4632      	mov	r2, r6
 8005b24:	4649      	mov	r1, r9
 8005b26:	4640      	mov	r0, r8
 8005b28:	47d0      	blx	sl
 8005b2a:	3001      	adds	r0, #1
 8005b2c:	d09b      	beq.n	8005a66 <_printf_i+0x166>
 8005b2e:	3501      	adds	r5, #1
 8005b30:	68e3      	ldr	r3, [r4, #12]
 8005b32:	9903      	ldr	r1, [sp, #12]
 8005b34:	1a5b      	subs	r3, r3, r1
 8005b36:	42ab      	cmp	r3, r5
 8005b38:	dcf2      	bgt.n	8005b20 <_printf_i+0x220>
 8005b3a:	e7eb      	b.n	8005b14 <_printf_i+0x214>
 8005b3c:	2500      	movs	r5, #0
 8005b3e:	f104 0619 	add.w	r6, r4, #25
 8005b42:	e7f5      	b.n	8005b30 <_printf_i+0x230>
 8005b44:	0800632d 	.word	0x0800632d
 8005b48:	0800633e 	.word	0x0800633e

08005b4c <_sbrk_r>:
 8005b4c:	b538      	push	{r3, r4, r5, lr}
 8005b4e:	2300      	movs	r3, #0
 8005b50:	4d05      	ldr	r5, [pc, #20]	; (8005b68 <_sbrk_r+0x1c>)
 8005b52:	4604      	mov	r4, r0
 8005b54:	4608      	mov	r0, r1
 8005b56:	602b      	str	r3, [r5, #0]
 8005b58:	f7fb fb66 	bl	8001228 <_sbrk>
 8005b5c:	1c43      	adds	r3, r0, #1
 8005b5e:	d102      	bne.n	8005b66 <_sbrk_r+0x1a>
 8005b60:	682b      	ldr	r3, [r5, #0]
 8005b62:	b103      	cbz	r3, 8005b66 <_sbrk_r+0x1a>
 8005b64:	6023      	str	r3, [r4, #0]
 8005b66:	bd38      	pop	{r3, r4, r5, pc}
 8005b68:	200002b0 	.word	0x200002b0

08005b6c <__sread>:
 8005b6c:	b510      	push	{r4, lr}
 8005b6e:	460c      	mov	r4, r1
 8005b70:	f9b1 100e 	ldrsh.w	r1, [r1, #14]
 8005b74:	f000 fb10 	bl	8006198 <_read_r>
 8005b78:	2800      	cmp	r0, #0
 8005b7a:	bfab      	itete	ge
 8005b7c:	6d63      	ldrge	r3, [r4, #84]	; 0x54
 8005b7e:	89a3      	ldrhlt	r3, [r4, #12]
 8005b80:	181b      	addge	r3, r3, r0
 8005b82:	f423 5380 	biclt.w	r3, r3, #4096	; 0x1000
 8005b86:	bfac      	ite	ge
 8005b88:	6563      	strge	r3, [r4, #84]	; 0x54
 8005b8a:	81a3      	strhlt	r3, [r4, #12]
 8005b8c:	bd10      	pop	{r4, pc}

08005b8e <__swrite>:
 8005b8e:	e92d 41f0 	stmdb	sp!, {r4, r5, r6, r7, r8, lr}
 8005b92:	461f      	mov	r7, r3
 8005b94:	898b      	ldrh	r3, [r1, #12]
 8005b96:	4605      	mov	r5, r0
 8005b98:	05db      	lsls	r3, r3, #23
 8005b9a:	460c      	mov	r4, r1
 8005b9c:	4616      	mov	r6, r2
 8005b9e:	d505      	bpl.n	8005bac <__swrite+0x1e>
 8005ba0:	2302      	movs	r3, #2
 8005ba2:	2200      	movs	r2, #0
 8005ba4:	f9b1 100e 	ldrsh.w	r1, [r1, #14]
 8005ba8:	f000 f9c4 	bl	8005f34 <_lseek_r>
 8005bac:	89a3      	ldrh	r3, [r4, #12]
 8005bae:	4632      	mov	r2, r6
 8005bb0:	f423 5380 	bic.w	r3, r3, #4096	; 0x1000
 8005bb4:	81a3      	strh	r3, [r4, #12]
 8005bb6:	4628      	mov	r0, r5
 8005bb8:	463b      	mov	r3, r7
 8005bba:	f9b4 100e 	ldrsh.w	r1, [r4, #14]
 8005bbe:	e8bd 41f0 	ldmia.w	sp!, {r4, r5, r6, r7, r8, lr}
 8005bc2:	f000 b869 	b.w	8005c98 <_write_r>

08005bc6 <__sseek>:
 8005bc6:	b510      	push	{r4, lr}
 8005bc8:	460c      	mov	r4, r1
 8005bca:	f9b1 100e 	ldrsh.w	r1, [r1, #14]
 8005bce:	f000 f9b1 	bl	8005f34 <_lseek_r>
 8005bd2:	1c43      	adds	r3, r0, #1
 8005bd4:	89a3      	ldrh	r3, [r4, #12]
 8005bd6:	bf15      	itete	ne
 8005bd8:	6560      	strne	r0, [r4, #84]	; 0x54
 8005bda:	f423 5380 	biceq.w	r3, r3, #4096	; 0x1000
 8005bde:	f443 5380 	orrne.w	r3, r3, #4096	; 0x1000
 8005be2:	81a3      	strheq	r3, [r4, #12]
 8005be4:	bf18      	it	ne
 8005be6:	81a3      	strhne	r3, [r4, #12]
 8005be8:	bd10      	pop	{r4, pc}

08005bea <__sclose>:
 8005bea:	f9b1 100e 	ldrsh.w	r1, [r1, #14]
 8005bee:	f000 b8d3 	b.w	8005d98 <_close_r>
	...

08005bf4 <__swbuf_r>:
 8005bf4:	b5f8      	push	{r3, r4, r5, r6, r7, lr}
 8005bf6:	460e      	mov	r6, r1
 8005bf8:	4614      	mov	r4, r2
 8005bfa:	4605      	mov	r5, r0
 8005bfc:	b118      	cbz	r0, 8005c06 <__swbuf_r+0x12>
 8005bfe:	6983      	ldr	r3, [r0, #24]
 8005c00:	b90b      	cbnz	r3, 8005c06 <__swbuf_r+0x12>
 8005c02:	f7ff fa25 	bl	8005050 <__sinit>
 8005c06:	4b21      	ldr	r3, [pc, #132]	; (8005c8c <__swbuf_r+0x98>)
 8005c08:	429c      	cmp	r4, r3
 8005c0a:	d12b      	bne.n	8005c64 <__swbuf_r+0x70>
 8005c0c:	686c      	ldr	r4, [r5, #4]
 8005c0e:	69a3      	ldr	r3, [r4, #24]
 8005c10:	60a3      	str	r3, [r4, #8]
 8005c12:	89a3      	ldrh	r3, [r4, #12]
 8005c14:	071a      	lsls	r2, r3, #28
 8005c16:	d52f      	bpl.n	8005c78 <__swbuf_r+0x84>
 8005c18:	6923      	ldr	r3, [r4, #16]
 8005c1a:	b36b      	cbz	r3, 8005c78 <__swbuf_r+0x84>
 8005c1c:	6923      	ldr	r3, [r4, #16]
 8005c1e:	6820      	ldr	r0, [r4, #0]
 8005c20:	b2f6      	uxtb	r6, r6
 8005c22:	1ac0      	subs	r0, r0, r3
 8005c24:	6963      	ldr	r3, [r4, #20]
 8005c26:	4637      	mov	r7, r6
 8005c28:	4283      	cmp	r3, r0
 8005c2a:	dc04      	bgt.n	8005c36 <__swbuf_r+0x42>
 8005c2c:	4621      	mov	r1, r4
 8005c2e:	4628      	mov	r0, r5
 8005c30:	f000 f944 	bl	8005ebc <_fflush_r>
 8005c34:	bb30      	cbnz	r0, 8005c84 <__swbuf_r+0x90>
 8005c36:	68a3      	ldr	r3, [r4, #8]
 8005c38:	3001      	adds	r0, #1
 8005c3a:	3b01      	subs	r3, #1
 8005c3c:	60a3      	str	r3, [r4, #8]
 8005c3e:	6823      	ldr	r3, [r4, #0]
 8005c40:	1c5a      	adds	r2, r3, #1
 8005c42:	6022      	str	r2, [r4, #0]
 8005c44:	701e      	strb	r6, [r3, #0]
 8005c46:	6963      	ldr	r3, [r4, #20]
 8005c48:	4283      	cmp	r3, r0
 8005c4a:	d004      	beq.n	8005c56 <__swbuf_r+0x62>
 8005c4c:	89a3      	ldrh	r3, [r4, #12]
 8005c4e:	07db      	lsls	r3, r3, #31
 8005c50:	d506      	bpl.n	8005c60 <__swbuf_r+0x6c>
 8005c52:	2e0a      	cmp	r6, #10
 8005c54:	d104      	bne.n	8005c60 <__swbuf_r+0x6c>
 8005c56:	4621      	mov	r1, r4
 8005c58:	4628      	mov	r0, r5
 8005c5a:	f000 f92f 	bl	8005ebc <_fflush_r>
 8005c5e:	b988      	cbnz	r0, 8005c84 <__swbuf_r+0x90>
 8005c60:	4638      	mov	r0, r7
 8005c62:	bdf8      	pop	{r3, r4, r5, r6, r7, pc}
 8005c64:	4b0a      	ldr	r3, [pc, #40]	; (8005c90 <__swbuf_r+0x9c>)
 8005c66:	429c      	cmp	r4, r3
 8005c68:	d101      	bne.n	8005c6e <__swbuf_r+0x7a>
 8005c6a:	68ac      	ldr	r4, [r5, #8]
 8005c6c:	e7cf      	b.n	8005c0e <__swbuf_r+0x1a>
 8005c6e:	4b09      	ldr	r3, [pc, #36]	; (8005c94 <__swbuf_r+0xa0>)
 8005c70:	429c      	cmp	r4, r3
 8005c72:	bf08      	it	eq
 8005c74:	68ec      	ldreq	r4, [r5, #12]
 8005c76:	e7ca      	b.n	8005c0e <__swbuf_r+0x1a>
 8005c78:	4621      	mov	r1, r4
 8005c7a:	4628      	mov	r0, r5
 8005c7c:	f000 f81e 	bl	8005cbc <__swsetup_r>
 8005c80:	2800      	cmp	r0, #0
 8005c82:	d0cb      	beq.n	8005c1c <__swbuf_r+0x28>
 8005c84:	f04f 37ff 	mov.w	r7, #4294967295
 8005c88:	e7ea      	b.n	8005c60 <__swbuf_r+0x6c>
 8005c8a:	bf00      	nop
 8005c8c:	080062dc 	.word	0x080062dc
 8005c90:	080062fc 	.word	0x080062fc
 8005c94:	080062bc 	.word	0x080062bc

08005c98 <_write_r>:
 8005c98:	b538      	push	{r3, r4, r5, lr}
 8005c9a:	4604      	mov	r4, r0
 8005c9c:	4608      	mov	r0, r1
 8005c9e:	4611      	mov	r1, r2
 8005ca0:	2200      	movs	r2, #0
 8005ca2:	4d05      	ldr	r5, [pc, #20]	; (8005cb8 <_write_r+0x20>)
 8005ca4:	602a      	str	r2, [r5, #0]
 8005ca6:	461a      	mov	r2, r3
 8005ca8:	f7fb fa71 	bl	800118e <_write>
 8005cac:	1c43      	adds	r3, r0, #1
 8005cae:	d102      	bne.n	8005cb6 <_write_r+0x1e>
 8005cb0:	682b      	ldr	r3, [r5, #0]
 8005cb2:	b103      	cbz	r3, 8005cb6 <_write_r+0x1e>
 8005cb4:	6023      	str	r3, [r4, #0]
 8005cb6:	bd38      	pop	{r3, r4, r5, pc}
 8005cb8:	200002b0 	.word	0x200002b0

08005cbc <__swsetup_r>:
 8005cbc:	4b32      	ldr	r3, [pc, #200]	; (8005d88 <__swsetup_r+0xcc>)
 8005cbe:	b570      	push	{r4, r5, r6, lr}
 8005cc0:	681d      	ldr	r5, [r3, #0]
 8005cc2:	4606      	mov	r6, r0
 8005cc4:	460c      	mov	r4, r1
 8005cc6:	b125      	cbz	r5, 8005cd2 <__swsetup_r+0x16>
 8005cc8:	69ab      	ldr	r3, [r5, #24]
 8005cca:	b913      	cbnz	r3, 8005cd2 <__swsetup_r+0x16>
 8005ccc:	4628      	mov	r0, r5
 8005cce:	f7ff f9bf 	bl	8005050 <__sinit>
 8005cd2:	4b2e      	ldr	r3, [pc, #184]	; (8005d8c <__swsetup_r+0xd0>)
 8005cd4:	429c      	cmp	r4, r3
 8005cd6:	d10f      	bne.n	8005cf8 <__swsetup_r+0x3c>
 8005cd8:	686c      	ldr	r4, [r5, #4]
 8005cda:	89a3      	ldrh	r3, [r4, #12]
 8005cdc:	f9b4 200c 	ldrsh.w	r2, [r4, #12]
 8005ce0:	0719      	lsls	r1, r3, #28
 8005ce2:	d42c      	bmi.n	8005d3e <__swsetup_r+0x82>
 8005ce4:	06dd      	lsls	r5, r3, #27
 8005ce6:	d411      	bmi.n	8005d0c <__swsetup_r+0x50>
 8005ce8:	2309      	movs	r3, #9
 8005cea:	6033      	str	r3, [r6, #0]
 8005cec:	f042 0340 	orr.w	r3, r2, #64	; 0x40
 8005cf0:	f04f 30ff 	mov.w	r0, #4294967295
 8005cf4:	81a3      	strh	r3, [r4, #12]
 8005cf6:	e03e      	b.n	8005d76 <__swsetup_r+0xba>
 8005cf8:	4b25      	ldr	r3, [pc, #148]	; (8005d90 <__swsetup_r+0xd4>)
 8005cfa:	429c      	cmp	r4, r3
 8005cfc:	d101      	bne.n	8005d02 <__swsetup_r+0x46>
 8005cfe:	68ac      	ldr	r4, [r5, #8]
 8005d00:	e7eb      	b.n	8005cda <__swsetup_r+0x1e>
 8005d02:	4b24      	ldr	r3, [pc, #144]	; (8005d94 <__swsetup_r+0xd8>)
 8005d04:	429c      	cmp	r4, r3
 8005d06:	bf08      	it	eq
 8005d08:	68ec      	ldreq	r4, [r5, #12]
 8005d0a:	e7e6      	b.n	8005cda <__swsetup_r+0x1e>
 8005d0c:	0758      	lsls	r0, r3, #29
 8005d0e:	d512      	bpl.n	8005d36 <__swsetup_r+0x7a>
 8005d10:	6b61      	ldr	r1, [r4, #52]	; 0x34
 8005d12:	b141      	cbz	r1, 8005d26 <__swsetup_r+0x6a>
 8005d14:	f104 0344 	add.w	r3, r4, #68	; 0x44
 8005d18:	4299      	cmp	r1, r3
 8005d1a:	d002      	beq.n	8005d22 <__swsetup_r+0x66>
 8005d1c:	4630      	mov	r0, r6
 8005d1e:	f000 f9c3 	bl	80060a8 <_free_r>
 8005d22:	2300      	movs	r3, #0
 8005d24:	6363      	str	r3, [r4, #52]	; 0x34
 8005d26:	89a3      	ldrh	r3, [r4, #12]
 8005d28:	f023 0324 	bic.w	r3, r3, #36	; 0x24
 8005d2c:	81a3      	strh	r3, [r4, #12]
 8005d2e:	2300      	movs	r3, #0
 8005d30:	6063      	str	r3, [r4, #4]
 8005d32:	6923      	ldr	r3, [r4, #16]
 8005d34:	6023      	str	r3, [r4, #0]
 8005d36:	89a3      	ldrh	r3, [r4, #12]
 8005d38:	f043 0308 	orr.w	r3, r3, #8
 8005d3c:	81a3      	strh	r3, [r4, #12]
 8005d3e:	6923      	ldr	r3, [r4, #16]
 8005d40:	b94b      	cbnz	r3, 8005d56 <__swsetup_r+0x9a>
 8005d42:	89a3      	ldrh	r3, [r4, #12]
 8005d44:	f403 7320 	and.w	r3, r3, #640	; 0x280
 8005d48:	f5b3 7f00 	cmp.w	r3, #512	; 0x200
 8005d4c:	d003      	beq.n	8005d56 <__swsetup_r+0x9a>
 8005d4e:	4621      	mov	r1, r4
 8005d50:	4630      	mov	r0, r6
 8005d52:	f000 f927 	bl	8005fa4 <__smakebuf_r>
 8005d56:	89a0      	ldrh	r0, [r4, #12]
 8005d58:	f9b4 200c 	ldrsh.w	r2, [r4, #12]
 8005d5c:	f010 0301 	ands.w	r3, r0, #1
 8005d60:	d00a      	beq.n	8005d78 <__swsetup_r+0xbc>
 8005d62:	2300      	movs	r3, #0
 8005d64:	60a3      	str	r3, [r4, #8]
 8005d66:	6963      	ldr	r3, [r4, #20]
 8005d68:	425b      	negs	r3, r3
 8005d6a:	61a3      	str	r3, [r4, #24]
 8005d6c:	6923      	ldr	r3, [r4, #16]
 8005d6e:	b943      	cbnz	r3, 8005d82 <__swsetup_r+0xc6>
 8005d70:	f010 0080 	ands.w	r0, r0, #128	; 0x80
 8005d74:	d1ba      	bne.n	8005cec <__swsetup_r+0x30>
 8005d76:	bd70      	pop	{r4, r5, r6, pc}
 8005d78:	0781      	lsls	r1, r0, #30
 8005d7a:	bf58      	it	pl
 8005d7c:	6963      	ldrpl	r3, [r4, #20]
 8005d7e:	60a3      	str	r3, [r4, #8]
 8005d80:	e7f4      	b.n	8005d6c <__swsetup_r+0xb0>
 8005d82:	2000      	movs	r0, #0
 8005d84:	e7f7      	b.n	8005d76 <__swsetup_r+0xba>
 8005d86:	bf00      	nop
 8005d88:	20000010 	.word	0x20000010
 8005d8c:	080062dc 	.word	0x080062dc
 8005d90:	080062fc 	.word	0x080062fc
 8005d94:	080062bc 	.word	0x080062bc

08005d98 <_close_r>:
 8005d98:	b538      	push	{r3, r4, r5, lr}
 8005d9a:	2300      	movs	r3, #0
 8005d9c:	4d05      	ldr	r5, [pc, #20]	; (8005db4 <_close_r+0x1c>)
 8005d9e:	4604      	mov	r4, r0
 8005da0:	4608      	mov	r0, r1
 8005da2:	602b      	str	r3, [r5, #0]
 8005da4:	f7fb fa0f 	bl	80011c6 <_close>
 8005da8:	1c43      	adds	r3, r0, #1
 8005daa:	d102      	bne.n	8005db2 <_close_r+0x1a>
 8005dac:	682b      	ldr	r3, [r5, #0]
 8005dae:	b103      	cbz	r3, 8005db2 <_close_r+0x1a>
 8005db0:	6023      	str	r3, [r4, #0]
 8005db2:	bd38      	pop	{r3, r4, r5, pc}
 8005db4:	200002b0 	.word	0x200002b0

08005db8 <__sflush_r>:
 8005db8:	898a      	ldrh	r2, [r1, #12]
 8005dba:	b5f8      	push	{r3, r4, r5, r6, r7, lr}
 8005dbc:	4605      	mov	r5, r0
 8005dbe:	0710      	lsls	r0, r2, #28
 8005dc0:	460c      	mov	r4, r1
 8005dc2:	d457      	bmi.n	8005e74 <__sflush_r+0xbc>
 8005dc4:	684b      	ldr	r3, [r1, #4]
 8005dc6:	2b00      	cmp	r3, #0
 8005dc8:	dc04      	bgt.n	8005dd4 <__sflush_r+0x1c>
 8005dca:	6c0b      	ldr	r3, [r1, #64]	; 0x40
 8005dcc:	2b00      	cmp	r3, #0
 8005dce:	dc01      	bgt.n	8005dd4 <__sflush_r+0x1c>
 8005dd0:	2000      	movs	r0, #0
 8005dd2:	bdf8      	pop	{r3, r4, r5, r6, r7, pc}
 8005dd4:	6ae6      	ldr	r6, [r4, #44]	; 0x2c
 8005dd6:	2e00      	cmp	r6, #0
 8005dd8:	d0fa      	beq.n	8005dd0 <__sflush_r+0x18>
 8005dda:	2300      	movs	r3, #0
 8005ddc:	f412 5280 	ands.w	r2, r2, #4096	; 0x1000
 8005de0:	682f      	ldr	r7, [r5, #0]
 8005de2:	602b      	str	r3, [r5, #0]
 8005de4:	d032      	beq.n	8005e4c <__sflush_r+0x94>
 8005de6:	6d60      	ldr	r0, [r4, #84]	; 0x54
 8005de8:	89a3      	ldrh	r3, [r4, #12]
 8005dea:	075a      	lsls	r2, r3, #29
 8005dec:	d505      	bpl.n	8005dfa <__sflush_r+0x42>
 8005dee:	6863      	ldr	r3, [r4, #4]
 8005df0:	1ac0      	subs	r0, r0, r3
 8005df2:	6b63      	ldr	r3, [r4, #52]	; 0x34
 8005df4:	b10b      	cbz	r3, 8005dfa <__sflush_r+0x42>
 8005df6:	6c23      	ldr	r3, [r4, #64]	; 0x40
 8005df8:	1ac0      	subs	r0, r0, r3
 8005dfa:	2300      	movs	r3, #0
 8005dfc:	4602      	mov	r2, r0
 8005dfe:	6ae6      	ldr	r6, [r4, #44]	; 0x2c
 8005e00:	4628      	mov	r0, r5
 8005e02:	6a21      	ldr	r1, [r4, #32]
 8005e04:	47b0      	blx	r6
 8005e06:	1c43      	adds	r3, r0, #1
 8005e08:	89a3      	ldrh	r3, [r4, #12]
 8005e0a:	d106      	bne.n	8005e1a <__sflush_r+0x62>
 8005e0c:	6829      	ldr	r1, [r5, #0]
 8005e0e:	291d      	cmp	r1, #29
 8005e10:	d82c      	bhi.n	8005e6c <__sflush_r+0xb4>
 8005e12:	4a29      	ldr	r2, [pc, #164]	; (8005eb8 <__sflush_r+0x100>)
 8005e14:	40ca      	lsrs	r2, r1
 8005e16:	07d6      	lsls	r6, r2, #31
 8005e18:	d528      	bpl.n	8005e6c <__sflush_r+0xb4>
 8005e1a:	2200      	movs	r2, #0
 8005e1c:	6062      	str	r2, [r4, #4]
 8005e1e:	6922      	ldr	r2, [r4, #16]
 8005e20:	04d9      	lsls	r1, r3, #19
 8005e22:	6022      	str	r2, [r4, #0]
 8005e24:	d504      	bpl.n	8005e30 <__sflush_r+0x78>
 8005e26:	1c42      	adds	r2, r0, #1
 8005e28:	d101      	bne.n	8005e2e <__sflush_r+0x76>
 8005e2a:	682b      	ldr	r3, [r5, #0]
 8005e2c:	b903      	cbnz	r3, 8005e30 <__sflush_r+0x78>
 8005e2e:	6560      	str	r0, [r4, #84]	; 0x54
 8005e30:	6b61      	ldr	r1, [r4, #52]	; 0x34
 8005e32:	602f      	str	r7, [r5, #0]
 8005e34:	2900      	cmp	r1, #0
 8005e36:	d0cb      	beq.n	8005dd0 <__sflush_r+0x18>
 8005e38:	f104 0344 	add.w	r3, r4, #68	; 0x44
 8005e3c:	4299      	cmp	r1, r3
 8005e3e:	d002      	beq.n	8005e46 <__sflush_r+0x8e>
 8005e40:	4628      	mov	r0, r5
 8005e42:	f000 f931 	bl	80060a8 <_free_r>
 8005e46:	2000      	movs	r0, #0
 8005e48:	6360      	str	r0, [r4, #52]	; 0x34
 8005e4a:	e7c2      	b.n	8005dd2 <__sflush_r+0x1a>
 8005e4c:	6a21      	ldr	r1, [r4, #32]
 8005e4e:	2301      	movs	r3, #1
 8005e50:	4628      	mov	r0, r5
 8005e52:	47b0      	blx	r6
 8005e54:	1c41      	adds	r1, r0, #1
 8005e56:	d1c7      	bne.n	8005de8 <__sflush_r+0x30>
 8005e58:	682b      	ldr	r3, [r5, #0]
 8005e5a:	2b00      	cmp	r3, #0
 8005e5c:	d0c4      	beq.n	8005de8 <__sflush_r+0x30>
 8005e5e:	2b1d      	cmp	r3, #29
 8005e60:	d001      	beq.n	8005e66 <__sflush_r+0xae>
 8005e62:	2b16      	cmp	r3, #22
 8005e64:	d101      	bne.n	8005e6a <__sflush_r+0xb2>
 8005e66:	602f      	str	r7, [r5, #0]
 8005e68:	e7b2      	b.n	8005dd0 <__sflush_r+0x18>
 8005e6a:	89a3      	ldrh	r3, [r4, #12]
 8005e6c:	f043 0340 	orr.w	r3, r3, #64	; 0x40
 8005e70:	81a3      	strh	r3, [r4, #12]
 8005e72:	e7ae      	b.n	8005dd2 <__sflush_r+0x1a>
 8005e74:	690f      	ldr	r7, [r1, #16]
 8005e76:	2f00      	cmp	r7, #0
 8005e78:	d0aa      	beq.n	8005dd0 <__sflush_r+0x18>
 8005e7a:	0793      	lsls	r3, r2, #30
 8005e7c:	bf18      	it	ne
 8005e7e:	2300      	movne	r3, #0
 8005e80:	680e      	ldr	r6, [r1, #0]
 8005e82:	bf08      	it	eq
 8005e84:	694b      	ldreq	r3, [r1, #20]
 8005e86:	1bf6      	subs	r6, r6, r7
 8005e88:	600f      	str	r7, [r1, #0]
 8005e8a:	608b      	str	r3, [r1, #8]
 8005e8c:	2e00      	cmp	r6, #0
 8005e8e:	dd9f      	ble.n	8005dd0 <__sflush_r+0x18>
 8005e90:	4633      	mov	r3, r6
 8005e92:	463a      	mov	r2, r7
 8005e94:	4628      	mov	r0, r5
 8005e96:	6a21      	ldr	r1, [r4, #32]
 8005e98:	f8d4 c028 	ldr.w	ip, [r4, #40]	; 0x28
 8005e9c:	47e0      	blx	ip
 8005e9e:	2800      	cmp	r0, #0
 8005ea0:	dc06      	bgt.n	8005eb0 <__sflush_r+0xf8>
 8005ea2:	89a3      	ldrh	r3, [r4, #12]
 8005ea4:	f04f 30ff 	mov.w	r0, #4294967295
 8005ea8:	f043 0340 	orr.w	r3, r3, #64	; 0x40
 8005eac:	81a3      	strh	r3, [r4, #12]
 8005eae:	e790      	b.n	8005dd2 <__sflush_r+0x1a>
 8005eb0:	4407      	add	r7, r0
 8005eb2:	1a36      	subs	r6, r6, r0
 8005eb4:	e7ea      	b.n	8005e8c <__sflush_r+0xd4>
 8005eb6:	bf00      	nop
 8005eb8:	20400001 	.word	0x20400001

08005ebc <_fflush_r>:
 8005ebc:	b538      	push	{r3, r4, r5, lr}
 8005ebe:	690b      	ldr	r3, [r1, #16]
 8005ec0:	4605      	mov	r5, r0
 8005ec2:	460c      	mov	r4, r1
 8005ec4:	b913      	cbnz	r3, 8005ecc <_fflush_r+0x10>
 8005ec6:	2500      	movs	r5, #0
 8005ec8:	4628      	mov	r0, r5
 8005eca:	bd38      	pop	{r3, r4, r5, pc}
 8005ecc:	b118      	cbz	r0, 8005ed6 <_fflush_r+0x1a>
 8005ece:	6983      	ldr	r3, [r0, #24]
 8005ed0:	b90b      	cbnz	r3, 8005ed6 <_fflush_r+0x1a>
 8005ed2:	f7ff f8bd 	bl	8005050 <__sinit>
 8005ed6:	4b14      	ldr	r3, [pc, #80]	; (8005f28 <_fflush_r+0x6c>)
 8005ed8:	429c      	cmp	r4, r3
 8005eda:	d11b      	bne.n	8005f14 <_fflush_r+0x58>
 8005edc:	686c      	ldr	r4, [r5, #4]
 8005ede:	f9b4 300c 	ldrsh.w	r3, [r4, #12]
 8005ee2:	2b00      	cmp	r3, #0
 8005ee4:	d0ef      	beq.n	8005ec6 <_fflush_r+0xa>
 8005ee6:	6e62      	ldr	r2, [r4, #100]	; 0x64
 8005ee8:	07d0      	lsls	r0, r2, #31
 8005eea:	d404      	bmi.n	8005ef6 <_fflush_r+0x3a>
 8005eec:	0599      	lsls	r1, r3, #22
 8005eee:	d402      	bmi.n	8005ef6 <_fflush_r+0x3a>
 8005ef0:	6da0      	ldr	r0, [r4, #88]	; 0x58
 8005ef2:	f7ff f94b 	bl	800518c <__retarget_lock_acquire_recursive>
 8005ef6:	4628      	mov	r0, r5
 8005ef8:	4621      	mov	r1, r4
 8005efa:	f7ff ff5d 	bl	8005db8 <__sflush_r>
 8005efe:	6e63      	ldr	r3, [r4, #100]	; 0x64
 8005f00:	4605      	mov	r5, r0
 8005f02:	07da      	lsls	r2, r3, #31
 8005f04:	d4e0      	bmi.n	8005ec8 <_fflush_r+0xc>
 8005f06:	89a3      	ldrh	r3, [r4, #12]
 8005f08:	059b      	lsls	r3, r3, #22
 8005f0a:	d4dd      	bmi.n	8005ec8 <_fflush_r+0xc>
 8005f0c:	6da0      	ldr	r0, [r4, #88]	; 0x58
 8005f0e:	f7ff f93e 	bl	800518e <__retarget_lock_release_recursive>
 8005f12:	e7d9      	b.n	8005ec8 <_fflush_r+0xc>
 8005f14:	4b05      	ldr	r3, [pc, #20]	; (8005f2c <_fflush_r+0x70>)
 8005f16:	429c      	cmp	r4, r3
 8005f18:	d101      	bne.n	8005f1e <_fflush_r+0x62>
 8005f1a:	68ac      	ldr	r4, [r5, #8]
 8005f1c:	e7df      	b.n	8005ede <_fflush_r+0x22>
 8005f1e:	4b04      	ldr	r3, [pc, #16]	; (8005f30 <_fflush_r+0x74>)
 8005f20:	429c      	cmp	r4, r3
 8005f22:	bf08      	it	eq
 8005f24:	68ec      	ldreq	r4, [r5, #12]
 8005f26:	e7da      	b.n	8005ede <_fflush_r+0x22>
 8005f28:	080062dc 	.word	0x080062dc
 8005f2c:	080062fc 	.word	0x080062fc
 8005f30:	080062bc 	.word	0x080062bc

08005f34 <_lseek_r>:
 8005f34:	b538      	push	{r3, r4, r5, lr}
 8005f36:	4604      	mov	r4, r0
 8005f38:	4608      	mov	r0, r1
 8005f3a:	4611      	mov	r1, r2
 8005f3c:	2200      	movs	r2, #0
 8005f3e:	4d05      	ldr	r5, [pc, #20]	; (8005f54 <_lseek_r+0x20>)
 8005f40:	602a      	str	r2, [r5, #0]
 8005f42:	461a      	mov	r2, r3
 8005f44:	f7fb f963 	bl	800120e <_lseek>
 8005f48:	1c43      	adds	r3, r0, #1
 8005f4a:	d102      	bne.n	8005f52 <_lseek_r+0x1e>
 8005f4c:	682b      	ldr	r3, [r5, #0]
 8005f4e:	b103      	cbz	r3, 8005f52 <_lseek_r+0x1e>
 8005f50:	6023      	str	r3, [r4, #0]
 8005f52:	bd38      	pop	{r3, r4, r5, pc}
 8005f54:	200002b0 	.word	0x200002b0

08005f58 <__swhatbuf_r>:
 8005f58:	b570      	push	{r4, r5, r6, lr}
 8005f5a:	460e      	mov	r6, r1
 8005f5c:	f9b1 100e 	ldrsh.w	r1, [r1, #14]
 8005f60:	4614      	mov	r4, r2
 8005f62:	2900      	cmp	r1, #0
 8005f64:	461d      	mov	r5, r3
 8005f66:	b096      	sub	sp, #88	; 0x58
 8005f68:	da08      	bge.n	8005f7c <__swhatbuf_r+0x24>
 8005f6a:	2200      	movs	r2, #0
 8005f6c:	f9b6 300c 	ldrsh.w	r3, [r6, #12]
 8005f70:	602a      	str	r2, [r5, #0]
 8005f72:	061a      	lsls	r2, r3, #24
 8005f74:	d410      	bmi.n	8005f98 <__swhatbuf_r+0x40>
 8005f76:	f44f 6380 	mov.w	r3, #1024	; 0x400
 8005f7a:	e00e      	b.n	8005f9a <__swhatbuf_r+0x42>
 8005f7c:	466a      	mov	r2, sp
 8005f7e:	f000 f91d 	bl	80061bc <_fstat_r>
 8005f82:	2800      	cmp	r0, #0
 8005f84:	dbf1      	blt.n	8005f6a <__swhatbuf_r+0x12>
 8005f86:	9a01      	ldr	r2, [sp, #4]
 8005f88:	f402 4270 	and.w	r2, r2, #61440	; 0xf000
 8005f8c:	f5a2 5300 	sub.w	r3, r2, #8192	; 0x2000
 8005f90:	425a      	negs	r2, r3
 8005f92:	415a      	adcs	r2, r3
 8005f94:	602a      	str	r2, [r5, #0]
 8005f96:	e7ee      	b.n	8005f76 <__swhatbuf_r+0x1e>
 8005f98:	2340      	movs	r3, #64	; 0x40
 8005f9a:	2000      	movs	r0, #0
 8005f9c:	6023      	str	r3, [r4, #0]
 8005f9e:	b016      	add	sp, #88	; 0x58
 8005fa0:	bd70      	pop	{r4, r5, r6, pc}
	...

08005fa4 <__smakebuf_r>:
 8005fa4:	898b      	ldrh	r3, [r1, #12]
 8005fa6:	b573      	push	{r0, r1, r4, r5, r6, lr}
 8005fa8:	079d      	lsls	r5, r3, #30
 8005faa:	4606      	mov	r6, r0
 8005fac:	460c      	mov	r4, r1
 8005fae:	d507      	bpl.n	8005fc0 <__smakebuf_r+0x1c>
 8005fb0:	f104 0347 	add.w	r3, r4, #71	; 0x47
 8005fb4:	6023      	str	r3, [r4, #0]
 8005fb6:	6123      	str	r3, [r4, #16]
 8005fb8:	2301      	movs	r3, #1
 8005fba:	6163      	str	r3, [r4, #20]
 8005fbc:	b002      	add	sp, #8
 8005fbe:	bd70      	pop	{r4, r5, r6, pc}
 8005fc0:	466a      	mov	r2, sp
 8005fc2:	ab01      	add	r3, sp, #4
 8005fc4:	f7ff ffc8 	bl	8005f58 <__swhatbuf_r>
 8005fc8:	9900      	ldr	r1, [sp, #0]
 8005fca:	4605      	mov	r5, r0
 8005fcc:	4630      	mov	r0, r6
 8005fce:	f7ff f8ff 	bl	80051d0 <_malloc_r>
 8005fd2:	b948      	cbnz	r0, 8005fe8 <__smakebuf_r+0x44>
 8005fd4:	f9b4 300c 	ldrsh.w	r3, [r4, #12]
 8005fd8:	059a      	lsls	r2, r3, #22
 8005fda:	d4ef      	bmi.n	8005fbc <__smakebuf_r+0x18>
 8005fdc:	f023 0303 	bic.w	r3, r3, #3
 8005fe0:	f043 0302 	orr.w	r3, r3, #2
 8005fe4:	81a3      	strh	r3, [r4, #12]
 8005fe6:	e7e3      	b.n	8005fb0 <__smakebuf_r+0xc>
 8005fe8:	4b0d      	ldr	r3, [pc, #52]	; (8006020 <__smakebuf_r+0x7c>)
 8005fea:	62b3      	str	r3, [r6, #40]	; 0x28
 8005fec:	89a3      	ldrh	r3, [r4, #12]
 8005fee:	6020      	str	r0, [r4, #0]
 8005ff0:	f043 0380 	orr.w	r3, r3, #128	; 0x80
 8005ff4:	81a3      	strh	r3, [r4, #12]
 8005ff6:	9b00      	ldr	r3, [sp, #0]
 8005ff8:	6120      	str	r0, [r4, #16]
 8005ffa:	6163      	str	r3, [r4, #20]
 8005ffc:	9b01      	ldr	r3, [sp, #4]
 8005ffe:	b15b      	cbz	r3, 8006018 <__smakebuf_r+0x74>
 8006000:	4630      	mov	r0, r6
 8006002:	f9b4 100e 	ldrsh.w	r1, [r4, #14]
 8006006:	f000 f8eb 	bl	80061e0 <_isatty_r>
 800600a:	b128      	cbz	r0, 8006018 <__smakebuf_r+0x74>
 800600c:	89a3      	ldrh	r3, [r4, #12]
 800600e:	f023 0303 	bic.w	r3, r3, #3
 8006012:	f043 0301 	orr.w	r3, r3, #1
 8006016:	81a3      	strh	r3, [r4, #12]
 8006018:	89a0      	ldrh	r0, [r4, #12]
 800601a:	4305      	orrs	r5, r0
 800601c:	81a5      	strh	r5, [r4, #12]
 800601e:	e7cd      	b.n	8005fbc <__smakebuf_r+0x18>
 8006020:	08004fe9 	.word	0x08004fe9

08006024 <memchr>:
 8006024:	4603      	mov	r3, r0
 8006026:	b510      	push	{r4, lr}
 8006028:	b2c9      	uxtb	r1, r1
 800602a:	4402      	add	r2, r0
 800602c:	4293      	cmp	r3, r2
 800602e:	4618      	mov	r0, r3
 8006030:	d101      	bne.n	8006036 <memchr+0x12>
 8006032:	2000      	movs	r0, #0
 8006034:	e003      	b.n	800603e <memchr+0x1a>
 8006036:	7804      	ldrb	r4, [r0, #0]
 8006038:	3301      	adds	r3, #1
 800603a:	428c      	cmp	r4, r1
 800603c:	d1f6      	bne.n	800602c <memchr+0x8>
 800603e:	bd10      	pop	{r4, pc}

08006040 <memcpy>:
 8006040:	440a      	add	r2, r1
 8006042:	4291      	cmp	r1, r2
 8006044:	f100 33ff 	add.w	r3, r0, #4294967295
 8006048:	d100      	bne.n	800604c <memcpy+0xc>
 800604a:	4770      	bx	lr
 800604c:	b510      	push	{r4, lr}
 800604e:	f811 4b01 	ldrb.w	r4, [r1], #1
 8006052:	4291      	cmp	r1, r2
 8006054:	f803 4f01 	strb.w	r4, [r3, #1]!
 8006058:	d1f9      	bne.n	800604e <memcpy+0xe>
 800605a:	bd10      	pop	{r4, pc}

0800605c <memmove>:
 800605c:	4288      	cmp	r0, r1
 800605e:	b510      	push	{r4, lr}
 8006060:	eb01 0402 	add.w	r4, r1, r2
 8006064:	d902      	bls.n	800606c <memmove+0x10>
 8006066:	4284      	cmp	r4, r0
 8006068:	4623      	mov	r3, r4
 800606a:	d807      	bhi.n	800607c <memmove+0x20>
 800606c:	1e43      	subs	r3, r0, #1
 800606e:	42a1      	cmp	r1, r4
 8006070:	d008      	beq.n	8006084 <memmove+0x28>
 8006072:	f811 2b01 	ldrb.w	r2, [r1], #1
 8006076:	f803 2f01 	strb.w	r2, [r3, #1]!
 800607a:	e7f8      	b.n	800606e <memmove+0x12>
 800607c:	4601      	mov	r1, r0
 800607e:	4402      	add	r2, r0
 8006080:	428a      	cmp	r2, r1
 8006082:	d100      	bne.n	8006086 <memmove+0x2a>
 8006084:	bd10      	pop	{r4, pc}
 8006086:	f813 4d01 	ldrb.w	r4, [r3, #-1]!
 800608a:	f802 4d01 	strb.w	r4, [r2, #-1]!
 800608e:	e7f7      	b.n	8006080 <memmove+0x24>

08006090 <__malloc_lock>:
 8006090:	4801      	ldr	r0, [pc, #4]	; (8006098 <__malloc_lock+0x8>)
 8006092:	f7ff b87b 	b.w	800518c <__retarget_lock_acquire_recursive>
 8006096:	bf00      	nop
 8006098:	200002a4 	.word	0x200002a4

0800609c <__malloc_unlock>:
 800609c:	4801      	ldr	r0, [pc, #4]	; (80060a4 <__malloc_unlock+0x8>)
 800609e:	f7ff b876 	b.w	800518e <__retarget_lock_release_recursive>
 80060a2:	bf00      	nop
 80060a4:	200002a4 	.word	0x200002a4

080060a8 <_free_r>:
 80060a8:	b538      	push	{r3, r4, r5, lr}
 80060aa:	4605      	mov	r5, r0
 80060ac:	2900      	cmp	r1, #0
 80060ae:	d040      	beq.n	8006132 <_free_r+0x8a>
 80060b0:	f851 3c04 	ldr.w	r3, [r1, #-4]
 80060b4:	1f0c      	subs	r4, r1, #4
 80060b6:	2b00      	cmp	r3, #0
 80060b8:	bfb8      	it	lt
 80060ba:	18e4      	addlt	r4, r4, r3
 80060bc:	f7ff ffe8 	bl	8006090 <__malloc_lock>
 80060c0:	4a1c      	ldr	r2, [pc, #112]	; (8006134 <_free_r+0x8c>)
 80060c2:	6813      	ldr	r3, [r2, #0]
 80060c4:	b933      	cbnz	r3, 80060d4 <_free_r+0x2c>
 80060c6:	6063      	str	r3, [r4, #4]
 80060c8:	6014      	str	r4, [r2, #0]
 80060ca:	4628      	mov	r0, r5
 80060cc:	e8bd 4038 	ldmia.w	sp!, {r3, r4, r5, lr}
 80060d0:	f7ff bfe4 	b.w	800609c <__malloc_unlock>
 80060d4:	42a3      	cmp	r3, r4
 80060d6:	d908      	bls.n	80060ea <_free_r+0x42>
 80060d8:	6820      	ldr	r0, [r4, #0]
 80060da:	1821      	adds	r1, r4, r0
 80060dc:	428b      	cmp	r3, r1
 80060de:	bf01      	itttt	eq
 80060e0:	6819      	ldreq	r1, [r3, #0]
 80060e2:	685b      	ldreq	r3, [r3, #4]
 80060e4:	1809      	addeq	r1, r1, r0
 80060e6:	6021      	streq	r1, [r4, #0]
 80060e8:	e7ed      	b.n	80060c6 <_free_r+0x1e>
 80060ea:	461a      	mov	r2, r3
 80060ec:	685b      	ldr	r3, [r3, #4]
 80060ee:	b10b      	cbz	r3, 80060f4 <_free_r+0x4c>
 80060f0:	42a3      	cmp	r3, r4
 80060f2:	d9fa      	bls.n	80060ea <_free_r+0x42>
 80060f4:	6811      	ldr	r1, [r2, #0]
 80060f6:	1850      	adds	r0, r2, r1
 80060f8:	42a0      	cmp	r0, r4
 80060fa:	d10b      	bne.n	8006114 <_free_r+0x6c>
 80060fc:	6820      	ldr	r0, [r4, #0]
 80060fe:	4401      	add	r1, r0
 8006100:	1850      	adds	r0, r2, r1
 8006102:	4283      	cmp	r3, r0
 8006104:	6011      	str	r1, [r2, #0]
 8006106:	d1e0      	bne.n	80060ca <_free_r+0x22>
 8006108:	6818      	ldr	r0, [r3, #0]
 800610a:	685b      	ldr	r3, [r3, #4]
 800610c:	4401      	add	r1, r0
 800610e:	6011      	str	r1, [r2, #0]
 8006110:	6053      	str	r3, [r2, #4]
 8006112:	e7da      	b.n	80060ca <_free_r+0x22>
 8006114:	d902      	bls.n	800611c <_free_r+0x74>
 8006116:	230c      	movs	r3, #12
 8006118:	602b      	str	r3, [r5, #0]
 800611a:	e7d6      	b.n	80060ca <_free_r+0x22>
 800611c:	6820      	ldr	r0, [r4, #0]
 800611e:	1821      	adds	r1, r4, r0
 8006120:	428b      	cmp	r3, r1
 8006122:	bf01      	itttt	eq
 8006124:	6819      	ldreq	r1, [r3, #0]
 8006126:	685b      	ldreq	r3, [r3, #4]
 8006128:	1809      	addeq	r1, r1, r0
 800612a:	6021      	streq	r1, [r4, #0]
 800612c:	6063      	str	r3, [r4, #4]
 800612e:	6054      	str	r4, [r2, #4]
 8006130:	e7cb      	b.n	80060ca <_free_r+0x22>
 8006132:	bd38      	pop	{r3, r4, r5, pc}
 8006134:	200002a8 	.word	0x200002a8

08006138 <_realloc_r>:
 8006138:	e92d 41f0 	stmdb	sp!, {r4, r5, r6, r7, r8, lr}
 800613c:	4680      	mov	r8, r0
 800613e:	4614      	mov	r4, r2
 8006140:	460e      	mov	r6, r1
 8006142:	b921      	cbnz	r1, 800614e <_realloc_r+0x16>
 8006144:	4611      	mov	r1, r2
 8006146:	e8bd 41f0 	ldmia.w	sp!, {r4, r5, r6, r7, r8, lr}
 800614a:	f7ff b841 	b.w	80051d0 <_malloc_r>
 800614e:	b92a      	cbnz	r2, 800615c <_realloc_r+0x24>
 8006150:	f7ff ffaa 	bl	80060a8 <_free_r>
 8006154:	4625      	mov	r5, r4
 8006156:	4628      	mov	r0, r5
 8006158:	e8bd 81f0 	ldmia.w	sp!, {r4, r5, r6, r7, r8, pc}
 800615c:	f000 f850 	bl	8006200 <_malloc_usable_size_r>
 8006160:	4284      	cmp	r4, r0
 8006162:	4607      	mov	r7, r0
 8006164:	d802      	bhi.n	800616c <_realloc_r+0x34>
 8006166:	ebb4 0f50 	cmp.w	r4, r0, lsr #1
 800616a:	d812      	bhi.n	8006192 <_realloc_r+0x5a>
 800616c:	4621      	mov	r1, r4
 800616e:	4640      	mov	r0, r8
 8006170:	f7ff f82e 	bl	80051d0 <_malloc_r>
 8006174:	4605      	mov	r5, r0
 8006176:	2800      	cmp	r0, #0
 8006178:	d0ed      	beq.n	8006156 <_realloc_r+0x1e>
 800617a:	42bc      	cmp	r4, r7
 800617c:	4622      	mov	r2, r4
 800617e:	4631      	mov	r1, r6
 8006180:	bf28      	it	cs
 8006182:	463a      	movcs	r2, r7
 8006184:	f7ff ff5c 	bl	8006040 <memcpy>
 8006188:	4631      	mov	r1, r6
 800618a:	4640      	mov	r0, r8
 800618c:	f7ff ff8c 	bl	80060a8 <_free_r>
 8006190:	e7e1      	b.n	8006156 <_realloc_r+0x1e>
 8006192:	4635      	mov	r5, r6
 8006194:	e7df      	b.n	8006156 <_realloc_r+0x1e>
	...

08006198 <_read_r>:
 8006198:	b538      	push	{r3, r4, r5, lr}
 800619a:	4604      	mov	r4, r0
 800619c:	4608      	mov	r0, r1
 800619e:	4611      	mov	r1, r2
 80061a0:	2200      	movs	r2, #0
 80061a2:	4d05      	ldr	r5, [pc, #20]	; (80061b8 <_read_r+0x20>)
 80061a4:	602a      	str	r2, [r5, #0]
 80061a6:	461a      	mov	r2, r3
 80061a8:	f7fa ffd4 	bl	8001154 <_read>
 80061ac:	1c43      	adds	r3, r0, #1
 80061ae:	d102      	bne.n	80061b6 <_read_r+0x1e>
 80061b0:	682b      	ldr	r3, [r5, #0]
 80061b2:	b103      	cbz	r3, 80061b6 <_read_r+0x1e>
 80061b4:	6023      	str	r3, [r4, #0]
 80061b6:	bd38      	pop	{r3, r4, r5, pc}
 80061b8:	200002b0 	.word	0x200002b0

080061bc <_fstat_r>:
 80061bc:	b538      	push	{r3, r4, r5, lr}
 80061be:	2300      	movs	r3, #0
 80061c0:	4d06      	ldr	r5, [pc, #24]	; (80061dc <_fstat_r+0x20>)
 80061c2:	4604      	mov	r4, r0
 80061c4:	4608      	mov	r0, r1
 80061c6:	4611      	mov	r1, r2
 80061c8:	602b      	str	r3, [r5, #0]
 80061ca:	f7fb f807 	bl	80011dc <_fstat>
 80061ce:	1c43      	adds	r3, r0, #1
 80061d0:	d102      	bne.n	80061d8 <_fstat_r+0x1c>
 80061d2:	682b      	ldr	r3, [r5, #0]
 80061d4:	b103      	cbz	r3, 80061d8 <_fstat_r+0x1c>
 80061d6:	6023      	str	r3, [r4, #0]
 80061d8:	bd38      	pop	{r3, r4, r5, pc}
 80061da:	bf00      	nop
 80061dc:	200002b0 	.word	0x200002b0

080061e0 <_isatty_r>:
 80061e0:	b538      	push	{r3, r4, r5, lr}
 80061e2:	2300      	movs	r3, #0
 80061e4:	4d05      	ldr	r5, [pc, #20]	; (80061fc <_isatty_r+0x1c>)
 80061e6:	4604      	mov	r4, r0
 80061e8:	4608      	mov	r0, r1
 80061ea:	602b      	str	r3, [r5, #0]
 80061ec:	f7fb f805 	bl	80011fa <_isatty>
 80061f0:	1c43      	adds	r3, r0, #1
 80061f2:	d102      	bne.n	80061fa <_isatty_r+0x1a>
 80061f4:	682b      	ldr	r3, [r5, #0]
 80061f6:	b103      	cbz	r3, 80061fa <_isatty_r+0x1a>
 80061f8:	6023      	str	r3, [r4, #0]
 80061fa:	bd38      	pop	{r3, r4, r5, pc}
 80061fc:	200002b0 	.word	0x200002b0

08006200 <_malloc_usable_size_r>:
 8006200:	f851 3c04 	ldr.w	r3, [r1, #-4]
 8006204:	1f18      	subs	r0, r3, #4
 8006206:	2b00      	cmp	r3, #0
 8006208:	bfbc      	itt	lt
 800620a:	580b      	ldrlt	r3, [r1, r0]
 800620c:	18c0      	addlt	r0, r0, r3
 800620e:	4770      	bx	lr

08006210 <_init>:
 8006210:	b5f8      	push	{r3, r4, r5, r6, r7, lr}
 8006212:	bf00      	nop
 8006214:	bcf8      	pop	{r3, r4, r5, r6, r7}
 8006216:	bc08      	pop	{r3}
 8006218:	469e      	mov	lr, r3
 800621a:	4770      	bx	lr

0800621c <_fini>:
 800621c:	b5f8      	push	{r3, r4, r5, r6, r7, lr}
 800621e:	bf00      	nop
 8006220:	bcf8      	pop	{r3, r4, r5, r6, r7}
 8006222:	bc08      	pop	{r3}
 8006224:	469e      	mov	lr, r3
 8006226:	4770      	bx	lr
