
servo_1.elf:     file format elf32-littlearm

Sections:
Idx Name          Size      VMA       LMA       File off  Algn
  0 .isr_vector   0000010c  08000000  08000000  00010000  2**0
                  CONTENTS, ALLOC, LOAD, READONLY, DATA
  1 .text         000024c8  0800010c  0800010c  0001010c  2**2
                  CONTENTS, ALLOC, LOAD, READONLY, CODE
  2 .rodata       00000028  080025d4  080025d4  000125d4  2**2
                  CONTENTS, ALLOC, LOAD, READONLY, DATA
  3 .ARM.extab    00000000  080025fc  080025fc  0002000c  2**0
                  CONTENTS
  4 .ARM          00000000  080025fc  080025fc  0002000c  2**0
                  CONTENTS
  5 .preinit_array 00000000  080025fc  080025fc  0002000c  2**0
                  CONTENTS, ALLOC, LOAD, DATA
  6 .init_array   00000004  080025fc  080025fc  000125fc  2**2
                  CONTENTS, ALLOC, LOAD, DATA
  7 .fini_array   00000004  08002600  08002600  00012600  2**2
                  CONTENTS, ALLOC, LOAD, DATA
  8 .data         0000000c  20000000  08002604  00020000  2**2
                  CONTENTS, ALLOC, LOAD, DATA
  9 .bss          000000ac  2000000c  08002610  0002000c  2**2
                  ALLOC
 10 ._user_heap_stack 00000600  200000b8  08002610  000200b8  2**0
                  ALLOC
 11 .ARM.attributes 00000029  00000000  00000000  0002000c  2**0
                  CONTENTS, READONLY
 12 .debug_info   00009db2  00000000  00000000  00020035  2**0
                  CONTENTS, READONLY, DEBUGGING, OCTETS
 13 .debug_abbrev 000017bd  00000000  00000000  00029de7  2**0
                  CONTENTS, READONLY, DEBUGGING, OCTETS
 14 .debug_aranges 00000b50  00000000  00000000  0002b5a8  2**3
                  CONTENTS, READONLY, DEBUGGING, OCTETS
 15 .debug_ranges 00000ac8  00000000  00000000  0002c0f8  2**3
                  CONTENTS, READONLY, DEBUGGING, OCTETS
 16 .debug_macro  00016a4d  00000000  00000000  0002cbc0  2**0
                  CONTENTS, READONLY, DEBUGGING, OCTETS
 17 .debug_line   0000adc3  00000000  00000000  0004360d  2**0
                  CONTENTS, READONLY, DEBUGGING, OCTETS
 18 .debug_str    000862cd  00000000  00000000  0004e3d0  2**0
                  CONTENTS, READONLY, DEBUGGING, OCTETS
 19 .comment      00000050  00000000  00000000  000d469d  2**0
                  CONTENTS, READONLY
 20 .debug_frame  00002f60  00000000  00000000  000d46f0  2**2
                  CONTENTS, READONLY, DEBUGGING, OCTETS

Disassembly of section .text:

0800010c <__do_global_dtors_aux>:
 800010c:	b510      	push	{r4, lr}
 800010e:	4c05      	ldr	r4, [pc, #20]	; (8000124 <__do_global_dtors_aux+0x18>)
 8000110:	7823      	ldrb	r3, [r4, #0]
 8000112:	b933      	cbnz	r3, 8000122 <__do_global_dtors_aux+0x16>
 8000114:	4b04      	ldr	r3, [pc, #16]	; (8000128 <__do_global_dtors_aux+0x1c>)
 8000116:	b113      	cbz	r3, 800011e <__do_global_dtors_aux+0x12>
 8000118:	4804      	ldr	r0, [pc, #16]	; (800012c <__do_global_dtors_aux+0x20>)
 800011a:	f3af 8000 	nop.w
 800011e:	2301      	movs	r3, #1
 8000120:	7023      	strb	r3, [r4, #0]
 8000122:	bd10      	pop	{r4, pc}
 8000124:	2000000c 	.word	0x2000000c
 8000128:	00000000 	.word	0x00000000
 800012c:	080025bc 	.word	0x080025bc

08000130 <frame_dummy>:
 8000130:	b508      	push	{r3, lr}
 8000132:	4b03      	ldr	r3, [pc, #12]	; (8000140 <frame_dummy+0x10>)
 8000134:	b11b      	cbz	r3, 800013e <frame_dummy+0xe>
 8000136:	4903      	ldr	r1, [pc, #12]	; (8000144 <frame_dummy+0x14>)
 8000138:	4803      	ldr	r0, [pc, #12]	; (8000148 <frame_dummy+0x18>)
 800013a:	f3af 8000 	nop.w
 800013e:	bd08      	pop	{r3, pc}
 8000140:	00000000 	.word	0x00000000
 8000144:	20000010 	.word	0x20000010
 8000148:	080025bc 	.word	0x080025bc

0800014c <main>:
/**
  * @brief  The application entry point.
  * @retval int
  */
int main(void)
{
 800014c:	b580      	push	{r7, lr}
 800014e:	af00      	add	r7, sp, #0
  /* USER CODE END 1 */

  /* MCU Configuration--------------------------------------------------------*/

  /* Reset of all peripherals, Initializes the Flash interface and the Systick. */
  HAL_Init();
 8000150:	f000 faaa 	bl	80006a8 <HAL_Init>
  /* USER CODE BEGIN Init */

  /* USER CODE END Init */

  /* Configure the system clock */
  SystemClock_Config();
 8000154:	f000 f828 	bl	80001a8 <SystemClock_Config>
  /* USER CODE BEGIN SysInit */

  /* USER CODE END SysInit */

  /* Initialize all configured peripherals */
  MX_GPIO_Init();
 8000158:	f000 f908 	bl	800036c <MX_GPIO_Init>
  MX_USART2_UART_Init();
 800015c:	f000 f8dc 	bl	8000318 <MX_USART2_UART_Init>
  MX_TIM2_Init();
 8000160:	f000 f864 	bl	800022c <MX_TIM2_Init>
  /* USER CODE BEGIN 2 */
  HAL_TIM_PWM_Start(&htim2, TIM_CHANNEL_1); // add PWM setvo motor
 8000164:	2100      	movs	r1, #0
 8000166:	480f      	ldr	r0, [pc, #60]	; (80001a4 <main+0x58>)
 8000168:	f001 fab2 	bl	80016d0 <HAL_TIM_PWM_Start>

  /* Infinite loop */
  /* USER CODE BEGIN WHILE */
  while (1)
  {
	  __HAL_TIM_SetCompare(&htim2, TIM_CHANNEL_1, 2000);
 800016c:	4b0d      	ldr	r3, [pc, #52]	; (80001a4 <main+0x58>)
 800016e:	681b      	ldr	r3, [r3, #0]
 8000170:	f44f 62fa 	mov.w	r2, #2000	; 0x7d0
 8000174:	635a      	str	r2, [r3, #52]	; 0x34
	  HAL_Delay(500);
 8000176:	f44f 70fa 	mov.w	r0, #500	; 0x1f4
 800017a:	f000 faf7 	bl	800076c <HAL_Delay>
	  __HAL_TIM_SetCompare(&htim2, TIM_CHANNEL_1, 1500);
 800017e:	4b09      	ldr	r3, [pc, #36]	; (80001a4 <main+0x58>)
 8000180:	681b      	ldr	r3, [r3, #0]
 8000182:	f240 52dc 	movw	r2, #1500	; 0x5dc
 8000186:	635a      	str	r2, [r3, #52]	; 0x34
	  HAL_Delay(500);
 8000188:	f44f 70fa 	mov.w	r0, #500	; 0x1f4
 800018c:	f000 faee 	bl	800076c <HAL_Delay>
	  __HAL_TIM_SetCompare(&htim2, TIM_CHANNEL_1, 1000);
 8000190:	4b04      	ldr	r3, [pc, #16]	; (80001a4 <main+0x58>)
 8000192:	681b      	ldr	r3, [r3, #0]
 8000194:	f44f 727a 	mov.w	r2, #1000	; 0x3e8
 8000198:	635a      	str	r2, [r3, #52]	; 0x34
	  HAL_Delay(500);
 800019a:	f44f 70fa 	mov.w	r0, #500	; 0x1f4
 800019e:	f000 fae5 	bl	800076c <HAL_Delay>
	  __HAL_TIM_SetCompare(&htim2, TIM_CHANNEL_1, 2000);
 80001a2:	e7e3      	b.n	800016c <main+0x20>
 80001a4:	20000028 	.word	0x20000028

080001a8 <SystemClock_Config>:
/**
  * @brief System Clock Configuration
  * @retval None
  */
void SystemClock_Config(void)
{
 80001a8:	b580      	push	{r7, lr}
 80001aa:	b090      	sub	sp, #64	; 0x40
 80001ac:	af00      	add	r7, sp, #0
  RCC_OscInitTypeDef RCC_OscInitStruct = {0};
 80001ae:	f107 0318 	add.w	r3, r7, #24
 80001b2:	2228      	movs	r2, #40	; 0x28
 80001b4:	2100      	movs	r1, #0
 80001b6:	4618      	mov	r0, r3
 80001b8:	f002 f9f8 	bl	80025ac <memset>
  RCC_ClkInitTypeDef RCC_ClkInitStruct = {0};
 80001bc:	1d3b      	adds	r3, r7, #4
 80001be:	2200      	movs	r2, #0
 80001c0:	601a      	str	r2, [r3, #0]
 80001c2:	605a      	str	r2, [r3, #4]
 80001c4:	609a      	str	r2, [r3, #8]
 80001c6:	60da      	str	r2, [r3, #12]
 80001c8:	611a      	str	r2, [r3, #16]

  /** Initializes the RCC Oscillators according to the specified parameters
  * in the RCC_OscInitTypeDef structure.
  */
  RCC_OscInitStruct.OscillatorType = RCC_OSCILLATORTYPE_HSI;
 80001ca:	2302      	movs	r3, #2
 80001cc:	61bb      	str	r3, [r7, #24]
  RCC_OscInitStruct.HSIState = RCC_HSI_ON;
 80001ce:	2301      	movs	r3, #1
 80001d0:	62bb      	str	r3, [r7, #40]	; 0x28
  RCC_OscInitStruct.HSICalibrationValue = RCC_HSICALIBRATION_DEFAULT;
 80001d2:	2310      	movs	r3, #16
 80001d4:	62fb      	str	r3, [r7, #44]	; 0x2c
  RCC_OscInitStruct.PLL.PLLState = RCC_PLL_ON;
 80001d6:	2302      	movs	r3, #2
 80001d8:	637b      	str	r3, [r7, #52]	; 0x34
  RCC_OscInitStruct.PLL.PLLSource = RCC_PLLSOURCE_HSI_DIV2;
 80001da:	2300      	movs	r3, #0
 80001dc:	63bb      	str	r3, [r7, #56]	; 0x38
  RCC_OscInitStruct.PLL.PLLMUL = RCC_PLL_MUL16;
 80001de:	f44f 1360 	mov.w	r3, #3670016	; 0x380000
 80001e2:	63fb      	str	r3, [r7, #60]	; 0x3c
  if (HAL_RCC_OscConfig(&RCC_OscInitStruct) != HAL_OK)
 80001e4:	f107 0318 	add.w	r3, r7, #24
 80001e8:	4618      	mov	r0, r3
 80001ea:	f000 fdaf 	bl	8000d4c <HAL_RCC_OscConfig>
 80001ee:	4603      	mov	r3, r0
 80001f0:	2b00      	cmp	r3, #0
 80001f2:	d001      	beq.n	80001f8 <SystemClock_Config+0x50>
  {
    Error_Handler();
 80001f4:	f000 f928 	bl	8000448 <Error_Handler>
  }

  /** Initializes the CPU, AHB and APB buses clocks
  */
  RCC_ClkInitStruct.ClockType = RCC_CLOCKTYPE_HCLK|RCC_CLOCKTYPE_SYSCLK
 80001f8:	230f      	movs	r3, #15
 80001fa:	607b      	str	r3, [r7, #4]
                              |RCC_CLOCKTYPE_PCLK1|RCC_CLOCKTYPE_PCLK2;
  RCC_ClkInitStruct.SYSCLKSource = RCC_SYSCLKSOURCE_PLLCLK;
 80001fc:	2302      	movs	r3, #2
 80001fe:	60bb      	str	r3, [r7, #8]
  RCC_ClkInitStruct.AHBCLKDivider = RCC_SYSCLK_DIV1;
 8000200:	2300      	movs	r3, #0
 8000202:	60fb      	str	r3, [r7, #12]
  RCC_ClkInitStruct.APB1CLKDivider = RCC_HCLK_DIV2;
 8000204:	f44f 6380 	mov.w	r3, #1024	; 0x400
 8000208:	613b      	str	r3, [r7, #16]
  RCC_ClkInitStruct.APB2CLKDivider = RCC_HCLK_DIV1;
 800020a:	2300      	movs	r3, #0
 800020c:	617b      	str	r3, [r7, #20]

  if (HAL_RCC_ClockConfig(&RCC_ClkInitStruct, FLASH_LATENCY_2) != HAL_OK)
 800020e:	1d3b      	adds	r3, r7, #4
 8000210:	2102      	movs	r1, #2
 8000212:	4618      	mov	r0, r3
 8000214:	f001 f81c 	bl	8001250 <HAL_RCC_ClockConfig>
 8000218:	4603      	mov	r3, r0
 800021a:	2b00      	cmp	r3, #0
 800021c:	d001      	beq.n	8000222 <SystemClock_Config+0x7a>
  {
    Error_Handler();
 800021e:	f000 f913 	bl	8000448 <Error_Handler>
  }
}
 8000222:	bf00      	nop
 8000224:	3740      	adds	r7, #64	; 0x40
 8000226:	46bd      	mov	sp, r7
 8000228:	bd80      	pop	{r7, pc}
	...

0800022c <MX_TIM2_Init>:
  * @brief TIM2 Initialization Function
  * @param None
  * @retval None
  */
static void MX_TIM2_Init(void)
{
 800022c:	b580      	push	{r7, lr}
 800022e:	b08e      	sub	sp, #56	; 0x38
 8000230:	af00      	add	r7, sp, #0

  /* USER CODE BEGIN TIM2_Init 0 */

  /* USER CODE END TIM2_Init 0 */

  TIM_ClockConfigTypeDef sClockSourceConfig = {0};
 8000232:	f107 0328 	add.w	r3, r7, #40	; 0x28
 8000236:	2200      	movs	r2, #0
 8000238:	601a      	str	r2, [r3, #0]
 800023a:	605a      	str	r2, [r3, #4]
 800023c:	609a      	str	r2, [r3, #8]
 800023e:	60da      	str	r2, [r3, #12]
  TIM_MasterConfigTypeDef sMasterConfig = {0};
 8000240:	f107 0320 	add.w	r3, r7, #32
 8000244:	2200      	movs	r2, #0
 8000246:	601a      	str	r2, [r3, #0]
 8000248:	605a      	str	r2, [r3, #4]
  TIM_OC_InitTypeDef sConfigOC = {0};
 800024a:	1d3b      	adds	r3, r7, #4
 800024c:	2200      	movs	r2, #0
 800024e:	601a      	str	r2, [r3, #0]
 8000250:	605a      	str	r2, [r3, #4]
 8000252:	609a      	str	r2, [r3, #8]
 8000254:	60da      	str	r2, [r3, #12]
 8000256:	611a      	str	r2, [r3, #16]
 8000258:	615a      	str	r2, [r3, #20]
 800025a:	619a      	str	r2, [r3, #24]

  /* USER CODE BEGIN TIM2_Init 1 */

  /* USER CODE END TIM2_Init 1 */
  htim2.Instance = TIM2;
 800025c:	4b2d      	ldr	r3, [pc, #180]	; (8000314 <MX_TIM2_Init+0xe8>)
 800025e:	f04f 4280 	mov.w	r2, #1073741824	; 0x40000000
 8000262:	601a      	str	r2, [r3, #0]
  htim2.Init.Prescaler = 64-1;
 8000264:	4b2b      	ldr	r3, [pc, #172]	; (8000314 <MX_TIM2_Init+0xe8>)
 8000266:	223f      	movs	r2, #63	; 0x3f
 8000268:	605a      	str	r2, [r3, #4]
  htim2.Init.CounterMode = TIM_COUNTERMODE_UP;
 800026a:	4b2a      	ldr	r3, [pc, #168]	; (8000314 <MX_TIM2_Init+0xe8>)
 800026c:	2200      	movs	r2, #0
 800026e:	609a      	str	r2, [r3, #8]
  htim2.Init.Period = 20000;
 8000270:	4b28      	ldr	r3, [pc, #160]	; (8000314 <MX_TIM2_Init+0xe8>)
 8000272:	f644 6220 	movw	r2, #20000	; 0x4e20
 8000276:	60da      	str	r2, [r3, #12]
  htim2.Init.ClockDivision = TIM_CLOCKDIVISION_DIV1;
 8000278:	4b26      	ldr	r3, [pc, #152]	; (8000314 <MX_TIM2_Init+0xe8>)
 800027a:	2200      	movs	r2, #0
 800027c:	611a      	str	r2, [r3, #16]
  htim2.Init.AutoReloadPreload = TIM_AUTORELOAD_PRELOAD_DISABLE;
 800027e:	4b25      	ldr	r3, [pc, #148]	; (8000314 <MX_TIM2_Init+0xe8>)
 8000280:	2200      	movs	r2, #0
 8000282:	619a      	str	r2, [r3, #24]
  if (HAL_TIM_Base_Init(&htim2) != HAL_OK)
 8000284:	4823      	ldr	r0, [pc, #140]	; (8000314 <MX_TIM2_Init+0xe8>)
 8000286:	f001 f97b 	bl	8001580 <HAL_TIM_Base_Init>
 800028a:	4603      	mov	r3, r0
 800028c:	2b00      	cmp	r3, #0
 800028e:	d001      	beq.n	8000294 <MX_TIM2_Init+0x68>
  {
    Error_Handler();
 8000290:	f000 f8da 	bl	8000448 <Error_Handler>
  }
  sClockSourceConfig.ClockSource = TIM_CLOCKSOURCE_INTERNAL;
 8000294:	f44f 5380 	mov.w	r3, #4096	; 0x1000
 8000298:	62bb      	str	r3, [r7, #40]	; 0x28
  if (HAL_TIM_ConfigClockSource(&htim2, &sClockSourceConfig) != HAL_OK)
 800029a:	f107 0328 	add.w	r3, r7, #40	; 0x28
 800029e:	4619      	mov	r1, r3
 80002a0:	481c      	ldr	r0, [pc, #112]	; (8000314 <MX_TIM2_Init+0xe8>)
 80002a2:	f001 fc7d 	bl	8001ba0 <HAL_TIM_ConfigClockSource>
 80002a6:	4603      	mov	r3, r0
 80002a8:	2b00      	cmp	r3, #0
 80002aa:	d001      	beq.n	80002b0 <MX_TIM2_Init+0x84>
  {
    Error_Handler();
 80002ac:	f000 f8cc 	bl	8000448 <Error_Handler>
  }
  if (HAL_TIM_PWM_Init(&htim2) != HAL_OK)
 80002b0:	4818      	ldr	r0, [pc, #96]	; (8000314 <MX_TIM2_Init+0xe8>)
 80002b2:	f001 f9b4 	bl	800161e <HAL_TIM_PWM_Init>
 80002b6:	4603      	mov	r3, r0
 80002b8:	2b00      	cmp	r3, #0
 80002ba:	d001      	beq.n	80002c0 <MX_TIM2_Init+0x94>
  {
    Error_Handler();
 80002bc:	f000 f8c4 	bl	8000448 <Error_Handler>
  }
  sMasterConfig.MasterOutputTrigger = TIM_TRGO_RESET;
 80002c0:	2300      	movs	r3, #0
 80002c2:	623b      	str	r3, [r7, #32]
  sMasterConfig.MasterSlaveMode = TIM_MASTERSLAVEMODE_DISABLE;
 80002c4:	2300      	movs	r3, #0
 80002c6:	627b      	str	r3, [r7, #36]	; 0x24
  if (HAL_TIMEx_MasterConfigSynchronization(&htim2, &sMasterConfig) != HAL_OK)
 80002c8:	f107 0320 	add.w	r3, r7, #32
 80002cc:	4619      	mov	r1, r3
 80002ce:	4811      	ldr	r0, [pc, #68]	; (8000314 <MX_TIM2_Init+0xe8>)
 80002d0:	f001 fffc 	bl	80022cc <HAL_TIMEx_MasterConfigSynchronization>
 80002d4:	4603      	mov	r3, r0
 80002d6:	2b00      	cmp	r3, #0
 80002d8:	d001      	beq.n	80002de <MX_TIM2_Init+0xb2>
  {
    Error_Handler();
 80002da:	f000 f8b5 	bl	8000448 <Error_Handler>
  }
  sConfigOC.OCMode = TIM_OCMODE_PWM1;
 80002de:	2360      	movs	r3, #96	; 0x60
 80002e0:	607b      	str	r3, [r7, #4]
  sConfigOC.Pulse = 2500;
 80002e2:	f640 13c4 	movw	r3, #2500	; 0x9c4
 80002e6:	60bb      	str	r3, [r7, #8]
  sConfigOC.OCPolarity = TIM_OCPOLARITY_HIGH;
 80002e8:	2300      	movs	r3, #0
 80002ea:	60fb      	str	r3, [r7, #12]
  sConfigOC.OCFastMode = TIM_OCFAST_DISABLE;
 80002ec:	2300      	movs	r3, #0
 80002ee:	617b      	str	r3, [r7, #20]
  if (HAL_TIM_PWM_ConfigChannel(&htim2, &sConfigOC, TIM_CHANNEL_1) != HAL_OK)
 80002f0:	1d3b      	adds	r3, r7, #4
 80002f2:	2200      	movs	r2, #0
 80002f4:	4619      	mov	r1, r3
 80002f6:	4807      	ldr	r0, [pc, #28]	; (8000314 <MX_TIM2_Init+0xe8>)
 80002f8:	f001 fb94 	bl	8001a24 <HAL_TIM_PWM_ConfigChannel>
 80002fc:	4603      	mov	r3, r0
 80002fe:	2b00      	cmp	r3, #0
 8000300:	d001      	beq.n	8000306 <MX_TIM2_Init+0xda>
  {
    Error_Handler();
 8000302:	f000 f8a1 	bl	8000448 <Error_Handler>
  }
  /* USER CODE BEGIN TIM2_Init 2 */

  /* USER CODE END TIM2_Init 2 */
  HAL_TIM_MspPostInit(&htim2);
 8000306:	4803      	ldr	r0, [pc, #12]	; (8000314 <MX_TIM2_Init+0xe8>)
 8000308:	f000 f8fa 	bl	8000500 <HAL_TIM_MspPostInit>

}
 800030c:	bf00      	nop
 800030e:	3738      	adds	r7, #56	; 0x38
 8000310:	46bd      	mov	sp, r7
 8000312:	bd80      	pop	{r7, pc}
 8000314:	20000028 	.word	0x20000028

08000318 <MX_USART2_UART_Init>:
  * @brief USART2 Initialization Function
  * @param None
  * @retval None
  */
static void MX_USART2_UART_Init(void)
{
 8000318:	b580      	push	{r7, lr}
 800031a:	af00      	add	r7, sp, #0
  /* USER CODE END USART2_Init 0 */

  /* USER CODE BEGIN USART2_Init 1 */

  /* USER CODE END USART2_Init 1 */
  huart2.Instance = USART2;
 800031c:	4b11      	ldr	r3, [pc, #68]	; (8000364 <MX_USART2_UART_Init+0x4c>)
 800031e:	4a12      	ldr	r2, [pc, #72]	; (8000368 <MX_USART2_UART_Init+0x50>)
 8000320:	601a      	str	r2, [r3, #0]
  huart2.Init.BaudRate = 115200;
 8000322:	4b10      	ldr	r3, [pc, #64]	; (8000364 <MX_USART2_UART_Init+0x4c>)
 8000324:	f44f 32e1 	mov.w	r2, #115200	; 0x1c200
 8000328:	605a      	str	r2, [r3, #4]
  huart2.Init.WordLength = UART_WORDLENGTH_8B;
 800032a:	4b0e      	ldr	r3, [pc, #56]	; (8000364 <MX_USART2_UART_Init+0x4c>)
 800032c:	2200      	movs	r2, #0
 800032e:	609a      	str	r2, [r3, #8]
  huart2.Init.StopBits = UART_STOPBITS_1;
 8000330:	4b0c      	ldr	r3, [pc, #48]	; (8000364 <MX_USART2_UART_Init+0x4c>)
 8000332:	2200      	movs	r2, #0
 8000334:	60da      	str	r2, [r3, #12]
  huart2.Init.Parity = UART_PARITY_NONE;
 8000336:	4b0b      	ldr	r3, [pc, #44]	; (8000364 <MX_USART2_UART_Init+0x4c>)
 8000338:	2200      	movs	r2, #0
 800033a:	611a      	str	r2, [r3, #16]
  huart2.Init.Mode = UART_MODE_TX_RX;
 800033c:	4b09      	ldr	r3, [pc, #36]	; (8000364 <MX_USART2_UART_Init+0x4c>)
 800033e:	220c      	movs	r2, #12
 8000340:	615a      	str	r2, [r3, #20]
  huart2.Init.HwFlowCtl = UART_HWCONTROL_NONE;
 8000342:	4b08      	ldr	r3, [pc, #32]	; (8000364 <MX_USART2_UART_Init+0x4c>)
 8000344:	2200      	movs	r2, #0
 8000346:	619a      	str	r2, [r3, #24]
  huart2.Init.OverSampling = UART_OVERSAMPLING_16;
 8000348:	4b06      	ldr	r3, [pc, #24]	; (8000364 <MX_USART2_UART_Init+0x4c>)
 800034a:	2200      	movs	r2, #0
 800034c:	61da      	str	r2, [r3, #28]
  if (HAL_UART_Init(&huart2) != HAL_OK)
 800034e:	4805      	ldr	r0, [pc, #20]	; (8000364 <MX_USART2_UART_Init+0x4c>)
 8000350:	f002 f82c 	bl	80023ac <HAL_UART_Init>
 8000354:	4603      	mov	r3, r0
 8000356:	2b00      	cmp	r3, #0
 8000358:	d001      	beq.n	800035e <MX_USART2_UART_Init+0x46>
  {
    Error_Handler();
 800035a:	f000 f875 	bl	8000448 <Error_Handler>
  }
  /* USER CODE BEGIN USART2_Init 2 */

  /* USER CODE END USART2_Init 2 */

}
 800035e:	bf00      	nop
 8000360:	bd80      	pop	{r7, pc}
 8000362:	bf00      	nop
 8000364:	20000070 	.word	0x20000070
 8000368:	40004400 	.word	0x40004400

0800036c <MX_GPIO_Init>:
  * @brief GPIO Initialization Function
  * @param None
  * @retval None
  */
static void MX_GPIO_Init(void)
{
 800036c:	b580      	push	{r7, lr}
 800036e:	b088      	sub	sp, #32
 8000370:	af00      	add	r7, sp, #0
  GPIO_InitTypeDef GPIO_InitStruct = {0};
 8000372:	f107 0310 	add.w	r3, r7, #16
 8000376:	2200      	movs	r2, #0
 8000378:	601a      	str	r2, [r3, #0]
 800037a:	605a      	str	r2, [r3, #4]
 800037c:	609a      	str	r2, [r3, #8]
 800037e:	60da      	str	r2, [r3, #12]

  /* GPIO Ports Clock Enable */
  __HAL_RCC_GPIOC_CLK_ENABLE();
 8000380:	4b2d      	ldr	r3, [pc, #180]	; (8000438 <MX_GPIO_Init+0xcc>)
 8000382:	699b      	ldr	r3, [r3, #24]
 8000384:	4a2c      	ldr	r2, [pc, #176]	; (8000438 <MX_GPIO_Init+0xcc>)
 8000386:	f043 0310 	orr.w	r3, r3, #16
 800038a:	6193      	str	r3, [r2, #24]
 800038c:	4b2a      	ldr	r3, [pc, #168]	; (8000438 <MX_GPIO_Init+0xcc>)
 800038e:	699b      	ldr	r3, [r3, #24]
 8000390:	f003 0310 	and.w	r3, r3, #16
 8000394:	60fb      	str	r3, [r7, #12]
 8000396:	68fb      	ldr	r3, [r7, #12]
  __HAL_RCC_GPIOD_CLK_ENABLE();
 8000398:	4b27      	ldr	r3, [pc, #156]	; (8000438 <MX_GPIO_Init+0xcc>)
 800039a:	699b      	ldr	r3, [r3, #24]
 800039c:	4a26      	ldr	r2, [pc, #152]	; (8000438 <MX_GPIO_Init+0xcc>)
 800039e:	f043 0320 	orr.w	r3, r3, #32
 80003a2:	6193      	str	r3, [r2, #24]
 80003a4:	4b24      	ldr	r3, [pc, #144]	; (8000438 <MX_GPIO_Init+0xcc>)
 80003a6:	699b      	ldr	r3, [r3, #24]
 80003a8:	f003 0320 	and.w	r3, r3, #32
 80003ac:	60bb      	str	r3, [r7, #8]
 80003ae:	68bb      	ldr	r3, [r7, #8]
  __HAL_RCC_GPIOA_CLK_ENABLE();
 80003b0:	4b21      	ldr	r3, [pc, #132]	; (8000438 <MX_GPIO_Init+0xcc>)
 80003b2:	699b      	ldr	r3, [r3, #24]
 80003b4:	4a20      	ldr	r2, [pc, #128]	; (8000438 <MX_GPIO_Init+0xcc>)
 80003b6:	f043 0304 	orr.w	r3, r3, #4
 80003ba:	6193      	str	r3, [r2, #24]
 80003bc:	4b1e      	ldr	r3, [pc, #120]	; (8000438 <MX_GPIO_Init+0xcc>)
 80003be:	699b      	ldr	r3, [r3, #24]
 80003c0:	f003 0304 	and.w	r3, r3, #4
 80003c4:	607b      	str	r3, [r7, #4]
 80003c6:	687b      	ldr	r3, [r7, #4]
  __HAL_RCC_GPIOB_CLK_ENABLE();
 80003c8:	4b1b      	ldr	r3, [pc, #108]	; (8000438 <MX_GPIO_Init+0xcc>)
 80003ca:	699b      	ldr	r3, [r3, #24]
 80003cc:	4a1a      	ldr	r2, [pc, #104]	; (8000438 <MX_GPIO_Init+0xcc>)
 80003ce:	f043 0308 	orr.w	r3, r3, #8
 80003d2:	6193      	str	r3, [r2, #24]
 80003d4:	4b18      	ldr	r3, [pc, #96]	; (8000438 <MX_GPIO_Init+0xcc>)
 80003d6:	699b      	ldr	r3, [r3, #24]
 80003d8:	f003 0308 	and.w	r3, r3, #8
 80003dc:	603b      	str	r3, [r7, #0]
 80003de:	683b      	ldr	r3, [r7, #0]

  /*Configure GPIO pin Output Level */
  HAL_GPIO_WritePin(LD2_GPIO_Port, LD2_Pin, GPIO_PIN_RESET);
 80003e0:	2200      	movs	r2, #0
 80003e2:	2120      	movs	r1, #32
 80003e4:	4815      	ldr	r0, [pc, #84]	; (800043c <MX_GPIO_Init+0xd0>)
 80003e6:	f000 fc77 	bl	8000cd8 <HAL_GPIO_WritePin>

  /*Configure GPIO pin : B1_Pin */
  GPIO_InitStruct.Pin = B1_Pin;
 80003ea:	f44f 5300 	mov.w	r3, #8192	; 0x2000
 80003ee:	613b      	str	r3, [r7, #16]
  GPIO_InitStruct.Mode = GPIO_MODE_IT_RISING;
 80003f0:	4b13      	ldr	r3, [pc, #76]	; (8000440 <MX_GPIO_Init+0xd4>)
 80003f2:	617b      	str	r3, [r7, #20]
  GPIO_InitStruct.Pull = GPIO_NOPULL;
 80003f4:	2300      	movs	r3, #0
 80003f6:	61bb      	str	r3, [r7, #24]
  HAL_GPIO_Init(B1_GPIO_Port, &GPIO_InitStruct);
 80003f8:	f107 0310 	add.w	r3, r7, #16
 80003fc:	4619      	mov	r1, r3
 80003fe:	4811      	ldr	r0, [pc, #68]	; (8000444 <MX_GPIO_Init+0xd8>)
 8000400:	f000 fae6 	bl	80009d0 <HAL_GPIO_Init>

  /*Configure GPIO pin : LD2_Pin */
  GPIO_InitStruct.Pin = LD2_Pin;
 8000404:	2320      	movs	r3, #32
 8000406:	613b      	str	r3, [r7, #16]
  GPIO_InitStruct.Mode = GPIO_MODE_OUTPUT_PP;
 8000408:	2301      	movs	r3, #1
 800040a:	617b      	str	r3, [r7, #20]
  GPIO_InitStruct.Pull = GPIO_NOPULL;
 800040c:	2300      	movs	r3, #0
 800040e:	61bb      	str	r3, [r7, #24]
  GPIO_InitStruct.Speed = GPIO_SPEED_FREQ_LOW;
 8000410:	2302      	movs	r3, #2
 8000412:	61fb      	str	r3, [r7, #28]
  HAL_GPIO_Init(LD2_GPIO_Port, &GPIO_InitStruct);
 8000414:	f107 0310 	add.w	r3, r7, #16
 8000418:	4619      	mov	r1, r3
 800041a:	4808      	ldr	r0, [pc, #32]	; (800043c <MX_GPIO_Init+0xd0>)
 800041c:	f000 fad8 	bl	80009d0 <HAL_GPIO_Init>

  /* EXTI interrupt init*/
  HAL_NVIC_SetPriority(EXTI15_10_IRQn, 0, 0);
 8000420:	2200      	movs	r2, #0
 8000422:	2100      	movs	r1, #0
 8000424:	2028      	movs	r0, #40	; 0x28
 8000426:	f000 fa9c 	bl	8000962 <HAL_NVIC_SetPriority>
  HAL_NVIC_EnableIRQ(EXTI15_10_IRQn);
 800042a:	2028      	movs	r0, #40	; 0x28
 800042c:	f000 fab5 	bl	800099a <HAL_NVIC_EnableIRQ>

}
 8000430:	bf00      	nop
 8000432:	3720      	adds	r7, #32
 8000434:	46bd      	mov	sp, r7
 8000436:	bd80      	pop	{r7, pc}
 8000438:	40021000 	.word	0x40021000
 800043c:	40010800 	.word	0x40010800
 8000440:	10110000 	.word	0x10110000
 8000444:	40011000 	.word	0x40011000

08000448 <Error_Handler>:
/**
  * @brief  This function is executed in case of error occurrence.
  * @retval None
  */
void Error_Handler(void)
{
 8000448:	b480      	push	{r7}
 800044a:	af00      	add	r7, sp, #0
  \details Disables IRQ interrupts by setting the I-bit in the CPSR.
           Can only be executed in Privileged modes.
 */
__STATIC_FORCEINLINE void __disable_irq(void)
{
  __ASM volatile ("cpsid i" : : : "memory");
 800044c:	b672      	cpsid	i
}
 800044e:	bf00      	nop
  /* USER CODE BEGIN Error_Handler_Debug */
  /* User can add his own implementation to report the HAL error return state */
  __disable_irq();
  while (1)
 8000450:	e7fe      	b.n	8000450 <Error_Handler+0x8>
	...

08000454 <HAL_MspInit>:
void HAL_TIM_MspPostInit(TIM_HandleTypeDef *htim);
                    /**
  * Initializes the Global MSP.
  */
void HAL_MspInit(void)
{
 8000454:	b480      	push	{r7}
 8000456:	b085      	sub	sp, #20
 8000458:	af00      	add	r7, sp, #0
  /* USER CODE BEGIN MspInit 0 */

  /* USER CODE END MspInit 0 */

  __HAL_RCC_AFIO_CLK_ENABLE();
 800045a:	4b15      	ldr	r3, [pc, #84]	; (80004b0 <HAL_MspInit+0x5c>)
 800045c:	699b      	ldr	r3, [r3, #24]
 800045e:	4a14      	ldr	r2, [pc, #80]	; (80004b0 <HAL_MspInit+0x5c>)
 8000460:	f043 0301 	orr.w	r3, r3, #1
 8000464:	6193      	str	r3, [r2, #24]
 8000466:	4b12      	ldr	r3, [pc, #72]	; (80004b0 <HAL_MspInit+0x5c>)
 8000468:	699b      	ldr	r3, [r3, #24]
 800046a:	f003 0301 	and.w	r3, r3, #1
 800046e:	60bb      	str	r3, [r7, #8]
 8000470:	68bb      	ldr	r3, [r7, #8]
  __HAL_RCC_PWR_CLK_ENABLE();
 8000472:	4b0f      	ldr	r3, [pc, #60]	; (80004b0 <HAL_MspInit+0x5c>)
 8000474:	69db      	ldr	r3, [r3, #28]
 8000476:	4a0e      	ldr	r2, [pc, #56]	; (80004b0 <HAL_MspInit+0x5c>)
 8000478:	f043 5380 	orr.w	r3, r3, #268435456	; 0x10000000
 800047c:	61d3      	str	r3, [r2, #28]
 800047e:	4b0c      	ldr	r3, [pc, #48]	; (80004b0 <HAL_MspInit+0x5c>)
 8000480:	69db      	ldr	r3, [r3, #28]
 8000482:	f003 5380 	and.w	r3, r3, #268435456	; 0x10000000
 8000486:	607b      	str	r3, [r7, #4]
 8000488:	687b      	ldr	r3, [r7, #4]

  /* System interrupt init*/

  /** NOJTAG: JTAG-DP Disabled and SW-DP Enabled
  */
  __HAL_AFIO_REMAP_SWJ_NOJTAG();
 800048a:	4b0a      	ldr	r3, [pc, #40]	; (80004b4 <HAL_MspInit+0x60>)
 800048c:	685b      	ldr	r3, [r3, #4]
 800048e:	60fb      	str	r3, [r7, #12]
 8000490:	68fb      	ldr	r3, [r7, #12]
 8000492:	f023 63e0 	bic.w	r3, r3, #117440512	; 0x7000000
 8000496:	60fb      	str	r3, [r7, #12]
 8000498:	68fb      	ldr	r3, [r7, #12]
 800049a:	f043 7300 	orr.w	r3, r3, #33554432	; 0x2000000
 800049e:	60fb      	str	r3, [r7, #12]
 80004a0:	4a04      	ldr	r2, [pc, #16]	; (80004b4 <HAL_MspInit+0x60>)
 80004a2:	68fb      	ldr	r3, [r7, #12]
 80004a4:	6053      	str	r3, [r2, #4]

  /* USER CODE BEGIN MspInit 1 */

  /* USER CODE END MspInit 1 */
}
 80004a6:	bf00      	nop
 80004a8:	3714      	adds	r7, #20
 80004aa:	46bd      	mov	sp, r7
 80004ac:	bc80      	pop	{r7}
 80004ae:	4770      	bx	lr
 80004b0:	40021000 	.word	0x40021000
 80004b4:	40010000 	.word	0x40010000

080004b8 <HAL_TIM_Base_MspInit>:
* This function configures the hardware resources used in this example
* @param htim_base: TIM_Base handle pointer
* @retval None
*/
void HAL_TIM_Base_MspInit(TIM_HandleTypeDef* htim_base)
{
 80004b8:	b580      	push	{r7, lr}
 80004ba:	b084      	sub	sp, #16
 80004bc:	af00      	add	r7, sp, #0
 80004be:	6078      	str	r0, [r7, #4]
  if(htim_base->Instance==TIM2)
 80004c0:	687b      	ldr	r3, [r7, #4]
 80004c2:	681b      	ldr	r3, [r3, #0]
 80004c4:	f1b3 4f80 	cmp.w	r3, #1073741824	; 0x40000000
 80004c8:	d113      	bne.n	80004f2 <HAL_TIM_Base_MspInit+0x3a>
  {
  /* USER CODE BEGIN TIM2_MspInit 0 */

  /* USER CODE END TIM2_MspInit 0 */
    /* Peripheral clock enable */
    __HAL_RCC_TIM2_CLK_ENABLE();
 80004ca:	4b0c      	ldr	r3, [pc, #48]	; (80004fc <HAL_TIM_Base_MspInit+0x44>)
 80004cc:	69db      	ldr	r3, [r3, #28]
 80004ce:	4a0b      	ldr	r2, [pc, #44]	; (80004fc <HAL_TIM_Base_MspInit+0x44>)
 80004d0:	f043 0301 	orr.w	r3, r3, #1
 80004d4:	61d3      	str	r3, [r2, #28]
 80004d6:	4b09      	ldr	r3, [pc, #36]	; (80004fc <HAL_TIM_Base_MspInit+0x44>)
 80004d8:	69db      	ldr	r3, [r3, #28]
 80004da:	f003 0301 	and.w	r3, r3, #1
 80004de:	60fb      	str	r3, [r7, #12]
 80004e0:	68fb      	ldr	r3, [r7, #12]
    /* TIM2 interrupt Init */
    HAL_NVIC_SetPriority(TIM2_IRQn, 0, 0);
 80004e2:	2200      	movs	r2, #0
 80004e4:	2100      	movs	r1, #0
 80004e6:	201c      	movs	r0, #28
 80004e8:	f000 fa3b 	bl	8000962 <HAL_NVIC_SetPriority>
    HAL_NVIC_EnableIRQ(TIM2_IRQn);
 80004ec:	201c      	movs	r0, #28
 80004ee:	f000 fa54 	bl	800099a <HAL_NVIC_EnableIRQ>
  /* USER CODE BEGIN TIM2_MspInit 1 */

  /* USER CODE END TIM2_MspInit 1 */
  }

}
 80004f2:	bf00      	nop
 80004f4:	3710      	adds	r7, #16
 80004f6:	46bd      	mov	sp, r7
 80004f8:	bd80      	pop	{r7, pc}
 80004fa:	bf00      	nop
 80004fc:	40021000 	.word	0x40021000

08000500 <HAL_TIM_MspPostInit>:

void HAL_TIM_MspPostInit(TIM_HandleTypeDef* htim)
{
 8000500:	b580      	push	{r7, lr}
 8000502:	b088      	sub	sp, #32
 8000504:	af00      	add	r7, sp, #0
 8000506:	6078      	str	r0, [r7, #4]
  GPIO_InitTypeDef GPIO_InitStruct = {0};
 8000508:	f107 0310 	add.w	r3, r7, #16
 800050c:	2200      	movs	r2, #0
 800050e:	601a      	str	r2, [r3, #0]
 8000510:	605a      	str	r2, [r3, #4]
 8000512:	609a      	str	r2, [r3, #8]
 8000514:	60da      	str	r2, [r3, #12]
  if(htim->Instance==TIM2)
 8000516:	687b      	ldr	r3, [r7, #4]
 8000518:	681b      	ldr	r3, [r3, #0]
 800051a:	f1b3 4f80 	cmp.w	r3, #1073741824	; 0x40000000
 800051e:	d117      	bne.n	8000550 <HAL_TIM_MspPostInit+0x50>
  {
  /* USER CODE BEGIN TIM2_MspPostInit 0 */

  /* USER CODE END TIM2_MspPostInit 0 */

    __HAL_RCC_GPIOA_CLK_ENABLE();
 8000520:	4b0d      	ldr	r3, [pc, #52]	; (8000558 <HAL_TIM_MspPostInit+0x58>)
 8000522:	699b      	ldr	r3, [r3, #24]
 8000524:	4a0c      	ldr	r2, [pc, #48]	; (8000558 <HAL_TIM_MspPostInit+0x58>)
 8000526:	f043 0304 	orr.w	r3, r3, #4
 800052a:	6193      	str	r3, [r2, #24]
 800052c:	4b0a      	ldr	r3, [pc, #40]	; (8000558 <HAL_TIM_MspPostInit+0x58>)
 800052e:	699b      	ldr	r3, [r3, #24]
 8000530:	f003 0304 	and.w	r3, r3, #4
 8000534:	60fb      	str	r3, [r7, #12]
 8000536:	68fb      	ldr	r3, [r7, #12]
    /**TIM2 GPIO Configuration
    PA0-WKUP     ------> TIM2_CH1
    */
    GPIO_InitStruct.Pin = GPIO_PIN_0;
 8000538:	2301      	movs	r3, #1
 800053a:	613b      	str	r3, [r7, #16]
    GPIO_InitStruct.Mode = GPIO_MODE_AF_PP;
 800053c:	2302      	movs	r3, #2
 800053e:	617b      	str	r3, [r7, #20]
    GPIO_InitStruct.Speed = GPIO_SPEED_FREQ_LOW;
 8000540:	2302      	movs	r3, #2
 8000542:	61fb      	str	r3, [r7, #28]
    HAL_GPIO_Init(GPIOA, &GPIO_InitStruct);
 8000544:	f107 0310 	add.w	r3, r7, #16
 8000548:	4619      	mov	r1, r3
 800054a:	4804      	ldr	r0, [pc, #16]	; (800055c <HAL_TIM_MspPostInit+0x5c>)
 800054c:	f000 fa40 	bl	80009d0 <HAL_GPIO_Init>
  /* USER CODE BEGIN TIM2_MspPostInit 1 */

  /* USER CODE END TIM2_MspPostInit 1 */
  }

}
 8000550:	bf00      	nop
 8000552:	3720      	adds	r7, #32
 8000554:	46bd      	mov	sp, r7
 8000556:	bd80      	pop	{r7, pc}
 8000558:	40021000 	.word	0x40021000
 800055c:	40010800 	.word	0x40010800

08000560 <HAL_UART_MspInit>:
* This function configures the hardware resources used in this example
* @param huart: UART handle pointer
* @retval None
*/
void HAL_UART_MspInit(UART_HandleTypeDef* huart)
{
 8000560:	b580      	push	{r7, lr}
 8000562:	b088      	sub	sp, #32
 8000564:	af00      	add	r7, sp, #0
 8000566:	6078      	str	r0, [r7, #4]
  GPIO_InitTypeDef GPIO_InitStruct = {0};
 8000568:	f107 0310 	add.w	r3, r7, #16
 800056c:	2200      	movs	r2, #0
 800056e:	601a      	str	r2, [r3, #0]
 8000570:	605a      	str	r2, [r3, #4]
 8000572:	609a      	str	r2, [r3, #8]
 8000574:	60da      	str	r2, [r3, #12]
  if(huart->Instance==USART2)
 8000576:	687b      	ldr	r3, [r7, #4]
 8000578:	681b      	ldr	r3, [r3, #0]
 800057a:	4a15      	ldr	r2, [pc, #84]	; (80005d0 <HAL_UART_MspInit+0x70>)
 800057c:	4293      	cmp	r3, r2
 800057e:	d123      	bne.n	80005c8 <HAL_UART_MspInit+0x68>
  {
  /* USER CODE BEGIN USART2_MspInit 0 */

  /* USER CODE END USART2_MspInit 0 */
    /* Peripheral clock enable */
    __HAL_RCC_USART2_CLK_ENABLE();
 8000580:	4b14      	ldr	r3, [pc, #80]	; (80005d4 <HAL_UART_MspInit+0x74>)
 8000582:	69db      	ldr	r3, [r3, #28]
 8000584:	4a13      	ldr	r2, [pc, #76]	; (80005d4 <HAL_UART_MspInit+0x74>)
 8000586:	f443 3300 	orr.w	r3, r3, #131072	; 0x20000
 800058a:	61d3      	str	r3, [r2, #28]
 800058c:	4b11      	ldr	r3, [pc, #68]	; (80005d4 <HAL_UART_MspInit+0x74>)
 800058e:	69db      	ldr	r3, [r3, #28]
 8000590:	f403 3300 	and.w	r3, r3, #131072	; 0x20000
 8000594:	60fb      	str	r3, [r7, #12]
 8000596:	68fb      	ldr	r3, [r7, #12]

    __HAL_RCC_GPIOA_CLK_ENABLE();
 8000598:	4b0e      	ldr	r3, [pc, #56]	; (80005d4 <HAL_UART_MspInit+0x74>)
 800059a:	699b      	ldr	r3, [r3, #24]
 800059c:	4a0d      	ldr	r2, [pc, #52]	; (80005d4 <HAL_UART_MspInit+0x74>)
 800059e:	f043 0304 	orr.w	r3, r3, #4
 80005a2:	6193      	str	r3, [r2, #24]
 80005a4:	4b0b      	ldr	r3, [pc, #44]	; (80005d4 <HAL_UART_MspInit+0x74>)
 80005a6:	699b      	ldr	r3, [r3, #24]
 80005a8:	f003 0304 	and.w	r3, r3, #4
 80005ac:	60bb      	str	r3, [r7, #8]
 80005ae:	68bb      	ldr	r3, [r7, #8]
    /**USART2 GPIO Configuration
    PA2     ------> USART2_TX
    PA3     ------> USART2_RX
    */
    GPIO_InitStruct.Pin = USART_TX_Pin|USART_RX_Pin;
 80005b0:	230c      	movs	r3, #12
 80005b2:	613b      	str	r3, [r7, #16]
    GPIO_InitStruct.Mode = GPIO_MODE_AF_PP;
 80005b4:	2302      	movs	r3, #2
 80005b6:	617b      	str	r3, [r7, #20]
    GPIO_InitStruct.Speed = GPIO_SPEED_FREQ_LOW;
 80005b8:	2302      	movs	r3, #2
 80005ba:	61fb      	str	r3, [r7, #28]
    HAL_GPIO_Init(GPIOA, &GPIO_InitStruct);
 80005bc:	f107 0310 	add.w	r3, r7, #16
 80005c0:	4619      	mov	r1, r3
 80005c2:	4805      	ldr	r0, [pc, #20]	; (80005d8 <HAL_UART_MspInit+0x78>)
 80005c4:	f000 fa04 	bl	80009d0 <HAL_GPIO_Init>
  /* USER CODE BEGIN USART2_MspInit 1 */

  /* USER CODE END USART2_MspInit 1 */
  }

}
 80005c8:	bf00      	nop
 80005ca:	3720      	adds	r7, #32
 80005cc:	46bd      	mov	sp, r7
 80005ce:	bd80      	pop	{r7, pc}
 80005d0:	40004400 	.word	0x40004400
 80005d4:	40021000 	.word	0x40021000
 80005d8:	40010800 	.word	0x40010800

080005dc <NMI_Handler>:
/******************************************************************************/
/**
  * @brief This function handles Non maskable interrupt.
  */
void NMI_Handler(void)
{
 80005dc:	b480      	push	{r7}
 80005de:	af00      	add	r7, sp, #0
  /* USER CODE BEGIN NonMaskableInt_IRQn 0 */

  /* USER CODE END NonMaskableInt_IRQn 0 */
  /* USER CODE BEGIN NonMaskableInt_IRQn 1 */
  while (1)
 80005e0:	e7fe      	b.n	80005e0 <NMI_Handler+0x4>

080005e2 <HardFault_Handler>:

/**
  * @brief This function handles Hard fault interrupt.
  */
void HardFault_Handler(void)
{
 80005e2:	b480      	push	{r7}
 80005e4:	af00      	add	r7, sp, #0
  /* USER CODE BEGIN HardFault_IRQn 0 */

  /* USER CODE END HardFault_IRQn 0 */
  while (1)
 80005e6:	e7fe      	b.n	80005e6 <HardFault_Handler+0x4>

080005e8 <MemManage_Handler>:

/**
  * @brief This function handles Memory management fault.
  */
void MemManage_Handler(void)
{
 80005e8:	b480      	push	{r7}
 80005ea:	af00      	add	r7, sp, #0
  /* USER CODE BEGIN MemoryManagement_IRQn 0 */

  /* USER CODE END MemoryManagement_IRQn 0 */
  while (1)
 80005ec:	e7fe      	b.n	80005ec <MemManage_Handler+0x4>

080005ee <BusFault_Handler>:

/**
  * @brief This function handles Prefetch fault, memory access fault.
  */
void BusFault_Handler(void)
{
 80005ee:	b480      	push	{r7}
 80005f0:	af00      	add	r7, sp, #0
  /* USER CODE BEGIN BusFault_IRQn 0 */

  /* USER CODE END BusFault_IRQn 0 */
  while (1)
 80005f2:	e7fe      	b.n	80005f2 <BusFault_Handler+0x4>

080005f4 <UsageFault_Handler>:

/**
  * @brief This function handles Undefined instruction or illegal state.
  */
void UsageFault_Handler(void)
{
 80005f4:	b480      	push	{r7}
 80005f6:	af00      	add	r7, sp, #0
  /* USER CODE BEGIN UsageFault_IRQn 0 */

  /* USER CODE END UsageFault_IRQn 0 */
  while (1)
 80005f8:	e7fe      	b.n	80005f8 <UsageFault_Handler+0x4>

080005fa <SVC_Handler>:

/**
  * @brief This function handles System service call via SWI instruction.
  */
void SVC_Handler(void)
{
 80005fa:	b480      	push	{r7}
 80005fc:	af00      	add	r7, sp, #0

  /* USER CODE END SVCall_IRQn 0 */
  /* USER CODE BEGIN SVCall_IRQn 1 */

  /* USER CODE END SVCall_IRQn 1 */
}
 80005fe:	bf00      	nop
 8000600:	46bd      	mov	sp, r7
 8000602:	bc80      	pop	{r7}
 8000604:	4770      	bx	lr

08000606 <DebugMon_Handler>:

/**
  * @brief This function handles Debug monitor.
  */
void DebugMon_Handler(void)
{
 8000606:	b480      	push	{r7}
 8000608:	af00      	add	r7, sp, #0

  /* USER CODE END DebugMonitor_IRQn 0 */
  /* USER CODE BEGIN DebugMonitor_IRQn 1 */

  /* USER CODE END DebugMonitor_IRQn 1 */
}
 800060a:	bf00      	nop
 800060c:	46bd      	mov	sp, r7
 800060e:	bc80      	pop	{r7}
 8000610:	4770      	bx	lr

08000612 <PendSV_Handler>:

/**
  * @brief This function handles Pendable request for system service.
  */
void PendSV_Handler(void)
{
 8000612:	b480      	push	{r7}
 8000614:	af00      	add	r7, sp, #0

  /* USER CODE END PendSV_IRQn 0 */
  /* USER CODE BEGIN PendSV_IRQn 1 */

  /* USER CODE END PendSV_IRQn 1 */
}
 8000616:	bf00      	nop
 8000618:	46bd      	mov	sp, r7
 800061a:	bc80      	pop	{r7}
 800061c:	4770      	bx	lr

0800061e <SysTick_Handler>:

/**
  * @brief This function handles System tick timer.
  */
void SysTick_Handler(void)
{
 800061e:	b580      	push	{r7, lr}
 8000620:	af00      	add	r7, sp, #0
  /* USER CODE BEGIN SysTick_IRQn 0 */

  /* USER CODE END SysTick_IRQn 0 */
  HAL_IncTick();
 8000622:	f000 f887 	bl	8000734 <HAL_IncTick>
  /* USER CODE BEGIN SysTick_IRQn 1 */

  /* USER CODE END SysTick_IRQn 1 */
}
 8000626:	bf00      	nop
 8000628:	bd80      	pop	{r7, pc}
	...

0800062c <TIM2_IRQHandler>:

/**
  * @brief This function handles TIM2 global interrupt.
  */
void TIM2_IRQHandler(void)
{
 800062c:	b580      	push	{r7, lr}
 800062e:	af00      	add	r7, sp, #0
  /* USER CODE BEGIN TIM2_IRQn 0 */

  /* USER CODE END TIM2_IRQn 0 */
  HAL_TIM_IRQHandler(&htim2);
 8000630:	4802      	ldr	r0, [pc, #8]	; (800063c <TIM2_IRQHandler+0x10>)
 8000632:	f001 f8ef 	bl	8001814 <HAL_TIM_IRQHandler>
  /* USER CODE BEGIN TIM2_IRQn 1 */

  /* USER CODE END TIM2_IRQn 1 */
}
 8000636:	bf00      	nop
 8000638:	bd80      	pop	{r7, pc}
 800063a:	bf00      	nop
 800063c:	20000028 	.word	0x20000028

08000640 <EXTI15_10_IRQHandler>:

/**
  * @brief This function handles EXTI line[15:10] interrupts.
  */
void EXTI15_10_IRQHandler(void)
{
 8000640:	b580      	push	{r7, lr}
 8000642:	af00      	add	r7, sp, #0
  /* USER CODE BEGIN EXTI15_10_IRQn 0 */

  /* USER CODE END EXTI15_10_IRQn 0 */
  HAL_GPIO_EXTI_IRQHandler(B1_Pin);
 8000644:	f44f 5000 	mov.w	r0, #8192	; 0x2000
 8000648:	f000 fb5e 	bl	8000d08 <HAL_GPIO_EXTI_IRQHandler>
  /* USER CODE BEGIN EXTI15_10_IRQn 1 */

  /* USER CODE END EXTI15_10_IRQn 1 */
}
 800064c:	bf00      	nop
 800064e:	bd80      	pop	{r7, pc}

08000650 <SystemInit>:
  * @note   This function should be used only after reset.
  * @param  None
  * @retval None
  */
void SystemInit (void)
{
 8000650:	b480      	push	{r7}
 8000652:	af00      	add	r7, sp, #0

  /* Configure the Vector Table location -------------------------------------*/
#if defined(USER_VECT_TAB_ADDRESS)
  SCB->VTOR = VECT_TAB_BASE_ADDRESS | VECT_TAB_OFFSET; /* Vector Table Relocation in Internal SRAM. */
#endif /* USER_VECT_TAB_ADDRESS */
}
 8000654:	bf00      	nop
 8000656:	46bd      	mov	sp, r7
 8000658:	bc80      	pop	{r7}
 800065a:	4770      	bx	lr

0800065c <Reset_Handler>:
  .weak Reset_Handler
  .type Reset_Handler, %function
Reset_Handler:

/* Copy the data segment initializers from flash to SRAM */
  ldr r0, =_sdata
 800065c:	480c      	ldr	r0, [pc, #48]	; (8000690 <LoopFillZerobss+0x12>)
  ldr r1, =_edata
 800065e:	490d      	ldr	r1, [pc, #52]	; (8000694 <LoopFillZerobss+0x16>)
  ldr r2, =_sidata
 8000660:	4a0d      	ldr	r2, [pc, #52]	; (8000698 <LoopFillZerobss+0x1a>)
  movs r3, #0
 8000662:	2300      	movs	r3, #0
  b LoopCopyDataInit
 8000664:	e002      	b.n	800066c <LoopCopyDataInit>

08000666 <CopyDataInit>:

CopyDataInit:
  ldr r4, [r2, r3]
 8000666:	58d4      	ldr	r4, [r2, r3]
  str r4, [r0, r3]
 8000668:	50c4      	str	r4, [r0, r3]
  adds r3, r3, #4
 800066a:	3304      	adds	r3, #4

0800066c <LoopCopyDataInit>:

LoopCopyDataInit:
  adds r4, r0, r3
 800066c:	18c4      	adds	r4, r0, r3
  cmp r4, r1
 800066e:	428c      	cmp	r4, r1
  bcc CopyDataInit
 8000670:	d3f9      	bcc.n	8000666 <CopyDataInit>
  
/* Zero fill the bss segment. */
  ldr r2, =_sbss
 8000672:	4a0a      	ldr	r2, [pc, #40]	; (800069c <LoopFillZerobss+0x1e>)
  ldr r4, =_ebss
 8000674:	4c0a      	ldr	r4, [pc, #40]	; (80006a0 <LoopFillZerobss+0x22>)
  movs r3, #0
 8000676:	2300      	movs	r3, #0
  b LoopFillZerobss
 8000678:	e001      	b.n	800067e <LoopFillZerobss>

0800067a <FillZerobss>:

FillZerobss:
  str  r3, [r2]
 800067a:	6013      	str	r3, [r2, #0]
  adds r2, r2, #4
 800067c:	3204      	adds	r2, #4

0800067e <LoopFillZerobss>:

LoopFillZerobss:
  cmp r2, r4
 800067e:	42a2      	cmp	r2, r4
  bcc FillZerobss
 8000680:	d3fb      	bcc.n	800067a <FillZerobss>

/* Call the clock system intitialization function.*/
    bl  SystemInit
 8000682:	f7ff ffe5 	bl	8000650 <SystemInit>
/* Call static constructors */
    bl __libc_init_array
 8000686:	f001 ff6d 	bl	8002564 <__libc_init_array>
/* Call the application's entry point.*/
  bl main
 800068a:	f7ff fd5f 	bl	800014c <main>
  bx lr
 800068e:	4770      	bx	lr
  ldr r0, =_sdata
 8000690:	20000000 	.word	0x20000000
  ldr r1, =_edata
 8000694:	2000000c 	.word	0x2000000c
  ldr r2, =_sidata
 8000698:	08002604 	.word	0x08002604
  ldr r2, =_sbss
 800069c:	2000000c 	.word	0x2000000c
  ldr r4, =_ebss
 80006a0:	200000b8 	.word	0x200000b8

080006a4 <ADC1_2_IRQHandler>:
 * @retval : None
*/
    .section .text.Default_Handler,"ax",%progbits
Default_Handler:
Infinite_Loop:
  b Infinite_Loop
 80006a4:	e7fe      	b.n	80006a4 <ADC1_2_IRQHandler>
	...

080006a8 <HAL_Init>:
  *         need to ensure that the SysTick time base is always set to 1 millisecond
  *         to have correct HAL operation.
  * @retval HAL status
  */
HAL_StatusTypeDef HAL_Init(void)
{
 80006a8:	b580      	push	{r7, lr}
 80006aa:	af00      	add	r7, sp, #0
    defined(STM32F102x6) || defined(STM32F102xB) || \
    defined(STM32F103x6) || defined(STM32F103xB) || defined(STM32F103xE) || defined(STM32F103xG) || \
    defined(STM32F105xC) || defined(STM32F107xC)

  /* Prefetch buffer is not available on value line devices */
  __HAL_FLASH_PREFETCH_BUFFER_ENABLE();
 80006ac:	4b08      	ldr	r3, [pc, #32]	; (80006d0 <HAL_Init+0x28>)
 80006ae:	681b      	ldr	r3, [r3, #0]
 80006b0:	4a07      	ldr	r2, [pc, #28]	; (80006d0 <HAL_Init+0x28>)
 80006b2:	f043 0310 	orr.w	r3, r3, #16
 80006b6:	6013      	str	r3, [r2, #0]
#endif
#endif /* PREFETCH_ENABLE */

  /* Set Interrupt Group Priority */
  HAL_NVIC_SetPriorityGrouping(NVIC_PRIORITYGROUP_4);
 80006b8:	2003      	movs	r0, #3
 80006ba:	f000 f947 	bl	800094c <HAL_NVIC_SetPriorityGrouping>

  /* Use systick as time base source and configure 1ms tick (default clock after Reset is HSI) */
  HAL_InitTick(TICK_INT_PRIORITY);
 80006be:	2000      	movs	r0, #0
 80006c0:	f000 f808 	bl	80006d4 <HAL_InitTick>

  /* Init the low level hardware */
  HAL_MspInit();
 80006c4:	f7ff fec6 	bl	8000454 <HAL_MspInit>

  /* Return function status */
  return HAL_OK;
 80006c8:	2300      	movs	r3, #0
}
 80006ca:	4618      	mov	r0, r3
 80006cc:	bd80      	pop	{r7, pc}
 80006ce:	bf00      	nop
 80006d0:	40022000 	.word	0x40022000

080006d4 <HAL_InitTick>:
  *       implementation  in user file.
  * @param TickPriority Tick interrupt priority.
  * @retval HAL status
  */
__weak HAL_StatusTypeDef HAL_InitTick(uint32_t TickPriority)
{
 80006d4:	b580      	push	{r7, lr}
 80006d6:	b082      	sub	sp, #8
 80006d8:	af00      	add	r7, sp, #0
 80006da:	6078      	str	r0, [r7, #4]
  /* Configure the SysTick to have interrupt in 1ms time basis*/
  if (HAL_SYSTICK_Config(SystemCoreClock / (1000U / uwTickFreq)) > 0U)
 80006dc:	4b12      	ldr	r3, [pc, #72]	; (8000728 <HAL_InitTick+0x54>)
 80006de:	681a      	ldr	r2, [r3, #0]
 80006e0:	4b12      	ldr	r3, [pc, #72]	; (800072c <HAL_InitTick+0x58>)
 80006e2:	781b      	ldrb	r3, [r3, #0]
 80006e4:	4619      	mov	r1, r3
 80006e6:	f44f 737a 	mov.w	r3, #1000	; 0x3e8
 80006ea:	fbb3 f3f1 	udiv	r3, r3, r1
 80006ee:	fbb2 f3f3 	udiv	r3, r2, r3
 80006f2:	4618      	mov	r0, r3
 80006f4:	f000 f95f 	bl	80009b6 <HAL_SYSTICK_Config>
 80006f8:	4603      	mov	r3, r0
 80006fa:	2b00      	cmp	r3, #0
 80006fc:	d001      	beq.n	8000702 <HAL_InitTick+0x2e>
  {
    return HAL_ERROR;
 80006fe:	2301      	movs	r3, #1
 8000700:	e00e      	b.n	8000720 <HAL_InitTick+0x4c>
  }

  /* Configure the SysTick IRQ priority */
  if (TickPriority < (1UL << __NVIC_PRIO_BITS))
 8000702:	687b      	ldr	r3, [r7, #4]
 8000704:	2b0f      	cmp	r3, #15
 8000706:	d80a      	bhi.n	800071e <HAL_InitTick+0x4a>
  {
    HAL_NVIC_SetPriority(SysTick_IRQn, TickPriority, 0U);
 8000708:	2200      	movs	r2, #0
 800070a:	6879      	ldr	r1, [r7, #4]
 800070c:	f04f 30ff 	mov.w	r0, #4294967295
 8000710:	f000 f927 	bl	8000962 <HAL_NVIC_SetPriority>
    uwTickPrio = TickPriority;
 8000714:	4a06      	ldr	r2, [pc, #24]	; (8000730 <HAL_InitTick+0x5c>)
 8000716:	687b      	ldr	r3, [r7, #4]
 8000718:	6013      	str	r3, [r2, #0]
  {
    return HAL_ERROR;
  }

  /* Return function status */
  return HAL_OK;
 800071a:	2300      	movs	r3, #0
 800071c:	e000      	b.n	8000720 <HAL_InitTick+0x4c>
    return HAL_ERROR;
 800071e:	2301      	movs	r3, #1
}
 8000720:	4618      	mov	r0, r3
 8000722:	3708      	adds	r7, #8
 8000724:	46bd      	mov	sp, r7
 8000726:	bd80      	pop	{r7, pc}
 8000728:	20000000 	.word	0x20000000
 800072c:	20000008 	.word	0x20000008
 8000730:	20000004 	.word	0x20000004

08000734 <HAL_IncTick>:
  * @note This function is declared as __weak to be overwritten in case of other
  *      implementations in user file.
  * @retval None
  */
__weak void HAL_IncTick(void)
{
 8000734:	b480      	push	{r7}
 8000736:	af00      	add	r7, sp, #0
  uwTick += uwTickFreq;
 8000738:	4b05      	ldr	r3, [pc, #20]	; (8000750 <HAL_IncTick+0x1c>)
 800073a:	781b      	ldrb	r3, [r3, #0]
 800073c:	461a      	mov	r2, r3
 800073e:	4b05      	ldr	r3, [pc, #20]	; (8000754 <HAL_IncTick+0x20>)
 8000740:	681b      	ldr	r3, [r3, #0]
 8000742:	4413      	add	r3, r2
 8000744:	4a03      	ldr	r2, [pc, #12]	; (8000754 <HAL_IncTick+0x20>)
 8000746:	6013      	str	r3, [r2, #0]
}
 8000748:	bf00      	nop
 800074a:	46bd      	mov	sp, r7
 800074c:	bc80      	pop	{r7}
 800074e:	4770      	bx	lr
 8000750:	20000008 	.word	0x20000008
 8000754:	200000b4 	.word	0x200000b4

08000758 <HAL_GetTick>:
  * @note  This function is declared as __weak to be overwritten in case of other
  *       implementations in user file.
  * @retval tick value
  */
__weak uint32_t HAL_GetTick(void)
{
 8000758:	b480      	push	{r7}
 800075a:	af00      	add	r7, sp, #0
  return uwTick;
 800075c:	4b02      	ldr	r3, [pc, #8]	; (8000768 <HAL_GetTick+0x10>)
 800075e:	681b      	ldr	r3, [r3, #0]
}
 8000760:	4618      	mov	r0, r3
 8000762:	46bd      	mov	sp, r7
 8000764:	bc80      	pop	{r7}
 8000766:	4770      	bx	lr
 8000768:	200000b4 	.word	0x200000b4

0800076c <HAL_Delay>:
  *       implementations in user file.
  * @param Delay specifies the delay time length, in milliseconds.
  * @retval None
  */
__weak void HAL_Delay(uint32_t Delay)
{
 800076c:	b580      	push	{r7, lr}
 800076e:	b084      	sub	sp, #16
 8000770:	af00      	add	r7, sp, #0
 8000772:	6078      	str	r0, [r7, #4]
  uint32_t tickstart = HAL_GetTick();
 8000774:	f7ff fff0 	bl	8000758 <HAL_GetTick>
 8000778:	60b8      	str	r0, [r7, #8]
  uint32_t wait = Delay;
 800077a:	687b      	ldr	r3, [r7, #4]
 800077c:	60fb      	str	r3, [r7, #12]

  /* Add a freq to guarantee minimum wait */
  if (wait < HAL_MAX_DELAY)
 800077e:	68fb      	ldr	r3, [r7, #12]
 8000780:	f1b3 3fff 	cmp.w	r3, #4294967295
 8000784:	d005      	beq.n	8000792 <HAL_Delay+0x26>
  {
    wait += (uint32_t)(uwTickFreq);
 8000786:	4b0a      	ldr	r3, [pc, #40]	; (80007b0 <HAL_Delay+0x44>)
 8000788:	781b      	ldrb	r3, [r3, #0]
 800078a:	461a      	mov	r2, r3
 800078c:	68fb      	ldr	r3, [r7, #12]
 800078e:	4413      	add	r3, r2
 8000790:	60fb      	str	r3, [r7, #12]
  }

  while ((HAL_GetTick() - tickstart) < wait)
 8000792:	bf00      	nop
 8000794:	f7ff ffe0 	bl	8000758 <HAL_GetTick>
 8000798:	4602      	mov	r2, r0
 800079a:	68bb      	ldr	r3, [r7, #8]
 800079c:	1ad3      	subs	r3, r2, r3
 800079e:	68fa      	ldr	r2, [r7, #12]
 80007a0:	429a      	cmp	r2, r3
 80007a2:	d8f7      	bhi.n	8000794 <HAL_Delay+0x28>
  {
  }
}
 80007a4:	bf00      	nop
 80007a6:	bf00      	nop
 80007a8:	3710      	adds	r7, #16
 80007aa:	46bd      	mov	sp, r7
 80007ac:	bd80      	pop	{r7, pc}
 80007ae:	bf00      	nop
 80007b0:	20000008 	.word	0x20000008

080007b4 <__NVIC_SetPriorityGrouping>:
           In case of a conflict between priority grouping and available
           priority bits (__NVIC_PRIO_BITS), the smallest possible priority group is set.
  \param [in]      PriorityGroup  Priority grouping field.
 */
__STATIC_INLINE void __NVIC_SetPriorityGrouping(uint32_t PriorityGroup)
{
 80007b4:	b480      	push	{r7}
 80007b6:	b085      	sub	sp, #20
 80007b8:	af00      	add	r7, sp, #0
 80007ba:	6078      	str	r0, [r7, #4]
  uint32_t reg_value;
  uint32_t PriorityGroupTmp = (PriorityGroup & (uint32_t)0x07UL);             /* only values 0..7 are used          */
 80007bc:	687b      	ldr	r3, [r7, #4]
 80007be:	f003 0307 	and.w	r3, r3, #7
 80007c2:	60fb      	str	r3, [r7, #12]

  reg_value  =  SCB->AIRCR;                                                   /* read old register configuration    */
 80007c4:	4b0c      	ldr	r3, [pc, #48]	; (80007f8 <__NVIC_SetPriorityGrouping+0x44>)
 80007c6:	68db      	ldr	r3, [r3, #12]
 80007c8:	60bb      	str	r3, [r7, #8]
  reg_value &= ~((uint32_t)(SCB_AIRCR_VECTKEY_Msk | SCB_AIRCR_PRIGROUP_Msk)); /* clear bits to change               */
 80007ca:	68ba      	ldr	r2, [r7, #8]
 80007cc:	f64f 03ff 	movw	r3, #63743	; 0xf8ff
 80007d0:	4013      	ands	r3, r2
 80007d2:	60bb      	str	r3, [r7, #8]
  reg_value  =  (reg_value                                   |
                ((uint32_t)0x5FAUL << SCB_AIRCR_VECTKEY_Pos) |
                (PriorityGroupTmp << SCB_AIRCR_PRIGROUP_Pos) );               /* Insert write key and priority group */
 80007d4:	68fb      	ldr	r3, [r7, #12]
 80007d6:	021a      	lsls	r2, r3, #8
                ((uint32_t)0x5FAUL << SCB_AIRCR_VECTKEY_Pos) |
 80007d8:	68bb      	ldr	r3, [r7, #8]
 80007da:	4313      	orrs	r3, r2
  reg_value  =  (reg_value                                   |
 80007dc:	f043 63bf 	orr.w	r3, r3, #100139008	; 0x5f80000
 80007e0:	f443 3300 	orr.w	r3, r3, #131072	; 0x20000
 80007e4:	60bb      	str	r3, [r7, #8]
  SCB->AIRCR =  reg_value;
 80007e6:	4a04      	ldr	r2, [pc, #16]	; (80007f8 <__NVIC_SetPriorityGrouping+0x44>)
 80007e8:	68bb      	ldr	r3, [r7, #8]
 80007ea:	60d3      	str	r3, [r2, #12]
}
 80007ec:	bf00      	nop
 80007ee:	3714      	adds	r7, #20
 80007f0:	46bd      	mov	sp, r7
 80007f2:	bc80      	pop	{r7}
 80007f4:	4770      	bx	lr
 80007f6:	bf00      	nop
 80007f8:	e000ed00 	.word	0xe000ed00

080007fc <__NVIC_GetPriorityGrouping>:
  \brief   Get Priority Grouping
  \details Reads the priority grouping field from the NVIC Interrupt Controller.
  \return                Priority grouping field (SCB->AIRCR [10:8] PRIGROUP field).
 */
__STATIC_INLINE uint32_t __NVIC_GetPriorityGrouping(void)
{
 80007fc:	b480      	push	{r7}
 80007fe:	af00      	add	r7, sp, #0
  return ((uint32_t)((SCB->AIRCR & SCB_AIRCR_PRIGROUP_Msk) >> SCB_AIRCR_PRIGROUP_Pos));
 8000800:	4b04      	ldr	r3, [pc, #16]	; (8000814 <__NVIC_GetPriorityGrouping+0x18>)
 8000802:	68db      	ldr	r3, [r3, #12]
 8000804:	0a1b      	lsrs	r3, r3, #8
 8000806:	f003 0307 	and.w	r3, r3, #7
}
 800080a:	4618      	mov	r0, r3
 800080c:	46bd      	mov	sp, r7
 800080e:	bc80      	pop	{r7}
 8000810:	4770      	bx	lr
 8000812:	bf00      	nop
 8000814:	e000ed00 	.word	0xe000ed00

08000818 <__NVIC_EnableIRQ>:
  \details Enables a device specific interrupt in the NVIC interrupt controller.
  \param [in]      IRQn  Device specific interrupt number.
  \note    IRQn must not be negative.
 */
__STATIC_INLINE void __NVIC_EnableIRQ(IRQn_Type IRQn)
{
 8000818:	b480      	push	{r7}
 800081a:	b083      	sub	sp, #12
 800081c:	af00      	add	r7, sp, #0
 800081e:	4603      	mov	r3, r0
 8000820:	71fb      	strb	r3, [r7, #7]
  if ((int32_t)(IRQn) >= 0)
 8000822:	f997 3007 	ldrsb.w	r3, [r7, #7]
 8000826:	2b00      	cmp	r3, #0
 8000828:	db0b      	blt.n	8000842 <__NVIC_EnableIRQ+0x2a>
  {
    NVIC->ISER[(((uint32_t)IRQn) >> 5UL)] = (uint32_t)(1UL << (((uint32_t)IRQn) & 0x1FUL));
 800082a:	79fb      	ldrb	r3, [r7, #7]
 800082c:	f003 021f 	and.w	r2, r3, #31
 8000830:	4906      	ldr	r1, [pc, #24]	; (800084c <__NVIC_EnableIRQ+0x34>)
 8000832:	f997 3007 	ldrsb.w	r3, [r7, #7]
 8000836:	095b      	lsrs	r3, r3, #5
 8000838:	2001      	movs	r0, #1
 800083a:	fa00 f202 	lsl.w	r2, r0, r2
 800083e:	f841 2023 	str.w	r2, [r1, r3, lsl #2]
  }
}
 8000842:	bf00      	nop
 8000844:	370c      	adds	r7, #12
 8000846:	46bd      	mov	sp, r7
 8000848:	bc80      	pop	{r7}
 800084a:	4770      	bx	lr
 800084c:	e000e100 	.word	0xe000e100

08000850 <__NVIC_SetPriority>:
  \param [in]      IRQn  Interrupt number.
  \param [in]  priority  Priority to set.
  \note    The priority cannot be set for every processor exception.
 */
__STATIC_INLINE void __NVIC_SetPriority(IRQn_Type IRQn, uint32_t priority)
{
 8000850:	b480      	push	{r7}
 8000852:	b083      	sub	sp, #12
 8000854:	af00      	add	r7, sp, #0
 8000856:	4603      	mov	r3, r0
 8000858:	6039      	str	r1, [r7, #0]
 800085a:	71fb      	strb	r3, [r7, #7]
  if ((int32_t)(IRQn) >= 0)
 800085c:	f997 3007 	ldrsb.w	r3, [r7, #7]
 8000860:	2b00      	cmp	r3, #0
 8000862:	db0a      	blt.n	800087a <__NVIC_SetPriority+0x2a>
  {
    NVIC->IP[((uint32_t)IRQn)]               = (uint8_t)((priority << (8U - __NVIC_PRIO_BITS)) & (uint32_t)0xFFUL);
 8000864:	683b      	ldr	r3, [r7, #0]
 8000866:	b2da      	uxtb	r2, r3
 8000868:	490c      	ldr	r1, [pc, #48]	; (800089c <__NVIC_SetPriority+0x4c>)
 800086a:	f997 3007 	ldrsb.w	r3, [r7, #7]
 800086e:	0112      	lsls	r2, r2, #4
 8000870:	b2d2      	uxtb	r2, r2
 8000872:	440b      	add	r3, r1
 8000874:	f883 2300 	strb.w	r2, [r3, #768]	; 0x300
  }
  else
  {
    SCB->SHP[(((uint32_t)IRQn) & 0xFUL)-4UL] = (uint8_t)((priority << (8U - __NVIC_PRIO_BITS)) & (uint32_t)0xFFUL);
  }
}
 8000878:	e00a      	b.n	8000890 <__NVIC_SetPriority+0x40>
    SCB->SHP[(((uint32_t)IRQn) & 0xFUL)-4UL] = (uint8_t)((priority << (8U - __NVIC_PRIO_BITS)) & (uint32_t)0xFFUL);
 800087a:	683b      	ldr	r3, [r7, #0]
 800087c:	b2da      	uxtb	r2, r3
 800087e:	4908      	ldr	r1, [pc, #32]	; (80008a0 <__NVIC_SetPriority+0x50>)
 8000880:	79fb      	ldrb	r3, [r7, #7]
 8000882:	f003 030f 	and.w	r3, r3, #15
 8000886:	3b04      	subs	r3, #4
 8000888:	0112      	lsls	r2, r2, #4
 800088a:	b2d2      	uxtb	r2, r2
 800088c:	440b      	add	r3, r1
 800088e:	761a      	strb	r2, [r3, #24]
}
 8000890:	bf00      	nop
 8000892:	370c      	adds	r7, #12
 8000894:	46bd      	mov	sp, r7
 8000896:	bc80      	pop	{r7}
 8000898:	4770      	bx	lr
 800089a:	bf00      	nop
 800089c:	e000e100 	.word	0xe000e100
 80008a0:	e000ed00 	.word	0xe000ed00

080008a4 <NVIC_EncodePriority>:
  \param [in]   PreemptPriority  Preemptive priority value (starting from 0).
  \param [in]       SubPriority  Subpriority value (starting from 0).
  \return                        Encoded priority. Value can be used in the function \ref NVIC_SetPriority().
 */
__STATIC_INLINE uint32_t NVIC_EncodePriority (uint32_t PriorityGroup, uint32_t PreemptPriority, uint32_t SubPriority)
{
 80008a4:	b480      	push	{r7}
 80008a6:	b089      	sub	sp, #36	; 0x24
 80008a8:	af00      	add	r7, sp, #0
 80008aa:	60f8      	str	r0, [r7, #12]
 80008ac:	60b9      	str	r1, [r7, #8]
 80008ae:	607a      	str	r2, [r7, #4]
  uint32_t PriorityGroupTmp = (PriorityGroup & (uint32_t)0x07UL);   /* only values 0..7 are used          */
 80008b0:	68fb      	ldr	r3, [r7, #12]
 80008b2:	f003 0307 	and.w	r3, r3, #7
 80008b6:	61fb      	str	r3, [r7, #28]
  uint32_t PreemptPriorityBits;
  uint32_t SubPriorityBits;

  PreemptPriorityBits = ((7UL - PriorityGroupTmp) > (uint32_t)(__NVIC_PRIO_BITS)) ? (uint32_t)(__NVIC_PRIO_BITS) : (uint32_t)(7UL - PriorityGroupTmp);
 80008b8:	69fb      	ldr	r3, [r7, #28]
 80008ba:	f1c3 0307 	rsb	r3, r3, #7
 80008be:	2b04      	cmp	r3, #4
 80008c0:	bf28      	it	cs
 80008c2:	2304      	movcs	r3, #4
 80008c4:	61bb      	str	r3, [r7, #24]
  SubPriorityBits     = ((PriorityGroupTmp + (uint32_t)(__NVIC_PRIO_BITS)) < (uint32_t)7UL) ? (uint32_t)0UL : (uint32_t)((PriorityGroupTmp - 7UL) + (uint32_t)(__NVIC_PRIO_BITS));
 80008c6:	69fb      	ldr	r3, [r7, #28]
 80008c8:	3304      	adds	r3, #4
 80008ca:	2b06      	cmp	r3, #6
 80008cc:	d902      	bls.n	80008d4 <NVIC_EncodePriority+0x30>
 80008ce:	69fb      	ldr	r3, [r7, #28]
 80008d0:	3b03      	subs	r3, #3
 80008d2:	e000      	b.n	80008d6 <NVIC_EncodePriority+0x32>
 80008d4:	2300      	movs	r3, #0
 80008d6:	617b      	str	r3, [r7, #20]

  return (
           ((PreemptPriority & (uint32_t)((1UL << (PreemptPriorityBits)) - 1UL)) << SubPriorityBits) |
 80008d8:	f04f 32ff 	mov.w	r2, #4294967295
 80008dc:	69bb      	ldr	r3, [r7, #24]
 80008de:	fa02 f303 	lsl.w	r3, r2, r3
 80008e2:	43da      	mvns	r2, r3
 80008e4:	68bb      	ldr	r3, [r7, #8]
 80008e6:	401a      	ands	r2, r3
 80008e8:	697b      	ldr	r3, [r7, #20]
 80008ea:	409a      	lsls	r2, r3
           ((SubPriority     & (uint32_t)((1UL << (SubPriorityBits    )) - 1UL)))
 80008ec:	f04f 31ff 	mov.w	r1, #4294967295
 80008f0:	697b      	ldr	r3, [r7, #20]
 80008f2:	fa01 f303 	lsl.w	r3, r1, r3
 80008f6:	43d9      	mvns	r1, r3
 80008f8:	687b      	ldr	r3, [r7, #4]
 80008fa:	400b      	ands	r3, r1
           ((PreemptPriority & (uint32_t)((1UL << (PreemptPriorityBits)) - 1UL)) << SubPriorityBits) |
 80008fc:	4313      	orrs	r3, r2
         );
}
 80008fe:	4618      	mov	r0, r3
 8000900:	3724      	adds	r7, #36	; 0x24
 8000902:	46bd      	mov	sp, r7
 8000904:	bc80      	pop	{r7}
 8000906:	4770      	bx	lr

08000908 <SysTick_Config>:
  \note    When the variable <b>__Vendor_SysTickConfig</b> is set to 1, then the
           function <b>SysTick_Config</b> is not included. In this case, the file <b><i>device</i>.h</b>
           must contain a vendor-specific implementation of this function.
 */
__STATIC_INLINE uint32_t SysTick_Config(uint32_t ticks)
{
 8000908:	b580      	push	{r7, lr}
 800090a:	b082      	sub	sp, #8
 800090c:	af00      	add	r7, sp, #0
 800090e:	6078      	str	r0, [r7, #4]
  if ((ticks - 1UL) > SysTick_LOAD_RELOAD_Msk)
 8000910:	687b      	ldr	r3, [r7, #4]
 8000912:	3b01      	subs	r3, #1
 8000914:	f1b3 7f80 	cmp.w	r3, #16777216	; 0x1000000
 8000918:	d301      	bcc.n	800091e <SysTick_Config+0x16>
  {
    return (1UL);                                                   /* Reload value impossible */
 800091a:	2301      	movs	r3, #1
 800091c:	e00f      	b.n	800093e <SysTick_Config+0x36>
  }

  SysTick->LOAD  = (uint32_t)(ticks - 1UL);                         /* set reload register */
 800091e:	4a0a      	ldr	r2, [pc, #40]	; (8000948 <SysTick_Config+0x40>)
 8000920:	687b      	ldr	r3, [r7, #4]
 8000922:	3b01      	subs	r3, #1
 8000924:	6053      	str	r3, [r2, #4]
  NVIC_SetPriority (SysTick_IRQn, (1UL << __NVIC_PRIO_BITS) - 1UL); /* set Priority for Systick Interrupt */
 8000926:	210f      	movs	r1, #15
 8000928:	f04f 30ff 	mov.w	r0, #4294967295
 800092c:	f7ff ff90 	bl	8000850 <__NVIC_SetPriority>
  SysTick->VAL   = 0UL;                                             /* Load the SysTick Counter Value */
 8000930:	4b05      	ldr	r3, [pc, #20]	; (8000948 <SysTick_Config+0x40>)
 8000932:	2200      	movs	r2, #0
 8000934:	609a      	str	r2, [r3, #8]
  SysTick->CTRL  = SysTick_CTRL_CLKSOURCE_Msk |
 8000936:	4b04      	ldr	r3, [pc, #16]	; (8000948 <SysTick_Config+0x40>)
 8000938:	2207      	movs	r2, #7
 800093a:	601a      	str	r2, [r3, #0]
                   SysTick_CTRL_TICKINT_Msk   |
                   SysTick_CTRL_ENABLE_Msk;                         /* Enable SysTick IRQ and SysTick Timer */
  return (0UL);                                                     /* Function successful */
 800093c:	2300      	movs	r3, #0
}
 800093e:	4618      	mov	r0, r3
 8000940:	3708      	adds	r7, #8
 8000942:	46bd      	mov	sp, r7
 8000944:	bd80      	pop	{r7, pc}
 8000946:	bf00      	nop
 8000948:	e000e010 	.word	0xe000e010

0800094c <HAL_NVIC_SetPriorityGrouping>:
  * @note   When the NVIC_PriorityGroup_0 is selected, IRQ preemption is no more possible. 
  *         The pending IRQ priority will be managed only by the subpriority. 
  * @retval None
  */
void HAL_NVIC_SetPriorityGrouping(uint32_t PriorityGroup)
{
 800094c:	b580      	push	{r7, lr}
 800094e:	b082      	sub	sp, #8
 8000950:	af00      	add	r7, sp, #0
 8000952:	6078      	str	r0, [r7, #4]
  /* Check the parameters */
  assert_param(IS_NVIC_PRIORITY_GROUP(PriorityGroup));
  
  /* Set the PRIGROUP[10:8] bits according to the PriorityGroup parameter value */
  NVIC_SetPriorityGrouping(PriorityGroup);
 8000954:	6878      	ldr	r0, [r7, #4]
 8000956:	f7ff ff2d 	bl	80007b4 <__NVIC_SetPriorityGrouping>
}
 800095a:	bf00      	nop
 800095c:	3708      	adds	r7, #8
 800095e:	46bd      	mov	sp, r7
 8000960:	bd80      	pop	{r7, pc}

08000962 <HAL_NVIC_SetPriority>:
  *         This parameter can be a value between 0 and 15
  *         A lower priority value indicates a higher priority.          
  * @retval None
  */
void HAL_NVIC_SetPriority(IRQn_Type IRQn, uint32_t PreemptPriority, uint32_t SubPriority)
{ 
 8000962:	b580      	push	{r7, lr}
 8000964:	b086      	sub	sp, #24
 8000966:	af00      	add	r7, sp, #0
 8000968:	4603      	mov	r3, r0
 800096a:	60b9      	str	r1, [r7, #8]
 800096c:	607a      	str	r2, [r7, #4]
 800096e:	73fb      	strb	r3, [r7, #15]
  uint32_t prioritygroup = 0x00U;
 8000970:	2300      	movs	r3, #0
 8000972:	617b      	str	r3, [r7, #20]
  
  /* Check the parameters */
  assert_param(IS_NVIC_SUB_PRIORITY(SubPriority));
  assert_param(IS_NVIC_PREEMPTION_PRIORITY(PreemptPriority));
  
  prioritygroup = NVIC_GetPriorityGrouping();
 8000974:	f7ff ff42 	bl	80007fc <__NVIC_GetPriorityGrouping>
 8000978:	6178      	str	r0, [r7, #20]
  
  NVIC_SetPriority(IRQn, NVIC_EncodePriority(prioritygroup, PreemptPriority, SubPriority));
 800097a:	687a      	ldr	r2, [r7, #4]
 800097c:	68b9      	ldr	r1, [r7, #8]
 800097e:	6978      	ldr	r0, [r7, #20]
 8000980:	f7ff ff90 	bl	80008a4 <NVIC_EncodePriority>
 8000984:	4602      	mov	r2, r0
 8000986:	f997 300f 	ldrsb.w	r3, [r7, #15]
 800098a:	4611      	mov	r1, r2
 800098c:	4618      	mov	r0, r3
 800098e:	f7ff ff5f 	bl	8000850 <__NVIC_SetPriority>
}
 8000992:	bf00      	nop
 8000994:	3718      	adds	r7, #24
 8000996:	46bd      	mov	sp, r7
 8000998:	bd80      	pop	{r7, pc}

0800099a <HAL_NVIC_EnableIRQ>:
  *         This parameter can be an enumerator of IRQn_Type enumeration
  *         (For the complete STM32 Devices IRQ Channels list, please refer to the appropriate CMSIS device file (stm32f10xxx.h))
  * @retval None
  */
void HAL_NVIC_EnableIRQ(IRQn_Type IRQn)
{
 800099a:	b580      	push	{r7, lr}
 800099c:	b082      	sub	sp, #8
 800099e:	af00      	add	r7, sp, #0
 80009a0:	4603      	mov	r3, r0
 80009a2:	71fb      	strb	r3, [r7, #7]
  /* Check the parameters */
  assert_param(IS_NVIC_DEVICE_IRQ(IRQn));

  /* Enable interrupt */
  NVIC_EnableIRQ(IRQn);
 80009a4:	f997 3007 	ldrsb.w	r3, [r7, #7]
 80009a8:	4618      	mov	r0, r3
 80009aa:	f7ff ff35 	bl	8000818 <__NVIC_EnableIRQ>
}
 80009ae:	bf00      	nop
 80009b0:	3708      	adds	r7, #8
 80009b2:	46bd      	mov	sp, r7
 80009b4:	bd80      	pop	{r7, pc}

080009b6 <HAL_SYSTICK_Config>:
  * @param  TicksNumb: Specifies the ticks Number of ticks between two interrupts.
  * @retval status:  - 0  Function succeeded.
  *                  - 1  Function failed.
  */
uint32_t HAL_SYSTICK_Config(uint32_t TicksNumb)
{
 80009b6:	b580      	push	{r7, lr}
 80009b8:	b082      	sub	sp, #8
 80009ba:	af00      	add	r7, sp, #0
 80009bc:	6078      	str	r0, [r7, #4]
   return SysTick_Config(TicksNumb);
 80009be:	6878      	ldr	r0, [r7, #4]
 80009c0:	f7ff ffa2 	bl	8000908 <SysTick_Config>
 80009c4:	4603      	mov	r3, r0
}
 80009c6:	4618      	mov	r0, r3
 80009c8:	3708      	adds	r7, #8
 80009ca:	46bd      	mov	sp, r7
 80009cc:	bd80      	pop	{r7, pc}
	...

080009d0 <HAL_GPIO_Init>:
  * @param  GPIO_Init: pointer to a GPIO_InitTypeDef structure that contains
  *         the configuration information for the specified GPIO peripheral.
  * @retval None
  */
void HAL_GPIO_Init(GPIO_TypeDef  *GPIOx, GPIO_InitTypeDef *GPIO_Init)
{
 80009d0:	b480      	push	{r7}
 80009d2:	b08b      	sub	sp, #44	; 0x2c
 80009d4:	af00      	add	r7, sp, #0
 80009d6:	6078      	str	r0, [r7, #4]
 80009d8:	6039      	str	r1, [r7, #0]
  uint32_t position = 0x00u;
 80009da:	2300      	movs	r3, #0
 80009dc:	627b      	str	r3, [r7, #36]	; 0x24
  uint32_t ioposition;
  uint32_t iocurrent;
  uint32_t temp;
  uint32_t config = 0x00u;
 80009de:	2300      	movs	r3, #0
 80009e0:	623b      	str	r3, [r7, #32]
  assert_param(IS_GPIO_ALL_INSTANCE(GPIOx));
  assert_param(IS_GPIO_PIN(GPIO_Init->Pin));
  assert_param(IS_GPIO_MODE(GPIO_Init->Mode));

  /* Configure the port pins */
  while (((GPIO_Init->Pin) >> position) != 0x00u)
 80009e2:	e169      	b.n	8000cb8 <HAL_GPIO_Init+0x2e8>
  {
    /* Get the IO position */
    ioposition = (0x01uL << position);
 80009e4:	2201      	movs	r2, #1
 80009e6:	6a7b      	ldr	r3, [r7, #36]	; 0x24
 80009e8:	fa02 f303 	lsl.w	r3, r2, r3
 80009ec:	61fb      	str	r3, [r7, #28]

    /* Get the current IO position */
    iocurrent = (uint32_t)(GPIO_Init->Pin) & ioposition;
 80009ee:	683b      	ldr	r3, [r7, #0]
 80009f0:	681b      	ldr	r3, [r3, #0]
 80009f2:	69fa      	ldr	r2, [r7, #28]
 80009f4:	4013      	ands	r3, r2
 80009f6:	61bb      	str	r3, [r7, #24]

    if (iocurrent == ioposition)
 80009f8:	69ba      	ldr	r2, [r7, #24]
 80009fa:	69fb      	ldr	r3, [r7, #28]
 80009fc:	429a      	cmp	r2, r3
 80009fe:	f040 8158 	bne.w	8000cb2 <HAL_GPIO_Init+0x2e2>
    {
      /* Check the Alternate function parameters */
      assert_param(IS_GPIO_AF_INSTANCE(GPIOx));

      /* Based on the required mode, filling config variable with MODEy[1:0] and CNFy[3:2] corresponding bits */
      switch (GPIO_Init->Mode)
 8000a02:	683b      	ldr	r3, [r7, #0]
 8000a04:	685b      	ldr	r3, [r3, #4]
 8000a06:	4a9a      	ldr	r2, [pc, #616]	; (8000c70 <HAL_GPIO_Init+0x2a0>)
 8000a08:	4293      	cmp	r3, r2
 8000a0a:	d05e      	beq.n	8000aca <HAL_GPIO_Init+0xfa>
 8000a0c:	4a98      	ldr	r2, [pc, #608]	; (8000c70 <HAL_GPIO_Init+0x2a0>)
 8000a0e:	4293      	cmp	r3, r2
 8000a10:	d875      	bhi.n	8000afe <HAL_GPIO_Init+0x12e>
 8000a12:	4a98      	ldr	r2, [pc, #608]	; (8000c74 <HAL_GPIO_Init+0x2a4>)
 8000a14:	4293      	cmp	r3, r2
 8000a16:	d058      	beq.n	8000aca <HAL_GPIO_Init+0xfa>
 8000a18:	4a96      	ldr	r2, [pc, #600]	; (8000c74 <HAL_GPIO_Init+0x2a4>)
 8000a1a:	4293      	cmp	r3, r2
 8000a1c:	d86f      	bhi.n	8000afe <HAL_GPIO_Init+0x12e>
 8000a1e:	4a96      	ldr	r2, [pc, #600]	; (8000c78 <HAL_GPIO_Init+0x2a8>)
 8000a20:	4293      	cmp	r3, r2
 8000a22:	d052      	beq.n	8000aca <HAL_GPIO_Init+0xfa>
 8000a24:	4a94      	ldr	r2, [pc, #592]	; (8000c78 <HAL_GPIO_Init+0x2a8>)
 8000a26:	4293      	cmp	r3, r2
 8000a28:	d869      	bhi.n	8000afe <HAL_GPIO_Init+0x12e>
 8000a2a:	4a94      	ldr	r2, [pc, #592]	; (8000c7c <HAL_GPIO_Init+0x2ac>)
 8000a2c:	4293      	cmp	r3, r2
 8000a2e:	d04c      	beq.n	8000aca <HAL_GPIO_Init+0xfa>
 8000a30:	4a92      	ldr	r2, [pc, #584]	; (8000c7c <HAL_GPIO_Init+0x2ac>)
 8000a32:	4293      	cmp	r3, r2
 8000a34:	d863      	bhi.n	8000afe <HAL_GPIO_Init+0x12e>
 8000a36:	4a92      	ldr	r2, [pc, #584]	; (8000c80 <HAL_GPIO_Init+0x2b0>)
 8000a38:	4293      	cmp	r3, r2
 8000a3a:	d046      	beq.n	8000aca <HAL_GPIO_Init+0xfa>
 8000a3c:	4a90      	ldr	r2, [pc, #576]	; (8000c80 <HAL_GPIO_Init+0x2b0>)
 8000a3e:	4293      	cmp	r3, r2
 8000a40:	d85d      	bhi.n	8000afe <HAL_GPIO_Init+0x12e>
 8000a42:	2b12      	cmp	r3, #18
 8000a44:	d82a      	bhi.n	8000a9c <HAL_GPIO_Init+0xcc>
 8000a46:	2b12      	cmp	r3, #18
 8000a48:	d859      	bhi.n	8000afe <HAL_GPIO_Init+0x12e>
 8000a4a:	a201      	add	r2, pc, #4	; (adr r2, 8000a50 <HAL_GPIO_Init+0x80>)
 8000a4c:	f852 f023 	ldr.w	pc, [r2, r3, lsl #2]
 8000a50:	08000acb 	.word	0x08000acb
 8000a54:	08000aa5 	.word	0x08000aa5
 8000a58:	08000ab7 	.word	0x08000ab7
 8000a5c:	08000af9 	.word	0x08000af9
 8000a60:	08000aff 	.word	0x08000aff
 8000a64:	08000aff 	.word	0x08000aff
 8000a68:	08000aff 	.word	0x08000aff
 8000a6c:	08000aff 	.word	0x08000aff
 8000a70:	08000aff 	.word	0x08000aff
 8000a74:	08000aff 	.word	0x08000aff
 8000a78:	08000aff 	.word	0x08000aff
 8000a7c:	08000aff 	.word	0x08000aff
 8000a80:	08000aff 	.word	0x08000aff
 8000a84:	08000aff 	.word	0x08000aff
 8000a88:	08000aff 	.word	0x08000aff
 8000a8c:	08000aff 	.word	0x08000aff
 8000a90:	08000aff 	.word	0x08000aff
 8000a94:	08000aad 	.word	0x08000aad
 8000a98:	08000ac1 	.word	0x08000ac1
 8000a9c:	4a79      	ldr	r2, [pc, #484]	; (8000c84 <HAL_GPIO_Init+0x2b4>)
 8000a9e:	4293      	cmp	r3, r2
 8000aa0:	d013      	beq.n	8000aca <HAL_GPIO_Init+0xfa>
          config = GPIO_CR_MODE_INPUT + GPIO_CR_CNF_ANALOG;
          break;

        /* Parameters are checked with assert_param */
        default:
          break;
 8000aa2:	e02c      	b.n	8000afe <HAL_GPIO_Init+0x12e>
          config = GPIO_Init->Speed + GPIO_CR_CNF_GP_OUTPUT_PP;
 8000aa4:	683b      	ldr	r3, [r7, #0]
 8000aa6:	68db      	ldr	r3, [r3, #12]
 8000aa8:	623b      	str	r3, [r7, #32]
          break;
 8000aaa:	e029      	b.n	8000b00 <HAL_GPIO_Init+0x130>
          config = GPIO_Init->Speed + GPIO_CR_CNF_GP_OUTPUT_OD;
 8000aac:	683b      	ldr	r3, [r7, #0]
 8000aae:	68db      	ldr	r3, [r3, #12]
 8000ab0:	3304      	adds	r3, #4
 8000ab2:	623b      	str	r3, [r7, #32]
          break;
 8000ab4:	e024      	b.n	8000b00 <HAL_GPIO_Init+0x130>
          config = GPIO_Init->Speed + GPIO_CR_CNF_AF_OUTPUT_PP;
 8000ab6:	683b      	ldr	r3, [r7, #0]
 8000ab8:	68db      	ldr	r3, [r3, #12]
 8000aba:	3308      	adds	r3, #8
 8000abc:	623b      	str	r3, [r7, #32]
          break;
 8000abe:	e01f      	b.n	8000b00 <HAL_GPIO_Init+0x130>
          config = GPIO_Init->Speed + GPIO_CR_CNF_AF_OUTPUT_OD;
 8000ac0:	683b      	ldr	r3, [r7, #0]
 8000ac2:	68db      	ldr	r3, [r3, #12]
 8000ac4:	330c      	adds	r3, #12
 8000ac6:	623b      	str	r3, [r7, #32]
          break;
 8000ac8:	e01a      	b.n	8000b00 <HAL_GPIO_Init+0x130>
          if (GPIO_Init->Pull == GPIO_NOPULL)
 8000aca:	683b      	ldr	r3, [r7, #0]
 8000acc:	689b      	ldr	r3, [r3, #8]
 8000ace:	2b00      	cmp	r3, #0
 8000ad0:	d102      	bne.n	8000ad8 <HAL_GPIO_Init+0x108>
            config = GPIO_CR_MODE_INPUT + GPIO_CR_CNF_INPUT_FLOATING;
 8000ad2:	2304      	movs	r3, #4
 8000ad4:	623b      	str	r3, [r7, #32]
          break;
 8000ad6:	e013      	b.n	8000b00 <HAL_GPIO_Init+0x130>
          else if (GPIO_Init->Pull == GPIO_PULLUP)
 8000ad8:	683b      	ldr	r3, [r7, #0]
 8000ada:	689b      	ldr	r3, [r3, #8]
 8000adc:	2b01      	cmp	r3, #1
 8000ade:	d105      	bne.n	8000aec <HAL_GPIO_Init+0x11c>
            config = GPIO_CR_MODE_INPUT + GPIO_CR_CNF_INPUT_PU_PD;
 8000ae0:	2308      	movs	r3, #8
 8000ae2:	623b      	str	r3, [r7, #32]
            GPIOx->BSRR = ioposition;
 8000ae4:	687b      	ldr	r3, [r7, #4]
 8000ae6:	69fa      	ldr	r2, [r7, #28]
 8000ae8:	611a      	str	r2, [r3, #16]
          break;
 8000aea:	e009      	b.n	8000b00 <HAL_GPIO_Init+0x130>
            config = GPIO_CR_MODE_INPUT + GPIO_CR_CNF_INPUT_PU_PD;
 8000aec:	2308      	movs	r3, #8
 8000aee:	623b      	str	r3, [r7, #32]
            GPIOx->BRR = ioposition;
 8000af0:	687b      	ldr	r3, [r7, #4]
 8000af2:	69fa      	ldr	r2, [r7, #28]
 8000af4:	615a      	str	r2, [r3, #20]
          break;
 8000af6:	e003      	b.n	8000b00 <HAL_GPIO_Init+0x130>
          config = GPIO_CR_MODE_INPUT + GPIO_CR_CNF_ANALOG;
 8000af8:	2300      	movs	r3, #0
 8000afa:	623b      	str	r3, [r7, #32]
          break;
 8000afc:	e000      	b.n	8000b00 <HAL_GPIO_Init+0x130>
          break;
 8000afe:	bf00      	nop
      }

      /* Check if the current bit belongs to first half or last half of the pin count number
       in order to address CRH or CRL register*/
      configregister = (iocurrent < GPIO_PIN_8) ? &GPIOx->CRL     : &GPIOx->CRH;
 8000b00:	69bb      	ldr	r3, [r7, #24]
 8000b02:	2bff      	cmp	r3, #255	; 0xff
 8000b04:	d801      	bhi.n	8000b0a <HAL_GPIO_Init+0x13a>
 8000b06:	687b      	ldr	r3, [r7, #4]
 8000b08:	e001      	b.n	8000b0e <HAL_GPIO_Init+0x13e>
 8000b0a:	687b      	ldr	r3, [r7, #4]
 8000b0c:	3304      	adds	r3, #4
 8000b0e:	617b      	str	r3, [r7, #20]
      registeroffset = (iocurrent < GPIO_PIN_8) ? (position << 2u) : ((position - 8u) << 2u);
 8000b10:	69bb      	ldr	r3, [r7, #24]
 8000b12:	2bff      	cmp	r3, #255	; 0xff
 8000b14:	d802      	bhi.n	8000b1c <HAL_GPIO_Init+0x14c>
 8000b16:	6a7b      	ldr	r3, [r7, #36]	; 0x24
 8000b18:	009b      	lsls	r3, r3, #2
 8000b1a:	e002      	b.n	8000b22 <HAL_GPIO_Init+0x152>
 8000b1c:	6a7b      	ldr	r3, [r7, #36]	; 0x24
 8000b1e:	3b08      	subs	r3, #8
 8000b20:	009b      	lsls	r3, r3, #2
 8000b22:	613b      	str	r3, [r7, #16]

      /* Apply the new configuration of the pin to the register */
      MODIFY_REG((*configregister), ((GPIO_CRL_MODE0 | GPIO_CRL_CNF0) << registeroffset), (config << registeroffset));
 8000b24:	697b      	ldr	r3, [r7, #20]
 8000b26:	681a      	ldr	r2, [r3, #0]
 8000b28:	210f      	movs	r1, #15
 8000b2a:	693b      	ldr	r3, [r7, #16]
 8000b2c:	fa01 f303 	lsl.w	r3, r1, r3
 8000b30:	43db      	mvns	r3, r3
 8000b32:	401a      	ands	r2, r3
 8000b34:	6a39      	ldr	r1, [r7, #32]
 8000b36:	693b      	ldr	r3, [r7, #16]
 8000b38:	fa01 f303 	lsl.w	r3, r1, r3
 8000b3c:	431a      	orrs	r2, r3
 8000b3e:	697b      	ldr	r3, [r7, #20]
 8000b40:	601a      	str	r2, [r3, #0]

      /*--------------------- EXTI Mode Configuration ------------------------*/
      /* Configure the External Interrupt or event for the current IO */
      if ((GPIO_Init->Mode & EXTI_MODE) == EXTI_MODE)
 8000b42:	683b      	ldr	r3, [r7, #0]
 8000b44:	685b      	ldr	r3, [r3, #4]
 8000b46:	f003 5380 	and.w	r3, r3, #268435456	; 0x10000000
 8000b4a:	2b00      	cmp	r3, #0
 8000b4c:	f000 80b1 	beq.w	8000cb2 <HAL_GPIO_Init+0x2e2>
      {
        /* Enable AFIO Clock */
        __HAL_RCC_AFIO_CLK_ENABLE();
 8000b50:	4b4d      	ldr	r3, [pc, #308]	; (8000c88 <HAL_GPIO_Init+0x2b8>)
 8000b52:	699b      	ldr	r3, [r3, #24]
 8000b54:	4a4c      	ldr	r2, [pc, #304]	; (8000c88 <HAL_GPIO_Init+0x2b8>)
 8000b56:	f043 0301 	orr.w	r3, r3, #1
 8000b5a:	6193      	str	r3, [r2, #24]
 8000b5c:	4b4a      	ldr	r3, [pc, #296]	; (8000c88 <HAL_GPIO_Init+0x2b8>)
 8000b5e:	699b      	ldr	r3, [r3, #24]
 8000b60:	f003 0301 	and.w	r3, r3, #1
 8000b64:	60bb      	str	r3, [r7, #8]
 8000b66:	68bb      	ldr	r3, [r7, #8]
        temp = AFIO->EXTICR[position >> 2u];
 8000b68:	4a48      	ldr	r2, [pc, #288]	; (8000c8c <HAL_GPIO_Init+0x2bc>)
 8000b6a:	6a7b      	ldr	r3, [r7, #36]	; 0x24
 8000b6c:	089b      	lsrs	r3, r3, #2
 8000b6e:	3302      	adds	r3, #2
 8000b70:	f852 3023 	ldr.w	r3, [r2, r3, lsl #2]
 8000b74:	60fb      	str	r3, [r7, #12]
        CLEAR_BIT(temp, (0x0Fu) << (4u * (position & 0x03u)));
 8000b76:	6a7b      	ldr	r3, [r7, #36]	; 0x24
 8000b78:	f003 0303 	and.w	r3, r3, #3
 8000b7c:	009b      	lsls	r3, r3, #2
 8000b7e:	220f      	movs	r2, #15
 8000b80:	fa02 f303 	lsl.w	r3, r2, r3
 8000b84:	43db      	mvns	r3, r3
 8000b86:	68fa      	ldr	r2, [r7, #12]
 8000b88:	4013      	ands	r3, r2
 8000b8a:	60fb      	str	r3, [r7, #12]
        SET_BIT(temp, (GPIO_GET_INDEX(GPIOx)) << (4u * (position & 0x03u)));
 8000b8c:	687b      	ldr	r3, [r7, #4]
 8000b8e:	4a40      	ldr	r2, [pc, #256]	; (8000c90 <HAL_GPIO_Init+0x2c0>)
 8000b90:	4293      	cmp	r3, r2
 8000b92:	d013      	beq.n	8000bbc <HAL_GPIO_Init+0x1ec>
 8000b94:	687b      	ldr	r3, [r7, #4]
 8000b96:	4a3f      	ldr	r2, [pc, #252]	; (8000c94 <HAL_GPIO_Init+0x2c4>)
 8000b98:	4293      	cmp	r3, r2
 8000b9a:	d00d      	beq.n	8000bb8 <HAL_GPIO_Init+0x1e8>
 8000b9c:	687b      	ldr	r3, [r7, #4]
 8000b9e:	4a3e      	ldr	r2, [pc, #248]	; (8000c98 <HAL_GPIO_Init+0x2c8>)
 8000ba0:	4293      	cmp	r3, r2
 8000ba2:	d007      	beq.n	8000bb4 <HAL_GPIO_Init+0x1e4>
 8000ba4:	687b      	ldr	r3, [r7, #4]
 8000ba6:	4a3d      	ldr	r2, [pc, #244]	; (8000c9c <HAL_GPIO_Init+0x2cc>)
 8000ba8:	4293      	cmp	r3, r2
 8000baa:	d101      	bne.n	8000bb0 <HAL_GPIO_Init+0x1e0>
 8000bac:	2303      	movs	r3, #3
 8000bae:	e006      	b.n	8000bbe <HAL_GPIO_Init+0x1ee>
 8000bb0:	2304      	movs	r3, #4
 8000bb2:	e004      	b.n	8000bbe <HAL_GPIO_Init+0x1ee>
 8000bb4:	2302      	movs	r3, #2
 8000bb6:	e002      	b.n	8000bbe <HAL_GPIO_Init+0x1ee>
 8000bb8:	2301      	movs	r3, #1
 8000bba:	e000      	b.n	8000bbe <HAL_GPIO_Init+0x1ee>
 8000bbc:	2300      	movs	r3, #0
 8000bbe:	6a7a      	ldr	r2, [r7, #36]	; 0x24
 8000bc0:	f002 0203 	and.w	r2, r2, #3
 8000bc4:	0092      	lsls	r2, r2, #2
 8000bc6:	4093      	lsls	r3, r2
 8000bc8:	68fa      	ldr	r2, [r7, #12]
 8000bca:	4313      	orrs	r3, r2
 8000bcc:	60fb      	str	r3, [r7, #12]
        AFIO->EXTICR[position >> 2u] = temp;
 8000bce:	492f      	ldr	r1, [pc, #188]	; (8000c8c <HAL_GPIO_Init+0x2bc>)
 8000bd0:	6a7b      	ldr	r3, [r7, #36]	; 0x24
 8000bd2:	089b      	lsrs	r3, r3, #2
 8000bd4:	3302      	adds	r3, #2
 8000bd6:	68fa      	ldr	r2, [r7, #12]
 8000bd8:	f841 2023 	str.w	r2, [r1, r3, lsl #2]


        /* Configure the interrupt mask */
        if ((GPIO_Init->Mode & GPIO_MODE_IT) == GPIO_MODE_IT)
 8000bdc:	683b      	ldr	r3, [r7, #0]
 8000bde:	685b      	ldr	r3, [r3, #4]
 8000be0:	f403 3380 	and.w	r3, r3, #65536	; 0x10000
 8000be4:	2b00      	cmp	r3, #0
 8000be6:	d006      	beq.n	8000bf6 <HAL_GPIO_Init+0x226>
        {
          SET_BIT(EXTI->IMR, iocurrent);
 8000be8:	4b2d      	ldr	r3, [pc, #180]	; (8000ca0 <HAL_GPIO_Init+0x2d0>)
 8000bea:	681a      	ldr	r2, [r3, #0]
 8000bec:	492c      	ldr	r1, [pc, #176]	; (8000ca0 <HAL_GPIO_Init+0x2d0>)
 8000bee:	69bb      	ldr	r3, [r7, #24]
 8000bf0:	4313      	orrs	r3, r2
 8000bf2:	600b      	str	r3, [r1, #0]
 8000bf4:	e006      	b.n	8000c04 <HAL_GPIO_Init+0x234>
        }
        else
        {
          CLEAR_BIT(EXTI->IMR, iocurrent);
 8000bf6:	4b2a      	ldr	r3, [pc, #168]	; (8000ca0 <HAL_GPIO_Init+0x2d0>)
 8000bf8:	681a      	ldr	r2, [r3, #0]
 8000bfa:	69bb      	ldr	r3, [r7, #24]
 8000bfc:	43db      	mvns	r3, r3
 8000bfe:	4928      	ldr	r1, [pc, #160]	; (8000ca0 <HAL_GPIO_Init+0x2d0>)
 8000c00:	4013      	ands	r3, r2
 8000c02:	600b      	str	r3, [r1, #0]
        }

        /* Configure the event mask */
        if ((GPIO_Init->Mode & GPIO_MODE_EVT) == GPIO_MODE_EVT)
 8000c04:	683b      	ldr	r3, [r7, #0]
 8000c06:	685b      	ldr	r3, [r3, #4]
 8000c08:	f403 3300 	and.w	r3, r3, #131072	; 0x20000
 8000c0c:	2b00      	cmp	r3, #0
 8000c0e:	d006      	beq.n	8000c1e <HAL_GPIO_Init+0x24e>
        {
          SET_BIT(EXTI->EMR, iocurrent);
 8000c10:	4b23      	ldr	r3, [pc, #140]	; (8000ca0 <HAL_GPIO_Init+0x2d0>)
 8000c12:	685a      	ldr	r2, [r3, #4]
 8000c14:	4922      	ldr	r1, [pc, #136]	; (8000ca0 <HAL_GPIO_Init+0x2d0>)
 8000c16:	69bb      	ldr	r3, [r7, #24]
 8000c18:	4313      	orrs	r3, r2
 8000c1a:	604b      	str	r3, [r1, #4]
 8000c1c:	e006      	b.n	8000c2c <HAL_GPIO_Init+0x25c>
        }
        else
        {
          CLEAR_BIT(EXTI->EMR, iocurrent);
 8000c1e:	4b20      	ldr	r3, [pc, #128]	; (8000ca0 <HAL_GPIO_Init+0x2d0>)
 8000c20:	685a      	ldr	r2, [r3, #4]
 8000c22:	69bb      	ldr	r3, [r7, #24]
 8000c24:	43db      	mvns	r3, r3
 8000c26:	491e      	ldr	r1, [pc, #120]	; (8000ca0 <HAL_GPIO_Init+0x2d0>)
 8000c28:	4013      	ands	r3, r2
 8000c2a:	604b      	str	r3, [r1, #4]
        }

        /* Enable or disable the rising trigger */
        if ((GPIO_Init->Mode & RISING_EDGE) == RISING_EDGE)
 8000c2c:	683b      	ldr	r3, [r7, #0]
 8000c2e:	685b      	ldr	r3, [r3, #4]
 8000c30:	f403 1380 	and.w	r3, r3, #1048576	; 0x100000
 8000c34:	2b00      	cmp	r3, #0
 8000c36:	d006      	beq.n	8000c46 <HAL_GPIO_Init+0x276>
        {
          SET_BIT(EXTI->RTSR, iocurrent);
 8000c38:	4b19      	ldr	r3, [pc, #100]	; (8000ca0 <HAL_GPIO_Init+0x2d0>)
 8000c3a:	689a      	ldr	r2, [r3, #8]
 8000c3c:	4918      	ldr	r1, [pc, #96]	; (8000ca0 <HAL_GPIO_Init+0x2d0>)
 8000c3e:	69bb      	ldr	r3, [r7, #24]
 8000c40:	4313      	orrs	r3, r2
 8000c42:	608b      	str	r3, [r1, #8]
 8000c44:	e006      	b.n	8000c54 <HAL_GPIO_Init+0x284>
        }
        else
        {
          CLEAR_BIT(EXTI->RTSR, iocurrent);
 8000c46:	4b16      	ldr	r3, [pc, #88]	; (8000ca0 <HAL_GPIO_Init+0x2d0>)
 8000c48:	689a      	ldr	r2, [r3, #8]
 8000c4a:	69bb      	ldr	r3, [r7, #24]
 8000c4c:	43db      	mvns	r3, r3
 8000c4e:	4914      	ldr	r1, [pc, #80]	; (8000ca0 <HAL_GPIO_Init+0x2d0>)
 8000c50:	4013      	ands	r3, r2
 8000c52:	608b      	str	r3, [r1, #8]
        }

        /* Enable or disable the falling trigger */
        if ((GPIO_Init->Mode & FALLING_EDGE) == FALLING_EDGE)
 8000c54:	683b      	ldr	r3, [r7, #0]
 8000c56:	685b      	ldr	r3, [r3, #4]
 8000c58:	f403 1300 	and.w	r3, r3, #2097152	; 0x200000
 8000c5c:	2b00      	cmp	r3, #0
 8000c5e:	d021      	beq.n	8000ca4 <HAL_GPIO_Init+0x2d4>
        {
          SET_BIT(EXTI->FTSR, iocurrent);
 8000c60:	4b0f      	ldr	r3, [pc, #60]	; (8000ca0 <HAL_GPIO_Init+0x2d0>)
 8000c62:	68da      	ldr	r2, [r3, #12]
 8000c64:	490e      	ldr	r1, [pc, #56]	; (8000ca0 <HAL_GPIO_Init+0x2d0>)
 8000c66:	69bb      	ldr	r3, [r7, #24]
 8000c68:	4313      	orrs	r3, r2
 8000c6a:	60cb      	str	r3, [r1, #12]
 8000c6c:	e021      	b.n	8000cb2 <HAL_GPIO_Init+0x2e2>
 8000c6e:	bf00      	nop
 8000c70:	10320000 	.word	0x10320000
 8000c74:	10310000 	.word	0x10310000
 8000c78:	10220000 	.word	0x10220000
 8000c7c:	10210000 	.word	0x10210000
 8000c80:	10120000 	.word	0x10120000
 8000c84:	10110000 	.word	0x10110000
 8000c88:	40021000 	.word	0x40021000
 8000c8c:	40010000 	.word	0x40010000
 8000c90:	40010800 	.word	0x40010800
 8000c94:	40010c00 	.word	0x40010c00
 8000c98:	40011000 	.word	0x40011000
 8000c9c:	40011400 	.word	0x40011400
 8000ca0:	40010400 	.word	0x40010400
        }
        else
        {
          CLEAR_BIT(EXTI->FTSR, iocurrent);
 8000ca4:	4b0b      	ldr	r3, [pc, #44]	; (8000cd4 <HAL_GPIO_Init+0x304>)
 8000ca6:	68da      	ldr	r2, [r3, #12]
 8000ca8:	69bb      	ldr	r3, [r7, #24]
 8000caa:	43db      	mvns	r3, r3
 8000cac:	4909      	ldr	r1, [pc, #36]	; (8000cd4 <HAL_GPIO_Init+0x304>)
 8000cae:	4013      	ands	r3, r2
 8000cb0:	60cb      	str	r3, [r1, #12]
        }
      }
    }

	position++;
 8000cb2:	6a7b      	ldr	r3, [r7, #36]	; 0x24
 8000cb4:	3301      	adds	r3, #1
 8000cb6:	627b      	str	r3, [r7, #36]	; 0x24
  while (((GPIO_Init->Pin) >> position) != 0x00u)
 8000cb8:	683b      	ldr	r3, [r7, #0]
 8000cba:	681a      	ldr	r2, [r3, #0]
 8000cbc:	6a7b      	ldr	r3, [r7, #36]	; 0x24
 8000cbe:	fa22 f303 	lsr.w	r3, r2, r3
 8000cc2:	2b00      	cmp	r3, #0
 8000cc4:	f47f ae8e 	bne.w	80009e4 <HAL_GPIO_Init+0x14>
  }
}
 8000cc8:	bf00      	nop
 8000cca:	bf00      	nop
 8000ccc:	372c      	adds	r7, #44	; 0x2c
 8000cce:	46bd      	mov	sp, r7
 8000cd0:	bc80      	pop	{r7}
 8000cd2:	4770      	bx	lr
 8000cd4:	40010400 	.word	0x40010400

08000cd8 <HAL_GPIO_WritePin>:
  *            @arg GPIO_PIN_RESET: to clear the port pin
  *            @arg GPIO_PIN_SET: to set the port pin
  * @retval None
  */
void HAL_GPIO_WritePin(GPIO_TypeDef *GPIOx, uint16_t GPIO_Pin, GPIO_PinState PinState)
{
 8000cd8:	b480      	push	{r7}
 8000cda:	b083      	sub	sp, #12
 8000cdc:	af00      	add	r7, sp, #0
 8000cde:	6078      	str	r0, [r7, #4]
 8000ce0:	460b      	mov	r3, r1
 8000ce2:	807b      	strh	r3, [r7, #2]
 8000ce4:	4613      	mov	r3, r2
 8000ce6:	707b      	strb	r3, [r7, #1]
  /* Check the parameters */
  assert_param(IS_GPIO_PIN(GPIO_Pin));
  assert_param(IS_GPIO_PIN_ACTION(PinState));

  if (PinState != GPIO_PIN_RESET)
 8000ce8:	787b      	ldrb	r3, [r7, #1]
 8000cea:	2b00      	cmp	r3, #0
 8000cec:	d003      	beq.n	8000cf6 <HAL_GPIO_WritePin+0x1e>
  {
    GPIOx->BSRR = GPIO_Pin;
 8000cee:	887a      	ldrh	r2, [r7, #2]
 8000cf0:	687b      	ldr	r3, [r7, #4]
 8000cf2:	611a      	str	r2, [r3, #16]
  }
  else
  {
    GPIOx->BSRR = (uint32_t)GPIO_Pin << 16u;
  }
}
 8000cf4:	e003      	b.n	8000cfe <HAL_GPIO_WritePin+0x26>
    GPIOx->BSRR = (uint32_t)GPIO_Pin << 16u;
 8000cf6:	887b      	ldrh	r3, [r7, #2]
 8000cf8:	041a      	lsls	r2, r3, #16
 8000cfa:	687b      	ldr	r3, [r7, #4]
 8000cfc:	611a      	str	r2, [r3, #16]
}
 8000cfe:	bf00      	nop
 8000d00:	370c      	adds	r7, #12
 8000d02:	46bd      	mov	sp, r7
 8000d04:	bc80      	pop	{r7}
 8000d06:	4770      	bx	lr

08000d08 <HAL_GPIO_EXTI_IRQHandler>:
  * @brief  This function handles EXTI interrupt request.
  * @param  GPIO_Pin: Specifies the pins connected EXTI line
  * @retval None
  */
void HAL_GPIO_EXTI_IRQHandler(uint16_t GPIO_Pin)
{
 8000d08:	b580      	push	{r7, lr}
 8000d0a:	b082      	sub	sp, #8
 8000d0c:	af00      	add	r7, sp, #0
 8000d0e:	4603      	mov	r3, r0
 8000d10:	80fb      	strh	r3, [r7, #6]
  /* EXTI line interrupt detected */
  if (__HAL_GPIO_EXTI_GET_IT(GPIO_Pin) != 0x00u)
 8000d12:	4b08      	ldr	r3, [pc, #32]	; (8000d34 <HAL_GPIO_EXTI_IRQHandler+0x2c>)
 8000d14:	695a      	ldr	r2, [r3, #20]
 8000d16:	88fb      	ldrh	r3, [r7, #6]
 8000d18:	4013      	ands	r3, r2
 8000d1a:	2b00      	cmp	r3, #0
 8000d1c:	d006      	beq.n	8000d2c <HAL_GPIO_EXTI_IRQHandler+0x24>
  {
    __HAL_GPIO_EXTI_CLEAR_IT(GPIO_Pin);
 8000d1e:	4a05      	ldr	r2, [pc, #20]	; (8000d34 <HAL_GPIO_EXTI_IRQHandler+0x2c>)
 8000d20:	88fb      	ldrh	r3, [r7, #6]
 8000d22:	6153      	str	r3, [r2, #20]
    HAL_GPIO_EXTI_Callback(GPIO_Pin);
 8000d24:	88fb      	ldrh	r3, [r7, #6]
 8000d26:	4618      	mov	r0, r3
 8000d28:	f000 f806 	bl	8000d38 <HAL_GPIO_EXTI_Callback>
  }
}
 8000d2c:	bf00      	nop
 8000d2e:	3708      	adds	r7, #8
 8000d30:	46bd      	mov	sp, r7
 8000d32:	bd80      	pop	{r7, pc}
 8000d34:	40010400 	.word	0x40010400

08000d38 <HAL_GPIO_EXTI_Callback>:
  * @brief  EXTI line detection callbacks.
  * @param  GPIO_Pin: Specifies the pins connected EXTI line
  * @retval None
  */
__weak void HAL_GPIO_EXTI_Callback(uint16_t GPIO_Pin)
{
 8000d38:	b480      	push	{r7}
 8000d3a:	b083      	sub	sp, #12
 8000d3c:	af00      	add	r7, sp, #0
 8000d3e:	4603      	mov	r3, r0
 8000d40:	80fb      	strh	r3, [r7, #6]
  /* Prevent unused argument(s) compilation warning */
  UNUSED(GPIO_Pin);
  /* NOTE: This function Should not be modified, when the callback is needed,
           the HAL_GPIO_EXTI_Callback could be implemented in the user file
   */
}
 8000d42:	bf00      	nop
 8000d44:	370c      	adds	r7, #12
 8000d46:	46bd      	mov	sp, r7
 8000d48:	bc80      	pop	{r7}
 8000d4a:	4770      	bx	lr

08000d4c <HAL_RCC_OscConfig>:
  *         supported by this macro. User should request a transition to HSE Off
  *         first and then HSE On or HSE Bypass.
  * @retval HAL status
  */
HAL_StatusTypeDef HAL_RCC_OscConfig(RCC_OscInitTypeDef  *RCC_OscInitStruct)
{
 8000d4c:	b580      	push	{r7, lr}
 8000d4e:	b086      	sub	sp, #24
 8000d50:	af00      	add	r7, sp, #0
 8000d52:	6078      	str	r0, [r7, #4]
  uint32_t tickstart;
  uint32_t pll_config;

  /* Check Null pointer */
  if (RCC_OscInitStruct == NULL)
 8000d54:	687b      	ldr	r3, [r7, #4]
 8000d56:	2b00      	cmp	r3, #0
 8000d58:	d101      	bne.n	8000d5e <HAL_RCC_OscConfig+0x12>
  {
    return HAL_ERROR;
 8000d5a:	2301      	movs	r3, #1
 8000d5c:	e272      	b.n	8001244 <HAL_RCC_OscConfig+0x4f8>

  /* Check the parameters */
  assert_param(IS_RCC_OSCILLATORTYPE(RCC_OscInitStruct->OscillatorType));

  /*------------------------------- HSE Configuration ------------------------*/
  if (((RCC_OscInitStruct->OscillatorType) & RCC_OSCILLATORTYPE_HSE) == RCC_OSCILLATORTYPE_HSE)
 8000d5e:	687b      	ldr	r3, [r7, #4]
 8000d60:	681b      	ldr	r3, [r3, #0]
 8000d62:	f003 0301 	and.w	r3, r3, #1
 8000d66:	2b00      	cmp	r3, #0
 8000d68:	f000 8087 	beq.w	8000e7a <HAL_RCC_OscConfig+0x12e>
  {
    /* Check the parameters */
    assert_param(IS_RCC_HSE(RCC_OscInitStruct->HSEState));

    /* When the HSE is used as system clock or clock source for PLL in these cases it is not allowed to be disabled */
    if ((__HAL_RCC_GET_SYSCLK_SOURCE() == RCC_SYSCLKSOURCE_STATUS_HSE)
 8000d6c:	4b92      	ldr	r3, [pc, #584]	; (8000fb8 <HAL_RCC_OscConfig+0x26c>)
 8000d6e:	685b      	ldr	r3, [r3, #4]
 8000d70:	f003 030c 	and.w	r3, r3, #12
 8000d74:	2b04      	cmp	r3, #4
 8000d76:	d00c      	beq.n	8000d92 <HAL_RCC_OscConfig+0x46>
        || ((__HAL_RCC_GET_SYSCLK_SOURCE() == RCC_SYSCLKSOURCE_STATUS_PLLCLK) && (__HAL_RCC_GET_PLL_OSCSOURCE() == RCC_PLLSOURCE_HSE)))
 8000d78:	4b8f      	ldr	r3, [pc, #572]	; (8000fb8 <HAL_RCC_OscConfig+0x26c>)
 8000d7a:	685b      	ldr	r3, [r3, #4]
 8000d7c:	f003 030c 	and.w	r3, r3, #12
 8000d80:	2b08      	cmp	r3, #8
 8000d82:	d112      	bne.n	8000daa <HAL_RCC_OscConfig+0x5e>
 8000d84:	4b8c      	ldr	r3, [pc, #560]	; (8000fb8 <HAL_RCC_OscConfig+0x26c>)
 8000d86:	685b      	ldr	r3, [r3, #4]
 8000d88:	f403 3380 	and.w	r3, r3, #65536	; 0x10000
 8000d8c:	f5b3 3f80 	cmp.w	r3, #65536	; 0x10000
 8000d90:	d10b      	bne.n	8000daa <HAL_RCC_OscConfig+0x5e>
    {
      if ((__HAL_RCC_GET_FLAG(RCC_FLAG_HSERDY) != RESET) && (RCC_OscInitStruct->HSEState == RCC_HSE_OFF))
 8000d92:	4b89      	ldr	r3, [pc, #548]	; (8000fb8 <HAL_RCC_OscConfig+0x26c>)
 8000d94:	681b      	ldr	r3, [r3, #0]
 8000d96:	f403 3300 	and.w	r3, r3, #131072	; 0x20000
 8000d9a:	2b00      	cmp	r3, #0
 8000d9c:	d06c      	beq.n	8000e78 <HAL_RCC_OscConfig+0x12c>
 8000d9e:	687b      	ldr	r3, [r7, #4]
 8000da0:	685b      	ldr	r3, [r3, #4]
 8000da2:	2b00      	cmp	r3, #0
 8000da4:	d168      	bne.n	8000e78 <HAL_RCC_OscConfig+0x12c>
      {
        return HAL_ERROR;
 8000da6:	2301      	movs	r3, #1
 8000da8:	e24c      	b.n	8001244 <HAL_RCC_OscConfig+0x4f8>
      }
    }
    else
    {
      /* Set the new HSE configuration ---------------------------------------*/
      __HAL_RCC_HSE_CONFIG(RCC_OscInitStruct->HSEState);
 8000daa:	687b      	ldr	r3, [r7, #4]
 8000dac:	685b      	ldr	r3, [r3, #4]
 8000dae:	f5b3 3f80 	cmp.w	r3, #65536	; 0x10000
 8000db2:	d106      	bne.n	8000dc2 <HAL_RCC_OscConfig+0x76>
 8000db4:	4b80      	ldr	r3, [pc, #512]	; (8000fb8 <HAL_RCC_OscConfig+0x26c>)
 8000db6:	681b      	ldr	r3, [r3, #0]
 8000db8:	4a7f      	ldr	r2, [pc, #508]	; (8000fb8 <HAL_RCC_OscConfig+0x26c>)
 8000dba:	f443 3380 	orr.w	r3, r3, #65536	; 0x10000
 8000dbe:	6013      	str	r3, [r2, #0]
 8000dc0:	e02e      	b.n	8000e20 <HAL_RCC_OscConfig+0xd4>
 8000dc2:	687b      	ldr	r3, [r7, #4]
 8000dc4:	685b      	ldr	r3, [r3, #4]
 8000dc6:	2b00      	cmp	r3, #0
 8000dc8:	d10c      	bne.n	8000de4 <HAL_RCC_OscConfig+0x98>
 8000dca:	4b7b      	ldr	r3, [pc, #492]	; (8000fb8 <HAL_RCC_OscConfig+0x26c>)
 8000dcc:	681b      	ldr	r3, [r3, #0]
 8000dce:	4a7a      	ldr	r2, [pc, #488]	; (8000fb8 <HAL_RCC_OscConfig+0x26c>)
 8000dd0:	f423 3380 	bic.w	r3, r3, #65536	; 0x10000
 8000dd4:	6013      	str	r3, [r2, #0]
 8000dd6:	4b78      	ldr	r3, [pc, #480]	; (8000fb8 <HAL_RCC_OscConfig+0x26c>)
 8000dd8:	681b      	ldr	r3, [r3, #0]
 8000dda:	4a77      	ldr	r2, [pc, #476]	; (8000fb8 <HAL_RCC_OscConfig+0x26c>)
 8000ddc:	f423 2380 	bic.w	r3, r3, #262144	; 0x40000
 8000de0:	6013      	str	r3, [r2, #0]
 8000de2:	e01d      	b.n	8000e20 <HAL_RCC_OscConfig+0xd4>
 8000de4:	687b      	ldr	r3, [r7, #4]
 8000de6:	685b      	ldr	r3, [r3, #4]
 8000de8:	f5b3 2fa0 	cmp.w	r3, #327680	; 0x50000
 8000dec:	d10c      	bne.n	8000e08 <HAL_RCC_OscConfig+0xbc>
 8000dee:	4b72      	ldr	r3, [pc, #456]	; (8000fb8 <HAL_RCC_OscConfig+0x26c>)
 8000df0:	681b      	ldr	r3, [r3, #0]
 8000df2:	4a71      	ldr	r2, [pc, #452]	; (8000fb8 <HAL_RCC_OscConfig+0x26c>)
 8000df4:	f443 2380 	orr.w	r3, r3, #262144	; 0x40000
 8000df8:	6013      	str	r3, [r2, #0]
 8000dfa:	4b6f      	ldr	r3, [pc, #444]	; (8000fb8 <HAL_RCC_OscConfig+0x26c>)
 8000dfc:	681b      	ldr	r3, [r3, #0]
 8000dfe:	4a6e      	ldr	r2, [pc, #440]	; (8000fb8 <HAL_RCC_OscConfig+0x26c>)
 8000e00:	f443 3380 	orr.w	r3, r3, #65536	; 0x10000
 8000e04:	6013      	str	r3, [r2, #0]
 8000e06:	e00b      	b.n	8000e20 <HAL_RCC_OscConfig+0xd4>
 8000e08:	4b6b      	ldr	r3, [pc, #428]	; (8000fb8 <HAL_RCC_OscConfig+0x26c>)
 8000e0a:	681b      	ldr	r3, [r3, #0]
 8000e0c:	4a6a      	ldr	r2, [pc, #424]	; (8000fb8 <HAL_RCC_OscConfig+0x26c>)
 8000e0e:	f423 3380 	bic.w	r3, r3, #65536	; 0x10000
 8000e12:	6013      	str	r3, [r2, #0]
 8000e14:	4b68      	ldr	r3, [pc, #416]	; (8000fb8 <HAL_RCC_OscConfig+0x26c>)
 8000e16:	681b      	ldr	r3, [r3, #0]
 8000e18:	4a67      	ldr	r2, [pc, #412]	; (8000fb8 <HAL_RCC_OscConfig+0x26c>)
 8000e1a:	f423 2380 	bic.w	r3, r3, #262144	; 0x40000
 8000e1e:	6013      	str	r3, [r2, #0]


      /* Check the HSE State */
      if (RCC_OscInitStruct->HSEState != RCC_HSE_OFF)
 8000e20:	687b      	ldr	r3, [r7, #4]
 8000e22:	685b      	ldr	r3, [r3, #4]
 8000e24:	2b00      	cmp	r3, #0
 8000e26:	d013      	beq.n	8000e50 <HAL_RCC_OscConfig+0x104>
      {
        /* Get Start Tick */
        tickstart = HAL_GetTick();
 8000e28:	f7ff fc96 	bl	8000758 <HAL_GetTick>
 8000e2c:	6138      	str	r0, [r7, #16]

        /* Wait till HSE is ready */
        while (__HAL_RCC_GET_FLAG(RCC_FLAG_HSERDY) == RESET)
 8000e2e:	e008      	b.n	8000e42 <HAL_RCC_OscConfig+0xf6>
        {
          if ((HAL_GetTick() - tickstart) > HSE_TIMEOUT_VALUE)
 8000e30:	f7ff fc92 	bl	8000758 <HAL_GetTick>
 8000e34:	4602      	mov	r2, r0
 8000e36:	693b      	ldr	r3, [r7, #16]
 8000e38:	1ad3      	subs	r3, r2, r3
 8000e3a:	2b64      	cmp	r3, #100	; 0x64
 8000e3c:	d901      	bls.n	8000e42 <HAL_RCC_OscConfig+0xf6>
          {
            return HAL_TIMEOUT;
 8000e3e:	2303      	movs	r3, #3
 8000e40:	e200      	b.n	8001244 <HAL_RCC_OscConfig+0x4f8>
        while (__HAL_RCC_GET_FLAG(RCC_FLAG_HSERDY) == RESET)
 8000e42:	4b5d      	ldr	r3, [pc, #372]	; (8000fb8 <HAL_RCC_OscConfig+0x26c>)
 8000e44:	681b      	ldr	r3, [r3, #0]
 8000e46:	f403 3300 	and.w	r3, r3, #131072	; 0x20000
 8000e4a:	2b00      	cmp	r3, #0
 8000e4c:	d0f0      	beq.n	8000e30 <HAL_RCC_OscConfig+0xe4>
 8000e4e:	e014      	b.n	8000e7a <HAL_RCC_OscConfig+0x12e>
        }
      }
      else
      {
        /* Get Start Tick */
        tickstart = HAL_GetTick();
 8000e50:	f7ff fc82 	bl	8000758 <HAL_GetTick>
 8000e54:	6138      	str	r0, [r7, #16]

        /* Wait till HSE is disabled */
        while (__HAL_RCC_GET_FLAG(RCC_FLAG_HSERDY) != RESET)
 8000e56:	e008      	b.n	8000e6a <HAL_RCC_OscConfig+0x11e>
        {
          if ((HAL_GetTick() - tickstart) > HSE_TIMEOUT_VALUE)
 8000e58:	f7ff fc7e 	bl	8000758 <HAL_GetTick>
 8000e5c:	4602      	mov	r2, r0
 8000e5e:	693b      	ldr	r3, [r7, #16]
 8000e60:	1ad3      	subs	r3, r2, r3
 8000e62:	2b64      	cmp	r3, #100	; 0x64
 8000e64:	d901      	bls.n	8000e6a <HAL_RCC_OscConfig+0x11e>
          {
            return HAL_TIMEOUT;
 8000e66:	2303      	movs	r3, #3
 8000e68:	e1ec      	b.n	8001244 <HAL_RCC_OscConfig+0x4f8>
        while (__HAL_RCC_GET_FLAG(RCC_FLAG_HSERDY) != RESET)
 8000e6a:	4b53      	ldr	r3, [pc, #332]	; (8000fb8 <HAL_RCC_OscConfig+0x26c>)
 8000e6c:	681b      	ldr	r3, [r3, #0]
 8000e6e:	f403 3300 	and.w	r3, r3, #131072	; 0x20000
 8000e72:	2b00      	cmp	r3, #0
 8000e74:	d1f0      	bne.n	8000e58 <HAL_RCC_OscConfig+0x10c>
 8000e76:	e000      	b.n	8000e7a <HAL_RCC_OscConfig+0x12e>
      if ((__HAL_RCC_GET_FLAG(RCC_FLAG_HSERDY) != RESET) && (RCC_OscInitStruct->HSEState == RCC_HSE_OFF))
 8000e78:	bf00      	nop
        }
      }
    }
  }
  /*----------------------------- HSI Configuration --------------------------*/
  if (((RCC_OscInitStruct->OscillatorType) & RCC_OSCILLATORTYPE_HSI) == RCC_OSCILLATORTYPE_HSI)
 8000e7a:	687b      	ldr	r3, [r7, #4]
 8000e7c:	681b      	ldr	r3, [r3, #0]
 8000e7e:	f003 0302 	and.w	r3, r3, #2
 8000e82:	2b00      	cmp	r3, #0
 8000e84:	d063      	beq.n	8000f4e <HAL_RCC_OscConfig+0x202>
    /* Check the parameters */
    assert_param(IS_RCC_HSI(RCC_OscInitStruct->HSIState));
    assert_param(IS_RCC_CALIBRATION_VALUE(RCC_OscInitStruct->HSICalibrationValue));

    /* Check if HSI is used as system clock or as PLL source when PLL is selected as system clock */
    if ((__HAL_RCC_GET_SYSCLK_SOURCE() == RCC_SYSCLKSOURCE_STATUS_HSI)
 8000e86:	4b4c      	ldr	r3, [pc, #304]	; (8000fb8 <HAL_RCC_OscConfig+0x26c>)
 8000e88:	685b      	ldr	r3, [r3, #4]
 8000e8a:	f003 030c 	and.w	r3, r3, #12
 8000e8e:	2b00      	cmp	r3, #0
 8000e90:	d00b      	beq.n	8000eaa <HAL_RCC_OscConfig+0x15e>
        || ((__HAL_RCC_GET_SYSCLK_SOURCE() == RCC_SYSCLKSOURCE_STATUS_PLLCLK) && (__HAL_RCC_GET_PLL_OSCSOURCE() == RCC_PLLSOURCE_HSI_DIV2)))
 8000e92:	4b49      	ldr	r3, [pc, #292]	; (8000fb8 <HAL_RCC_OscConfig+0x26c>)
 8000e94:	685b      	ldr	r3, [r3, #4]
 8000e96:	f003 030c 	and.w	r3, r3, #12
 8000e9a:	2b08      	cmp	r3, #8
 8000e9c:	d11c      	bne.n	8000ed8 <HAL_RCC_OscConfig+0x18c>
 8000e9e:	4b46      	ldr	r3, [pc, #280]	; (8000fb8 <HAL_RCC_OscConfig+0x26c>)
 8000ea0:	685b      	ldr	r3, [r3, #4]
 8000ea2:	f403 3380 	and.w	r3, r3, #65536	; 0x10000
 8000ea6:	2b00      	cmp	r3, #0
 8000ea8:	d116      	bne.n	8000ed8 <HAL_RCC_OscConfig+0x18c>
    {
      /* When HSI is used as system clock it will not disabled */
      if ((__HAL_RCC_GET_FLAG(RCC_FLAG_HSIRDY) != RESET) && (RCC_OscInitStruct->HSIState != RCC_HSI_ON))
 8000eaa:	4b43      	ldr	r3, [pc, #268]	; (8000fb8 <HAL_RCC_OscConfig+0x26c>)
 8000eac:	681b      	ldr	r3, [r3, #0]
 8000eae:	f003 0302 	and.w	r3, r3, #2
 8000eb2:	2b00      	cmp	r3, #0
 8000eb4:	d005      	beq.n	8000ec2 <HAL_RCC_OscConfig+0x176>
 8000eb6:	687b      	ldr	r3, [r7, #4]
 8000eb8:	691b      	ldr	r3, [r3, #16]
 8000eba:	2b01      	cmp	r3, #1
 8000ebc:	d001      	beq.n	8000ec2 <HAL_RCC_OscConfig+0x176>
      {
        return HAL_ERROR;
 8000ebe:	2301      	movs	r3, #1
 8000ec0:	e1c0      	b.n	8001244 <HAL_RCC_OscConfig+0x4f8>
      }
      /* Otherwise, just the calibration is allowed */
      else
      {
        /* Adjusts the Internal High Speed oscillator (HSI) calibration value.*/
        __HAL_RCC_HSI_CALIBRATIONVALUE_ADJUST(RCC_OscInitStruct->HSICalibrationValue);
 8000ec2:	4b3d      	ldr	r3, [pc, #244]	; (8000fb8 <HAL_RCC_OscConfig+0x26c>)
 8000ec4:	681b      	ldr	r3, [r3, #0]
 8000ec6:	f023 02f8 	bic.w	r2, r3, #248	; 0xf8
 8000eca:	687b      	ldr	r3, [r7, #4]
 8000ecc:	695b      	ldr	r3, [r3, #20]
 8000ece:	00db      	lsls	r3, r3, #3
 8000ed0:	4939      	ldr	r1, [pc, #228]	; (8000fb8 <HAL_RCC_OscConfig+0x26c>)
 8000ed2:	4313      	orrs	r3, r2
 8000ed4:	600b      	str	r3, [r1, #0]
      if ((__HAL_RCC_GET_FLAG(RCC_FLAG_HSIRDY) != RESET) && (RCC_OscInitStruct->HSIState != RCC_HSI_ON))
 8000ed6:	e03a      	b.n	8000f4e <HAL_RCC_OscConfig+0x202>
      }
    }
    else
    {
      /* Check the HSI State */
      if (RCC_OscInitStruct->HSIState != RCC_HSI_OFF)
 8000ed8:	687b      	ldr	r3, [r7, #4]
 8000eda:	691b      	ldr	r3, [r3, #16]
 8000edc:	2b00      	cmp	r3, #0
 8000ede:	d020      	beq.n	8000f22 <HAL_RCC_OscConfig+0x1d6>
      {
        /* Enable the Internal High Speed oscillator (HSI). */
        __HAL_RCC_HSI_ENABLE();
 8000ee0:	4b36      	ldr	r3, [pc, #216]	; (8000fbc <HAL_RCC_OscConfig+0x270>)
 8000ee2:	2201      	movs	r2, #1
 8000ee4:	601a      	str	r2, [r3, #0]

        /* Get Start Tick */
        tickstart = HAL_GetTick();
 8000ee6:	f7ff fc37 	bl	8000758 <HAL_GetTick>
 8000eea:	6138      	str	r0, [r7, #16]

        /* Wait till HSI is ready */
        while (__HAL_RCC_GET_FLAG(RCC_FLAG_HSIRDY) == RESET)
 8000eec:	e008      	b.n	8000f00 <HAL_RCC_OscConfig+0x1b4>
        {
          if ((HAL_GetTick() - tickstart) > HSI_TIMEOUT_VALUE)
 8000eee:	f7ff fc33 	bl	8000758 <HAL_GetTick>
 8000ef2:	4602      	mov	r2, r0
 8000ef4:	693b      	ldr	r3, [r7, #16]
 8000ef6:	1ad3      	subs	r3, r2, r3
 8000ef8:	2b02      	cmp	r3, #2
 8000efa:	d901      	bls.n	8000f00 <HAL_RCC_OscConfig+0x1b4>
          {
            return HAL_TIMEOUT;
 8000efc:	2303      	movs	r3, #3
 8000efe:	e1a1      	b.n	8001244 <HAL_RCC_OscConfig+0x4f8>
        while (__HAL_RCC_GET_FLAG(RCC_FLAG_HSIRDY) == RESET)
 8000f00:	4b2d      	ldr	r3, [pc, #180]	; (8000fb8 <HAL_RCC_OscConfig+0x26c>)
 8000f02:	681b      	ldr	r3, [r3, #0]
 8000f04:	f003 0302 	and.w	r3, r3, #2
 8000f08:	2b00      	cmp	r3, #0
 8000f0a:	d0f0      	beq.n	8000eee <HAL_RCC_OscConfig+0x1a2>
          }
        }

        /* Adjusts the Internal High Speed oscillator (HSI) calibration value.*/
        __HAL_RCC_HSI_CALIBRATIONVALUE_ADJUST(RCC_OscInitStruct->HSICalibrationValue);
 8000f0c:	4b2a      	ldr	r3, [pc, #168]	; (8000fb8 <HAL_RCC_OscConfig+0x26c>)
 8000f0e:	681b      	ldr	r3, [r3, #0]
 8000f10:	f023 02f8 	bic.w	r2, r3, #248	; 0xf8
 8000f14:	687b      	ldr	r3, [r7, #4]
 8000f16:	695b      	ldr	r3, [r3, #20]
 8000f18:	00db      	lsls	r3, r3, #3
 8000f1a:	4927      	ldr	r1, [pc, #156]	; (8000fb8 <HAL_RCC_OscConfig+0x26c>)
 8000f1c:	4313      	orrs	r3, r2
 8000f1e:	600b      	str	r3, [r1, #0]
 8000f20:	e015      	b.n	8000f4e <HAL_RCC_OscConfig+0x202>
      }
      else
      {
        /* Disable the Internal High Speed oscillator (HSI). */
        __HAL_RCC_HSI_DISABLE();
 8000f22:	4b26      	ldr	r3, [pc, #152]	; (8000fbc <HAL_RCC_OscConfig+0x270>)
 8000f24:	2200      	movs	r2, #0
 8000f26:	601a      	str	r2, [r3, #0]

        /* Get Start Tick */
        tickstart = HAL_GetTick();
 8000f28:	f7ff fc16 	bl	8000758 <HAL_GetTick>
 8000f2c:	6138      	str	r0, [r7, #16]

        /* Wait till HSI is disabled */
        while (__HAL_RCC_GET_FLAG(RCC_FLAG_HSIRDY) != RESET)
 8000f2e:	e008      	b.n	8000f42 <HAL_RCC_OscConfig+0x1f6>
        {
          if ((HAL_GetTick() - tickstart) > HSI_TIMEOUT_VALUE)
 8000f30:	f7ff fc12 	bl	8000758 <HAL_GetTick>
 8000f34:	4602      	mov	r2, r0
 8000f36:	693b      	ldr	r3, [r7, #16]
 8000f38:	1ad3      	subs	r3, r2, r3
 8000f3a:	2b02      	cmp	r3, #2
 8000f3c:	d901      	bls.n	8000f42 <HAL_RCC_OscConfig+0x1f6>
          {
            return HAL_TIMEOUT;
 8000f3e:	2303      	movs	r3, #3
 8000f40:	e180      	b.n	8001244 <HAL_RCC_OscConfig+0x4f8>
        while (__HAL_RCC_GET_FLAG(RCC_FLAG_HSIRDY) != RESET)
 8000f42:	4b1d      	ldr	r3, [pc, #116]	; (8000fb8 <HAL_RCC_OscConfig+0x26c>)
 8000f44:	681b      	ldr	r3, [r3, #0]
 8000f46:	f003 0302 	and.w	r3, r3, #2
 8000f4a:	2b00      	cmp	r3, #0
 8000f4c:	d1f0      	bne.n	8000f30 <HAL_RCC_OscConfig+0x1e4>
        }
      }
    }
  }
  /*------------------------------ LSI Configuration -------------------------*/
  if (((RCC_OscInitStruct->OscillatorType) & RCC_OSCILLATORTYPE_LSI) == RCC_OSCILLATORTYPE_LSI)
 8000f4e:	687b      	ldr	r3, [r7, #4]
 8000f50:	681b      	ldr	r3, [r3, #0]
 8000f52:	f003 0308 	and.w	r3, r3, #8
 8000f56:	2b00      	cmp	r3, #0
 8000f58:	d03a      	beq.n	8000fd0 <HAL_RCC_OscConfig+0x284>
  {
    /* Check the parameters */
    assert_param(IS_RCC_LSI(RCC_OscInitStruct->LSIState));

    /* Check the LSI State */
    if (RCC_OscInitStruct->LSIState != RCC_LSI_OFF)
 8000f5a:	687b      	ldr	r3, [r7, #4]
 8000f5c:	699b      	ldr	r3, [r3, #24]
 8000f5e:	2b00      	cmp	r3, #0
 8000f60:	d019      	beq.n	8000f96 <HAL_RCC_OscConfig+0x24a>
    {
      /* Enable the Internal Low Speed oscillator (LSI). */
      __HAL_RCC_LSI_ENABLE();
 8000f62:	4b17      	ldr	r3, [pc, #92]	; (8000fc0 <HAL_RCC_OscConfig+0x274>)
 8000f64:	2201      	movs	r2, #1
 8000f66:	601a      	str	r2, [r3, #0]

      /* Get Start Tick */
      tickstart = HAL_GetTick();
 8000f68:	f7ff fbf6 	bl	8000758 <HAL_GetTick>
 8000f6c:	6138      	str	r0, [r7, #16]

      /* Wait till LSI is ready */
      while (__HAL_RCC_GET_FLAG(RCC_FLAG_LSIRDY) == RESET)
 8000f6e:	e008      	b.n	8000f82 <HAL_RCC_OscConfig+0x236>
      {
        if ((HAL_GetTick() - tickstart) > LSI_TIMEOUT_VALUE)
 8000f70:	f7ff fbf2 	bl	8000758 <HAL_GetTick>
 8000f74:	4602      	mov	r2, r0
 8000f76:	693b      	ldr	r3, [r7, #16]
 8000f78:	1ad3      	subs	r3, r2, r3
 8000f7a:	2b02      	cmp	r3, #2
 8000f7c:	d901      	bls.n	8000f82 <HAL_RCC_OscConfig+0x236>
        {
          return HAL_TIMEOUT;
 8000f7e:	2303      	movs	r3, #3
 8000f80:	e160      	b.n	8001244 <HAL_RCC_OscConfig+0x4f8>
      while (__HAL_RCC_GET_FLAG(RCC_FLAG_LSIRDY) == RESET)
 8000f82:	4b0d      	ldr	r3, [pc, #52]	; (8000fb8 <HAL_RCC_OscConfig+0x26c>)
 8000f84:	6a5b      	ldr	r3, [r3, #36]	; 0x24
 8000f86:	f003 0302 	and.w	r3, r3, #2
 8000f8a:	2b00      	cmp	r3, #0
 8000f8c:	d0f0      	beq.n	8000f70 <HAL_RCC_OscConfig+0x224>
        }
      }
      /*  To have a fully stabilized clock in the specified range, a software delay of 1ms
          should be added.*/
      RCC_Delay(1);
 8000f8e:	2001      	movs	r0, #1
 8000f90:	f000 fad8 	bl	8001544 <RCC_Delay>
 8000f94:	e01c      	b.n	8000fd0 <HAL_RCC_OscConfig+0x284>
    }
    else
    {
      /* Disable the Internal Low Speed oscillator (LSI). */
      __HAL_RCC_LSI_DISABLE();
 8000f96:	4b0a      	ldr	r3, [pc, #40]	; (8000fc0 <HAL_RCC_OscConfig+0x274>)
 8000f98:	2200      	movs	r2, #0
 8000f9a:	601a      	str	r2, [r3, #0]

      /* Get Start Tick */
      tickstart = HAL_GetTick();
 8000f9c:	f7ff fbdc 	bl	8000758 <HAL_GetTick>
 8000fa0:	6138      	str	r0, [r7, #16]

      /* Wait till LSI is disabled */
      while (__HAL_RCC_GET_FLAG(RCC_FLAG_LSIRDY) != RESET)
 8000fa2:	e00f      	b.n	8000fc4 <HAL_RCC_OscConfig+0x278>
      {
        if ((HAL_GetTick() - tickstart) > LSI_TIMEOUT_VALUE)
 8000fa4:	f7ff fbd8 	bl	8000758 <HAL_GetTick>
 8000fa8:	4602      	mov	r2, r0
 8000faa:	693b      	ldr	r3, [r7, #16]
 8000fac:	1ad3      	subs	r3, r2, r3
 8000fae:	2b02      	cmp	r3, #2
 8000fb0:	d908      	bls.n	8000fc4 <HAL_RCC_OscConfig+0x278>
        {
          return HAL_TIMEOUT;
 8000fb2:	2303      	movs	r3, #3
 8000fb4:	e146      	b.n	8001244 <HAL_RCC_OscConfig+0x4f8>
 8000fb6:	bf00      	nop
 8000fb8:	40021000 	.word	0x40021000
 8000fbc:	42420000 	.word	0x42420000
 8000fc0:	42420480 	.word	0x42420480
      while (__HAL_RCC_GET_FLAG(RCC_FLAG_LSIRDY) != RESET)
 8000fc4:	4b92      	ldr	r3, [pc, #584]	; (8001210 <HAL_RCC_OscConfig+0x4c4>)
 8000fc6:	6a5b      	ldr	r3, [r3, #36]	; 0x24
 8000fc8:	f003 0302 	and.w	r3, r3, #2
 8000fcc:	2b00      	cmp	r3, #0
 8000fce:	d1e9      	bne.n	8000fa4 <HAL_RCC_OscConfig+0x258>
        }
      }
    }
  }
  /*------------------------------ LSE Configuration -------------------------*/
  if (((RCC_OscInitStruct->OscillatorType) & RCC_OSCILLATORTYPE_LSE) == RCC_OSCILLATORTYPE_LSE)
 8000fd0:	687b      	ldr	r3, [r7, #4]
 8000fd2:	681b      	ldr	r3, [r3, #0]
 8000fd4:	f003 0304 	and.w	r3, r3, #4
 8000fd8:	2b00      	cmp	r3, #0
 8000fda:	f000 80a6 	beq.w	800112a <HAL_RCC_OscConfig+0x3de>
  {
    FlagStatus       pwrclkchanged = RESET;
 8000fde:	2300      	movs	r3, #0
 8000fe0:	75fb      	strb	r3, [r7, #23]
    /* Check the parameters */
    assert_param(IS_RCC_LSE(RCC_OscInitStruct->LSEState));

    /* Update LSE configuration in Backup Domain control register    */
    /* Requires to enable write access to Backup Domain of necessary */
    if (__HAL_RCC_PWR_IS_CLK_DISABLED())
 8000fe2:	4b8b      	ldr	r3, [pc, #556]	; (8001210 <HAL_RCC_OscConfig+0x4c4>)
 8000fe4:	69db      	ldr	r3, [r3, #28]
 8000fe6:	f003 5380 	and.w	r3, r3, #268435456	; 0x10000000
 8000fea:	2b00      	cmp	r3, #0
 8000fec:	d10d      	bne.n	800100a <HAL_RCC_OscConfig+0x2be>
    {
      __HAL_RCC_PWR_CLK_ENABLE();
 8000fee:	4b88      	ldr	r3, [pc, #544]	; (8001210 <HAL_RCC_OscConfig+0x4c4>)
 8000ff0:	69db      	ldr	r3, [r3, #28]
 8000ff2:	4a87      	ldr	r2, [pc, #540]	; (8001210 <HAL_RCC_OscConfig+0x4c4>)
 8000ff4:	f043 5380 	orr.w	r3, r3, #268435456	; 0x10000000
 8000ff8:	61d3      	str	r3, [r2, #28]
 8000ffa:	4b85      	ldr	r3, [pc, #532]	; (8001210 <HAL_RCC_OscConfig+0x4c4>)
 8000ffc:	69db      	ldr	r3, [r3, #28]
 8000ffe:	f003 5380 	and.w	r3, r3, #268435456	; 0x10000000
 8001002:	60bb      	str	r3, [r7, #8]
 8001004:	68bb      	ldr	r3, [r7, #8]
      pwrclkchanged = SET;
 8001006:	2301      	movs	r3, #1
 8001008:	75fb      	strb	r3, [r7, #23]
    }

    if (HAL_IS_BIT_CLR(PWR->CR, PWR_CR_DBP))
 800100a:	4b82      	ldr	r3, [pc, #520]	; (8001214 <HAL_RCC_OscConfig+0x4c8>)
 800100c:	681b      	ldr	r3, [r3, #0]
 800100e:	f403 7380 	and.w	r3, r3, #256	; 0x100
 8001012:	2b00      	cmp	r3, #0
 8001014:	d118      	bne.n	8001048 <HAL_RCC_OscConfig+0x2fc>
    {
      /* Enable write access to Backup domain */
      SET_BIT(PWR->CR, PWR_CR_DBP);
 8001016:	4b7f      	ldr	r3, [pc, #508]	; (8001214 <HAL_RCC_OscConfig+0x4c8>)
 8001018:	681b      	ldr	r3, [r3, #0]
 800101a:	4a7e      	ldr	r2, [pc, #504]	; (8001214 <HAL_RCC_OscConfig+0x4c8>)
 800101c:	f443 7380 	orr.w	r3, r3, #256	; 0x100
 8001020:	6013      	str	r3, [r2, #0]

      /* Wait for Backup domain Write protection disable */
      tickstart = HAL_GetTick();
 8001022:	f7ff fb99 	bl	8000758 <HAL_GetTick>
 8001026:	6138      	str	r0, [r7, #16]

      while (HAL_IS_BIT_CLR(PWR->CR, PWR_CR_DBP))
 8001028:	e008      	b.n	800103c <HAL_RCC_OscConfig+0x2f0>
      {
        if ((HAL_GetTick() - tickstart) > RCC_DBP_TIMEOUT_VALUE)
 800102a:	f7ff fb95 	bl	8000758 <HAL_GetTick>
 800102e:	4602      	mov	r2, r0
 8001030:	693b      	ldr	r3, [r7, #16]
 8001032:	1ad3      	subs	r3, r2, r3
 8001034:	2b64      	cmp	r3, #100	; 0x64
 8001036:	d901      	bls.n	800103c <HAL_RCC_OscConfig+0x2f0>
        {
          return HAL_TIMEOUT;
 8001038:	2303      	movs	r3, #3
 800103a:	e103      	b.n	8001244 <HAL_RCC_OscConfig+0x4f8>
      while (HAL_IS_BIT_CLR(PWR->CR, PWR_CR_DBP))
 800103c:	4b75      	ldr	r3, [pc, #468]	; (8001214 <HAL_RCC_OscConfig+0x4c8>)
 800103e:	681b      	ldr	r3, [r3, #0]
 8001040:	f403 7380 	and.w	r3, r3, #256	; 0x100
 8001044:	2b00      	cmp	r3, #0
 8001046:	d0f0      	beq.n	800102a <HAL_RCC_OscConfig+0x2de>
        }
      }
    }

    /* Set the new LSE configuration -----------------------------------------*/
    __HAL_RCC_LSE_CONFIG(RCC_OscInitStruct->LSEState);
 8001048:	687b      	ldr	r3, [r7, #4]
 800104a:	68db      	ldr	r3, [r3, #12]
 800104c:	2b01      	cmp	r3, #1
 800104e:	d106      	bne.n	800105e <HAL_RCC_OscConfig+0x312>
 8001050:	4b6f      	ldr	r3, [pc, #444]	; (8001210 <HAL_RCC_OscConfig+0x4c4>)
 8001052:	6a1b      	ldr	r3, [r3, #32]
 8001054:	4a6e      	ldr	r2, [pc, #440]	; (8001210 <HAL_RCC_OscConfig+0x4c4>)
 8001056:	f043 0301 	orr.w	r3, r3, #1
 800105a:	6213      	str	r3, [r2, #32]
 800105c:	e02d      	b.n	80010ba <HAL_RCC_OscConfig+0x36e>
 800105e:	687b      	ldr	r3, [r7, #4]
 8001060:	68db      	ldr	r3, [r3, #12]
 8001062:	2b00      	cmp	r3, #0
 8001064:	d10c      	bne.n	8001080 <HAL_RCC_OscConfig+0x334>
 8001066:	4b6a      	ldr	r3, [pc, #424]	; (8001210 <HAL_RCC_OscConfig+0x4c4>)
 8001068:	6a1b      	ldr	r3, [r3, #32]
 800106a:	4a69      	ldr	r2, [pc, #420]	; (8001210 <HAL_RCC_OscConfig+0x4c4>)
 800106c:	f023 0301 	bic.w	r3, r3, #1
 8001070:	6213      	str	r3, [r2, #32]
 8001072:	4b67      	ldr	r3, [pc, #412]	; (8001210 <HAL_RCC_OscConfig+0x4c4>)
 8001074:	6a1b      	ldr	r3, [r3, #32]
 8001076:	4a66      	ldr	r2, [pc, #408]	; (8001210 <HAL_RCC_OscConfig+0x4c4>)
 8001078:	f023 0304 	bic.w	r3, r3, #4
 800107c:	6213      	str	r3, [r2, #32]
 800107e:	e01c      	b.n	80010ba <HAL_RCC_OscConfig+0x36e>
 8001080:	687b      	ldr	r3, [r7, #4]
 8001082:	68db      	ldr	r3, [r3, #12]
 8001084:	2b05      	cmp	r3, #5
 8001086:	d10c      	bne.n	80010a2 <HAL_RCC_OscConfig+0x356>
 8001088:	4b61      	ldr	r3, [pc, #388]	; (8001210 <HAL_RCC_OscConfig+0x4c4>)
 800108a:	6a1b      	ldr	r3, [r3, #32]
 800108c:	4a60      	ldr	r2, [pc, #384]	; (8001210 <HAL_RCC_OscConfig+0x4c4>)
 800108e:	f043 0304 	orr.w	r3, r3, #4
 8001092:	6213      	str	r3, [r2, #32]
 8001094:	4b5e      	ldr	r3, [pc, #376]	; (8001210 <HAL_RCC_OscConfig+0x4c4>)
 8001096:	6a1b      	ldr	r3, [r3, #32]
 8001098:	4a5d      	ldr	r2, [pc, #372]	; (8001210 <HAL_RCC_OscConfig+0x4c4>)
 800109a:	f043 0301 	orr.w	r3, r3, #1
 800109e:	6213      	str	r3, [r2, #32]
 80010a0:	e00b      	b.n	80010ba <HAL_RCC_OscConfig+0x36e>
 80010a2:	4b5b      	ldr	r3, [pc, #364]	; (8001210 <HAL_RCC_OscConfig+0x4c4>)
 80010a4:	6a1b      	ldr	r3, [r3, #32]
 80010a6:	4a5a      	ldr	r2, [pc, #360]	; (8001210 <HAL_RCC_OscConfig+0x4c4>)
 80010a8:	f023 0301 	bic.w	r3, r3, #1
 80010ac:	6213      	str	r3, [r2, #32]
 80010ae:	4b58      	ldr	r3, [pc, #352]	; (8001210 <HAL_RCC_OscConfig+0x4c4>)
 80010b0:	6a1b      	ldr	r3, [r3, #32]
 80010b2:	4a57      	ldr	r2, [pc, #348]	; (8001210 <HAL_RCC_OscConfig+0x4c4>)
 80010b4:	f023 0304 	bic.w	r3, r3, #4
 80010b8:	6213      	str	r3, [r2, #32]
    /* Check the LSE State */
    if (RCC_OscInitStruct->LSEState != RCC_LSE_OFF)
 80010ba:	687b      	ldr	r3, [r7, #4]
 80010bc:	68db      	ldr	r3, [r3, #12]
 80010be:	2b00      	cmp	r3, #0
 80010c0:	d015      	beq.n	80010ee <HAL_RCC_OscConfig+0x3a2>
    {
      /* Get Start Tick */
      tickstart = HAL_GetTick();
 80010c2:	f7ff fb49 	bl	8000758 <HAL_GetTick>
 80010c6:	6138      	str	r0, [r7, #16]

      /* Wait till LSE is ready */
      while (__HAL_RCC_GET_FLAG(RCC_FLAG_LSERDY) == RESET)
 80010c8:	e00a      	b.n	80010e0 <HAL_RCC_OscConfig+0x394>
      {
        if ((HAL_GetTick() - tickstart) > RCC_LSE_TIMEOUT_VALUE)
 80010ca:	f7ff fb45 	bl	8000758 <HAL_GetTick>
 80010ce:	4602      	mov	r2, r0
 80010d0:	693b      	ldr	r3, [r7, #16]
 80010d2:	1ad3      	subs	r3, r2, r3
 80010d4:	f241 3288 	movw	r2, #5000	; 0x1388
 80010d8:	4293      	cmp	r3, r2
 80010da:	d901      	bls.n	80010e0 <HAL_RCC_OscConfig+0x394>
        {
          return HAL_TIMEOUT;
 80010dc:	2303      	movs	r3, #3
 80010de:	e0b1      	b.n	8001244 <HAL_RCC_OscConfig+0x4f8>
      while (__HAL_RCC_GET_FLAG(RCC_FLAG_LSERDY) == RESET)
 80010e0:	4b4b      	ldr	r3, [pc, #300]	; (8001210 <HAL_RCC_OscConfig+0x4c4>)
 80010e2:	6a1b      	ldr	r3, [r3, #32]
 80010e4:	f003 0302 	and.w	r3, r3, #2
 80010e8:	2b00      	cmp	r3, #0
 80010ea:	d0ee      	beq.n	80010ca <HAL_RCC_OscConfig+0x37e>
 80010ec:	e014      	b.n	8001118 <HAL_RCC_OscConfig+0x3cc>
      }
    }
    else
    {
      /* Get Start Tick */
      tickstart = HAL_GetTick();
 80010ee:	f7ff fb33 	bl	8000758 <HAL_GetTick>
 80010f2:	6138      	str	r0, [r7, #16]

      /* Wait till LSE is disabled */
      while (__HAL_RCC_GET_FLAG(RCC_FLAG_LSERDY) != RESET)
 80010f4:	e00a      	b.n	800110c <HAL_RCC_OscConfig+0x3c0>
      {
        if ((HAL_GetTick() - tickstart) > RCC_LSE_TIMEOUT_VALUE)
 80010f6:	f7ff fb2f 	bl	8000758 <HAL_GetTick>
 80010fa:	4602      	mov	r2, r0
 80010fc:	693b      	ldr	r3, [r7, #16]
 80010fe:	1ad3      	subs	r3, r2, r3
 8001100:	f241 3288 	movw	r2, #5000	; 0x1388
 8001104:	4293      	cmp	r3, r2
 8001106:	d901      	bls.n	800110c <HAL_RCC_OscConfig+0x3c0>
        {
          return HAL_TIMEOUT;
 8001108:	2303      	movs	r3, #3
 800110a:	e09b      	b.n	8001244 <HAL_RCC_OscConfig+0x4f8>
      while (__HAL_RCC_GET_FLAG(RCC_FLAG_LSERDY) != RESET)
 800110c:	4b40      	ldr	r3, [pc, #256]	; (8001210 <HAL_RCC_OscConfig+0x4c4>)
 800110e:	6a1b      	ldr	r3, [r3, #32]
 8001110:	f003 0302 	and.w	r3, r3, #2
 8001114:	2b00      	cmp	r3, #0
 8001116:	d1ee      	bne.n	80010f6 <HAL_RCC_OscConfig+0x3aa>
        }
      }
    }

    /* Require to disable power clock if necessary */
    if (pwrclkchanged == SET)
 8001118:	7dfb      	ldrb	r3, [r7, #23]
 800111a:	2b01      	cmp	r3, #1
 800111c:	d105      	bne.n	800112a <HAL_RCC_OscConfig+0x3de>
    {
      __HAL_RCC_PWR_CLK_DISABLE();
 800111e:	4b3c      	ldr	r3, [pc, #240]	; (8001210 <HAL_RCC_OscConfig+0x4c4>)
 8001120:	69db      	ldr	r3, [r3, #28]
 8001122:	4a3b      	ldr	r2, [pc, #236]	; (8001210 <HAL_RCC_OscConfig+0x4c4>)
 8001124:	f023 5380 	bic.w	r3, r3, #268435456	; 0x10000000
 8001128:	61d3      	str	r3, [r2, #28]

#endif /* RCC_CR_PLL2ON */
  /*-------------------------------- PLL Configuration -----------------------*/
  /* Check the parameters */
  assert_param(IS_RCC_PLL(RCC_OscInitStruct->PLL.PLLState));
  if ((RCC_OscInitStruct->PLL.PLLState) != RCC_PLL_NONE)
 800112a:	687b      	ldr	r3, [r7, #4]
 800112c:	69db      	ldr	r3, [r3, #28]
 800112e:	2b00      	cmp	r3, #0
 8001130:	f000 8087 	beq.w	8001242 <HAL_RCC_OscConfig+0x4f6>
  {
    /* Check if the PLL is used as system clock or not */
    if (__HAL_RCC_GET_SYSCLK_SOURCE() != RCC_SYSCLKSOURCE_STATUS_PLLCLK)
 8001134:	4b36      	ldr	r3, [pc, #216]	; (8001210 <HAL_RCC_OscConfig+0x4c4>)
 8001136:	685b      	ldr	r3, [r3, #4]
 8001138:	f003 030c 	and.w	r3, r3, #12
 800113c:	2b08      	cmp	r3, #8
 800113e:	d061      	beq.n	8001204 <HAL_RCC_OscConfig+0x4b8>
    {
      if ((RCC_OscInitStruct->PLL.PLLState) == RCC_PLL_ON)
 8001140:	687b      	ldr	r3, [r7, #4]
 8001142:	69db      	ldr	r3, [r3, #28]
 8001144:	2b02      	cmp	r3, #2
 8001146:	d146      	bne.n	80011d6 <HAL_RCC_OscConfig+0x48a>
        /* Check the parameters */
        assert_param(IS_RCC_PLLSOURCE(RCC_OscInitStruct->PLL.PLLSource));
        assert_param(IS_RCC_PLL_MUL(RCC_OscInitStruct->PLL.PLLMUL));

        /* Disable the main PLL. */
        __HAL_RCC_PLL_DISABLE();
 8001148:	4b33      	ldr	r3, [pc, #204]	; (8001218 <HAL_RCC_OscConfig+0x4cc>)
 800114a:	2200      	movs	r2, #0
 800114c:	601a      	str	r2, [r3, #0]

        /* Get Start Tick */
        tickstart = HAL_GetTick();
 800114e:	f7ff fb03 	bl	8000758 <HAL_GetTick>
 8001152:	6138      	str	r0, [r7, #16]

        /* Wait till PLL is disabled */
        while (__HAL_RCC_GET_FLAG(RCC_FLAG_PLLRDY)  != RESET)
 8001154:	e008      	b.n	8001168 <HAL_RCC_OscConfig+0x41c>
        {
          if ((HAL_GetTick() - tickstart) > PLL_TIMEOUT_VALUE)
 8001156:	f7ff faff 	bl	8000758 <HAL_GetTick>
 800115a:	4602      	mov	r2, r0
 800115c:	693b      	ldr	r3, [r7, #16]
 800115e:	1ad3      	subs	r3, r2, r3
 8001160:	2b02      	cmp	r3, #2
 8001162:	d901      	bls.n	8001168 <HAL_RCC_OscConfig+0x41c>
          {
            return HAL_TIMEOUT;
 8001164:	2303      	movs	r3, #3
 8001166:	e06d      	b.n	8001244 <HAL_RCC_OscConfig+0x4f8>
        while (__HAL_RCC_GET_FLAG(RCC_FLAG_PLLRDY)  != RESET)
 8001168:	4b29      	ldr	r3, [pc, #164]	; (8001210 <HAL_RCC_OscConfig+0x4c4>)
 800116a:	681b      	ldr	r3, [r3, #0]
 800116c:	f003 7300 	and.w	r3, r3, #33554432	; 0x2000000
 8001170:	2b00      	cmp	r3, #0
 8001172:	d1f0      	bne.n	8001156 <HAL_RCC_OscConfig+0x40a>
          }
        }

        /* Configure the HSE prediv factor --------------------------------*/
        /* It can be written only when the PLL is disabled. Not used in PLL source is different than HSE */
        if (RCC_OscInitStruct->PLL.PLLSource == RCC_PLLSOURCE_HSE)
 8001174:	687b      	ldr	r3, [r7, #4]
 8001176:	6a1b      	ldr	r3, [r3, #32]
 8001178:	f5b3 3f80 	cmp.w	r3, #65536	; 0x10000
 800117c:	d108      	bne.n	8001190 <HAL_RCC_OscConfig+0x444>
          /* Set PREDIV1 source */
          SET_BIT(RCC->CFGR2, RCC_OscInitStruct->Prediv1Source);
#endif /* RCC_CFGR2_PREDIV1SRC */

          /* Set PREDIV1 Value */
          __HAL_RCC_HSE_PREDIV_CONFIG(RCC_OscInitStruct->HSEPredivValue);
 800117e:	4b24      	ldr	r3, [pc, #144]	; (8001210 <HAL_RCC_OscConfig+0x4c4>)
 8001180:	685b      	ldr	r3, [r3, #4]
 8001182:	f423 3200 	bic.w	r2, r3, #131072	; 0x20000
 8001186:	687b      	ldr	r3, [r7, #4]
 8001188:	689b      	ldr	r3, [r3, #8]
 800118a:	4921      	ldr	r1, [pc, #132]	; (8001210 <HAL_RCC_OscConfig+0x4c4>)
 800118c:	4313      	orrs	r3, r2
 800118e:	604b      	str	r3, [r1, #4]
        }

        /* Configure the main PLL clock source and multiplication factors. */
        __HAL_RCC_PLL_CONFIG(RCC_OscInitStruct->PLL.PLLSource,
 8001190:	4b1f      	ldr	r3, [pc, #124]	; (8001210 <HAL_RCC_OscConfig+0x4c4>)
 8001192:	685b      	ldr	r3, [r3, #4]
 8001194:	f423 1274 	bic.w	r2, r3, #3997696	; 0x3d0000
 8001198:	687b      	ldr	r3, [r7, #4]
 800119a:	6a19      	ldr	r1, [r3, #32]
 800119c:	687b      	ldr	r3, [r7, #4]
 800119e:	6a5b      	ldr	r3, [r3, #36]	; 0x24
 80011a0:	430b      	orrs	r3, r1
 80011a2:	491b      	ldr	r1, [pc, #108]	; (8001210 <HAL_RCC_OscConfig+0x4c4>)
 80011a4:	4313      	orrs	r3, r2
 80011a6:	604b      	str	r3, [r1, #4]
                             RCC_OscInitStruct->PLL.PLLMUL);
        /* Enable the main PLL. */
        __HAL_RCC_PLL_ENABLE();
 80011a8:	4b1b      	ldr	r3, [pc, #108]	; (8001218 <HAL_RCC_OscConfig+0x4cc>)
 80011aa:	2201      	movs	r2, #1
 80011ac:	601a      	str	r2, [r3, #0]

        /* Get Start Tick */
        tickstart = HAL_GetTick();
 80011ae:	f7ff fad3 	bl	8000758 <HAL_GetTick>
 80011b2:	6138      	str	r0, [r7, #16]

        /* Wait till PLL is ready */
        while (__HAL_RCC_GET_FLAG(RCC_FLAG_PLLRDY)  == RESET)
 80011b4:	e008      	b.n	80011c8 <HAL_RCC_OscConfig+0x47c>
        {
          if ((HAL_GetTick() - tickstart) > PLL_TIMEOUT_VALUE)
 80011b6:	f7ff facf 	bl	8000758 <HAL_GetTick>
 80011ba:	4602      	mov	r2, r0
 80011bc:	693b      	ldr	r3, [r7, #16]
 80011be:	1ad3      	subs	r3, r2, r3
 80011c0:	2b02      	cmp	r3, #2
 80011c2:	d901      	bls.n	80011c8 <HAL_RCC_OscConfig+0x47c>
          {
            return HAL_TIMEOUT;
 80011c4:	2303      	movs	r3, #3
 80011c6:	e03d      	b.n	8001244 <HAL_RCC_OscConfig+0x4f8>
        while (__HAL_RCC_GET_FLAG(RCC_FLAG_PLLRDY)  == RESET)
 80011c8:	4b11      	ldr	r3, [pc, #68]	; (8001210 <HAL_RCC_OscConfig+0x4c4>)
 80011ca:	681b      	ldr	r3, [r3, #0]
 80011cc:	f003 7300 	and.w	r3, r3, #33554432	; 0x2000000
 80011d0:	2b00      	cmp	r3, #0
 80011d2:	d0f0      	beq.n	80011b6 <HAL_RCC_OscConfig+0x46a>
 80011d4:	e035      	b.n	8001242 <HAL_RCC_OscConfig+0x4f6>
        }
      }
      else
      {
        /* Disable the main PLL. */
        __HAL_RCC_PLL_DISABLE();
 80011d6:	4b10      	ldr	r3, [pc, #64]	; (8001218 <HAL_RCC_OscConfig+0x4cc>)
 80011d8:	2200      	movs	r2, #0
 80011da:	601a      	str	r2, [r3, #0]

        /* Get Start Tick */
        tickstart = HAL_GetTick();
 80011dc:	f7ff fabc 	bl	8000758 <HAL_GetTick>
 80011e0:	6138      	str	r0, [r7, #16]

        /* Wait till PLL is disabled */
        while (__HAL_RCC_GET_FLAG(RCC_FLAG_PLLRDY)  != RESET)
 80011e2:	e008      	b.n	80011f6 <HAL_RCC_OscConfig+0x4aa>
        {
          if ((HAL_GetTick() - tickstart) > PLL_TIMEOUT_VALUE)
 80011e4:	f7ff fab8 	bl	8000758 <HAL_GetTick>
 80011e8:	4602      	mov	r2, r0
 80011ea:	693b      	ldr	r3, [r7, #16]
 80011ec:	1ad3      	subs	r3, r2, r3
 80011ee:	2b02      	cmp	r3, #2
 80011f0:	d901      	bls.n	80011f6 <HAL_RCC_OscConfig+0x4aa>
          {
            return HAL_TIMEOUT;
 80011f2:	2303      	movs	r3, #3
 80011f4:	e026      	b.n	8001244 <HAL_RCC_OscConfig+0x4f8>
        while (__HAL_RCC_GET_FLAG(RCC_FLAG_PLLRDY)  != RESET)
 80011f6:	4b06      	ldr	r3, [pc, #24]	; (8001210 <HAL_RCC_OscConfig+0x4c4>)
 80011f8:	681b      	ldr	r3, [r3, #0]
 80011fa:	f003 7300 	and.w	r3, r3, #33554432	; 0x2000000
 80011fe:	2b00      	cmp	r3, #0
 8001200:	d1f0      	bne.n	80011e4 <HAL_RCC_OscConfig+0x498>
 8001202:	e01e      	b.n	8001242 <HAL_RCC_OscConfig+0x4f6>
      }
    }
    else
    {
      /* Check if there is a request to disable the PLL used as System clock source */
      if ((RCC_OscInitStruct->PLL.PLLState) == RCC_PLL_OFF)
 8001204:	687b      	ldr	r3, [r7, #4]
 8001206:	69db      	ldr	r3, [r3, #28]
 8001208:	2b01      	cmp	r3, #1
 800120a:	d107      	bne.n	800121c <HAL_RCC_OscConfig+0x4d0>
      {
        return HAL_ERROR;
 800120c:	2301      	movs	r3, #1
 800120e:	e019      	b.n	8001244 <HAL_RCC_OscConfig+0x4f8>
 8001210:	40021000 	.word	0x40021000
 8001214:	40007000 	.word	0x40007000
 8001218:	42420060 	.word	0x42420060
      }
      else
      {
        /* Do not return HAL_ERROR if request repeats the current configuration */
        pll_config = RCC->CFGR;
 800121c:	4b0b      	ldr	r3, [pc, #44]	; (800124c <HAL_RCC_OscConfig+0x500>)
 800121e:	685b      	ldr	r3, [r3, #4]
 8001220:	60fb      	str	r3, [r7, #12]
        if ((READ_BIT(pll_config, RCC_CFGR_PLLSRC) != RCC_OscInitStruct->PLL.PLLSource) ||
 8001222:	68fb      	ldr	r3, [r7, #12]
 8001224:	f403 3280 	and.w	r2, r3, #65536	; 0x10000
 8001228:	687b      	ldr	r3, [r7, #4]
 800122a:	6a1b      	ldr	r3, [r3, #32]
 800122c:	429a      	cmp	r2, r3
 800122e:	d106      	bne.n	800123e <HAL_RCC_OscConfig+0x4f2>
            (READ_BIT(pll_config, RCC_CFGR_PLLMULL) != RCC_OscInitStruct->PLL.PLLMUL))
 8001230:	68fb      	ldr	r3, [r7, #12]
 8001232:	f403 1270 	and.w	r2, r3, #3932160	; 0x3c0000
 8001236:	687b      	ldr	r3, [r7, #4]
 8001238:	6a5b      	ldr	r3, [r3, #36]	; 0x24
        if ((READ_BIT(pll_config, RCC_CFGR_PLLSRC) != RCC_OscInitStruct->PLL.PLLSource) ||
 800123a:	429a      	cmp	r2, r3
 800123c:	d001      	beq.n	8001242 <HAL_RCC_OscConfig+0x4f6>
        {
          return HAL_ERROR;
 800123e:	2301      	movs	r3, #1
 8001240:	e000      	b.n	8001244 <HAL_RCC_OscConfig+0x4f8>
        }
      }
    }
  }

  return HAL_OK;
 8001242:	2300      	movs	r3, #0
}
 8001244:	4618      	mov	r0, r3
 8001246:	3718      	adds	r7, #24
 8001248:	46bd      	mov	sp, r7
 800124a:	bd80      	pop	{r7, pc}
 800124c:	40021000 	.word	0x40021000

08001250 <HAL_RCC_ClockConfig>:
  *         You can use @ref HAL_RCC_GetClockConfig() function to know which clock is
  *         currently used as system clock source.
  * @retval HAL status
  */
HAL_StatusTypeDef HAL_RCC_ClockConfig(RCC_ClkInitTypeDef  *RCC_ClkInitStruct, uint32_t FLatency)
{
 8001250:	b580      	push	{r7, lr}
 8001252:	b084      	sub	sp, #16
 8001254:	af00      	add	r7, sp, #0
 8001256:	6078      	str	r0, [r7, #4]
 8001258:	6039      	str	r1, [r7, #0]
  uint32_t tickstart;

  /* Check Null pointer */
  if (RCC_ClkInitStruct == NULL)
 800125a:	687b      	ldr	r3, [r7, #4]
 800125c:	2b00      	cmp	r3, #0
 800125e:	d101      	bne.n	8001264 <HAL_RCC_ClockConfig+0x14>
  {
    return HAL_ERROR;
 8001260:	2301      	movs	r3, #1
 8001262:	e0d0      	b.n	8001406 <HAL_RCC_ClockConfig+0x1b6>
  must be correctly programmed according to the frequency of the CPU clock
    (HCLK) of the device. */

#if defined(FLASH_ACR_LATENCY)
  /* Increasing the number of wait states because of higher CPU frequency */
  if (FLatency > __HAL_FLASH_GET_LATENCY())
 8001264:	4b6a      	ldr	r3, [pc, #424]	; (8001410 <HAL_RCC_ClockConfig+0x1c0>)
 8001266:	681b      	ldr	r3, [r3, #0]
 8001268:	f003 0307 	and.w	r3, r3, #7
 800126c:	683a      	ldr	r2, [r7, #0]
 800126e:	429a      	cmp	r2, r3
 8001270:	d910      	bls.n	8001294 <HAL_RCC_ClockConfig+0x44>
  {
    /* Program the new number of wait states to the LATENCY bits in the FLASH_ACR register */
    __HAL_FLASH_SET_LATENCY(FLatency);
 8001272:	4b67      	ldr	r3, [pc, #412]	; (8001410 <HAL_RCC_ClockConfig+0x1c0>)
 8001274:	681b      	ldr	r3, [r3, #0]
 8001276:	f023 0207 	bic.w	r2, r3, #7
 800127a:	4965      	ldr	r1, [pc, #404]	; (8001410 <HAL_RCC_ClockConfig+0x1c0>)
 800127c:	683b      	ldr	r3, [r7, #0]
 800127e:	4313      	orrs	r3, r2
 8001280:	600b      	str	r3, [r1, #0]

    /* Check that the new number of wait states is taken into account to access the Flash
    memory by reading the FLASH_ACR register */
    if (__HAL_FLASH_GET_LATENCY() != FLatency)
 8001282:	4b63      	ldr	r3, [pc, #396]	; (8001410 <HAL_RCC_ClockConfig+0x1c0>)
 8001284:	681b      	ldr	r3, [r3, #0]
 8001286:	f003 0307 	and.w	r3, r3, #7
 800128a:	683a      	ldr	r2, [r7, #0]
 800128c:	429a      	cmp	r2, r3
 800128e:	d001      	beq.n	8001294 <HAL_RCC_ClockConfig+0x44>
  {
    return HAL_ERROR;
 8001290:	2301      	movs	r3, #1
 8001292:	e0b8      	b.n	8001406 <HAL_RCC_ClockConfig+0x1b6>
  }
}

#endif /* FLASH_ACR_LATENCY */
/*-------------------------- HCLK Configuration --------------------------*/
if (((RCC_ClkInitStruct->ClockType) & RCC_CLOCKTYPE_HCLK) == RCC_CLOCKTYPE_HCLK)
 8001294:	687b      	ldr	r3, [r7, #4]
 8001296:	681b      	ldr	r3, [r3, #0]
 8001298:	f003 0302 	and.w	r3, r3, #2
 800129c:	2b00      	cmp	r3, #0
 800129e:	d020      	beq.n	80012e2 <HAL_RCC_ClockConfig+0x92>
  {
    /* Set the highest APBx dividers in order to ensure that we do not go through
    a non-spec phase whatever we decrease or increase HCLK. */
    if (((RCC_ClkInitStruct->ClockType) & RCC_CLOCKTYPE_PCLK1) == RCC_CLOCKTYPE_PCLK1)
 80012a0:	687b      	ldr	r3, [r7, #4]
 80012a2:	681b      	ldr	r3, [r3, #0]
 80012a4:	f003 0304 	and.w	r3, r3, #4
 80012a8:	2b00      	cmp	r3, #0
 80012aa:	d005      	beq.n	80012b8 <HAL_RCC_ClockConfig+0x68>
    {
      MODIFY_REG(RCC->CFGR, RCC_CFGR_PPRE1, RCC_HCLK_DIV16);
 80012ac:	4b59      	ldr	r3, [pc, #356]	; (8001414 <HAL_RCC_ClockConfig+0x1c4>)
 80012ae:	685b      	ldr	r3, [r3, #4]
 80012b0:	4a58      	ldr	r2, [pc, #352]	; (8001414 <HAL_RCC_ClockConfig+0x1c4>)
 80012b2:	f443 63e0 	orr.w	r3, r3, #1792	; 0x700
 80012b6:	6053      	str	r3, [r2, #4]
    }

    if (((RCC_ClkInitStruct->ClockType) & RCC_CLOCKTYPE_PCLK2) == RCC_CLOCKTYPE_PCLK2)
 80012b8:	687b      	ldr	r3, [r7, #4]
 80012ba:	681b      	ldr	r3, [r3, #0]
 80012bc:	f003 0308 	and.w	r3, r3, #8
 80012c0:	2b00      	cmp	r3, #0
 80012c2:	d005      	beq.n	80012d0 <HAL_RCC_ClockConfig+0x80>
    {
      MODIFY_REG(RCC->CFGR, RCC_CFGR_PPRE2, (RCC_HCLK_DIV16 << 3));
 80012c4:	4b53      	ldr	r3, [pc, #332]	; (8001414 <HAL_RCC_ClockConfig+0x1c4>)
 80012c6:	685b      	ldr	r3, [r3, #4]
 80012c8:	4a52      	ldr	r2, [pc, #328]	; (8001414 <HAL_RCC_ClockConfig+0x1c4>)
 80012ca:	f443 5360 	orr.w	r3, r3, #14336	; 0x3800
 80012ce:	6053      	str	r3, [r2, #4]
    }

    /* Set the new HCLK clock divider */
    assert_param(IS_RCC_HCLK(RCC_ClkInitStruct->AHBCLKDivider));
    MODIFY_REG(RCC->CFGR, RCC_CFGR_HPRE, RCC_ClkInitStruct->AHBCLKDivider);
 80012d0:	4b50      	ldr	r3, [pc, #320]	; (8001414 <HAL_RCC_ClockConfig+0x1c4>)
 80012d2:	685b      	ldr	r3, [r3, #4]
 80012d4:	f023 02f0 	bic.w	r2, r3, #240	; 0xf0
 80012d8:	687b      	ldr	r3, [r7, #4]
 80012da:	689b      	ldr	r3, [r3, #8]
 80012dc:	494d      	ldr	r1, [pc, #308]	; (8001414 <HAL_RCC_ClockConfig+0x1c4>)
 80012de:	4313      	orrs	r3, r2
 80012e0:	604b      	str	r3, [r1, #4]
  }

  /*------------------------- SYSCLK Configuration ---------------------------*/
  if (((RCC_ClkInitStruct->ClockType) & RCC_CLOCKTYPE_SYSCLK) == RCC_CLOCKTYPE_SYSCLK)
 80012e2:	687b      	ldr	r3, [r7, #4]
 80012e4:	681b      	ldr	r3, [r3, #0]
 80012e6:	f003 0301 	and.w	r3, r3, #1
 80012ea:	2b00      	cmp	r3, #0
 80012ec:	d040      	beq.n	8001370 <HAL_RCC_ClockConfig+0x120>
  {
    assert_param(IS_RCC_SYSCLKSOURCE(RCC_ClkInitStruct->SYSCLKSource));

    /* HSE is selected as System Clock Source */
    if (RCC_ClkInitStruct->SYSCLKSource == RCC_SYSCLKSOURCE_HSE)
 80012ee:	687b      	ldr	r3, [r7, #4]
 80012f0:	685b      	ldr	r3, [r3, #4]
 80012f2:	2b01      	cmp	r3, #1
 80012f4:	d107      	bne.n	8001306 <HAL_RCC_ClockConfig+0xb6>
    {
      /* Check the HSE ready flag */
      if (__HAL_RCC_GET_FLAG(RCC_FLAG_HSERDY) == RESET)
 80012f6:	4b47      	ldr	r3, [pc, #284]	; (8001414 <HAL_RCC_ClockConfig+0x1c4>)
 80012f8:	681b      	ldr	r3, [r3, #0]
 80012fa:	f403 3300 	and.w	r3, r3, #131072	; 0x20000
 80012fe:	2b00      	cmp	r3, #0
 8001300:	d115      	bne.n	800132e <HAL_RCC_ClockConfig+0xde>
      {
        return HAL_ERROR;
 8001302:	2301      	movs	r3, #1
 8001304:	e07f      	b.n	8001406 <HAL_RCC_ClockConfig+0x1b6>
      }
    }
    /* PLL is selected as System Clock Source */
    else if (RCC_ClkInitStruct->SYSCLKSource == RCC_SYSCLKSOURCE_PLLCLK)
 8001306:	687b      	ldr	r3, [r7, #4]
 8001308:	685b      	ldr	r3, [r3, #4]
 800130a:	2b02      	cmp	r3, #2
 800130c:	d107      	bne.n	800131e <HAL_RCC_ClockConfig+0xce>
    {
      /* Check the PLL ready flag */
      if (__HAL_RCC_GET_FLAG(RCC_FLAG_PLLRDY) == RESET)
 800130e:	4b41      	ldr	r3, [pc, #260]	; (8001414 <HAL_RCC_ClockConfig+0x1c4>)
 8001310:	681b      	ldr	r3, [r3, #0]
 8001312:	f003 7300 	and.w	r3, r3, #33554432	; 0x2000000
 8001316:	2b00      	cmp	r3, #0
 8001318:	d109      	bne.n	800132e <HAL_RCC_ClockConfig+0xde>
      {
        return HAL_ERROR;
 800131a:	2301      	movs	r3, #1
 800131c:	e073      	b.n	8001406 <HAL_RCC_ClockConfig+0x1b6>
    }
    /* HSI is selected as System Clock Source */
    else
    {
      /* Check the HSI ready flag */
      if (__HAL_RCC_GET_FLAG(RCC_FLAG_HSIRDY) == RESET)
 800131e:	4b3d      	ldr	r3, [pc, #244]	; (8001414 <HAL_RCC_ClockConfig+0x1c4>)
 8001320:	681b      	ldr	r3, [r3, #0]
 8001322:	f003 0302 	and.w	r3, r3, #2
 8001326:	2b00      	cmp	r3, #0
 8001328:	d101      	bne.n	800132e <HAL_RCC_ClockConfig+0xde>
      {
        return HAL_ERROR;
 800132a:	2301      	movs	r3, #1
 800132c:	e06b      	b.n	8001406 <HAL_RCC_ClockConfig+0x1b6>
      }
    }
    __HAL_RCC_SYSCLK_CONFIG(RCC_ClkInitStruct->SYSCLKSource);
 800132e:	4b39      	ldr	r3, [pc, #228]	; (8001414 <HAL_RCC_ClockConfig+0x1c4>)
 8001330:	685b      	ldr	r3, [r3, #4]
 8001332:	f023 0203 	bic.w	r2, r3, #3
 8001336:	687b      	ldr	r3, [r7, #4]
 8001338:	685b      	ldr	r3, [r3, #4]
 800133a:	4936      	ldr	r1, [pc, #216]	; (8001414 <HAL_RCC_ClockConfig+0x1c4>)
 800133c:	4313      	orrs	r3, r2
 800133e:	604b      	str	r3, [r1, #4]

    /* Get Start Tick */
    tickstart = HAL_GetTick();
 8001340:	f7ff fa0a 	bl	8000758 <HAL_GetTick>
 8001344:	60f8      	str	r0, [r7, #12]

    while (__HAL_RCC_GET_SYSCLK_SOURCE() != (RCC_ClkInitStruct->SYSCLKSource << RCC_CFGR_SWS_Pos))
 8001346:	e00a      	b.n	800135e <HAL_RCC_ClockConfig+0x10e>
    {
      if ((HAL_GetTick() - tickstart) > CLOCKSWITCH_TIMEOUT_VALUE)
 8001348:	f7ff fa06 	bl	8000758 <HAL_GetTick>
 800134c:	4602      	mov	r2, r0
 800134e:	68fb      	ldr	r3, [r7, #12]
 8001350:	1ad3      	subs	r3, r2, r3
 8001352:	f241 3288 	movw	r2, #5000	; 0x1388
 8001356:	4293      	cmp	r3, r2
 8001358:	d901      	bls.n	800135e <HAL_RCC_ClockConfig+0x10e>
      {
        return HAL_TIMEOUT;
 800135a:	2303      	movs	r3, #3
 800135c:	e053      	b.n	8001406 <HAL_RCC_ClockConfig+0x1b6>
    while (__HAL_RCC_GET_SYSCLK_SOURCE() != (RCC_ClkInitStruct->SYSCLKSource << RCC_CFGR_SWS_Pos))
 800135e:	4b2d      	ldr	r3, [pc, #180]	; (8001414 <HAL_RCC_ClockConfig+0x1c4>)
 8001360:	685b      	ldr	r3, [r3, #4]
 8001362:	f003 020c 	and.w	r2, r3, #12
 8001366:	687b      	ldr	r3, [r7, #4]
 8001368:	685b      	ldr	r3, [r3, #4]
 800136a:	009b      	lsls	r3, r3, #2
 800136c:	429a      	cmp	r2, r3
 800136e:	d1eb      	bne.n	8001348 <HAL_RCC_ClockConfig+0xf8>
    }
  }

#if defined(FLASH_ACR_LATENCY)
  /* Decreasing the number of wait states because of lower CPU frequency */
  if (FLatency < __HAL_FLASH_GET_LATENCY())
 8001370:	4b27      	ldr	r3, [pc, #156]	; (8001410 <HAL_RCC_ClockConfig+0x1c0>)
 8001372:	681b      	ldr	r3, [r3, #0]
 8001374:	f003 0307 	and.w	r3, r3, #7
 8001378:	683a      	ldr	r2, [r7, #0]
 800137a:	429a      	cmp	r2, r3
 800137c:	d210      	bcs.n	80013a0 <HAL_RCC_ClockConfig+0x150>
  {
    /* Program the new number of wait states to the LATENCY bits in the FLASH_ACR register */
    __HAL_FLASH_SET_LATENCY(FLatency);
 800137e:	4b24      	ldr	r3, [pc, #144]	; (8001410 <HAL_RCC_ClockConfig+0x1c0>)
 8001380:	681b      	ldr	r3, [r3, #0]
 8001382:	f023 0207 	bic.w	r2, r3, #7
 8001386:	4922      	ldr	r1, [pc, #136]	; (8001410 <HAL_RCC_ClockConfig+0x1c0>)
 8001388:	683b      	ldr	r3, [r7, #0]
 800138a:	4313      	orrs	r3, r2
 800138c:	600b      	str	r3, [r1, #0]

    /* Check that the new number of wait states is taken into account to access the Flash
    memory by reading the FLASH_ACR register */
    if (__HAL_FLASH_GET_LATENCY() != FLatency)
 800138e:	4b20      	ldr	r3, [pc, #128]	; (8001410 <HAL_RCC_ClockConfig+0x1c0>)
 8001390:	681b      	ldr	r3, [r3, #0]
 8001392:	f003 0307 	and.w	r3, r3, #7
 8001396:	683a      	ldr	r2, [r7, #0]
 8001398:	429a      	cmp	r2, r3
 800139a:	d001      	beq.n	80013a0 <HAL_RCC_ClockConfig+0x150>
  {
    return HAL_ERROR;
 800139c:	2301      	movs	r3, #1
 800139e:	e032      	b.n	8001406 <HAL_RCC_ClockConfig+0x1b6>
  }
}
#endif /* FLASH_ACR_LATENCY */

/*-------------------------- PCLK1 Configuration ---------------------------*/
if (((RCC_ClkInitStruct->ClockType) & RCC_CLOCKTYPE_PCLK1) == RCC_CLOCKTYPE_PCLK1)
 80013a0:	687b      	ldr	r3, [r7, #4]
 80013a2:	681b      	ldr	r3, [r3, #0]
 80013a4:	f003 0304 	and.w	r3, r3, #4
 80013a8:	2b00      	cmp	r3, #0
 80013aa:	d008      	beq.n	80013be <HAL_RCC_ClockConfig+0x16e>
  {
    assert_param(IS_RCC_PCLK(RCC_ClkInitStruct->APB1CLKDivider));
    MODIFY_REG(RCC->CFGR, RCC_CFGR_PPRE1, RCC_ClkInitStruct->APB1CLKDivider);
 80013ac:	4b19      	ldr	r3, [pc, #100]	; (8001414 <HAL_RCC_ClockConfig+0x1c4>)
 80013ae:	685b      	ldr	r3, [r3, #4]
 80013b0:	f423 62e0 	bic.w	r2, r3, #1792	; 0x700
 80013b4:	687b      	ldr	r3, [r7, #4]
 80013b6:	68db      	ldr	r3, [r3, #12]
 80013b8:	4916      	ldr	r1, [pc, #88]	; (8001414 <HAL_RCC_ClockConfig+0x1c4>)
 80013ba:	4313      	orrs	r3, r2
 80013bc:	604b      	str	r3, [r1, #4]
  }

  /*-------------------------- PCLK2 Configuration ---------------------------*/
  if (((RCC_ClkInitStruct->ClockType) & RCC_CLOCKTYPE_PCLK2) == RCC_CLOCKTYPE_PCLK2)
 80013be:	687b      	ldr	r3, [r7, #4]
 80013c0:	681b      	ldr	r3, [r3, #0]
 80013c2:	f003 0308 	and.w	r3, r3, #8
 80013c6:	2b00      	cmp	r3, #0
 80013c8:	d009      	beq.n	80013de <HAL_RCC_ClockConfig+0x18e>
  {
    assert_param(IS_RCC_PCLK(RCC_ClkInitStruct->APB2CLKDivider));
    MODIFY_REG(RCC->CFGR, RCC_CFGR_PPRE2, ((RCC_ClkInitStruct->APB2CLKDivider) << 3));
 80013ca:	4b12      	ldr	r3, [pc, #72]	; (8001414 <HAL_RCC_ClockConfig+0x1c4>)
 80013cc:	685b      	ldr	r3, [r3, #4]
 80013ce:	f423 5260 	bic.w	r2, r3, #14336	; 0x3800
 80013d2:	687b      	ldr	r3, [r7, #4]
 80013d4:	691b      	ldr	r3, [r3, #16]
 80013d6:	00db      	lsls	r3, r3, #3
 80013d8:	490e      	ldr	r1, [pc, #56]	; (8001414 <HAL_RCC_ClockConfig+0x1c4>)
 80013da:	4313      	orrs	r3, r2
 80013dc:	604b      	str	r3, [r1, #4]
  }

  /* Update the SystemCoreClock global variable */
  SystemCoreClock = HAL_RCC_GetSysClockFreq() >> AHBPrescTable[(RCC->CFGR & RCC_CFGR_HPRE) >> RCC_CFGR_HPRE_Pos];
 80013de:	f000 f821 	bl	8001424 <HAL_RCC_GetSysClockFreq>
 80013e2:	4602      	mov	r2, r0
 80013e4:	4b0b      	ldr	r3, [pc, #44]	; (8001414 <HAL_RCC_ClockConfig+0x1c4>)
 80013e6:	685b      	ldr	r3, [r3, #4]
 80013e8:	091b      	lsrs	r3, r3, #4
 80013ea:	f003 030f 	and.w	r3, r3, #15
 80013ee:	490a      	ldr	r1, [pc, #40]	; (8001418 <HAL_RCC_ClockConfig+0x1c8>)
 80013f0:	5ccb      	ldrb	r3, [r1, r3]
 80013f2:	fa22 f303 	lsr.w	r3, r2, r3
 80013f6:	4a09      	ldr	r2, [pc, #36]	; (800141c <HAL_RCC_ClockConfig+0x1cc>)
 80013f8:	6013      	str	r3, [r2, #0]

  /* Configure the source of time base considering new system clocks settings*/
  HAL_InitTick(uwTickPrio);
 80013fa:	4b09      	ldr	r3, [pc, #36]	; (8001420 <HAL_RCC_ClockConfig+0x1d0>)
 80013fc:	681b      	ldr	r3, [r3, #0]
 80013fe:	4618      	mov	r0, r3
 8001400:	f7ff f968 	bl	80006d4 <HAL_InitTick>

  return HAL_OK;
 8001404:	2300      	movs	r3, #0
}
 8001406:	4618      	mov	r0, r3
 8001408:	3710      	adds	r7, #16
 800140a:	46bd      	mov	sp, r7
 800140c:	bd80      	pop	{r7, pc}
 800140e:	bf00      	nop
 8001410:	40022000 	.word	0x40022000
 8001414:	40021000 	.word	0x40021000
 8001418:	080025e4 	.word	0x080025e4
 800141c:	20000000 	.word	0x20000000
 8001420:	20000004 	.word	0x20000004

08001424 <HAL_RCC_GetSysClockFreq>:
  *         right SYSCLK value. Otherwise, any configuration based on this function will be incorrect.
  *
  * @retval SYSCLK frequency
  */
uint32_t HAL_RCC_GetSysClockFreq(void)
{
 8001424:	b490      	push	{r4, r7}
 8001426:	b08a      	sub	sp, #40	; 0x28
 8001428:	af00      	add	r7, sp, #0
#if defined(RCC_CFGR2_PREDIV1SRC)
  const uint8_t aPLLMULFactorTable[14] = {0, 0, 4, 5, 6, 7, 8, 9, 0, 0, 0, 0, 0, 13};
  const uint8_t aPredivFactorTable[16] = {1, 2, 3, 4, 5, 6, 7, 8, 9, 10, 11, 12, 13, 14, 15, 16};
#else
  const uint8_t aPLLMULFactorTable[16] = {2, 3, 4, 5, 6, 7, 8, 9, 10, 11, 12, 13, 14, 15, 16, 16};
 800142a:	4b29      	ldr	r3, [pc, #164]	; (80014d0 <HAL_RCC_GetSysClockFreq+0xac>)
 800142c:	1d3c      	adds	r4, r7, #4
 800142e:	cb0f      	ldmia	r3, {r0, r1, r2, r3}
 8001430:	e884 000f 	stmia.w	r4, {r0, r1, r2, r3}
#if defined(RCC_CFGR2_PREDIV1)
  const uint8_t aPredivFactorTable[16] = {1, 2, 3, 4, 5, 6, 7, 8, 9, 10, 11, 12, 13, 14, 15, 16};
#else
  const uint8_t aPredivFactorTable[2] = {1, 2};
 8001434:	f240 2301 	movw	r3, #513	; 0x201
 8001438:	803b      	strh	r3, [r7, #0]
#endif /*RCC_CFGR2_PREDIV1*/

#endif
  uint32_t tmpreg = 0U, prediv = 0U, pllclk = 0U, pllmul = 0U;
 800143a:	2300      	movs	r3, #0
 800143c:	61fb      	str	r3, [r7, #28]
 800143e:	2300      	movs	r3, #0
 8001440:	61bb      	str	r3, [r7, #24]
 8001442:	2300      	movs	r3, #0
 8001444:	627b      	str	r3, [r7, #36]	; 0x24
 8001446:	2300      	movs	r3, #0
 8001448:	617b      	str	r3, [r7, #20]
  uint32_t sysclockfreq = 0U;
 800144a:	2300      	movs	r3, #0
 800144c:	623b      	str	r3, [r7, #32]
#if defined(RCC_CFGR2_PREDIV1SRC)
  uint32_t prediv2 = 0U, pll2mul = 0U;
#endif /*RCC_CFGR2_PREDIV1SRC*/

  tmpreg = RCC->CFGR;
 800144e:	4b21      	ldr	r3, [pc, #132]	; (80014d4 <HAL_RCC_GetSysClockFreq+0xb0>)
 8001450:	685b      	ldr	r3, [r3, #4]
 8001452:	61fb      	str	r3, [r7, #28]

  /* Get SYSCLK source -------------------------------------------------------*/
  switch (tmpreg & RCC_CFGR_SWS)
 8001454:	69fb      	ldr	r3, [r7, #28]
 8001456:	f003 030c 	and.w	r3, r3, #12
 800145a:	2b04      	cmp	r3, #4
 800145c:	d002      	beq.n	8001464 <HAL_RCC_GetSysClockFreq+0x40>
 800145e:	2b08      	cmp	r3, #8
 8001460:	d003      	beq.n	800146a <HAL_RCC_GetSysClockFreq+0x46>
 8001462:	e02b      	b.n	80014bc <HAL_RCC_GetSysClockFreq+0x98>
  {
    case RCC_SYSCLKSOURCE_STATUS_HSE:  /* HSE used as system clock */
    {
      sysclockfreq = HSE_VALUE;
 8001464:	4b1c      	ldr	r3, [pc, #112]	; (80014d8 <HAL_RCC_GetSysClockFreq+0xb4>)
 8001466:	623b      	str	r3, [r7, #32]
      break;
 8001468:	e02b      	b.n	80014c2 <HAL_RCC_GetSysClockFreq+0x9e>
    }
    case RCC_SYSCLKSOURCE_STATUS_PLLCLK:  /* PLL used as system clock */
    {
      pllmul = aPLLMULFactorTable[(uint32_t)(tmpreg & RCC_CFGR_PLLMULL) >> RCC_CFGR_PLLMULL_Pos];
 800146a:	69fb      	ldr	r3, [r7, #28]
 800146c:	0c9b      	lsrs	r3, r3, #18
 800146e:	f003 030f 	and.w	r3, r3, #15
 8001472:	3328      	adds	r3, #40	; 0x28
 8001474:	443b      	add	r3, r7
 8001476:	f813 3c24 	ldrb.w	r3, [r3, #-36]
 800147a:	617b      	str	r3, [r7, #20]
      if ((tmpreg & RCC_CFGR_PLLSRC) != RCC_PLLSOURCE_HSI_DIV2)
 800147c:	69fb      	ldr	r3, [r7, #28]
 800147e:	f403 3380 	and.w	r3, r3, #65536	; 0x10000
 8001482:	2b00      	cmp	r3, #0
 8001484:	d012      	beq.n	80014ac <HAL_RCC_GetSysClockFreq+0x88>
      {
#if defined(RCC_CFGR2_PREDIV1)
        prediv = aPredivFactorTable[(uint32_t)(RCC->CFGR2 & RCC_CFGR2_PREDIV1) >> RCC_CFGR2_PREDIV1_Pos];
#else
        prediv = aPredivFactorTable[(uint32_t)(RCC->CFGR & RCC_CFGR_PLLXTPRE) >> RCC_CFGR_PLLXTPRE_Pos];
 8001486:	4b13      	ldr	r3, [pc, #76]	; (80014d4 <HAL_RCC_GetSysClockFreq+0xb0>)
 8001488:	685b      	ldr	r3, [r3, #4]
 800148a:	0c5b      	lsrs	r3, r3, #17
 800148c:	f003 0301 	and.w	r3, r3, #1
 8001490:	3328      	adds	r3, #40	; 0x28
 8001492:	443b      	add	r3, r7
 8001494:	f813 3c28 	ldrb.w	r3, [r3, #-40]
 8001498:	61bb      	str	r3, [r7, #24]
        {
          pllclk = pllclk / 2;
        }
#else
        /* HSE used as PLL clock source : PLLCLK = HSE/PREDIV1 * PLLMUL */
        pllclk = (uint32_t)((HSE_VALUE  * pllmul) / prediv);
 800149a:	697b      	ldr	r3, [r7, #20]
 800149c:	4a0e      	ldr	r2, [pc, #56]	; (80014d8 <HAL_RCC_GetSysClockFreq+0xb4>)
 800149e:	fb03 f202 	mul.w	r2, r3, r2
 80014a2:	69bb      	ldr	r3, [r7, #24]
 80014a4:	fbb2 f3f3 	udiv	r3, r2, r3
 80014a8:	627b      	str	r3, [r7, #36]	; 0x24
 80014aa:	e004      	b.n	80014b6 <HAL_RCC_GetSysClockFreq+0x92>
#endif /*RCC_CFGR2_PREDIV1SRC*/
      }
      else
      {
        /* HSI used as PLL clock source : PLLCLK = HSI/2 * PLLMUL */
        pllclk = (uint32_t)((HSI_VALUE >> 1) * pllmul);
 80014ac:	697b      	ldr	r3, [r7, #20]
 80014ae:	4a0b      	ldr	r2, [pc, #44]	; (80014dc <HAL_RCC_GetSysClockFreq+0xb8>)
 80014b0:	fb02 f303 	mul.w	r3, r2, r3
 80014b4:	627b      	str	r3, [r7, #36]	; 0x24
      }
      sysclockfreq = pllclk;
 80014b6:	6a7b      	ldr	r3, [r7, #36]	; 0x24
 80014b8:	623b      	str	r3, [r7, #32]
      break;
 80014ba:	e002      	b.n	80014c2 <HAL_RCC_GetSysClockFreq+0x9e>
    }
    case RCC_SYSCLKSOURCE_STATUS_HSI:  /* HSI used as system clock source */
    default: /* HSI used as system clock */
    {
      sysclockfreq = HSI_VALUE;
 80014bc:	4b06      	ldr	r3, [pc, #24]	; (80014d8 <HAL_RCC_GetSysClockFreq+0xb4>)
 80014be:	623b      	str	r3, [r7, #32]
      break;
 80014c0:	bf00      	nop
    }
  }
  return sysclockfreq;
 80014c2:	6a3b      	ldr	r3, [r7, #32]
}
 80014c4:	4618      	mov	r0, r3
 80014c6:	3728      	adds	r7, #40	; 0x28
 80014c8:	46bd      	mov	sp, r7
 80014ca:	bc90      	pop	{r4, r7}
 80014cc:	4770      	bx	lr
 80014ce:	bf00      	nop
 80014d0:	080025d4 	.word	0x080025d4
 80014d4:	40021000 	.word	0x40021000
 80014d8:	007a1200 	.word	0x007a1200
 80014dc:	003d0900 	.word	0x003d0900

080014e0 <HAL_RCC_GetHCLKFreq>:
  * @note   The SystemCoreClock CMSIS variable is used to store System Clock Frequency
  *         and updated within this function
  * @retval HCLK frequency
  */
uint32_t HAL_RCC_GetHCLKFreq(void)
{
 80014e0:	b480      	push	{r7}
 80014e2:	af00      	add	r7, sp, #0
  return SystemCoreClock;
 80014e4:	4b02      	ldr	r3, [pc, #8]	; (80014f0 <HAL_RCC_GetHCLKFreq+0x10>)
 80014e6:	681b      	ldr	r3, [r3, #0]
}
 80014e8:	4618      	mov	r0, r3
 80014ea:	46bd      	mov	sp, r7
 80014ec:	bc80      	pop	{r7}
 80014ee:	4770      	bx	lr
 80014f0:	20000000 	.word	0x20000000

080014f4 <HAL_RCC_GetPCLK1Freq>:
  * @note   Each time PCLK1 changes, this function must be called to update the
  *         right PCLK1 value. Otherwise, any configuration based on this function will be incorrect.
  * @retval PCLK1 frequency
  */
uint32_t HAL_RCC_GetPCLK1Freq(void)
{
 80014f4:	b580      	push	{r7, lr}
 80014f6:	af00      	add	r7, sp, #0
  /* Get HCLK source and Compute PCLK1 frequency ---------------------------*/
  return (HAL_RCC_GetHCLKFreq() >> APBPrescTable[(RCC->CFGR & RCC_CFGR_PPRE1) >> RCC_CFGR_PPRE1_Pos]);
 80014f8:	f7ff fff2 	bl	80014e0 <HAL_RCC_GetHCLKFreq>
 80014fc:	4602      	mov	r2, r0
 80014fe:	4b05      	ldr	r3, [pc, #20]	; (8001514 <HAL_RCC_GetPCLK1Freq+0x20>)
 8001500:	685b      	ldr	r3, [r3, #4]
 8001502:	0a1b      	lsrs	r3, r3, #8
 8001504:	f003 0307 	and.w	r3, r3, #7
 8001508:	4903      	ldr	r1, [pc, #12]	; (8001518 <HAL_RCC_GetPCLK1Freq+0x24>)
 800150a:	5ccb      	ldrb	r3, [r1, r3]
 800150c:	fa22 f303 	lsr.w	r3, r2, r3
}
 8001510:	4618      	mov	r0, r3
 8001512:	bd80      	pop	{r7, pc}
 8001514:	40021000 	.word	0x40021000
 8001518:	080025f4 	.word	0x080025f4

0800151c <HAL_RCC_GetPCLK2Freq>:
  * @note   Each time PCLK2 changes, this function must be called to update the
  *         right PCLK2 value. Otherwise, any configuration based on this function will be incorrect.
  * @retval PCLK2 frequency
  */
uint32_t HAL_RCC_GetPCLK2Freq(void)
{
 800151c:	b580      	push	{r7, lr}
 800151e:	af00      	add	r7, sp, #0
  /* Get HCLK source and Compute PCLK2 frequency ---------------------------*/
  return (HAL_RCC_GetHCLKFreq() >> APBPrescTable[(RCC->CFGR & RCC_CFGR_PPRE2) >> RCC_CFGR_PPRE2_Pos]);
 8001520:	f7ff ffde 	bl	80014e0 <HAL_RCC_GetHCLKFreq>
 8001524:	4602      	mov	r2, r0
 8001526:	4b05      	ldr	r3, [pc, #20]	; (800153c <HAL_RCC_GetPCLK2Freq+0x20>)
 8001528:	685b      	ldr	r3, [r3, #4]
 800152a:	0adb      	lsrs	r3, r3, #11
 800152c:	f003 0307 	and.w	r3, r3, #7
 8001530:	4903      	ldr	r1, [pc, #12]	; (8001540 <HAL_RCC_GetPCLK2Freq+0x24>)
 8001532:	5ccb      	ldrb	r3, [r1, r3]
 8001534:	fa22 f303 	lsr.w	r3, r2, r3
}
 8001538:	4618      	mov	r0, r3
 800153a:	bd80      	pop	{r7, pc}
 800153c:	40021000 	.word	0x40021000
 8001540:	080025f4 	.word	0x080025f4

08001544 <RCC_Delay>:
  * @brief  This function provides delay (in milliseconds) based on CPU cycles method.
  * @param  mdelay: specifies the delay time length, in milliseconds.
  * @retval None
  */
static void RCC_Delay(uint32_t mdelay)
{
 8001544:	b480      	push	{r7}
 8001546:	b085      	sub	sp, #20
 8001548:	af00      	add	r7, sp, #0
 800154a:	6078      	str	r0, [r7, #4]
  __IO uint32_t Delay = mdelay * (SystemCoreClock / 8U / 1000U);
 800154c:	4b0a      	ldr	r3, [pc, #40]	; (8001578 <RCC_Delay+0x34>)
 800154e:	681b      	ldr	r3, [r3, #0]
 8001550:	4a0a      	ldr	r2, [pc, #40]	; (800157c <RCC_Delay+0x38>)
 8001552:	fba2 2303 	umull	r2, r3, r2, r3
 8001556:	0a5b      	lsrs	r3, r3, #9
 8001558:	687a      	ldr	r2, [r7, #4]
 800155a:	fb02 f303 	mul.w	r3, r2, r3
 800155e:	60fb      	str	r3, [r7, #12]
  do
  {
    __NOP();
 8001560:	bf00      	nop
  }
  while (Delay --);
 8001562:	68fb      	ldr	r3, [r7, #12]
 8001564:	1e5a      	subs	r2, r3, #1
 8001566:	60fa      	str	r2, [r7, #12]
 8001568:	2b00      	cmp	r3, #0
 800156a:	d1f9      	bne.n	8001560 <RCC_Delay+0x1c>
}
 800156c:	bf00      	nop
 800156e:	bf00      	nop
 8001570:	3714      	adds	r7, #20
 8001572:	46bd      	mov	sp, r7
 8001574:	bc80      	pop	{r7}
 8001576:	4770      	bx	lr
 8001578:	20000000 	.word	0x20000000
 800157c:	10624dd3 	.word	0x10624dd3

08001580 <HAL_TIM_Base_Init>:
  *         Ex: call @ref HAL_TIM_Base_DeInit() before HAL_TIM_Base_Init()
  * @param  htim TIM Base handle
  * @retval HAL status
  */
HAL_StatusTypeDef HAL_TIM_Base_Init(TIM_HandleTypeDef *htim)
{
 8001580:	b580      	push	{r7, lr}
 8001582:	b082      	sub	sp, #8
 8001584:	af00      	add	r7, sp, #0
 8001586:	6078      	str	r0, [r7, #4]
  /* Check the TIM handle allocation */
  if (htim == NULL)
 8001588:	687b      	ldr	r3, [r7, #4]
 800158a:	2b00      	cmp	r3, #0
 800158c:	d101      	bne.n	8001592 <HAL_TIM_Base_Init+0x12>
  {
    return HAL_ERROR;
 800158e:	2301      	movs	r3, #1
 8001590:	e041      	b.n	8001616 <HAL_TIM_Base_Init+0x96>
  assert_param(IS_TIM_INSTANCE(htim->Instance));
  assert_param(IS_TIM_COUNTER_MODE(htim->Init.CounterMode));
  assert_param(IS_TIM_CLOCKDIVISION_DIV(htim->Init.ClockDivision));
  assert_param(IS_TIM_AUTORELOAD_PRELOAD(htim->Init.AutoReloadPreload));

  if (htim->State == HAL_TIM_STATE_RESET)
 8001592:	687b      	ldr	r3, [r7, #4]
 8001594:	f893 303d 	ldrb.w	r3, [r3, #61]	; 0x3d
 8001598:	b2db      	uxtb	r3, r3
 800159a:	2b00      	cmp	r3, #0
 800159c:	d106      	bne.n	80015ac <HAL_TIM_Base_Init+0x2c>
  {
    /* Allocate lock resource and initialize it */
    htim->Lock = HAL_UNLOCKED;
 800159e:	687b      	ldr	r3, [r7, #4]
 80015a0:	2200      	movs	r2, #0
 80015a2:	f883 203c 	strb.w	r2, [r3, #60]	; 0x3c
    }
    /* Init the low level hardware : GPIO, CLOCK, NVIC */
    htim->Base_MspInitCallback(htim);
#else
    /* Init the low level hardware : GPIO, CLOCK, NVIC */
    HAL_TIM_Base_MspInit(htim);
 80015a6:	6878      	ldr	r0, [r7, #4]
 80015a8:	f7fe ff86 	bl	80004b8 <HAL_TIM_Base_MspInit>
#endif /* USE_HAL_TIM_REGISTER_CALLBACKS */
  }

  /* Set the TIM state */
  htim->State = HAL_TIM_STATE_BUSY;
 80015ac:	687b      	ldr	r3, [r7, #4]
 80015ae:	2202      	movs	r2, #2
 80015b0:	f883 203d 	strb.w	r2, [r3, #61]	; 0x3d

  /* Set the Time Base configuration */
  TIM_Base_SetConfig(htim->Instance, &htim->Init);
 80015b4:	687b      	ldr	r3, [r7, #4]
 80015b6:	681a      	ldr	r2, [r3, #0]
 80015b8:	687b      	ldr	r3, [r7, #4]
 80015ba:	3304      	adds	r3, #4
 80015bc:	4619      	mov	r1, r3
 80015be:	4610      	mov	r0, r2
 80015c0:	f000 fbe0 	bl	8001d84 <TIM_Base_SetConfig>

  /* Initialize the DMA burst operation state */
  htim->DMABurstState = HAL_DMA_BURST_STATE_READY;
 80015c4:	687b      	ldr	r3, [r7, #4]
 80015c6:	2201      	movs	r2, #1
 80015c8:	f883 2046 	strb.w	r2, [r3, #70]	; 0x46

  /* Initialize the TIM channels state */
  TIM_CHANNEL_STATE_SET_ALL(htim, HAL_TIM_CHANNEL_STATE_READY);
 80015cc:	687b      	ldr	r3, [r7, #4]
 80015ce:	2201      	movs	r2, #1
 80015d0:	f883 203e 	strb.w	r2, [r3, #62]	; 0x3e
 80015d4:	687b      	ldr	r3, [r7, #4]
 80015d6:	2201      	movs	r2, #1
 80015d8:	f883 203f 	strb.w	r2, [r3, #63]	; 0x3f
 80015dc:	687b      	ldr	r3, [r7, #4]
 80015de:	2201      	movs	r2, #1
 80015e0:	f883 2040 	strb.w	r2, [r3, #64]	; 0x40
 80015e4:	687b      	ldr	r3, [r7, #4]
 80015e6:	2201      	movs	r2, #1
 80015e8:	f883 2041 	strb.w	r2, [r3, #65]	; 0x41
  TIM_CHANNEL_N_STATE_SET_ALL(htim, HAL_TIM_CHANNEL_STATE_READY);
 80015ec:	687b      	ldr	r3, [r7, #4]
 80015ee:	2201      	movs	r2, #1
 80015f0:	f883 2042 	strb.w	r2, [r3, #66]	; 0x42
 80015f4:	687b      	ldr	r3, [r7, #4]
 80015f6:	2201      	movs	r2, #1
 80015f8:	f883 2043 	strb.w	r2, [r3, #67]	; 0x43
 80015fc:	687b      	ldr	r3, [r7, #4]
 80015fe:	2201      	movs	r2, #1
 8001600:	f883 2044 	strb.w	r2, [r3, #68]	; 0x44
 8001604:	687b      	ldr	r3, [r7, #4]
 8001606:	2201      	movs	r2, #1
 8001608:	f883 2045 	strb.w	r2, [r3, #69]	; 0x45

  /* Initialize the TIM state*/
  htim->State = HAL_TIM_STATE_READY;
 800160c:	687b      	ldr	r3, [r7, #4]
 800160e:	2201      	movs	r2, #1
 8001610:	f883 203d 	strb.w	r2, [r3, #61]	; 0x3d

  return HAL_OK;
 8001614:	2300      	movs	r3, #0
}
 8001616:	4618      	mov	r0, r3
 8001618:	3708      	adds	r7, #8
 800161a:	46bd      	mov	sp, r7
 800161c:	bd80      	pop	{r7, pc}

0800161e <HAL_TIM_PWM_Init>:
  *         Ex: call @ref HAL_TIM_PWM_DeInit() before HAL_TIM_PWM_Init()
  * @param  htim TIM PWM handle
  * @retval HAL status
  */
HAL_StatusTypeDef HAL_TIM_PWM_Init(TIM_HandleTypeDef *htim)
{
 800161e:	b580      	push	{r7, lr}
 8001620:	b082      	sub	sp, #8
 8001622:	af00      	add	r7, sp, #0
 8001624:	6078      	str	r0, [r7, #4]
  /* Check the TIM handle allocation */
  if (htim == NULL)
 8001626:	687b      	ldr	r3, [r7, #4]
 8001628:	2b00      	cmp	r3, #0
 800162a:	d101      	bne.n	8001630 <HAL_TIM_PWM_Init+0x12>
  {
    return HAL_ERROR;
 800162c:	2301      	movs	r3, #1
 800162e:	e041      	b.n	80016b4 <HAL_TIM_PWM_Init+0x96>
  assert_param(IS_TIM_INSTANCE(htim->Instance));
  assert_param(IS_TIM_COUNTER_MODE(htim->Init.CounterMode));
  assert_param(IS_TIM_CLOCKDIVISION_DIV(htim->Init.ClockDivision));
  assert_param(IS_TIM_AUTORELOAD_PRELOAD(htim->Init.AutoReloadPreload));

  if (htim->State == HAL_TIM_STATE_RESET)
 8001630:	687b      	ldr	r3, [r7, #4]
 8001632:	f893 303d 	ldrb.w	r3, [r3, #61]	; 0x3d
 8001636:	b2db      	uxtb	r3, r3
 8001638:	2b00      	cmp	r3, #0
 800163a:	d106      	bne.n	800164a <HAL_TIM_PWM_Init+0x2c>
  {
    /* Allocate lock resource and initialize it */
    htim->Lock = HAL_UNLOCKED;
 800163c:	687b      	ldr	r3, [r7, #4]
 800163e:	2200      	movs	r2, #0
 8001640:	f883 203c 	strb.w	r2, [r3, #60]	; 0x3c
    }
    /* Init the low level hardware : GPIO, CLOCK, NVIC */
    htim->PWM_MspInitCallback(htim);
#else
    /* Init the low level hardware : GPIO, CLOCK, NVIC and DMA */
    HAL_TIM_PWM_MspInit(htim);
 8001644:	6878      	ldr	r0, [r7, #4]
 8001646:	f000 f839 	bl	80016bc <HAL_TIM_PWM_MspInit>
#endif /* USE_HAL_TIM_REGISTER_CALLBACKS */
  }

  /* Set the TIM state */
  htim->State = HAL_TIM_STATE_BUSY;
 800164a:	687b      	ldr	r3, [r7, #4]
 800164c:	2202      	movs	r2, #2
 800164e:	f883 203d 	strb.w	r2, [r3, #61]	; 0x3d

  /* Init the base time for the PWM */
  TIM_Base_SetConfig(htim->Instance, &htim->Init);
 8001652:	687b      	ldr	r3, [r7, #4]
 8001654:	681a      	ldr	r2, [r3, #0]
 8001656:	687b      	ldr	r3, [r7, #4]
 8001658:	3304      	adds	r3, #4
 800165a:	4619      	mov	r1, r3
 800165c:	4610      	mov	r0, r2
 800165e:	f000 fb91 	bl	8001d84 <TIM_Base_SetConfig>

  /* Initialize the DMA burst operation state */
  htim->DMABurstState = HAL_DMA_BURST_STATE_READY;
 8001662:	687b      	ldr	r3, [r7, #4]
 8001664:	2201      	movs	r2, #1
 8001666:	f883 2046 	strb.w	r2, [r3, #70]	; 0x46

  /* Initialize the TIM channels state */
  TIM_CHANNEL_STATE_SET_ALL(htim, HAL_TIM_CHANNEL_STATE_READY);
 800166a:	687b      	ldr	r3, [r7, #4]
 800166c:	2201      	movs	r2, #1
 800166e:	f883 203e 	strb.w	r2, [r3, #62]	; 0x3e
 8001672:	687b      	ldr	r3, [r7, #4]
 8001674:	2201      	movs	r2, #1
 8001676:	f883 203f 	strb.w	r2, [r3, #63]	; 0x3f
 800167a:	687b      	ldr	r3, [r7, #4]
 800167c:	2201      	movs	r2, #1
 800167e:	f883 2040 	strb.w	r2, [r3, #64]	; 0x40
 8001682:	687b      	ldr	r3, [r7, #4]
 8001684:	2201      	movs	r2, #1
 8001686:	f883 2041 	strb.w	r2, [r3, #65]	; 0x41
  TIM_CHANNEL_N_STATE_SET_ALL(htim, HAL_TIM_CHANNEL_STATE_READY);
 800168a:	687b      	ldr	r3, [r7, #4]
 800168c:	2201      	movs	r2, #1
 800168e:	f883 2042 	strb.w	r2, [r3, #66]	; 0x42
 8001692:	687b      	ldr	r3, [r7, #4]
 8001694:	2201      	movs	r2, #1
 8001696:	f883 2043 	strb.w	r2, [r3, #67]	; 0x43
 800169a:	687b      	ldr	r3, [r7, #4]
 800169c:	2201      	movs	r2, #1
 800169e:	f883 2044 	strb.w	r2, [r3, #68]	; 0x44
 80016a2:	687b      	ldr	r3, [r7, #4]
 80016a4:	2201      	movs	r2, #1
 80016a6:	f883 2045 	strb.w	r2, [r3, #69]	; 0x45

  /* Initialize the TIM state*/
  htim->State = HAL_TIM_STATE_READY;
 80016aa:	687b      	ldr	r3, [r7, #4]
 80016ac:	2201      	movs	r2, #1
 80016ae:	f883 203d 	strb.w	r2, [r3, #61]	; 0x3d

  return HAL_OK;
 80016b2:	2300      	movs	r3, #0
}
 80016b4:	4618      	mov	r0, r3
 80016b6:	3708      	adds	r7, #8
 80016b8:	46bd      	mov	sp, r7
 80016ba:	bd80      	pop	{r7, pc}

080016bc <HAL_TIM_PWM_MspInit>:
  * @brief  Initializes the TIM PWM MSP.
  * @param  htim TIM PWM handle
  * @retval None
  */
__weak void HAL_TIM_PWM_MspInit(TIM_HandleTypeDef *htim)
{
 80016bc:	b480      	push	{r7}
 80016be:	b083      	sub	sp, #12
 80016c0:	af00      	add	r7, sp, #0
 80016c2:	6078      	str	r0, [r7, #4]
  UNUSED(htim);

  /* NOTE : This function should not be modified, when the callback is needed,
            the HAL_TIM_PWM_MspInit could be implemented in the user file
   */
}
 80016c4:	bf00      	nop
 80016c6:	370c      	adds	r7, #12
 80016c8:	46bd      	mov	sp, r7
 80016ca:	bc80      	pop	{r7}
 80016cc:	4770      	bx	lr
	...

080016d0 <HAL_TIM_PWM_Start>:
  *            @arg TIM_CHANNEL_3: TIM Channel 3 selected
  *            @arg TIM_CHANNEL_4: TIM Channel 4 selected
  * @retval HAL status
  */
HAL_StatusTypeDef HAL_TIM_PWM_Start(TIM_HandleTypeDef *htim, uint32_t Channel)
{
 80016d0:	b580      	push	{r7, lr}
 80016d2:	b084      	sub	sp, #16
 80016d4:	af00      	add	r7, sp, #0
 80016d6:	6078      	str	r0, [r7, #4]
 80016d8:	6039      	str	r1, [r7, #0]

  /* Check the parameters */
  assert_param(IS_TIM_CCX_INSTANCE(htim->Instance, Channel));

  /* Check the TIM channel state */
  if (TIM_CHANNEL_STATE_GET(htim, Channel) != HAL_TIM_CHANNEL_STATE_READY)
 80016da:	683b      	ldr	r3, [r7, #0]
 80016dc:	2b00      	cmp	r3, #0
 80016de:	d109      	bne.n	80016f4 <HAL_TIM_PWM_Start+0x24>
 80016e0:	687b      	ldr	r3, [r7, #4]
 80016e2:	f893 303e 	ldrb.w	r3, [r3, #62]	; 0x3e
 80016e6:	b2db      	uxtb	r3, r3
 80016e8:	2b01      	cmp	r3, #1
 80016ea:	bf14      	ite	ne
 80016ec:	2301      	movne	r3, #1
 80016ee:	2300      	moveq	r3, #0
 80016f0:	b2db      	uxtb	r3, r3
 80016f2:	e022      	b.n	800173a <HAL_TIM_PWM_Start+0x6a>
 80016f4:	683b      	ldr	r3, [r7, #0]
 80016f6:	2b04      	cmp	r3, #4
 80016f8:	d109      	bne.n	800170e <HAL_TIM_PWM_Start+0x3e>
 80016fa:	687b      	ldr	r3, [r7, #4]
 80016fc:	f893 303f 	ldrb.w	r3, [r3, #63]	; 0x3f
 8001700:	b2db      	uxtb	r3, r3
 8001702:	2b01      	cmp	r3, #1
 8001704:	bf14      	ite	ne
 8001706:	2301      	movne	r3, #1
 8001708:	2300      	moveq	r3, #0
 800170a:	b2db      	uxtb	r3, r3
 800170c:	e015      	b.n	800173a <HAL_TIM_PWM_Start+0x6a>
 800170e:	683b      	ldr	r3, [r7, #0]
 8001710:	2b08      	cmp	r3, #8
 8001712:	d109      	bne.n	8001728 <HAL_TIM_PWM_Start+0x58>
 8001714:	687b      	ldr	r3, [r7, #4]
 8001716:	f893 3040 	ldrb.w	r3, [r3, #64]	; 0x40
 800171a:	b2db      	uxtb	r3, r3
 800171c:	2b01      	cmp	r3, #1
 800171e:	bf14      	ite	ne
 8001720:	2301      	movne	r3, #1
 8001722:	2300      	moveq	r3, #0
 8001724:	b2db      	uxtb	r3, r3
 8001726:	e008      	b.n	800173a <HAL_TIM_PWM_Start+0x6a>
 8001728:	687b      	ldr	r3, [r7, #4]
 800172a:	f893 3041 	ldrb.w	r3, [r3, #65]	; 0x41
 800172e:	b2db      	uxtb	r3, r3
 8001730:	2b01      	cmp	r3, #1
 8001732:	bf14      	ite	ne
 8001734:	2301      	movne	r3, #1
 8001736:	2300      	moveq	r3, #0
 8001738:	b2db      	uxtb	r3, r3
 800173a:	2b00      	cmp	r3, #0
 800173c:	d001      	beq.n	8001742 <HAL_TIM_PWM_Start+0x72>
  {
    return HAL_ERROR;
 800173e:	2301      	movs	r3, #1
 8001740:	e05e      	b.n	8001800 <HAL_TIM_PWM_Start+0x130>
  }

  /* Set the TIM channel state */
  TIM_CHANNEL_STATE_SET(htim, Channel, HAL_TIM_CHANNEL_STATE_BUSY);
 8001742:	683b      	ldr	r3, [r7, #0]
 8001744:	2b00      	cmp	r3, #0
 8001746:	d104      	bne.n	8001752 <HAL_TIM_PWM_Start+0x82>
 8001748:	687b      	ldr	r3, [r7, #4]
 800174a:	2202      	movs	r2, #2
 800174c:	f883 203e 	strb.w	r2, [r3, #62]	; 0x3e
 8001750:	e013      	b.n	800177a <HAL_TIM_PWM_Start+0xaa>
 8001752:	683b      	ldr	r3, [r7, #0]
 8001754:	2b04      	cmp	r3, #4
 8001756:	d104      	bne.n	8001762 <HAL_TIM_PWM_Start+0x92>
 8001758:	687b      	ldr	r3, [r7, #4]
 800175a:	2202      	movs	r2, #2
 800175c:	f883 203f 	strb.w	r2, [r3, #63]	; 0x3f
 8001760:	e00b      	b.n	800177a <HAL_TIM_PWM_Start+0xaa>
 8001762:	683b      	ldr	r3, [r7, #0]
 8001764:	2b08      	cmp	r3, #8
 8001766:	d104      	bne.n	8001772 <HAL_TIM_PWM_Start+0xa2>
 8001768:	687b      	ldr	r3, [r7, #4]
 800176a:	2202      	movs	r2, #2
 800176c:	f883 2040 	strb.w	r2, [r3, #64]	; 0x40
 8001770:	e003      	b.n	800177a <HAL_TIM_PWM_Start+0xaa>
 8001772:	687b      	ldr	r3, [r7, #4]
 8001774:	2202      	movs	r2, #2
 8001776:	f883 2041 	strb.w	r2, [r3, #65]	; 0x41

  /* Enable the Capture compare channel */
  TIM_CCxChannelCmd(htim->Instance, Channel, TIM_CCx_ENABLE);
 800177a:	687b      	ldr	r3, [r7, #4]
 800177c:	681b      	ldr	r3, [r3, #0]
 800177e:	2201      	movs	r2, #1
 8001780:	6839      	ldr	r1, [r7, #0]
 8001782:	4618      	mov	r0, r3
 8001784:	f000 fd7e 	bl	8002284 <TIM_CCxChannelCmd>

  if (IS_TIM_BREAK_INSTANCE(htim->Instance) != RESET)
 8001788:	687b      	ldr	r3, [r7, #4]
 800178a:	681b      	ldr	r3, [r3, #0]
 800178c:	4a1e      	ldr	r2, [pc, #120]	; (8001808 <HAL_TIM_PWM_Start+0x138>)
 800178e:	4293      	cmp	r3, r2
 8001790:	d107      	bne.n	80017a2 <HAL_TIM_PWM_Start+0xd2>
  {
    /* Enable the main output */
    __HAL_TIM_MOE_ENABLE(htim);
 8001792:	687b      	ldr	r3, [r7, #4]
 8001794:	681b      	ldr	r3, [r3, #0]
 8001796:	6c5a      	ldr	r2, [r3, #68]	; 0x44
 8001798:	687b      	ldr	r3, [r7, #4]
 800179a:	681b      	ldr	r3, [r3, #0]
 800179c:	f442 4200 	orr.w	r2, r2, #32768	; 0x8000
 80017a0:	645a      	str	r2, [r3, #68]	; 0x44
  }

  /* Enable the Peripheral, except in trigger mode where enable is automatically done with trigger */
  if (IS_TIM_SLAVE_INSTANCE(htim->Instance))
 80017a2:	687b      	ldr	r3, [r7, #4]
 80017a4:	681b      	ldr	r3, [r3, #0]
 80017a6:	4a18      	ldr	r2, [pc, #96]	; (8001808 <HAL_TIM_PWM_Start+0x138>)
 80017a8:	4293      	cmp	r3, r2
 80017aa:	d00e      	beq.n	80017ca <HAL_TIM_PWM_Start+0xfa>
 80017ac:	687b      	ldr	r3, [r7, #4]
 80017ae:	681b      	ldr	r3, [r3, #0]
 80017b0:	f1b3 4f80 	cmp.w	r3, #1073741824	; 0x40000000
 80017b4:	d009      	beq.n	80017ca <HAL_TIM_PWM_Start+0xfa>
 80017b6:	687b      	ldr	r3, [r7, #4]
 80017b8:	681b      	ldr	r3, [r3, #0]
 80017ba:	4a14      	ldr	r2, [pc, #80]	; (800180c <HAL_TIM_PWM_Start+0x13c>)
 80017bc:	4293      	cmp	r3, r2
 80017be:	d004      	beq.n	80017ca <HAL_TIM_PWM_Start+0xfa>
 80017c0:	687b      	ldr	r3, [r7, #4]
 80017c2:	681b      	ldr	r3, [r3, #0]
 80017c4:	4a12      	ldr	r2, [pc, #72]	; (8001810 <HAL_TIM_PWM_Start+0x140>)
 80017c6:	4293      	cmp	r3, r2
 80017c8:	d111      	bne.n	80017ee <HAL_TIM_PWM_Start+0x11e>
  {
    tmpsmcr = htim->Instance->SMCR & TIM_SMCR_SMS;
 80017ca:	687b      	ldr	r3, [r7, #4]
 80017cc:	681b      	ldr	r3, [r3, #0]
 80017ce:	689b      	ldr	r3, [r3, #8]
 80017d0:	f003 0307 	and.w	r3, r3, #7
 80017d4:	60fb      	str	r3, [r7, #12]
    if (!IS_TIM_SLAVEMODE_TRIGGER_ENABLED(tmpsmcr))
 80017d6:	68fb      	ldr	r3, [r7, #12]
 80017d8:	2b06      	cmp	r3, #6
 80017da:	d010      	beq.n	80017fe <HAL_TIM_PWM_Start+0x12e>
    {
      __HAL_TIM_ENABLE(htim);
 80017dc:	687b      	ldr	r3, [r7, #4]
 80017de:	681b      	ldr	r3, [r3, #0]
 80017e0:	681a      	ldr	r2, [r3, #0]
 80017e2:	687b      	ldr	r3, [r7, #4]
 80017e4:	681b      	ldr	r3, [r3, #0]
 80017e6:	f042 0201 	orr.w	r2, r2, #1
 80017ea:	601a      	str	r2, [r3, #0]
    if (!IS_TIM_SLAVEMODE_TRIGGER_ENABLED(tmpsmcr))
 80017ec:	e007      	b.n	80017fe <HAL_TIM_PWM_Start+0x12e>
    }
  }
  else
  {
    __HAL_TIM_ENABLE(htim);
 80017ee:	687b      	ldr	r3, [r7, #4]
 80017f0:	681b      	ldr	r3, [r3, #0]
 80017f2:	681a      	ldr	r2, [r3, #0]
 80017f4:	687b      	ldr	r3, [r7, #4]
 80017f6:	681b      	ldr	r3, [r3, #0]
 80017f8:	f042 0201 	orr.w	r2, r2, #1
 80017fc:	601a      	str	r2, [r3, #0]
  }

  /* Return function status */
  return HAL_OK;
 80017fe:	2300      	movs	r3, #0
}
 8001800:	4618      	mov	r0, r3
 8001802:	3710      	adds	r7, #16
 8001804:	46bd      	mov	sp, r7
 8001806:	bd80      	pop	{r7, pc}
 8001808:	40012c00 	.word	0x40012c00
 800180c:	40000400 	.word	0x40000400
 8001810:	40000800 	.word	0x40000800

08001814 <HAL_TIM_IRQHandler>:
  * @brief  This function handles TIM interrupts requests.
  * @param  htim TIM  handle
  * @retval None
  */
void HAL_TIM_IRQHandler(TIM_HandleTypeDef *htim)
{
 8001814:	b580      	push	{r7, lr}
 8001816:	b082      	sub	sp, #8
 8001818:	af00      	add	r7, sp, #0
 800181a:	6078      	str	r0, [r7, #4]
  /* Capture compare 1 event */
  if (__HAL_TIM_GET_FLAG(htim, TIM_FLAG_CC1) != RESET)
 800181c:	687b      	ldr	r3, [r7, #4]
 800181e:	681b      	ldr	r3, [r3, #0]
 8001820:	691b      	ldr	r3, [r3, #16]
 8001822:	f003 0302 	and.w	r3, r3, #2
 8001826:	2b02      	cmp	r3, #2
 8001828:	d122      	bne.n	8001870 <HAL_TIM_IRQHandler+0x5c>
  {
    if (__HAL_TIM_GET_IT_SOURCE(htim, TIM_IT_CC1) != RESET)
 800182a:	687b      	ldr	r3, [r7, #4]
 800182c:	681b      	ldr	r3, [r3, #0]
 800182e:	68db      	ldr	r3, [r3, #12]
 8001830:	f003 0302 	and.w	r3, r3, #2
 8001834:	2b02      	cmp	r3, #2
 8001836:	d11b      	bne.n	8001870 <HAL_TIM_IRQHandler+0x5c>
    {
      {
        __HAL_TIM_CLEAR_IT(htim, TIM_IT_CC1);
 8001838:	687b      	ldr	r3, [r7, #4]
 800183a:	681b      	ldr	r3, [r3, #0]
 800183c:	f06f 0202 	mvn.w	r2, #2
 8001840:	611a      	str	r2, [r3, #16]
        htim->Channel = HAL_TIM_ACTIVE_CHANNEL_1;
 8001842:	687b      	ldr	r3, [r7, #4]
 8001844:	2201      	movs	r2, #1
 8001846:	771a      	strb	r2, [r3, #28]

        /* Input capture event */
        if ((htim->Instance->CCMR1 & TIM_CCMR1_CC1S) != 0x00U)
 8001848:	687b      	ldr	r3, [r7, #4]
 800184a:	681b      	ldr	r3, [r3, #0]
 800184c:	699b      	ldr	r3, [r3, #24]
 800184e:	f003 0303 	and.w	r3, r3, #3
 8001852:	2b00      	cmp	r3, #0
 8001854:	d003      	beq.n	800185e <HAL_TIM_IRQHandler+0x4a>
        {
#if (USE_HAL_TIM_REGISTER_CALLBACKS == 1)
          htim->IC_CaptureCallback(htim);
#else
          HAL_TIM_IC_CaptureCallback(htim);
 8001856:	6878      	ldr	r0, [r7, #4]
 8001858:	f000 fa78 	bl	8001d4c <HAL_TIM_IC_CaptureCallback>
 800185c:	e005      	b.n	800186a <HAL_TIM_IRQHandler+0x56>
        {
#if (USE_HAL_TIM_REGISTER_CALLBACKS == 1)
          htim->OC_DelayElapsedCallback(htim);
          htim->PWM_PulseFinishedCallback(htim);
#else
          HAL_TIM_OC_DelayElapsedCallback(htim);
 800185e:	6878      	ldr	r0, [r7, #4]
 8001860:	f000 fa6b 	bl	8001d3a <HAL_TIM_OC_DelayElapsedCallback>
          HAL_TIM_PWM_PulseFinishedCallback(htim);
 8001864:	6878      	ldr	r0, [r7, #4]
 8001866:	f000 fa7a 	bl	8001d5e <HAL_TIM_PWM_PulseFinishedCallback>
#endif /* USE_HAL_TIM_REGISTER_CALLBACKS */
        }
        htim->Channel = HAL_TIM_ACTIVE_CHANNEL_CLEARED;
 800186a:	687b      	ldr	r3, [r7, #4]
 800186c:	2200      	movs	r2, #0
 800186e:	771a      	strb	r2, [r3, #28]
      }
    }
  }
  /* Capture compare 2 event */
  if (__HAL_TIM_GET_FLAG(htim, TIM_FLAG_CC2) != RESET)
 8001870:	687b      	ldr	r3, [r7, #4]
 8001872:	681b      	ldr	r3, [r3, #0]
 8001874:	691b      	ldr	r3, [r3, #16]
 8001876:	f003 0304 	and.w	r3, r3, #4
 800187a:	2b04      	cmp	r3, #4
 800187c:	d122      	bne.n	80018c4 <HAL_TIM_IRQHandler+0xb0>
  {
    if (__HAL_TIM_GET_IT_SOURCE(htim, TIM_IT_CC2) != RESET)
 800187e:	687b      	ldr	r3, [r7, #4]
 8001880:	681b      	ldr	r3, [r3, #0]
 8001882:	68db      	ldr	r3, [r3, #12]
 8001884:	f003 0304 	and.w	r3, r3, #4
 8001888:	2b04      	cmp	r3, #4
 800188a:	d11b      	bne.n	80018c4 <HAL_TIM_IRQHandler+0xb0>
    {
      __HAL_TIM_CLEAR_IT(htim, TIM_IT_CC2);
 800188c:	687b      	ldr	r3, [r7, #4]
 800188e:	681b      	ldr	r3, [r3, #0]
 8001890:	f06f 0204 	mvn.w	r2, #4
 8001894:	611a      	str	r2, [r3, #16]
      htim->Channel = HAL_TIM_ACTIVE_CHANNEL_2;
 8001896:	687b      	ldr	r3, [r7, #4]
 8001898:	2202      	movs	r2, #2
 800189a:	771a      	strb	r2, [r3, #28]
      /* Input capture event */
      if ((htim->Instance->CCMR1 & TIM_CCMR1_CC2S) != 0x00U)
 800189c:	687b      	ldr	r3, [r7, #4]
 800189e:	681b      	ldr	r3, [r3, #0]
 80018a0:	699b      	ldr	r3, [r3, #24]
 80018a2:	f403 7340 	and.w	r3, r3, #768	; 0x300
 80018a6:	2b00      	cmp	r3, #0
 80018a8:	d003      	beq.n	80018b2 <HAL_TIM_IRQHandler+0x9e>
      {
#if (USE_HAL_TIM_REGISTER_CALLBACKS == 1)
        htim->IC_CaptureCallback(htim);
#else
        HAL_TIM_IC_CaptureCallback(htim);
 80018aa:	6878      	ldr	r0, [r7, #4]
 80018ac:	f000 fa4e 	bl	8001d4c <HAL_TIM_IC_CaptureCallback>
 80018b0:	e005      	b.n	80018be <HAL_TIM_IRQHandler+0xaa>
      {
#if (USE_HAL_TIM_REGISTER_CALLBACKS == 1)
        htim->OC_DelayElapsedCallback(htim);
        htim->PWM_PulseFinishedCallback(htim);
#else
        HAL_TIM_OC_DelayElapsedCallback(htim);
 80018b2:	6878      	ldr	r0, [r7, #4]
 80018b4:	f000 fa41 	bl	8001d3a <HAL_TIM_OC_DelayElapsedCallback>
        HAL_TIM_PWM_PulseFinishedCallback(htim);
 80018b8:	6878      	ldr	r0, [r7, #4]
 80018ba:	f000 fa50 	bl	8001d5e <HAL_TIM_PWM_PulseFinishedCallback>
#endif /* USE_HAL_TIM_REGISTER_CALLBACKS */
      }
      htim->Channel = HAL_TIM_ACTIVE_CHANNEL_CLEARED;
 80018be:	687b      	ldr	r3, [r7, #4]
 80018c0:	2200      	movs	r2, #0
 80018c2:	771a      	strb	r2, [r3, #28]
    }
  }
  /* Capture compare 3 event */
  if (__HAL_TIM_GET_FLAG(htim, TIM_FLAG_CC3) != RESET)
 80018c4:	687b      	ldr	r3, [r7, #4]
 80018c6:	681b      	ldr	r3, [r3, #0]
 80018c8:	691b      	ldr	r3, [r3, #16]
 80018ca:	f003 0308 	and.w	r3, r3, #8
 80018ce:	2b08      	cmp	r3, #8
 80018d0:	d122      	bne.n	8001918 <HAL_TIM_IRQHandler+0x104>
  {
    if (__HAL_TIM_GET_IT_SOURCE(htim, TIM_IT_CC3) != RESET)
 80018d2:	687b      	ldr	r3, [r7, #4]
 80018d4:	681b      	ldr	r3, [r3, #0]
 80018d6:	68db      	ldr	r3, [r3, #12]
 80018d8:	f003 0308 	and.w	r3, r3, #8
 80018dc:	2b08      	cmp	r3, #8
 80018de:	d11b      	bne.n	8001918 <HAL_TIM_IRQHandler+0x104>
    {
      __HAL_TIM_CLEAR_IT(htim, TIM_IT_CC3);
 80018e0:	687b      	ldr	r3, [r7, #4]
 80018e2:	681b      	ldr	r3, [r3, #0]
 80018e4:	f06f 0208 	mvn.w	r2, #8
 80018e8:	611a      	str	r2, [r3, #16]
      htim->Channel = HAL_TIM_ACTIVE_CHANNEL_3;
 80018ea:	687b      	ldr	r3, [r7, #4]
 80018ec:	2204      	movs	r2, #4
 80018ee:	771a      	strb	r2, [r3, #28]
      /* Input capture event */
      if ((htim->Instance->CCMR2 & TIM_CCMR2_CC3S) != 0x00U)
 80018f0:	687b      	ldr	r3, [r7, #4]
 80018f2:	681b      	ldr	r3, [r3, #0]
 80018f4:	69db      	ldr	r3, [r3, #28]
 80018f6:	f003 0303 	and.w	r3, r3, #3
 80018fa:	2b00      	cmp	r3, #0
 80018fc:	d003      	beq.n	8001906 <HAL_TIM_IRQHandler+0xf2>
      {
#if (USE_HAL_TIM_REGISTER_CALLBACKS == 1)
        htim->IC_CaptureCallback(htim);
#else
        HAL_TIM_IC_CaptureCallback(htim);
 80018fe:	6878      	ldr	r0, [r7, #4]
 8001900:	f000 fa24 	bl	8001d4c <HAL_TIM_IC_CaptureCallback>
 8001904:	e005      	b.n	8001912 <HAL_TIM_IRQHandler+0xfe>
      {
#if (USE_HAL_TIM_REGISTER_CALLBACKS == 1)
        htim->OC_DelayElapsedCallback(htim);
        htim->PWM_PulseFinishedCallback(htim);
#else
        HAL_TIM_OC_DelayElapsedCallback(htim);
 8001906:	6878      	ldr	r0, [r7, #4]
 8001908:	f000 fa17 	bl	8001d3a <HAL_TIM_OC_DelayElapsedCallback>
        HAL_TIM_PWM_PulseFinishedCallback(htim);
 800190c:	6878      	ldr	r0, [r7, #4]
 800190e:	f000 fa26 	bl	8001d5e <HAL_TIM_PWM_PulseFinishedCallback>
#endif /* USE_HAL_TIM_REGISTER_CALLBACKS */
      }
      htim->Channel = HAL_TIM_ACTIVE_CHANNEL_CLEARED;
 8001912:	687b      	ldr	r3, [r7, #4]
 8001914:	2200      	movs	r2, #0
 8001916:	771a      	strb	r2, [r3, #28]
    }
  }
  /* Capture compare 4 event */
  if (__HAL_TIM_GET_FLAG(htim, TIM_FLAG_CC4) != RESET)
 8001918:	687b      	ldr	r3, [r7, #4]
 800191a:	681b      	ldr	r3, [r3, #0]
 800191c:	691b      	ldr	r3, [r3, #16]
 800191e:	f003 0310 	and.w	r3, r3, #16
 8001922:	2b10      	cmp	r3, #16
 8001924:	d122      	bne.n	800196c <HAL_TIM_IRQHandler+0x158>
  {
    if (__HAL_TIM_GET_IT_SOURCE(htim, TIM_IT_CC4) != RESET)
 8001926:	687b      	ldr	r3, [r7, #4]
 8001928:	681b      	ldr	r3, [r3, #0]
 800192a:	68db      	ldr	r3, [r3, #12]
 800192c:	f003 0310 	and.w	r3, r3, #16
 8001930:	2b10      	cmp	r3, #16
 8001932:	d11b      	bne.n	800196c <HAL_TIM_IRQHandler+0x158>
    {
      __HAL_TIM_CLEAR_IT(htim, TIM_IT_CC4);
 8001934:	687b      	ldr	r3, [r7, #4]
 8001936:	681b      	ldr	r3, [r3, #0]
 8001938:	f06f 0210 	mvn.w	r2, #16
 800193c:	611a      	str	r2, [r3, #16]
      htim->Channel = HAL_TIM_ACTIVE_CHANNEL_4;
 800193e:	687b      	ldr	r3, [r7, #4]
 8001940:	2208      	movs	r2, #8
 8001942:	771a      	strb	r2, [r3, #28]
      /* Input capture event */
      if ((htim->Instance->CCMR2 & TIM_CCMR2_CC4S) != 0x00U)
 8001944:	687b      	ldr	r3, [r7, #4]
 8001946:	681b      	ldr	r3, [r3, #0]
 8001948:	69db      	ldr	r3, [r3, #28]
 800194a:	f403 7340 	and.w	r3, r3, #768	; 0x300
 800194e:	2b00      	cmp	r3, #0
 8001950:	d003      	beq.n	800195a <HAL_TIM_IRQHandler+0x146>
      {
#if (USE_HAL_TIM_REGISTER_CALLBACKS == 1)
        htim->IC_CaptureCallback(htim);
#else
        HAL_TIM_IC_CaptureCallback(htim);
 8001952:	6878      	ldr	r0, [r7, #4]
 8001954:	f000 f9fa 	bl	8001d4c <HAL_TIM_IC_CaptureCallback>
 8001958:	e005      	b.n	8001966 <HAL_TIM_IRQHandler+0x152>
      {
#if (USE_HAL_TIM_REGISTER_CALLBACKS == 1)
        htim->OC_DelayElapsedCallback(htim);
        htim->PWM_PulseFinishedCallback(htim);
#else
        HAL_TIM_OC_DelayElapsedCallback(htim);
 800195a:	6878      	ldr	r0, [r7, #4]
 800195c:	f000 f9ed 	bl	8001d3a <HAL_TIM_OC_DelayElapsedCallback>
        HAL_TIM_PWM_PulseFinishedCallback(htim);
 8001960:	6878      	ldr	r0, [r7, #4]
 8001962:	f000 f9fc 	bl	8001d5e <HAL_TIM_PWM_PulseFinishedCallback>
#endif /* USE_HAL_TIM_REGISTER_CALLBACKS */
      }
      htim->Channel = HAL_TIM_ACTIVE_CHANNEL_CLEARED;
 8001966:	687b      	ldr	r3, [r7, #4]
 8001968:	2200      	movs	r2, #0
 800196a:	771a      	strb	r2, [r3, #28]
    }
  }
  /* TIM Update event */
  if (__HAL_TIM_GET_FLAG(htim, TIM_FLAG_UPDATE) != RESET)
 800196c:	687b      	ldr	r3, [r7, #4]
 800196e:	681b      	ldr	r3, [r3, #0]
 8001970:	691b      	ldr	r3, [r3, #16]
 8001972:	f003 0301 	and.w	r3, r3, #1
 8001976:	2b01      	cmp	r3, #1
 8001978:	d10e      	bne.n	8001998 <HAL_TIM_IRQHandler+0x184>
  {
    if (__HAL_TIM_GET_IT_SOURCE(htim, TIM_IT_UPDATE) != RESET)
 800197a:	687b      	ldr	r3, [r7, #4]
 800197c:	681b      	ldr	r3, [r3, #0]
 800197e:	68db      	ldr	r3, [r3, #12]
 8001980:	f003 0301 	and.w	r3, r3, #1
 8001984:	2b01      	cmp	r3, #1
 8001986:	d107      	bne.n	8001998 <HAL_TIM_IRQHandler+0x184>
    {
      __HAL_TIM_CLEAR_IT(htim, TIM_IT_UPDATE);
 8001988:	687b      	ldr	r3, [r7, #4]
 800198a:	681b      	ldr	r3, [r3, #0]
 800198c:	f06f 0201 	mvn.w	r2, #1
 8001990:	611a      	str	r2, [r3, #16]
#if (USE_HAL_TIM_REGISTER_CALLBACKS == 1)
      htim->PeriodElapsedCallback(htim);
#else
      HAL_TIM_PeriodElapsedCallback(htim);
 8001992:	6878      	ldr	r0, [r7, #4]
 8001994:	f000 f9c8 	bl	8001d28 <HAL_TIM_PeriodElapsedCallback>
#endif /* USE_HAL_TIM_REGISTER_CALLBACKS */
    }
  }
  /* TIM Break input event */
  if (__HAL_TIM_GET_FLAG(htim, TIM_FLAG_BREAK) != RESET)
 8001998:	687b      	ldr	r3, [r7, #4]
 800199a:	681b      	ldr	r3, [r3, #0]
 800199c:	691b      	ldr	r3, [r3, #16]
 800199e:	f003 0380 	and.w	r3, r3, #128	; 0x80
 80019a2:	2b80      	cmp	r3, #128	; 0x80
 80019a4:	d10e      	bne.n	80019c4 <HAL_TIM_IRQHandler+0x1b0>
  {
    if (__HAL_TIM_GET_IT_SOURCE(htim, TIM_IT_BREAK) != RESET)
 80019a6:	687b      	ldr	r3, [r7, #4]
 80019a8:	681b      	ldr	r3, [r3, #0]
 80019aa:	68db      	ldr	r3, [r3, #12]
 80019ac:	f003 0380 	and.w	r3, r3, #128	; 0x80
 80019b0:	2b80      	cmp	r3, #128	; 0x80
 80019b2:	d107      	bne.n	80019c4 <HAL_TIM_IRQHandler+0x1b0>
    {
      __HAL_TIM_CLEAR_IT(htim, TIM_IT_BREAK);
 80019b4:	687b      	ldr	r3, [r7, #4]
 80019b6:	681b      	ldr	r3, [r3, #0]
 80019b8:	f06f 0280 	mvn.w	r2, #128	; 0x80
 80019bc:	611a      	str	r2, [r3, #16]
#if (USE_HAL_TIM_REGISTER_CALLBACKS == 1)
      htim->BreakCallback(htim);
#else
      HAL_TIMEx_BreakCallback(htim);
 80019be:	6878      	ldr	r0, [r7, #4]
 80019c0:	f000 fceb 	bl	800239a <HAL_TIMEx_BreakCallback>
#endif /* USE_HAL_TIM_REGISTER_CALLBACKS */
    }
  }
  /* TIM Trigger detection event */
  if (__HAL_TIM_GET_FLAG(htim, TIM_FLAG_TRIGGER) != RESET)
 80019c4:	687b      	ldr	r3, [r7, #4]
 80019c6:	681b      	ldr	r3, [r3, #0]
 80019c8:	691b      	ldr	r3, [r3, #16]
 80019ca:	f003 0340 	and.w	r3, r3, #64	; 0x40
 80019ce:	2b40      	cmp	r3, #64	; 0x40
 80019d0:	d10e      	bne.n	80019f0 <HAL_TIM_IRQHandler+0x1dc>
  {
    if (__HAL_TIM_GET_IT_SOURCE(htim, TIM_IT_TRIGGER) != RESET)
 80019d2:	687b      	ldr	r3, [r7, #4]
 80019d4:	681b      	ldr	r3, [r3, #0]
 80019d6:	68db      	ldr	r3, [r3, #12]
 80019d8:	f003 0340 	and.w	r3, r3, #64	; 0x40
 80019dc:	2b40      	cmp	r3, #64	; 0x40
 80019de:	d107      	bne.n	80019f0 <HAL_TIM_IRQHandler+0x1dc>
    {
      __HAL_TIM_CLEAR_IT(htim, TIM_IT_TRIGGER);
 80019e0:	687b      	ldr	r3, [r7, #4]
 80019e2:	681b      	ldr	r3, [r3, #0]
 80019e4:	f06f 0240 	mvn.w	r2, #64	; 0x40
 80019e8:	611a      	str	r2, [r3, #16]
#if (USE_HAL_TIM_REGISTER_CALLBACKS == 1)
      htim->TriggerCallback(htim);
#else
      HAL_TIM_TriggerCallback(htim);
 80019ea:	6878      	ldr	r0, [r7, #4]
 80019ec:	f000 f9c0 	bl	8001d70 <HAL_TIM_TriggerCallback>
#endif /* USE_HAL_TIM_REGISTER_CALLBACKS */
    }
  }
  /* TIM commutation event */
  if (__HAL_TIM_GET_FLAG(htim, TIM_FLAG_COM) != RESET)
 80019f0:	687b      	ldr	r3, [r7, #4]
 80019f2:	681b      	ldr	r3, [r3, #0]
 80019f4:	691b      	ldr	r3, [r3, #16]
 80019f6:	f003 0320 	and.w	r3, r3, #32
 80019fa:	2b20      	cmp	r3, #32
 80019fc:	d10e      	bne.n	8001a1c <HAL_TIM_IRQHandler+0x208>
  {
    if (__HAL_TIM_GET_IT_SOURCE(htim, TIM_IT_COM) != RESET)
 80019fe:	687b      	ldr	r3, [r7, #4]
 8001a00:	681b      	ldr	r3, [r3, #0]
 8001a02:	68db      	ldr	r3, [r3, #12]
 8001a04:	f003 0320 	and.w	r3, r3, #32
 8001a08:	2b20      	cmp	r3, #32
 8001a0a:	d107      	bne.n	8001a1c <HAL_TIM_IRQHandler+0x208>
    {
      __HAL_TIM_CLEAR_IT(htim, TIM_FLAG_COM);
 8001a0c:	687b      	ldr	r3, [r7, #4]
 8001a0e:	681b      	ldr	r3, [r3, #0]
 8001a10:	f06f 0220 	mvn.w	r2, #32
 8001a14:	611a      	str	r2, [r3, #16]
#if (USE_HAL_TIM_REGISTER_CALLBACKS == 1)
      htim->CommutationCallback(htim);
#else
      HAL_TIMEx_CommutCallback(htim);
 8001a16:	6878      	ldr	r0, [r7, #4]
 8001a18:	f000 fcb6 	bl	8002388 <HAL_TIMEx_CommutCallback>
#endif /* USE_HAL_TIM_REGISTER_CALLBACKS */
    }
  }
}
 8001a1c:	bf00      	nop
 8001a1e:	3708      	adds	r7, #8
 8001a20:	46bd      	mov	sp, r7
 8001a22:	bd80      	pop	{r7, pc}

08001a24 <HAL_TIM_PWM_ConfigChannel>:
  * @retval HAL status
  */
HAL_StatusTypeDef HAL_TIM_PWM_ConfigChannel(TIM_HandleTypeDef *htim,
                                            TIM_OC_InitTypeDef *sConfig,
                                            uint32_t Channel)
{
 8001a24:	b580      	push	{r7, lr}
 8001a26:	b084      	sub	sp, #16
 8001a28:	af00      	add	r7, sp, #0
 8001a2a:	60f8      	str	r0, [r7, #12]
 8001a2c:	60b9      	str	r1, [r7, #8]
 8001a2e:	607a      	str	r2, [r7, #4]
  assert_param(IS_TIM_PWM_MODE(sConfig->OCMode));
  assert_param(IS_TIM_OC_POLARITY(sConfig->OCPolarity));
  assert_param(IS_TIM_FAST_STATE(sConfig->OCFastMode));

  /* Process Locked */
  __HAL_LOCK(htim);
 8001a30:	68fb      	ldr	r3, [r7, #12]
 8001a32:	f893 303c 	ldrb.w	r3, [r3, #60]	; 0x3c
 8001a36:	2b01      	cmp	r3, #1
 8001a38:	d101      	bne.n	8001a3e <HAL_TIM_PWM_ConfigChannel+0x1a>
 8001a3a:	2302      	movs	r3, #2
 8001a3c:	e0ac      	b.n	8001b98 <HAL_TIM_PWM_ConfigChannel+0x174>
 8001a3e:	68fb      	ldr	r3, [r7, #12]
 8001a40:	2201      	movs	r2, #1
 8001a42:	f883 203c 	strb.w	r2, [r3, #60]	; 0x3c

  switch (Channel)
 8001a46:	687b      	ldr	r3, [r7, #4]
 8001a48:	2b0c      	cmp	r3, #12
 8001a4a:	f200 809f 	bhi.w	8001b8c <HAL_TIM_PWM_ConfigChannel+0x168>
 8001a4e:	a201      	add	r2, pc, #4	; (adr r2, 8001a54 <HAL_TIM_PWM_ConfigChannel+0x30>)
 8001a50:	f852 f023 	ldr.w	pc, [r2, r3, lsl #2]
 8001a54:	08001a89 	.word	0x08001a89
 8001a58:	08001b8d 	.word	0x08001b8d
 8001a5c:	08001b8d 	.word	0x08001b8d
 8001a60:	08001b8d 	.word	0x08001b8d
 8001a64:	08001ac9 	.word	0x08001ac9
 8001a68:	08001b8d 	.word	0x08001b8d
 8001a6c:	08001b8d 	.word	0x08001b8d
 8001a70:	08001b8d 	.word	0x08001b8d
 8001a74:	08001b0b 	.word	0x08001b0b
 8001a78:	08001b8d 	.word	0x08001b8d
 8001a7c:	08001b8d 	.word	0x08001b8d
 8001a80:	08001b8d 	.word	0x08001b8d
 8001a84:	08001b4b 	.word	0x08001b4b
    {
      /* Check the parameters */
      assert_param(IS_TIM_CC1_INSTANCE(htim->Instance));

      /* Configure the Channel 1 in PWM mode */
      TIM_OC1_SetConfig(htim->Instance, sConfig);
 8001a88:	68fb      	ldr	r3, [r7, #12]
 8001a8a:	681b      	ldr	r3, [r3, #0]
 8001a8c:	68b9      	ldr	r1, [r7, #8]
 8001a8e:	4618      	mov	r0, r3
 8001a90:	f000 f9da 	bl	8001e48 <TIM_OC1_SetConfig>

      /* Set the Preload enable bit for channel1 */
      htim->Instance->CCMR1 |= TIM_CCMR1_OC1PE;
 8001a94:	68fb      	ldr	r3, [r7, #12]
 8001a96:	681b      	ldr	r3, [r3, #0]
 8001a98:	699a      	ldr	r2, [r3, #24]
 8001a9a:	68fb      	ldr	r3, [r7, #12]
 8001a9c:	681b      	ldr	r3, [r3, #0]
 8001a9e:	f042 0208 	orr.w	r2, r2, #8
 8001aa2:	619a      	str	r2, [r3, #24]

      /* Configure the Output Fast mode */
      htim->Instance->CCMR1 &= ~TIM_CCMR1_OC1FE;
 8001aa4:	68fb      	ldr	r3, [r7, #12]
 8001aa6:	681b      	ldr	r3, [r3, #0]
 8001aa8:	699a      	ldr	r2, [r3, #24]
 8001aaa:	68fb      	ldr	r3, [r7, #12]
 8001aac:	681b      	ldr	r3, [r3, #0]
 8001aae:	f022 0204 	bic.w	r2, r2, #4
 8001ab2:	619a      	str	r2, [r3, #24]
      htim->Instance->CCMR1 |= sConfig->OCFastMode;
 8001ab4:	68fb      	ldr	r3, [r7, #12]
 8001ab6:	681b      	ldr	r3, [r3, #0]
 8001ab8:	6999      	ldr	r1, [r3, #24]
 8001aba:	68bb      	ldr	r3, [r7, #8]
 8001abc:	691a      	ldr	r2, [r3, #16]
 8001abe:	68fb      	ldr	r3, [r7, #12]
 8001ac0:	681b      	ldr	r3, [r3, #0]
 8001ac2:	430a      	orrs	r2, r1
 8001ac4:	619a      	str	r2, [r3, #24]
      break;
 8001ac6:	e062      	b.n	8001b8e <HAL_TIM_PWM_ConfigChannel+0x16a>
    {
      /* Check the parameters */
      assert_param(IS_TIM_CC2_INSTANCE(htim->Instance));

      /* Configure the Channel 2 in PWM mode */
      TIM_OC2_SetConfig(htim->Instance, sConfig);
 8001ac8:	68fb      	ldr	r3, [r7, #12]
 8001aca:	681b      	ldr	r3, [r3, #0]
 8001acc:	68b9      	ldr	r1, [r7, #8]
 8001ace:	4618      	mov	r0, r3
 8001ad0:	f000 fa20 	bl	8001f14 <TIM_OC2_SetConfig>

      /* Set the Preload enable bit for channel2 */
      htim->Instance->CCMR1 |= TIM_CCMR1_OC2PE;
 8001ad4:	68fb      	ldr	r3, [r7, #12]
 8001ad6:	681b      	ldr	r3, [r3, #0]
 8001ad8:	699a      	ldr	r2, [r3, #24]
 8001ada:	68fb      	ldr	r3, [r7, #12]
 8001adc:	681b      	ldr	r3, [r3, #0]
 8001ade:	f442 6200 	orr.w	r2, r2, #2048	; 0x800
 8001ae2:	619a      	str	r2, [r3, #24]

      /* Configure the Output Fast mode */
      htim->Instance->CCMR1 &= ~TIM_CCMR1_OC2FE;
 8001ae4:	68fb      	ldr	r3, [r7, #12]
 8001ae6:	681b      	ldr	r3, [r3, #0]
 8001ae8:	699a      	ldr	r2, [r3, #24]
 8001aea:	68fb      	ldr	r3, [r7, #12]
 8001aec:	681b      	ldr	r3, [r3, #0]
 8001aee:	f422 6280 	bic.w	r2, r2, #1024	; 0x400
 8001af2:	619a      	str	r2, [r3, #24]
      htim->Instance->CCMR1 |= sConfig->OCFastMode << 8U;
 8001af4:	68fb      	ldr	r3, [r7, #12]
 8001af6:	681b      	ldr	r3, [r3, #0]
 8001af8:	6999      	ldr	r1, [r3, #24]
 8001afa:	68bb      	ldr	r3, [r7, #8]
 8001afc:	691b      	ldr	r3, [r3, #16]
 8001afe:	021a      	lsls	r2, r3, #8
 8001b00:	68fb      	ldr	r3, [r7, #12]
 8001b02:	681b      	ldr	r3, [r3, #0]
 8001b04:	430a      	orrs	r2, r1
 8001b06:	619a      	str	r2, [r3, #24]
      break;
 8001b08:	e041      	b.n	8001b8e <HAL_TIM_PWM_ConfigChannel+0x16a>
    {
      /* Check the parameters */
      assert_param(IS_TIM_CC3_INSTANCE(htim->Instance));

      /* Configure the Channel 3 in PWM mode */
      TIM_OC3_SetConfig(htim->Instance, sConfig);
 8001b0a:	68fb      	ldr	r3, [r7, #12]
 8001b0c:	681b      	ldr	r3, [r3, #0]
 8001b0e:	68b9      	ldr	r1, [r7, #8]
 8001b10:	4618      	mov	r0, r3
 8001b12:	f000 fa69 	bl	8001fe8 <TIM_OC3_SetConfig>

      /* Set the Preload enable bit for channel3 */
      htim->Instance->CCMR2 |= TIM_CCMR2_OC3PE;
 8001b16:	68fb      	ldr	r3, [r7, #12]
 8001b18:	681b      	ldr	r3, [r3, #0]
 8001b1a:	69da      	ldr	r2, [r3, #28]
 8001b1c:	68fb      	ldr	r3, [r7, #12]
 8001b1e:	681b      	ldr	r3, [r3, #0]
 8001b20:	f042 0208 	orr.w	r2, r2, #8
 8001b24:	61da      	str	r2, [r3, #28]

      /* Configure the Output Fast mode */
      htim->Instance->CCMR2 &= ~TIM_CCMR2_OC3FE;
 8001b26:	68fb      	ldr	r3, [r7, #12]
 8001b28:	681b      	ldr	r3, [r3, #0]
 8001b2a:	69da      	ldr	r2, [r3, #28]
 8001b2c:	68fb      	ldr	r3, [r7, #12]
 8001b2e:	681b      	ldr	r3, [r3, #0]
 8001b30:	f022 0204 	bic.w	r2, r2, #4
 8001b34:	61da      	str	r2, [r3, #28]
      htim->Instance->CCMR2 |= sConfig->OCFastMode;
 8001b36:	68fb      	ldr	r3, [r7, #12]
 8001b38:	681b      	ldr	r3, [r3, #0]
 8001b3a:	69d9      	ldr	r1, [r3, #28]
 8001b3c:	68bb      	ldr	r3, [r7, #8]
 8001b3e:	691a      	ldr	r2, [r3, #16]
 8001b40:	68fb      	ldr	r3, [r7, #12]
 8001b42:	681b      	ldr	r3, [r3, #0]
 8001b44:	430a      	orrs	r2, r1
 8001b46:	61da      	str	r2, [r3, #28]
      break;
 8001b48:	e021      	b.n	8001b8e <HAL_TIM_PWM_ConfigChannel+0x16a>
    {
      /* Check the parameters */
      assert_param(IS_TIM_CC4_INSTANCE(htim->Instance));

      /* Configure the Channel 4 in PWM mode */
      TIM_OC4_SetConfig(htim->Instance, sConfig);
 8001b4a:	68fb      	ldr	r3, [r7, #12]
 8001b4c:	681b      	ldr	r3, [r3, #0]
 8001b4e:	68b9      	ldr	r1, [r7, #8]
 8001b50:	4618      	mov	r0, r3
 8001b52:	f000 fab3 	bl	80020bc <TIM_OC4_SetConfig>

      /* Set the Preload enable bit for channel4 */
      htim->Instance->CCMR2 |= TIM_CCMR2_OC4PE;
 8001b56:	68fb      	ldr	r3, [r7, #12]
 8001b58:	681b      	ldr	r3, [r3, #0]
 8001b5a:	69da      	ldr	r2, [r3, #28]
 8001b5c:	68fb      	ldr	r3, [r7, #12]
 8001b5e:	681b      	ldr	r3, [r3, #0]
 8001b60:	f442 6200 	orr.w	r2, r2, #2048	; 0x800
 8001b64:	61da      	str	r2, [r3, #28]

      /* Configure the Output Fast mode */
      htim->Instance->CCMR2 &= ~TIM_CCMR2_OC4FE;
 8001b66:	68fb      	ldr	r3, [r7, #12]
 8001b68:	681b      	ldr	r3, [r3, #0]
 8001b6a:	69da      	ldr	r2, [r3, #28]
 8001b6c:	68fb      	ldr	r3, [r7, #12]
 8001b6e:	681b      	ldr	r3, [r3, #0]
 8001b70:	f422 6280 	bic.w	r2, r2, #1024	; 0x400
 8001b74:	61da      	str	r2, [r3, #28]
      htim->Instance->CCMR2 |= sConfig->OCFastMode << 8U;
 8001b76:	68fb      	ldr	r3, [r7, #12]
 8001b78:	681b      	ldr	r3, [r3, #0]
 8001b7a:	69d9      	ldr	r1, [r3, #28]
 8001b7c:	68bb      	ldr	r3, [r7, #8]
 8001b7e:	691b      	ldr	r3, [r3, #16]
 8001b80:	021a      	lsls	r2, r3, #8
 8001b82:	68fb      	ldr	r3, [r7, #12]
 8001b84:	681b      	ldr	r3, [r3, #0]
 8001b86:	430a      	orrs	r2, r1
 8001b88:	61da      	str	r2, [r3, #28]
      break;
 8001b8a:	e000      	b.n	8001b8e <HAL_TIM_PWM_ConfigChannel+0x16a>
    }

    default:
      break;
 8001b8c:	bf00      	nop
  }

  __HAL_UNLOCK(htim);
 8001b8e:	68fb      	ldr	r3, [r7, #12]
 8001b90:	2200      	movs	r2, #0
 8001b92:	f883 203c 	strb.w	r2, [r3, #60]	; 0x3c

  return HAL_OK;
 8001b96:	2300      	movs	r3, #0
}
 8001b98:	4618      	mov	r0, r3
 8001b9a:	3710      	adds	r7, #16
 8001b9c:	46bd      	mov	sp, r7
 8001b9e:	bd80      	pop	{r7, pc}

08001ba0 <HAL_TIM_ConfigClockSource>:
  * @param  sClockSourceConfig pointer to a TIM_ClockConfigTypeDef structure that
  *         contains the clock source information for the TIM peripheral.
  * @retval HAL status
  */
HAL_StatusTypeDef HAL_TIM_ConfigClockSource(TIM_HandleTypeDef *htim, TIM_ClockConfigTypeDef *sClockSourceConfig)
{
 8001ba0:	b580      	push	{r7, lr}
 8001ba2:	b084      	sub	sp, #16
 8001ba4:	af00      	add	r7, sp, #0
 8001ba6:	6078      	str	r0, [r7, #4]
 8001ba8:	6039      	str	r1, [r7, #0]
  uint32_t tmpsmcr;

  /* Process Locked */
  __HAL_LOCK(htim);
 8001baa:	687b      	ldr	r3, [r7, #4]
 8001bac:	f893 303c 	ldrb.w	r3, [r3, #60]	; 0x3c
 8001bb0:	2b01      	cmp	r3, #1
 8001bb2:	d101      	bne.n	8001bb8 <HAL_TIM_ConfigClockSource+0x18>
 8001bb4:	2302      	movs	r3, #2
 8001bb6:	e0b3      	b.n	8001d20 <HAL_TIM_ConfigClockSource+0x180>
 8001bb8:	687b      	ldr	r3, [r7, #4]
 8001bba:	2201      	movs	r2, #1
 8001bbc:	f883 203c 	strb.w	r2, [r3, #60]	; 0x3c

  htim->State = HAL_TIM_STATE_BUSY;
 8001bc0:	687b      	ldr	r3, [r7, #4]
 8001bc2:	2202      	movs	r2, #2
 8001bc4:	f883 203d 	strb.w	r2, [r3, #61]	; 0x3d

  /* Check the parameters */
  assert_param(IS_TIM_CLOCKSOURCE(sClockSourceConfig->ClockSource));

  /* Reset the SMS, TS, ECE, ETPS and ETRF bits */
  tmpsmcr = htim->Instance->SMCR;
 8001bc8:	687b      	ldr	r3, [r7, #4]
 8001bca:	681b      	ldr	r3, [r3, #0]
 8001bcc:	689b      	ldr	r3, [r3, #8]
 8001bce:	60fb      	str	r3, [r7, #12]
  tmpsmcr &= ~(TIM_SMCR_SMS | TIM_SMCR_TS);
 8001bd0:	68fb      	ldr	r3, [r7, #12]
 8001bd2:	f023 0377 	bic.w	r3, r3, #119	; 0x77
 8001bd6:	60fb      	str	r3, [r7, #12]
  tmpsmcr &= ~(TIM_SMCR_ETF | TIM_SMCR_ETPS | TIM_SMCR_ECE | TIM_SMCR_ETP);
 8001bd8:	68fb      	ldr	r3, [r7, #12]
 8001bda:	f423 437f 	bic.w	r3, r3, #65280	; 0xff00
 8001bde:	60fb      	str	r3, [r7, #12]
  htim->Instance->SMCR = tmpsmcr;
 8001be0:	687b      	ldr	r3, [r7, #4]
 8001be2:	681b      	ldr	r3, [r3, #0]
 8001be4:	68fa      	ldr	r2, [r7, #12]
 8001be6:	609a      	str	r2, [r3, #8]

  switch (sClockSourceConfig->ClockSource)
 8001be8:	683b      	ldr	r3, [r7, #0]
 8001bea:	681b      	ldr	r3, [r3, #0]
 8001bec:	f5b3 5f00 	cmp.w	r3, #8192	; 0x2000
 8001bf0:	d03e      	beq.n	8001c70 <HAL_TIM_ConfigClockSource+0xd0>
 8001bf2:	f5b3 5f00 	cmp.w	r3, #8192	; 0x2000
 8001bf6:	f200 8087 	bhi.w	8001d08 <HAL_TIM_ConfigClockSource+0x168>
 8001bfa:	f5b3 5f80 	cmp.w	r3, #4096	; 0x1000
 8001bfe:	f000 8085 	beq.w	8001d0c <HAL_TIM_ConfigClockSource+0x16c>
 8001c02:	f5b3 5f80 	cmp.w	r3, #4096	; 0x1000
 8001c06:	d87f      	bhi.n	8001d08 <HAL_TIM_ConfigClockSource+0x168>
 8001c08:	2b70      	cmp	r3, #112	; 0x70
 8001c0a:	d01a      	beq.n	8001c42 <HAL_TIM_ConfigClockSource+0xa2>
 8001c0c:	2b70      	cmp	r3, #112	; 0x70
 8001c0e:	d87b      	bhi.n	8001d08 <HAL_TIM_ConfigClockSource+0x168>
 8001c10:	2b60      	cmp	r3, #96	; 0x60
 8001c12:	d050      	beq.n	8001cb6 <HAL_TIM_ConfigClockSource+0x116>
 8001c14:	2b60      	cmp	r3, #96	; 0x60
 8001c16:	d877      	bhi.n	8001d08 <HAL_TIM_ConfigClockSource+0x168>
 8001c18:	2b50      	cmp	r3, #80	; 0x50
 8001c1a:	d03c      	beq.n	8001c96 <HAL_TIM_ConfigClockSource+0xf6>
 8001c1c:	2b50      	cmp	r3, #80	; 0x50
 8001c1e:	d873      	bhi.n	8001d08 <HAL_TIM_ConfigClockSource+0x168>
 8001c20:	2b40      	cmp	r3, #64	; 0x40
 8001c22:	d058      	beq.n	8001cd6 <HAL_TIM_ConfigClockSource+0x136>
 8001c24:	2b40      	cmp	r3, #64	; 0x40
 8001c26:	d86f      	bhi.n	8001d08 <HAL_TIM_ConfigClockSource+0x168>
 8001c28:	2b30      	cmp	r3, #48	; 0x30
 8001c2a:	d064      	beq.n	8001cf6 <HAL_TIM_ConfigClockSource+0x156>
 8001c2c:	2b30      	cmp	r3, #48	; 0x30
 8001c2e:	d86b      	bhi.n	8001d08 <HAL_TIM_ConfigClockSource+0x168>
 8001c30:	2b20      	cmp	r3, #32
 8001c32:	d060      	beq.n	8001cf6 <HAL_TIM_ConfigClockSource+0x156>
 8001c34:	2b20      	cmp	r3, #32
 8001c36:	d867      	bhi.n	8001d08 <HAL_TIM_ConfigClockSource+0x168>
 8001c38:	2b00      	cmp	r3, #0
 8001c3a:	d05c      	beq.n	8001cf6 <HAL_TIM_ConfigClockSource+0x156>
 8001c3c:	2b10      	cmp	r3, #16
 8001c3e:	d05a      	beq.n	8001cf6 <HAL_TIM_ConfigClockSource+0x156>
        TIM_ITRx_SetConfig(htim->Instance, sClockSourceConfig->ClockSource);
        break;
      }

    default:
      break;
 8001c40:	e062      	b.n	8001d08 <HAL_TIM_ConfigClockSource+0x168>
      TIM_ETR_SetConfig(htim->Instance,
 8001c42:	687b      	ldr	r3, [r7, #4]
 8001c44:	6818      	ldr	r0, [r3, #0]
 8001c46:	683b      	ldr	r3, [r7, #0]
 8001c48:	6899      	ldr	r1, [r3, #8]
 8001c4a:	683b      	ldr	r3, [r7, #0]
 8001c4c:	685a      	ldr	r2, [r3, #4]
 8001c4e:	683b      	ldr	r3, [r7, #0]
 8001c50:	68db      	ldr	r3, [r3, #12]
 8001c52:	f000 faf8 	bl	8002246 <TIM_ETR_SetConfig>
      tmpsmcr = htim->Instance->SMCR;
 8001c56:	687b      	ldr	r3, [r7, #4]
 8001c58:	681b      	ldr	r3, [r3, #0]
 8001c5a:	689b      	ldr	r3, [r3, #8]
 8001c5c:	60fb      	str	r3, [r7, #12]
      tmpsmcr |= (TIM_SLAVEMODE_EXTERNAL1 | TIM_CLOCKSOURCE_ETRMODE1);
 8001c5e:	68fb      	ldr	r3, [r7, #12]
 8001c60:	f043 0377 	orr.w	r3, r3, #119	; 0x77
 8001c64:	60fb      	str	r3, [r7, #12]
      htim->Instance->SMCR = tmpsmcr;
 8001c66:	687b      	ldr	r3, [r7, #4]
 8001c68:	681b      	ldr	r3, [r3, #0]
 8001c6a:	68fa      	ldr	r2, [r7, #12]
 8001c6c:	609a      	str	r2, [r3, #8]
      break;
 8001c6e:	e04e      	b.n	8001d0e <HAL_TIM_ConfigClockSource+0x16e>
      TIM_ETR_SetConfig(htim->Instance,
 8001c70:	687b      	ldr	r3, [r7, #4]
 8001c72:	6818      	ldr	r0, [r3, #0]
 8001c74:	683b      	ldr	r3, [r7, #0]
 8001c76:	6899      	ldr	r1, [r3, #8]
 8001c78:	683b      	ldr	r3, [r7, #0]
 8001c7a:	685a      	ldr	r2, [r3, #4]
 8001c7c:	683b      	ldr	r3, [r7, #0]
 8001c7e:	68db      	ldr	r3, [r3, #12]
 8001c80:	f000 fae1 	bl	8002246 <TIM_ETR_SetConfig>
      htim->Instance->SMCR |= TIM_SMCR_ECE;
 8001c84:	687b      	ldr	r3, [r7, #4]
 8001c86:	681b      	ldr	r3, [r3, #0]
 8001c88:	689a      	ldr	r2, [r3, #8]
 8001c8a:	687b      	ldr	r3, [r7, #4]
 8001c8c:	681b      	ldr	r3, [r3, #0]
 8001c8e:	f442 4280 	orr.w	r2, r2, #16384	; 0x4000
 8001c92:	609a      	str	r2, [r3, #8]
      break;
 8001c94:	e03b      	b.n	8001d0e <HAL_TIM_ConfigClockSource+0x16e>
      TIM_TI1_ConfigInputStage(htim->Instance,
 8001c96:	687b      	ldr	r3, [r7, #4]
 8001c98:	6818      	ldr	r0, [r3, #0]
 8001c9a:	683b      	ldr	r3, [r7, #0]
 8001c9c:	6859      	ldr	r1, [r3, #4]
 8001c9e:	683b      	ldr	r3, [r7, #0]
 8001ca0:	68db      	ldr	r3, [r3, #12]
 8001ca2:	461a      	mov	r2, r3
 8001ca4:	f000 fa58 	bl	8002158 <TIM_TI1_ConfigInputStage>
      TIM_ITRx_SetConfig(htim->Instance, TIM_CLOCKSOURCE_TI1);
 8001ca8:	687b      	ldr	r3, [r7, #4]
 8001caa:	681b      	ldr	r3, [r3, #0]
 8001cac:	2150      	movs	r1, #80	; 0x50
 8001cae:	4618      	mov	r0, r3
 8001cb0:	f000 faaf 	bl	8002212 <TIM_ITRx_SetConfig>
      break;
 8001cb4:	e02b      	b.n	8001d0e <HAL_TIM_ConfigClockSource+0x16e>
      TIM_TI2_ConfigInputStage(htim->Instance,
 8001cb6:	687b      	ldr	r3, [r7, #4]
 8001cb8:	6818      	ldr	r0, [r3, #0]
 8001cba:	683b      	ldr	r3, [r7, #0]
 8001cbc:	6859      	ldr	r1, [r3, #4]
 8001cbe:	683b      	ldr	r3, [r7, #0]
 8001cc0:	68db      	ldr	r3, [r3, #12]
 8001cc2:	461a      	mov	r2, r3
 8001cc4:	f000 fa76 	bl	80021b4 <TIM_TI2_ConfigInputStage>
      TIM_ITRx_SetConfig(htim->Instance, TIM_CLOCKSOURCE_TI2);
 8001cc8:	687b      	ldr	r3, [r7, #4]
 8001cca:	681b      	ldr	r3, [r3, #0]
 8001ccc:	2160      	movs	r1, #96	; 0x60
 8001cce:	4618      	mov	r0, r3
 8001cd0:	f000 fa9f 	bl	8002212 <TIM_ITRx_SetConfig>
      break;
 8001cd4:	e01b      	b.n	8001d0e <HAL_TIM_ConfigClockSource+0x16e>
      TIM_TI1_ConfigInputStage(htim->Instance,
 8001cd6:	687b      	ldr	r3, [r7, #4]
 8001cd8:	6818      	ldr	r0, [r3, #0]
 8001cda:	683b      	ldr	r3, [r7, #0]
 8001cdc:	6859      	ldr	r1, [r3, #4]
 8001cde:	683b      	ldr	r3, [r7, #0]
 8001ce0:	68db      	ldr	r3, [r3, #12]
 8001ce2:	461a      	mov	r2, r3
 8001ce4:	f000 fa38 	bl	8002158 <TIM_TI1_ConfigInputStage>
      TIM_ITRx_SetConfig(htim->Instance, TIM_CLOCKSOURCE_TI1ED);
 8001ce8:	687b      	ldr	r3, [r7, #4]
 8001cea:	681b      	ldr	r3, [r3, #0]
 8001cec:	2140      	movs	r1, #64	; 0x40
 8001cee:	4618      	mov	r0, r3
 8001cf0:	f000 fa8f 	bl	8002212 <TIM_ITRx_SetConfig>
      break;
 8001cf4:	e00b      	b.n	8001d0e <HAL_TIM_ConfigClockSource+0x16e>
        TIM_ITRx_SetConfig(htim->Instance, sClockSourceConfig->ClockSource);
 8001cf6:	687b      	ldr	r3, [r7, #4]
 8001cf8:	681a      	ldr	r2, [r3, #0]
 8001cfa:	683b      	ldr	r3, [r7, #0]
 8001cfc:	681b      	ldr	r3, [r3, #0]
 8001cfe:	4619      	mov	r1, r3
 8001d00:	4610      	mov	r0, r2
 8001d02:	f000 fa86 	bl	8002212 <TIM_ITRx_SetConfig>
        break;
 8001d06:	e002      	b.n	8001d0e <HAL_TIM_ConfigClockSource+0x16e>
      break;
 8001d08:	bf00      	nop
 8001d0a:	e000      	b.n	8001d0e <HAL_TIM_ConfigClockSource+0x16e>
      break;
 8001d0c:	bf00      	nop
  }
  htim->State = HAL_TIM_STATE_READY;
 8001d0e:	687b      	ldr	r3, [r7, #4]
 8001d10:	2201      	movs	r2, #1
 8001d12:	f883 203d 	strb.w	r2, [r3, #61]	; 0x3d

  __HAL_UNLOCK(htim);
 8001d16:	687b      	ldr	r3, [r7, #4]
 8001d18:	2200      	movs	r2, #0
 8001d1a:	f883 203c 	strb.w	r2, [r3, #60]	; 0x3c

  return HAL_OK;
 8001d1e:	2300      	movs	r3, #0
}
 8001d20:	4618      	mov	r0, r3
 8001d22:	3710      	adds	r7, #16
 8001d24:	46bd      	mov	sp, r7
 8001d26:	bd80      	pop	{r7, pc}

08001d28 <HAL_TIM_PeriodElapsedCallback>:
  * @brief  Period elapsed callback in non-blocking mode
  * @param  htim TIM handle
  * @retval None
  */
__weak void HAL_TIM_PeriodElapsedCallback(TIM_HandleTypeDef *htim)
{
 8001d28:	b480      	push	{r7}
 8001d2a:	b083      	sub	sp, #12
 8001d2c:	af00      	add	r7, sp, #0
 8001d2e:	6078      	str	r0, [r7, #4]
  UNUSED(htim);

  /* NOTE : This function should not be modified, when the callback is needed,
            the HAL_TIM_PeriodElapsedCallback could be implemented in the user file
   */
}
 8001d30:	bf00      	nop
 8001d32:	370c      	adds	r7, #12
 8001d34:	46bd      	mov	sp, r7
 8001d36:	bc80      	pop	{r7}
 8001d38:	4770      	bx	lr

08001d3a <HAL_TIM_OC_DelayElapsedCallback>:
  * @brief  Output Compare callback in non-blocking mode
  * @param  htim TIM OC handle
  * @retval None
  */
__weak void HAL_TIM_OC_DelayElapsedCallback(TIM_HandleTypeDef *htim)
{
 8001d3a:	b480      	push	{r7}
 8001d3c:	b083      	sub	sp, #12
 8001d3e:	af00      	add	r7, sp, #0
 8001d40:	6078      	str	r0, [r7, #4]
  UNUSED(htim);

  /* NOTE : This function should not be modified, when the callback is needed,
            the HAL_TIM_OC_DelayElapsedCallback could be implemented in the user file
   */
}
 8001d42:	bf00      	nop
 8001d44:	370c      	adds	r7, #12
 8001d46:	46bd      	mov	sp, r7
 8001d48:	bc80      	pop	{r7}
 8001d4a:	4770      	bx	lr

08001d4c <HAL_TIM_IC_CaptureCallback>:
  * @brief  Input Capture callback in non-blocking mode
  * @param  htim TIM IC handle
  * @retval None
  */
__weak void HAL_TIM_IC_CaptureCallback(TIM_HandleTypeDef *htim)
{
 8001d4c:	b480      	push	{r7}
 8001d4e:	b083      	sub	sp, #12
 8001d50:	af00      	add	r7, sp, #0
 8001d52:	6078      	str	r0, [r7, #4]
  UNUSED(htim);

  /* NOTE : This function should not be modified, when the callback is needed,
            the HAL_TIM_IC_CaptureCallback could be implemented in the user file
   */
}
 8001d54:	bf00      	nop
 8001d56:	370c      	adds	r7, #12
 8001d58:	46bd      	mov	sp, r7
 8001d5a:	bc80      	pop	{r7}
 8001d5c:	4770      	bx	lr

08001d5e <HAL_TIM_PWM_PulseFinishedCallback>:
  * @brief  PWM Pulse finished callback in non-blocking mode
  * @param  htim TIM handle
  * @retval None
  */
__weak void HAL_TIM_PWM_PulseFinishedCallback(TIM_HandleTypeDef *htim)
{
 8001d5e:	b480      	push	{r7}
 8001d60:	b083      	sub	sp, #12
 8001d62:	af00      	add	r7, sp, #0
 8001d64:	6078      	str	r0, [r7, #4]
  UNUSED(htim);

  /* NOTE : This function should not be modified, when the callback is needed,
            the HAL_TIM_PWM_PulseFinishedCallback could be implemented in the user file
   */
}
 8001d66:	bf00      	nop
 8001d68:	370c      	adds	r7, #12
 8001d6a:	46bd      	mov	sp, r7
 8001d6c:	bc80      	pop	{r7}
 8001d6e:	4770      	bx	lr

08001d70 <HAL_TIM_TriggerCallback>:
  * @brief  Hall Trigger detection callback in non-blocking mode
  * @param  htim TIM handle
  * @retval None
  */
__weak void HAL_TIM_TriggerCallback(TIM_HandleTypeDef *htim)
{
 8001d70:	b480      	push	{r7}
 8001d72:	b083      	sub	sp, #12
 8001d74:	af00      	add	r7, sp, #0
 8001d76:	6078      	str	r0, [r7, #4]
  UNUSED(htim);

  /* NOTE : This function should not be modified, when the callback is needed,
            the HAL_TIM_TriggerCallback could be implemented in the user file
   */
}
 8001d78:	bf00      	nop
 8001d7a:	370c      	adds	r7, #12
 8001d7c:	46bd      	mov	sp, r7
 8001d7e:	bc80      	pop	{r7}
 8001d80:	4770      	bx	lr
	...

08001d84 <TIM_Base_SetConfig>:
  * @param  TIMx TIM peripheral
  * @param  Structure TIM Base configuration structure
  * @retval None
  */
void TIM_Base_SetConfig(TIM_TypeDef *TIMx, TIM_Base_InitTypeDef *Structure)
{
 8001d84:	b480      	push	{r7}
 8001d86:	b085      	sub	sp, #20
 8001d88:	af00      	add	r7, sp, #0
 8001d8a:	6078      	str	r0, [r7, #4]
 8001d8c:	6039      	str	r1, [r7, #0]
  uint32_t tmpcr1;
  tmpcr1 = TIMx->CR1;
 8001d8e:	687b      	ldr	r3, [r7, #4]
 8001d90:	681b      	ldr	r3, [r3, #0]
 8001d92:	60fb      	str	r3, [r7, #12]

  /* Set TIM Time Base Unit parameters ---------------------------------------*/
  if (IS_TIM_COUNTER_MODE_SELECT_INSTANCE(TIMx))
 8001d94:	687b      	ldr	r3, [r7, #4]
 8001d96:	4a29      	ldr	r2, [pc, #164]	; (8001e3c <TIM_Base_SetConfig+0xb8>)
 8001d98:	4293      	cmp	r3, r2
 8001d9a:	d00b      	beq.n	8001db4 <TIM_Base_SetConfig+0x30>
 8001d9c:	687b      	ldr	r3, [r7, #4]
 8001d9e:	f1b3 4f80 	cmp.w	r3, #1073741824	; 0x40000000
 8001da2:	d007      	beq.n	8001db4 <TIM_Base_SetConfig+0x30>
 8001da4:	687b      	ldr	r3, [r7, #4]
 8001da6:	4a26      	ldr	r2, [pc, #152]	; (8001e40 <TIM_Base_SetConfig+0xbc>)
 8001da8:	4293      	cmp	r3, r2
 8001daa:	d003      	beq.n	8001db4 <TIM_Base_SetConfig+0x30>
 8001dac:	687b      	ldr	r3, [r7, #4]
 8001dae:	4a25      	ldr	r2, [pc, #148]	; (8001e44 <TIM_Base_SetConfig+0xc0>)
 8001db0:	4293      	cmp	r3, r2
 8001db2:	d108      	bne.n	8001dc6 <TIM_Base_SetConfig+0x42>
  {
    /* Select the Counter Mode */
    tmpcr1 &= ~(TIM_CR1_DIR | TIM_CR1_CMS);
 8001db4:	68fb      	ldr	r3, [r7, #12]
 8001db6:	f023 0370 	bic.w	r3, r3, #112	; 0x70
 8001dba:	60fb      	str	r3, [r7, #12]
    tmpcr1 |= Structure->CounterMode;
 8001dbc:	683b      	ldr	r3, [r7, #0]
 8001dbe:	685b      	ldr	r3, [r3, #4]
 8001dc0:	68fa      	ldr	r2, [r7, #12]
 8001dc2:	4313      	orrs	r3, r2
 8001dc4:	60fb      	str	r3, [r7, #12]
  }

  if (IS_TIM_CLOCK_DIVISION_INSTANCE(TIMx))
 8001dc6:	687b      	ldr	r3, [r7, #4]
 8001dc8:	4a1c      	ldr	r2, [pc, #112]	; (8001e3c <TIM_Base_SetConfig+0xb8>)
 8001dca:	4293      	cmp	r3, r2
 8001dcc:	d00b      	beq.n	8001de6 <TIM_Base_SetConfig+0x62>
 8001dce:	687b      	ldr	r3, [r7, #4]
 8001dd0:	f1b3 4f80 	cmp.w	r3, #1073741824	; 0x40000000
 8001dd4:	d007      	beq.n	8001de6 <TIM_Base_SetConfig+0x62>
 8001dd6:	687b      	ldr	r3, [r7, #4]
 8001dd8:	4a19      	ldr	r2, [pc, #100]	; (8001e40 <TIM_Base_SetConfig+0xbc>)
 8001dda:	4293      	cmp	r3, r2
 8001ddc:	d003      	beq.n	8001de6 <TIM_Base_SetConfig+0x62>
 8001dde:	687b      	ldr	r3, [r7, #4]
 8001de0:	4a18      	ldr	r2, [pc, #96]	; (8001e44 <TIM_Base_SetConfig+0xc0>)
 8001de2:	4293      	cmp	r3, r2
 8001de4:	d108      	bne.n	8001df8 <TIM_Base_SetConfig+0x74>
  {
    /* Set the clock division */
    tmpcr1 &= ~TIM_CR1_CKD;
 8001de6:	68fb      	ldr	r3, [r7, #12]
 8001de8:	f423 7340 	bic.w	r3, r3, #768	; 0x300
 8001dec:	60fb      	str	r3, [r7, #12]
    tmpcr1 |= (uint32_t)Structure->ClockDivision;
 8001dee:	683b      	ldr	r3, [r7, #0]
 8001df0:	68db      	ldr	r3, [r3, #12]
 8001df2:	68fa      	ldr	r2, [r7, #12]
 8001df4:	4313      	orrs	r3, r2
 8001df6:	60fb      	str	r3, [r7, #12]
  }

  /* Set the auto-reload preload */
  MODIFY_REG(tmpcr1, TIM_CR1_ARPE, Structure->AutoReloadPreload);
 8001df8:	68fb      	ldr	r3, [r7, #12]
 8001dfa:	f023 0280 	bic.w	r2, r3, #128	; 0x80
 8001dfe:	683b      	ldr	r3, [r7, #0]
 8001e00:	695b      	ldr	r3, [r3, #20]
 8001e02:	4313      	orrs	r3, r2
 8001e04:	60fb      	str	r3, [r7, #12]

  TIMx->CR1 = tmpcr1;
 8001e06:	687b      	ldr	r3, [r7, #4]
 8001e08:	68fa      	ldr	r2, [r7, #12]
 8001e0a:	601a      	str	r2, [r3, #0]

  /* Set the Autoreload value */
  TIMx->ARR = (uint32_t)Structure->Period ;
 8001e0c:	683b      	ldr	r3, [r7, #0]
 8001e0e:	689a      	ldr	r2, [r3, #8]
 8001e10:	687b      	ldr	r3, [r7, #4]
 8001e12:	62da      	str	r2, [r3, #44]	; 0x2c

  /* Set the Prescaler value */
  TIMx->PSC = Structure->Prescaler;
 8001e14:	683b      	ldr	r3, [r7, #0]
 8001e16:	681a      	ldr	r2, [r3, #0]
 8001e18:	687b      	ldr	r3, [r7, #4]
 8001e1a:	629a      	str	r2, [r3, #40]	; 0x28

  if (IS_TIM_REPETITION_COUNTER_INSTANCE(TIMx))
 8001e1c:	687b      	ldr	r3, [r7, #4]
 8001e1e:	4a07      	ldr	r2, [pc, #28]	; (8001e3c <TIM_Base_SetConfig+0xb8>)
 8001e20:	4293      	cmp	r3, r2
 8001e22:	d103      	bne.n	8001e2c <TIM_Base_SetConfig+0xa8>
  {
    /* Set the Repetition Counter value */
    TIMx->RCR = Structure->RepetitionCounter;
 8001e24:	683b      	ldr	r3, [r7, #0]
 8001e26:	691a      	ldr	r2, [r3, #16]
 8001e28:	687b      	ldr	r3, [r7, #4]
 8001e2a:	631a      	str	r2, [r3, #48]	; 0x30
  }

  /* Generate an update event to reload the Prescaler
     and the repetition counter (only for advanced timer) value immediately */
  TIMx->EGR = TIM_EGR_UG;
 8001e2c:	687b      	ldr	r3, [r7, #4]
 8001e2e:	2201      	movs	r2, #1
 8001e30:	615a      	str	r2, [r3, #20]
}
 8001e32:	bf00      	nop
 8001e34:	3714      	adds	r7, #20
 8001e36:	46bd      	mov	sp, r7
 8001e38:	bc80      	pop	{r7}
 8001e3a:	4770      	bx	lr
 8001e3c:	40012c00 	.word	0x40012c00
 8001e40:	40000400 	.word	0x40000400
 8001e44:	40000800 	.word	0x40000800

08001e48 <TIM_OC1_SetConfig>:
  * @param  TIMx to select the TIM peripheral
  * @param  OC_Config The output configuration structure
  * @retval None
  */
static void TIM_OC1_SetConfig(TIM_TypeDef *TIMx, TIM_OC_InitTypeDef *OC_Config)
{
 8001e48:	b480      	push	{r7}
 8001e4a:	b087      	sub	sp, #28
 8001e4c:	af00      	add	r7, sp, #0
 8001e4e:	6078      	str	r0, [r7, #4]
 8001e50:	6039      	str	r1, [r7, #0]
  uint32_t tmpccmrx;
  uint32_t tmpccer;
  uint32_t tmpcr2;

  /* Disable the Channel 1: Reset the CC1E Bit */
  TIMx->CCER &= ~TIM_CCER_CC1E;
 8001e52:	687b      	ldr	r3, [r7, #4]
 8001e54:	6a1b      	ldr	r3, [r3, #32]
 8001e56:	f023 0201 	bic.w	r2, r3, #1
 8001e5a:	687b      	ldr	r3, [r7, #4]
 8001e5c:	621a      	str	r2, [r3, #32]

  /* Get the TIMx CCER register value */
  tmpccer = TIMx->CCER;
 8001e5e:	687b      	ldr	r3, [r7, #4]
 8001e60:	6a1b      	ldr	r3, [r3, #32]
 8001e62:	617b      	str	r3, [r7, #20]
  /* Get the TIMx CR2 register value */
  tmpcr2 =  TIMx->CR2;
 8001e64:	687b      	ldr	r3, [r7, #4]
 8001e66:	685b      	ldr	r3, [r3, #4]
 8001e68:	613b      	str	r3, [r7, #16]

  /* Get the TIMx CCMR1 register value */
  tmpccmrx = TIMx->CCMR1;
 8001e6a:	687b      	ldr	r3, [r7, #4]
 8001e6c:	699b      	ldr	r3, [r3, #24]
 8001e6e:	60fb      	str	r3, [r7, #12]

  /* Reset the Output Compare Mode Bits */
  tmpccmrx &= ~TIM_CCMR1_OC1M;
 8001e70:	68fb      	ldr	r3, [r7, #12]
 8001e72:	f023 0370 	bic.w	r3, r3, #112	; 0x70
 8001e76:	60fb      	str	r3, [r7, #12]
  tmpccmrx &= ~TIM_CCMR1_CC1S;
 8001e78:	68fb      	ldr	r3, [r7, #12]
 8001e7a:	f023 0303 	bic.w	r3, r3, #3
 8001e7e:	60fb      	str	r3, [r7, #12]
  /* Select the Output Compare Mode */
  tmpccmrx |= OC_Config->OCMode;
 8001e80:	683b      	ldr	r3, [r7, #0]
 8001e82:	681b      	ldr	r3, [r3, #0]
 8001e84:	68fa      	ldr	r2, [r7, #12]
 8001e86:	4313      	orrs	r3, r2
 8001e88:	60fb      	str	r3, [r7, #12]

  /* Reset the Output Polarity level */
  tmpccer &= ~TIM_CCER_CC1P;
 8001e8a:	697b      	ldr	r3, [r7, #20]
 8001e8c:	f023 0302 	bic.w	r3, r3, #2
 8001e90:	617b      	str	r3, [r7, #20]
  /* Set the Output Compare Polarity */
  tmpccer |= OC_Config->OCPolarity;
 8001e92:	683b      	ldr	r3, [r7, #0]
 8001e94:	689b      	ldr	r3, [r3, #8]
 8001e96:	697a      	ldr	r2, [r7, #20]
 8001e98:	4313      	orrs	r3, r2
 8001e9a:	617b      	str	r3, [r7, #20]

  if (IS_TIM_CCXN_INSTANCE(TIMx, TIM_CHANNEL_1))
 8001e9c:	687b      	ldr	r3, [r7, #4]
 8001e9e:	4a1c      	ldr	r2, [pc, #112]	; (8001f10 <TIM_OC1_SetConfig+0xc8>)
 8001ea0:	4293      	cmp	r3, r2
 8001ea2:	d10c      	bne.n	8001ebe <TIM_OC1_SetConfig+0x76>
  {
    /* Check parameters */
    assert_param(IS_TIM_OCN_POLARITY(OC_Config->OCNPolarity));

    /* Reset the Output N Polarity level */
    tmpccer &= ~TIM_CCER_CC1NP;
 8001ea4:	697b      	ldr	r3, [r7, #20]
 8001ea6:	f023 0308 	bic.w	r3, r3, #8
 8001eaa:	617b      	str	r3, [r7, #20]
    /* Set the Output N Polarity */
    tmpccer |= OC_Config->OCNPolarity;
 8001eac:	683b      	ldr	r3, [r7, #0]
 8001eae:	68db      	ldr	r3, [r3, #12]
 8001eb0:	697a      	ldr	r2, [r7, #20]
 8001eb2:	4313      	orrs	r3, r2
 8001eb4:	617b      	str	r3, [r7, #20]
    /* Reset the Output N State */
    tmpccer &= ~TIM_CCER_CC1NE;
 8001eb6:	697b      	ldr	r3, [r7, #20]
 8001eb8:	f023 0304 	bic.w	r3, r3, #4
 8001ebc:	617b      	str	r3, [r7, #20]
  }

  if (IS_TIM_BREAK_INSTANCE(TIMx))
 8001ebe:	687b      	ldr	r3, [r7, #4]
 8001ec0:	4a13      	ldr	r2, [pc, #76]	; (8001f10 <TIM_OC1_SetConfig+0xc8>)
 8001ec2:	4293      	cmp	r3, r2
 8001ec4:	d111      	bne.n	8001eea <TIM_OC1_SetConfig+0xa2>
    /* Check parameters */
    assert_param(IS_TIM_OCNIDLE_STATE(OC_Config->OCNIdleState));
    assert_param(IS_TIM_OCIDLE_STATE(OC_Config->OCIdleState));

    /* Reset the Output Compare and Output Compare N IDLE State */
    tmpcr2 &= ~TIM_CR2_OIS1;
 8001ec6:	693b      	ldr	r3, [r7, #16]
 8001ec8:	f423 7380 	bic.w	r3, r3, #256	; 0x100
 8001ecc:	613b      	str	r3, [r7, #16]
    tmpcr2 &= ~TIM_CR2_OIS1N;
 8001ece:	693b      	ldr	r3, [r7, #16]
 8001ed0:	f423 7300 	bic.w	r3, r3, #512	; 0x200
 8001ed4:	613b      	str	r3, [r7, #16]
    /* Set the Output Idle state */
    tmpcr2 |= OC_Config->OCIdleState;
 8001ed6:	683b      	ldr	r3, [r7, #0]
 8001ed8:	695b      	ldr	r3, [r3, #20]
 8001eda:	693a      	ldr	r2, [r7, #16]
 8001edc:	4313      	orrs	r3, r2
 8001ede:	613b      	str	r3, [r7, #16]
    /* Set the Output N Idle state */
    tmpcr2 |= OC_Config->OCNIdleState;
 8001ee0:	683b      	ldr	r3, [r7, #0]
 8001ee2:	699b      	ldr	r3, [r3, #24]
 8001ee4:	693a      	ldr	r2, [r7, #16]
 8001ee6:	4313      	orrs	r3, r2
 8001ee8:	613b      	str	r3, [r7, #16]
  }

  /* Write to TIMx CR2 */
  TIMx->CR2 = tmpcr2;
 8001eea:	687b      	ldr	r3, [r7, #4]
 8001eec:	693a      	ldr	r2, [r7, #16]
 8001eee:	605a      	str	r2, [r3, #4]

  /* Write to TIMx CCMR1 */
  TIMx->CCMR1 = tmpccmrx;
 8001ef0:	687b      	ldr	r3, [r7, #4]
 8001ef2:	68fa      	ldr	r2, [r7, #12]
 8001ef4:	619a      	str	r2, [r3, #24]

  /* Set the Capture Compare Register value */
  TIMx->CCR1 = OC_Config->Pulse;
 8001ef6:	683b      	ldr	r3, [r7, #0]
 8001ef8:	685a      	ldr	r2, [r3, #4]
 8001efa:	687b      	ldr	r3, [r7, #4]
 8001efc:	635a      	str	r2, [r3, #52]	; 0x34

  /* Write to TIMx CCER */
  TIMx->CCER = tmpccer;
 8001efe:	687b      	ldr	r3, [r7, #4]
 8001f00:	697a      	ldr	r2, [r7, #20]
 8001f02:	621a      	str	r2, [r3, #32]
}
 8001f04:	bf00      	nop
 8001f06:	371c      	adds	r7, #28
 8001f08:	46bd      	mov	sp, r7
 8001f0a:	bc80      	pop	{r7}
 8001f0c:	4770      	bx	lr
 8001f0e:	bf00      	nop
 8001f10:	40012c00 	.word	0x40012c00

08001f14 <TIM_OC2_SetConfig>:
  * @param  TIMx to select the TIM peripheral
  * @param  OC_Config The output configuration structure
  * @retval None
  */
void TIM_OC2_SetConfig(TIM_TypeDef *TIMx, TIM_OC_InitTypeDef *OC_Config)
{
 8001f14:	b480      	push	{r7}
 8001f16:	b087      	sub	sp, #28
 8001f18:	af00      	add	r7, sp, #0
 8001f1a:	6078      	str	r0, [r7, #4]
 8001f1c:	6039      	str	r1, [r7, #0]
  uint32_t tmpccmrx;
  uint32_t tmpccer;
  uint32_t tmpcr2;

  /* Disable the Channel 2: Reset the CC2E Bit */
  TIMx->CCER &= ~TIM_CCER_CC2E;
 8001f1e:	687b      	ldr	r3, [r7, #4]
 8001f20:	6a1b      	ldr	r3, [r3, #32]
 8001f22:	f023 0210 	bic.w	r2, r3, #16
 8001f26:	687b      	ldr	r3, [r7, #4]
 8001f28:	621a      	str	r2, [r3, #32]

  /* Get the TIMx CCER register value */
  tmpccer = TIMx->CCER;
 8001f2a:	687b      	ldr	r3, [r7, #4]
 8001f2c:	6a1b      	ldr	r3, [r3, #32]
 8001f2e:	617b      	str	r3, [r7, #20]
  /* Get the TIMx CR2 register value */
  tmpcr2 =  TIMx->CR2;
 8001f30:	687b      	ldr	r3, [r7, #4]
 8001f32:	685b      	ldr	r3, [r3, #4]
 8001f34:	613b      	str	r3, [r7, #16]

  /* Get the TIMx CCMR1 register value */
  tmpccmrx = TIMx->CCMR1;
 8001f36:	687b      	ldr	r3, [r7, #4]
 8001f38:	699b      	ldr	r3, [r3, #24]
 8001f3a:	60fb      	str	r3, [r7, #12]

  /* Reset the Output Compare mode and Capture/Compare selection Bits */
  tmpccmrx &= ~TIM_CCMR1_OC2M;
 8001f3c:	68fb      	ldr	r3, [r7, #12]
 8001f3e:	f423 43e0 	bic.w	r3, r3, #28672	; 0x7000
 8001f42:	60fb      	str	r3, [r7, #12]
  tmpccmrx &= ~TIM_CCMR1_CC2S;
 8001f44:	68fb      	ldr	r3, [r7, #12]
 8001f46:	f423 7340 	bic.w	r3, r3, #768	; 0x300
 8001f4a:	60fb      	str	r3, [r7, #12]

  /* Select the Output Compare Mode */
  tmpccmrx |= (OC_Config->OCMode << 8U);
 8001f4c:	683b      	ldr	r3, [r7, #0]
 8001f4e:	681b      	ldr	r3, [r3, #0]
 8001f50:	021b      	lsls	r3, r3, #8
 8001f52:	68fa      	ldr	r2, [r7, #12]
 8001f54:	4313      	orrs	r3, r2
 8001f56:	60fb      	str	r3, [r7, #12]

  /* Reset the Output Polarity level */
  tmpccer &= ~TIM_CCER_CC2P;
 8001f58:	697b      	ldr	r3, [r7, #20]
 8001f5a:	f023 0320 	bic.w	r3, r3, #32
 8001f5e:	617b      	str	r3, [r7, #20]
  /* Set the Output Compare Polarity */
  tmpccer |= (OC_Config->OCPolarity << 4U);
 8001f60:	683b      	ldr	r3, [r7, #0]
 8001f62:	689b      	ldr	r3, [r3, #8]
 8001f64:	011b      	lsls	r3, r3, #4
 8001f66:	697a      	ldr	r2, [r7, #20]
 8001f68:	4313      	orrs	r3, r2
 8001f6a:	617b      	str	r3, [r7, #20]

  if (IS_TIM_CCXN_INSTANCE(TIMx, TIM_CHANNEL_2))
 8001f6c:	687b      	ldr	r3, [r7, #4]
 8001f6e:	4a1d      	ldr	r2, [pc, #116]	; (8001fe4 <TIM_OC2_SetConfig+0xd0>)
 8001f70:	4293      	cmp	r3, r2
 8001f72:	d10d      	bne.n	8001f90 <TIM_OC2_SetConfig+0x7c>
  {
    assert_param(IS_TIM_OCN_POLARITY(OC_Config->OCNPolarity));

    /* Reset the Output N Polarity level */
    tmpccer &= ~TIM_CCER_CC2NP;
 8001f74:	697b      	ldr	r3, [r7, #20]
 8001f76:	f023 0380 	bic.w	r3, r3, #128	; 0x80
 8001f7a:	617b      	str	r3, [r7, #20]
    /* Set the Output N Polarity */
    tmpccer |= (OC_Config->OCNPolarity << 4U);
 8001f7c:	683b      	ldr	r3, [r7, #0]
 8001f7e:	68db      	ldr	r3, [r3, #12]
 8001f80:	011b      	lsls	r3, r3, #4
 8001f82:	697a      	ldr	r2, [r7, #20]
 8001f84:	4313      	orrs	r3, r2
 8001f86:	617b      	str	r3, [r7, #20]
    /* Reset the Output N State */
    tmpccer &= ~TIM_CCER_CC2NE;
 8001f88:	697b      	ldr	r3, [r7, #20]
 8001f8a:	f023 0340 	bic.w	r3, r3, #64	; 0x40
 8001f8e:	617b      	str	r3, [r7, #20]

  }

  if (IS_TIM_BREAK_INSTANCE(TIMx))
 8001f90:	687b      	ldr	r3, [r7, #4]
 8001f92:	4a14      	ldr	r2, [pc, #80]	; (8001fe4 <TIM_OC2_SetConfig+0xd0>)
 8001f94:	4293      	cmp	r3, r2
 8001f96:	d113      	bne.n	8001fc0 <TIM_OC2_SetConfig+0xac>
    /* Check parameters */
    assert_param(IS_TIM_OCNIDLE_STATE(OC_Config->OCNIdleState));
    assert_param(IS_TIM_OCIDLE_STATE(OC_Config->OCIdleState));

    /* Reset the Output Compare and Output Compare N IDLE State */
    tmpcr2 &= ~TIM_CR2_OIS2;
 8001f98:	693b      	ldr	r3, [r7, #16]
 8001f9a:	f423 6380 	bic.w	r3, r3, #1024	; 0x400
 8001f9e:	613b      	str	r3, [r7, #16]
    tmpcr2 &= ~TIM_CR2_OIS2N;
 8001fa0:	693b      	ldr	r3, [r7, #16]
 8001fa2:	f423 6300 	bic.w	r3, r3, #2048	; 0x800
 8001fa6:	613b      	str	r3, [r7, #16]
    /* Set the Output Idle state */
    tmpcr2 |= (OC_Config->OCIdleState << 2U);
 8001fa8:	683b      	ldr	r3, [r7, #0]
 8001faa:	695b      	ldr	r3, [r3, #20]
 8001fac:	009b      	lsls	r3, r3, #2
 8001fae:	693a      	ldr	r2, [r7, #16]
 8001fb0:	4313      	orrs	r3, r2
 8001fb2:	613b      	str	r3, [r7, #16]
    /* Set the Output N Idle state */
    tmpcr2 |= (OC_Config->OCNIdleState << 2U);
 8001fb4:	683b      	ldr	r3, [r7, #0]
 8001fb6:	699b      	ldr	r3, [r3, #24]
 8001fb8:	009b      	lsls	r3, r3, #2
 8001fba:	693a      	ldr	r2, [r7, #16]
 8001fbc:	4313      	orrs	r3, r2
 8001fbe:	613b      	str	r3, [r7, #16]
  }

  /* Write to TIMx CR2 */
  TIMx->CR2 = tmpcr2;
 8001fc0:	687b      	ldr	r3, [r7, #4]
 8001fc2:	693a      	ldr	r2, [r7, #16]
 8001fc4:	605a      	str	r2, [r3, #4]

  /* Write to TIMx CCMR1 */
  TIMx->CCMR1 = tmpccmrx;
 8001fc6:	687b      	ldr	r3, [r7, #4]
 8001fc8:	68fa      	ldr	r2, [r7, #12]
 8001fca:	619a      	str	r2, [r3, #24]

  /* Set the Capture Compare Register value */
  TIMx->CCR2 = OC_Config->Pulse;
 8001fcc:	683b      	ldr	r3, [r7, #0]
 8001fce:	685a      	ldr	r2, [r3, #4]
 8001fd0:	687b      	ldr	r3, [r7, #4]
 8001fd2:	639a      	str	r2, [r3, #56]	; 0x38

  /* Write to TIMx CCER */
  TIMx->CCER = tmpccer;
 8001fd4:	687b      	ldr	r3, [r7, #4]
 8001fd6:	697a      	ldr	r2, [r7, #20]
 8001fd8:	621a      	str	r2, [r3, #32]
}
 8001fda:	bf00      	nop
 8001fdc:	371c      	adds	r7, #28
 8001fde:	46bd      	mov	sp, r7
 8001fe0:	bc80      	pop	{r7}
 8001fe2:	4770      	bx	lr
 8001fe4:	40012c00 	.word	0x40012c00

08001fe8 <TIM_OC3_SetConfig>:
  * @param  TIMx to select the TIM peripheral
  * @param  OC_Config The output configuration structure
  * @retval None
  */
static void TIM_OC3_SetConfig(TIM_TypeDef *TIMx, TIM_OC_InitTypeDef *OC_Config)
{
 8001fe8:	b480      	push	{r7}
 8001fea:	b087      	sub	sp, #28
 8001fec:	af00      	add	r7, sp, #0
 8001fee:	6078      	str	r0, [r7, #4]
 8001ff0:	6039      	str	r1, [r7, #0]
  uint32_t tmpccmrx;
  uint32_t tmpccer;
  uint32_t tmpcr2;

  /* Disable the Channel 3: Reset the CC2E Bit */
  TIMx->CCER &= ~TIM_CCER_CC3E;
 8001ff2:	687b      	ldr	r3, [r7, #4]
 8001ff4:	6a1b      	ldr	r3, [r3, #32]
 8001ff6:	f423 7280 	bic.w	r2, r3, #256	; 0x100
 8001ffa:	687b      	ldr	r3, [r7, #4]
 8001ffc:	621a      	str	r2, [r3, #32]

  /* Get the TIMx CCER register value */
  tmpccer = TIMx->CCER;
 8001ffe:	687b      	ldr	r3, [r7, #4]
 8002000:	6a1b      	ldr	r3, [r3, #32]
 8002002:	617b      	str	r3, [r7, #20]
  /* Get the TIMx CR2 register value */
  tmpcr2 =  TIMx->CR2;
 8002004:	687b      	ldr	r3, [r7, #4]
 8002006:	685b      	ldr	r3, [r3, #4]
 8002008:	613b      	str	r3, [r7, #16]

  /* Get the TIMx CCMR2 register value */
  tmpccmrx = TIMx->CCMR2;
 800200a:	687b      	ldr	r3, [r7, #4]
 800200c:	69db      	ldr	r3, [r3, #28]
 800200e:	60fb      	str	r3, [r7, #12]

  /* Reset the Output Compare mode and Capture/Compare selection Bits */
  tmpccmrx &= ~TIM_CCMR2_OC3M;
 8002010:	68fb      	ldr	r3, [r7, #12]
 8002012:	f023 0370 	bic.w	r3, r3, #112	; 0x70
 8002016:	60fb      	str	r3, [r7, #12]
  tmpccmrx &= ~TIM_CCMR2_CC3S;
 8002018:	68fb      	ldr	r3, [r7, #12]
 800201a:	f023 0303 	bic.w	r3, r3, #3
 800201e:	60fb      	str	r3, [r7, #12]
  /* Select the Output Compare Mode */
  tmpccmrx |= OC_Config->OCMode;
 8002020:	683b      	ldr	r3, [r7, #0]
 8002022:	681b      	ldr	r3, [r3, #0]
 8002024:	68fa      	ldr	r2, [r7, #12]
 8002026:	4313      	orrs	r3, r2
 8002028:	60fb      	str	r3, [r7, #12]

  /* Reset the Output Polarity level */
  tmpccer &= ~TIM_CCER_CC3P;
 800202a:	697b      	ldr	r3, [r7, #20]
 800202c:	f423 7300 	bic.w	r3, r3, #512	; 0x200
 8002030:	617b      	str	r3, [r7, #20]
  /* Set the Output Compare Polarity */
  tmpccer |= (OC_Config->OCPolarity << 8U);
 8002032:	683b      	ldr	r3, [r7, #0]
 8002034:	689b      	ldr	r3, [r3, #8]
 8002036:	021b      	lsls	r3, r3, #8
 8002038:	697a      	ldr	r2, [r7, #20]
 800203a:	4313      	orrs	r3, r2
 800203c:	617b      	str	r3, [r7, #20]

  if (IS_TIM_CCXN_INSTANCE(TIMx, TIM_CHANNEL_3))
 800203e:	687b      	ldr	r3, [r7, #4]
 8002040:	4a1d      	ldr	r2, [pc, #116]	; (80020b8 <TIM_OC3_SetConfig+0xd0>)
 8002042:	4293      	cmp	r3, r2
 8002044:	d10d      	bne.n	8002062 <TIM_OC3_SetConfig+0x7a>
  {
    assert_param(IS_TIM_OCN_POLARITY(OC_Config->OCNPolarity));

    /* Reset the Output N Polarity level */
    tmpccer &= ~TIM_CCER_CC3NP;
 8002046:	697b      	ldr	r3, [r7, #20]
 8002048:	f423 6300 	bic.w	r3, r3, #2048	; 0x800
 800204c:	617b      	str	r3, [r7, #20]
    /* Set the Output N Polarity */
    tmpccer |= (OC_Config->OCNPolarity << 8U);
 800204e:	683b      	ldr	r3, [r7, #0]
 8002050:	68db      	ldr	r3, [r3, #12]
 8002052:	021b      	lsls	r3, r3, #8
 8002054:	697a      	ldr	r2, [r7, #20]
 8002056:	4313      	orrs	r3, r2
 8002058:	617b      	str	r3, [r7, #20]
    /* Reset the Output N State */
    tmpccer &= ~TIM_CCER_CC3NE;
 800205a:	697b      	ldr	r3, [r7, #20]
 800205c:	f423 6380 	bic.w	r3, r3, #1024	; 0x400
 8002060:	617b      	str	r3, [r7, #20]
  }

  if (IS_TIM_BREAK_INSTANCE(TIMx))
 8002062:	687b      	ldr	r3, [r7, #4]
 8002064:	4a14      	ldr	r2, [pc, #80]	; (80020b8 <TIM_OC3_SetConfig+0xd0>)
 8002066:	4293      	cmp	r3, r2
 8002068:	d113      	bne.n	8002092 <TIM_OC3_SetConfig+0xaa>
    /* Check parameters */
    assert_param(IS_TIM_OCNIDLE_STATE(OC_Config->OCNIdleState));
    assert_param(IS_TIM_OCIDLE_STATE(OC_Config->OCIdleState));

    /* Reset the Output Compare and Output Compare N IDLE State */
    tmpcr2 &= ~TIM_CR2_OIS3;
 800206a:	693b      	ldr	r3, [r7, #16]
 800206c:	f423 5380 	bic.w	r3, r3, #4096	; 0x1000
 8002070:	613b      	str	r3, [r7, #16]
    tmpcr2 &= ~TIM_CR2_OIS3N;
 8002072:	693b      	ldr	r3, [r7, #16]
 8002074:	f423 5300 	bic.w	r3, r3, #8192	; 0x2000
 8002078:	613b      	str	r3, [r7, #16]
    /* Set the Output Idle state */
    tmpcr2 |= (OC_Config->OCIdleState << 4U);
 800207a:	683b      	ldr	r3, [r7, #0]
 800207c:	695b      	ldr	r3, [r3, #20]
 800207e:	011b      	lsls	r3, r3, #4
 8002080:	693a      	ldr	r2, [r7, #16]
 8002082:	4313      	orrs	r3, r2
 8002084:	613b      	str	r3, [r7, #16]
    /* Set the Output N Idle state */
    tmpcr2 |= (OC_Config->OCNIdleState << 4U);
 8002086:	683b      	ldr	r3, [r7, #0]
 8002088:	699b      	ldr	r3, [r3, #24]
 800208a:	011b      	lsls	r3, r3, #4
 800208c:	693a      	ldr	r2, [r7, #16]
 800208e:	4313      	orrs	r3, r2
 8002090:	613b      	str	r3, [r7, #16]
  }

  /* Write to TIMx CR2 */
  TIMx->CR2 = tmpcr2;
 8002092:	687b      	ldr	r3, [r7, #4]
 8002094:	693a      	ldr	r2, [r7, #16]
 8002096:	605a      	str	r2, [r3, #4]

  /* Write to TIMx CCMR2 */
  TIMx->CCMR2 = tmpccmrx;
 8002098:	687b      	ldr	r3, [r7, #4]
 800209a:	68fa      	ldr	r2, [r7, #12]
 800209c:	61da      	str	r2, [r3, #28]

  /* Set the Capture Compare Register value */
  TIMx->CCR3 = OC_Config->Pulse;
 800209e:	683b      	ldr	r3, [r7, #0]
 80020a0:	685a      	ldr	r2, [r3, #4]
 80020a2:	687b      	ldr	r3, [r7, #4]
 80020a4:	63da      	str	r2, [r3, #60]	; 0x3c

  /* Write to TIMx CCER */
  TIMx->CCER = tmpccer;
 80020a6:	687b      	ldr	r3, [r7, #4]
 80020a8:	697a      	ldr	r2, [r7, #20]
 80020aa:	621a      	str	r2, [r3, #32]
}
 80020ac:	bf00      	nop
 80020ae:	371c      	adds	r7, #28
 80020b0:	46bd      	mov	sp, r7
 80020b2:	bc80      	pop	{r7}
 80020b4:	4770      	bx	lr
 80020b6:	bf00      	nop
 80020b8:	40012c00 	.word	0x40012c00

080020bc <TIM_OC4_SetConfig>:
  * @param  TIMx to select the TIM peripheral
  * @param  OC_Config The output configuration structure
  * @retval None
  */
static void TIM_OC4_SetConfig(TIM_TypeDef *TIMx, TIM_OC_InitTypeDef *OC_Config)
{
 80020bc:	b480      	push	{r7}
 80020be:	b087      	sub	sp, #28
 80020c0:	af00      	add	r7, sp, #0
 80020c2:	6078      	str	r0, [r7, #4]
 80020c4:	6039      	str	r1, [r7, #0]
  uint32_t tmpccmrx;
  uint32_t tmpccer;
  uint32_t tmpcr2;

  /* Disable the Channel 4: Reset the CC4E Bit */
  TIMx->CCER &= ~TIM_CCER_CC4E;
 80020c6:	687b      	ldr	r3, [r7, #4]
 80020c8:	6a1b      	ldr	r3, [r3, #32]
 80020ca:	f423 5280 	bic.w	r2, r3, #4096	; 0x1000
 80020ce:	687b      	ldr	r3, [r7, #4]
 80020d0:	621a      	str	r2, [r3, #32]

  /* Get the TIMx CCER register value */
  tmpccer = TIMx->CCER;
 80020d2:	687b      	ldr	r3, [r7, #4]
 80020d4:	6a1b      	ldr	r3, [r3, #32]
 80020d6:	613b      	str	r3, [r7, #16]
  /* Get the TIMx CR2 register value */
  tmpcr2 =  TIMx->CR2;
 80020d8:	687b      	ldr	r3, [r7, #4]
 80020da:	685b      	ldr	r3, [r3, #4]
 80020dc:	617b      	str	r3, [r7, #20]

  /* Get the TIMx CCMR2 register value */
  tmpccmrx = TIMx->CCMR2;
 80020de:	687b      	ldr	r3, [r7, #4]
 80020e0:	69db      	ldr	r3, [r3, #28]
 80020e2:	60fb      	str	r3, [r7, #12]

  /* Reset the Output Compare mode and Capture/Compare selection Bits */
  tmpccmrx &= ~TIM_CCMR2_OC4M;
 80020e4:	68fb      	ldr	r3, [r7, #12]
 80020e6:	f423 43e0 	bic.w	r3, r3, #28672	; 0x7000
 80020ea:	60fb      	str	r3, [r7, #12]
  tmpccmrx &= ~TIM_CCMR2_CC4S;
 80020ec:	68fb      	ldr	r3, [r7, #12]
 80020ee:	f423 7340 	bic.w	r3, r3, #768	; 0x300
 80020f2:	60fb      	str	r3, [r7, #12]

  /* Select the Output Compare Mode */
  tmpccmrx |= (OC_Config->OCMode << 8U);
 80020f4:	683b      	ldr	r3, [r7, #0]
 80020f6:	681b      	ldr	r3, [r3, #0]
 80020f8:	021b      	lsls	r3, r3, #8
 80020fa:	68fa      	ldr	r2, [r7, #12]
 80020fc:	4313      	orrs	r3, r2
 80020fe:	60fb      	str	r3, [r7, #12]

  /* Reset the Output Polarity level */
  tmpccer &= ~TIM_CCER_CC4P;
 8002100:	693b      	ldr	r3, [r7, #16]
 8002102:	f423 5300 	bic.w	r3, r3, #8192	; 0x2000
 8002106:	613b      	str	r3, [r7, #16]
  /* Set the Output Compare Polarity */
  tmpccer |= (OC_Config->OCPolarity << 12U);
 8002108:	683b      	ldr	r3, [r7, #0]
 800210a:	689b      	ldr	r3, [r3, #8]
 800210c:	031b      	lsls	r3, r3, #12
 800210e:	693a      	ldr	r2, [r7, #16]
 8002110:	4313      	orrs	r3, r2
 8002112:	613b      	str	r3, [r7, #16]

  if (IS_TIM_BREAK_INSTANCE(TIMx))
 8002114:	687b      	ldr	r3, [r7, #4]
 8002116:	4a0f      	ldr	r2, [pc, #60]	; (8002154 <TIM_OC4_SetConfig+0x98>)
 8002118:	4293      	cmp	r3, r2
 800211a:	d109      	bne.n	8002130 <TIM_OC4_SetConfig+0x74>
  {
    /* Check parameters */
    assert_param(IS_TIM_OCIDLE_STATE(OC_Config->OCIdleState));

    /* Reset the Output Compare IDLE State */
    tmpcr2 &= ~TIM_CR2_OIS4;
 800211c:	697b      	ldr	r3, [r7, #20]
 800211e:	f423 4380 	bic.w	r3, r3, #16384	; 0x4000
 8002122:	617b      	str	r3, [r7, #20]

    /* Set the Output Idle state */
    tmpcr2 |= (OC_Config->OCIdleState << 6U);
 8002124:	683b      	ldr	r3, [r7, #0]
 8002126:	695b      	ldr	r3, [r3, #20]
 8002128:	019b      	lsls	r3, r3, #6
 800212a:	697a      	ldr	r2, [r7, #20]
 800212c:	4313      	orrs	r3, r2
 800212e:	617b      	str	r3, [r7, #20]
  }

  /* Write to TIMx CR2 */
  TIMx->CR2 = tmpcr2;
 8002130:	687b      	ldr	r3, [r7, #4]
 8002132:	697a      	ldr	r2, [r7, #20]
 8002134:	605a      	str	r2, [r3, #4]

  /* Write to TIMx CCMR2 */
  TIMx->CCMR2 = tmpccmrx;
 8002136:	687b      	ldr	r3, [r7, #4]
 8002138:	68fa      	ldr	r2, [r7, #12]
 800213a:	61da      	str	r2, [r3, #28]

  /* Set the Capture Compare Register value */
  TIMx->CCR4 = OC_Config->Pulse;
 800213c:	683b      	ldr	r3, [r7, #0]
 800213e:	685a      	ldr	r2, [r3, #4]
 8002140:	687b      	ldr	r3, [r7, #4]
 8002142:	641a      	str	r2, [r3, #64]	; 0x40

  /* Write to TIMx CCER */
  TIMx->CCER = tmpccer;
 8002144:	687b      	ldr	r3, [r7, #4]
 8002146:	693a      	ldr	r2, [r7, #16]
 8002148:	621a      	str	r2, [r3, #32]
}
 800214a:	bf00      	nop
 800214c:	371c      	adds	r7, #28
 800214e:	46bd      	mov	sp, r7
 8002150:	bc80      	pop	{r7}
 8002152:	4770      	bx	lr
 8002154:	40012c00 	.word	0x40012c00

08002158 <TIM_TI1_ConfigInputStage>:
  * @param  TIM_ICFilter Specifies the Input Capture Filter.
  *          This parameter must be a value between 0x00 and 0x0F.
  * @retval None
  */
static void TIM_TI1_ConfigInputStage(TIM_TypeDef *TIMx, uint32_t TIM_ICPolarity, uint32_t TIM_ICFilter)
{
 8002158:	b480      	push	{r7}
 800215a:	b087      	sub	sp, #28
 800215c:	af00      	add	r7, sp, #0
 800215e:	60f8      	str	r0, [r7, #12]
 8002160:	60b9      	str	r1, [r7, #8]
 8002162:	607a      	str	r2, [r7, #4]
  uint32_t tmpccmr1;
  uint32_t tmpccer;

  /* Disable the Channel 1: Reset the CC1E Bit */
  tmpccer = TIMx->CCER;
 8002164:	68fb      	ldr	r3, [r7, #12]
 8002166:	6a1b      	ldr	r3, [r3, #32]
 8002168:	617b      	str	r3, [r7, #20]
  TIMx->CCER &= ~TIM_CCER_CC1E;
 800216a:	68fb      	ldr	r3, [r7, #12]
 800216c:	6a1b      	ldr	r3, [r3, #32]
 800216e:	f023 0201 	bic.w	r2, r3, #1
 8002172:	68fb      	ldr	r3, [r7, #12]
 8002174:	621a      	str	r2, [r3, #32]
  tmpccmr1 = TIMx->CCMR1;
 8002176:	68fb      	ldr	r3, [r7, #12]
 8002178:	699b      	ldr	r3, [r3, #24]
 800217a:	613b      	str	r3, [r7, #16]

  /* Set the filter */
  tmpccmr1 &= ~TIM_CCMR1_IC1F;
 800217c:	693b      	ldr	r3, [r7, #16]
 800217e:	f023 03f0 	bic.w	r3, r3, #240	; 0xf0
 8002182:	613b      	str	r3, [r7, #16]
  tmpccmr1 |= (TIM_ICFilter << 4U);
 8002184:	687b      	ldr	r3, [r7, #4]
 8002186:	011b      	lsls	r3, r3, #4
 8002188:	693a      	ldr	r2, [r7, #16]
 800218a:	4313      	orrs	r3, r2
 800218c:	613b      	str	r3, [r7, #16]

  /* Select the Polarity and set the CC1E Bit */
  tmpccer &= ~(TIM_CCER_CC1P | TIM_CCER_CC1NP);
 800218e:	697b      	ldr	r3, [r7, #20]
 8002190:	f023 030a 	bic.w	r3, r3, #10
 8002194:	617b      	str	r3, [r7, #20]
  tmpccer |= TIM_ICPolarity;
 8002196:	697a      	ldr	r2, [r7, #20]
 8002198:	68bb      	ldr	r3, [r7, #8]
 800219a:	4313      	orrs	r3, r2
 800219c:	617b      	str	r3, [r7, #20]

  /* Write to TIMx CCMR1 and CCER registers */
  TIMx->CCMR1 = tmpccmr1;
 800219e:	68fb      	ldr	r3, [r7, #12]
 80021a0:	693a      	ldr	r2, [r7, #16]
 80021a2:	619a      	str	r2, [r3, #24]
  TIMx->CCER = tmpccer;
 80021a4:	68fb      	ldr	r3, [r7, #12]
 80021a6:	697a      	ldr	r2, [r7, #20]
 80021a8:	621a      	str	r2, [r3, #32]
}
 80021aa:	bf00      	nop
 80021ac:	371c      	adds	r7, #28
 80021ae:	46bd      	mov	sp, r7
 80021b0:	bc80      	pop	{r7}
 80021b2:	4770      	bx	lr

080021b4 <TIM_TI2_ConfigInputStage>:
  * @param  TIM_ICFilter Specifies the Input Capture Filter.
  *          This parameter must be a value between 0x00 and 0x0F.
  * @retval None
  */
static void TIM_TI2_ConfigInputStage(TIM_TypeDef *TIMx, uint32_t TIM_ICPolarity, uint32_t TIM_ICFilter)
{
 80021b4:	b480      	push	{r7}
 80021b6:	b087      	sub	sp, #28
 80021b8:	af00      	add	r7, sp, #0
 80021ba:	60f8      	str	r0, [r7, #12]
 80021bc:	60b9      	str	r1, [r7, #8]
 80021be:	607a      	str	r2, [r7, #4]
  uint32_t tmpccmr1;
  uint32_t tmpccer;

  /* Disable the Channel 2: Reset the CC2E Bit */
  TIMx->CCER &= ~TIM_CCER_CC2E;
 80021c0:	68fb      	ldr	r3, [r7, #12]
 80021c2:	6a1b      	ldr	r3, [r3, #32]
 80021c4:	f023 0210 	bic.w	r2, r3, #16
 80021c8:	68fb      	ldr	r3, [r7, #12]
 80021ca:	621a      	str	r2, [r3, #32]
  tmpccmr1 = TIMx->CCMR1;
 80021cc:	68fb      	ldr	r3, [r7, #12]
 80021ce:	699b      	ldr	r3, [r3, #24]
 80021d0:	617b      	str	r3, [r7, #20]
  tmpccer = TIMx->CCER;
 80021d2:	68fb      	ldr	r3, [r7, #12]
 80021d4:	6a1b      	ldr	r3, [r3, #32]
 80021d6:	613b      	str	r3, [r7, #16]

  /* Set the filter */
  tmpccmr1 &= ~TIM_CCMR1_IC2F;
 80021d8:	697b      	ldr	r3, [r7, #20]
 80021da:	f423 4370 	bic.w	r3, r3, #61440	; 0xf000
 80021de:	617b      	str	r3, [r7, #20]
  tmpccmr1 |= (TIM_ICFilter << 12U);
 80021e0:	687b      	ldr	r3, [r7, #4]
 80021e2:	031b      	lsls	r3, r3, #12
 80021e4:	697a      	ldr	r2, [r7, #20]
 80021e6:	4313      	orrs	r3, r2
 80021e8:	617b      	str	r3, [r7, #20]

  /* Select the Polarity and set the CC2E Bit */
  tmpccer &= ~(TIM_CCER_CC2P | TIM_CCER_CC2NP);
 80021ea:	693b      	ldr	r3, [r7, #16]
 80021ec:	f023 03a0 	bic.w	r3, r3, #160	; 0xa0
 80021f0:	613b      	str	r3, [r7, #16]
  tmpccer |= (TIM_ICPolarity << 4U);
 80021f2:	68bb      	ldr	r3, [r7, #8]
 80021f4:	011b      	lsls	r3, r3, #4
 80021f6:	693a      	ldr	r2, [r7, #16]
 80021f8:	4313      	orrs	r3, r2
 80021fa:	613b      	str	r3, [r7, #16]

  /* Write to TIMx CCMR1 and CCER registers */
  TIMx->CCMR1 = tmpccmr1 ;
 80021fc:	68fb      	ldr	r3, [r7, #12]
 80021fe:	697a      	ldr	r2, [r7, #20]
 8002200:	619a      	str	r2, [r3, #24]
  TIMx->CCER = tmpccer;
 8002202:	68fb      	ldr	r3, [r7, #12]
 8002204:	693a      	ldr	r2, [r7, #16]
 8002206:	621a      	str	r2, [r3, #32]
}
 8002208:	bf00      	nop
 800220a:	371c      	adds	r7, #28
 800220c:	46bd      	mov	sp, r7
 800220e:	bc80      	pop	{r7}
 8002210:	4770      	bx	lr

08002212 <TIM_ITRx_SetConfig>:
  *            @arg TIM_TS_TI2FP2: Filtered Timer Input 2
  *            @arg TIM_TS_ETRF: External Trigger input
  * @retval None
  */
static void TIM_ITRx_SetConfig(TIM_TypeDef *TIMx, uint32_t InputTriggerSource)
{
 8002212:	b480      	push	{r7}
 8002214:	b085      	sub	sp, #20
 8002216:	af00      	add	r7, sp, #0
 8002218:	6078      	str	r0, [r7, #4]
 800221a:	6039      	str	r1, [r7, #0]
  uint32_t tmpsmcr;

  /* Get the TIMx SMCR register value */
  tmpsmcr = TIMx->SMCR;
 800221c:	687b      	ldr	r3, [r7, #4]
 800221e:	689b      	ldr	r3, [r3, #8]
 8002220:	60fb      	str	r3, [r7, #12]
  /* Reset the TS Bits */
  tmpsmcr &= ~TIM_SMCR_TS;
 8002222:	68fb      	ldr	r3, [r7, #12]
 8002224:	f023 0370 	bic.w	r3, r3, #112	; 0x70
 8002228:	60fb      	str	r3, [r7, #12]
  /* Set the Input Trigger source and the slave mode*/
  tmpsmcr |= (InputTriggerSource | TIM_SLAVEMODE_EXTERNAL1);
 800222a:	683a      	ldr	r2, [r7, #0]
 800222c:	68fb      	ldr	r3, [r7, #12]
 800222e:	4313      	orrs	r3, r2
 8002230:	f043 0307 	orr.w	r3, r3, #7
 8002234:	60fb      	str	r3, [r7, #12]
  /* Write to TIMx SMCR */
  TIMx->SMCR = tmpsmcr;
 8002236:	687b      	ldr	r3, [r7, #4]
 8002238:	68fa      	ldr	r2, [r7, #12]
 800223a:	609a      	str	r2, [r3, #8]
}
 800223c:	bf00      	nop
 800223e:	3714      	adds	r7, #20
 8002240:	46bd      	mov	sp, r7
 8002242:	bc80      	pop	{r7}
 8002244:	4770      	bx	lr

08002246 <TIM_ETR_SetConfig>:
  *          This parameter must be a value between 0x00 and 0x0F
  * @retval None
  */
void TIM_ETR_SetConfig(TIM_TypeDef *TIMx, uint32_t TIM_ExtTRGPrescaler,
                       uint32_t TIM_ExtTRGPolarity, uint32_t ExtTRGFilter)
{
 8002246:	b480      	push	{r7}
 8002248:	b087      	sub	sp, #28
 800224a:	af00      	add	r7, sp, #0
 800224c:	60f8      	str	r0, [r7, #12]
 800224e:	60b9      	str	r1, [r7, #8]
 8002250:	607a      	str	r2, [r7, #4]
 8002252:	603b      	str	r3, [r7, #0]
  uint32_t tmpsmcr;

  tmpsmcr = TIMx->SMCR;
 8002254:	68fb      	ldr	r3, [r7, #12]
 8002256:	689b      	ldr	r3, [r3, #8]
 8002258:	617b      	str	r3, [r7, #20]

  /* Reset the ETR Bits */
  tmpsmcr &= ~(TIM_SMCR_ETF | TIM_SMCR_ETPS | TIM_SMCR_ECE | TIM_SMCR_ETP);
 800225a:	697b      	ldr	r3, [r7, #20]
 800225c:	f423 437f 	bic.w	r3, r3, #65280	; 0xff00
 8002260:	617b      	str	r3, [r7, #20]

  /* Set the Prescaler, the Filter value and the Polarity */
  tmpsmcr |= (uint32_t)(TIM_ExtTRGPrescaler | (TIM_ExtTRGPolarity | (ExtTRGFilter << 8U)));
 8002262:	683b      	ldr	r3, [r7, #0]
 8002264:	021a      	lsls	r2, r3, #8
 8002266:	687b      	ldr	r3, [r7, #4]
 8002268:	431a      	orrs	r2, r3
 800226a:	68bb      	ldr	r3, [r7, #8]
 800226c:	4313      	orrs	r3, r2
 800226e:	697a      	ldr	r2, [r7, #20]
 8002270:	4313      	orrs	r3, r2
 8002272:	617b      	str	r3, [r7, #20]

  /* Write to TIMx SMCR */
  TIMx->SMCR = tmpsmcr;
 8002274:	68fb      	ldr	r3, [r7, #12]
 8002276:	697a      	ldr	r2, [r7, #20]
 8002278:	609a      	str	r2, [r3, #8]
}
 800227a:	bf00      	nop
 800227c:	371c      	adds	r7, #28
 800227e:	46bd      	mov	sp, r7
 8002280:	bc80      	pop	{r7}
 8002282:	4770      	bx	lr

08002284 <TIM_CCxChannelCmd>:
  * @param  ChannelState specifies the TIM Channel CCxE bit new state.
  *          This parameter can be: TIM_CCx_ENABLE or TIM_CCx_DISABLE.
  * @retval None
  */
void TIM_CCxChannelCmd(TIM_TypeDef *TIMx, uint32_t Channel, uint32_t ChannelState)
{
 8002284:	b480      	push	{r7}
 8002286:	b087      	sub	sp, #28
 8002288:	af00      	add	r7, sp, #0
 800228a:	60f8      	str	r0, [r7, #12]
 800228c:	60b9      	str	r1, [r7, #8]
 800228e:	607a      	str	r2, [r7, #4]

  /* Check the parameters */
  assert_param(IS_TIM_CC1_INSTANCE(TIMx));
  assert_param(IS_TIM_CHANNELS(Channel));

  tmp = TIM_CCER_CC1E << (Channel & 0x1FU); /* 0x1FU = 31 bits max shift */
 8002290:	68bb      	ldr	r3, [r7, #8]
 8002292:	f003 031f 	and.w	r3, r3, #31
 8002296:	2201      	movs	r2, #1
 8002298:	fa02 f303 	lsl.w	r3, r2, r3
 800229c:	617b      	str	r3, [r7, #20]

  /* Reset the CCxE Bit */
  TIMx->CCER &= ~tmp;
 800229e:	68fb      	ldr	r3, [r7, #12]
 80022a0:	6a1a      	ldr	r2, [r3, #32]
 80022a2:	697b      	ldr	r3, [r7, #20]
 80022a4:	43db      	mvns	r3, r3
 80022a6:	401a      	ands	r2, r3
 80022a8:	68fb      	ldr	r3, [r7, #12]
 80022aa:	621a      	str	r2, [r3, #32]

  /* Set or reset the CCxE Bit */
  TIMx->CCER |= (uint32_t)(ChannelState << (Channel & 0x1FU)); /* 0x1FU = 31 bits max shift */
 80022ac:	68fb      	ldr	r3, [r7, #12]
 80022ae:	6a1a      	ldr	r2, [r3, #32]
 80022b0:	68bb      	ldr	r3, [r7, #8]
 80022b2:	f003 031f 	and.w	r3, r3, #31
 80022b6:	6879      	ldr	r1, [r7, #4]
 80022b8:	fa01 f303 	lsl.w	r3, r1, r3
 80022bc:	431a      	orrs	r2, r3
 80022be:	68fb      	ldr	r3, [r7, #12]
 80022c0:	621a      	str	r2, [r3, #32]
}
 80022c2:	bf00      	nop
 80022c4:	371c      	adds	r7, #28
 80022c6:	46bd      	mov	sp, r7
 80022c8:	bc80      	pop	{r7}
 80022ca:	4770      	bx	lr

080022cc <HAL_TIMEx_MasterConfigSynchronization>:
  *         mode.
  * @retval HAL status
  */
HAL_StatusTypeDef HAL_TIMEx_MasterConfigSynchronization(TIM_HandleTypeDef *htim,
                                                        TIM_MasterConfigTypeDef *sMasterConfig)
{
 80022cc:	b480      	push	{r7}
 80022ce:	b085      	sub	sp, #20
 80022d0:	af00      	add	r7, sp, #0
 80022d2:	6078      	str	r0, [r7, #4]
 80022d4:	6039      	str	r1, [r7, #0]
  assert_param(IS_TIM_MASTER_INSTANCE(htim->Instance));
  assert_param(IS_TIM_TRGO_SOURCE(sMasterConfig->MasterOutputTrigger));
  assert_param(IS_TIM_MSM_STATE(sMasterConfig->MasterSlaveMode));

  /* Check input state */
  __HAL_LOCK(htim);
 80022d6:	687b      	ldr	r3, [r7, #4]
 80022d8:	f893 303c 	ldrb.w	r3, [r3, #60]	; 0x3c
 80022dc:	2b01      	cmp	r3, #1
 80022de:	d101      	bne.n	80022e4 <HAL_TIMEx_MasterConfigSynchronization+0x18>
 80022e0:	2302      	movs	r3, #2
 80022e2:	e046      	b.n	8002372 <HAL_TIMEx_MasterConfigSynchronization+0xa6>
 80022e4:	687b      	ldr	r3, [r7, #4]
 80022e6:	2201      	movs	r2, #1
 80022e8:	f883 203c 	strb.w	r2, [r3, #60]	; 0x3c

  /* Change the handler state */
  htim->State = HAL_TIM_STATE_BUSY;
 80022ec:	687b      	ldr	r3, [r7, #4]
 80022ee:	2202      	movs	r2, #2
 80022f0:	f883 203d 	strb.w	r2, [r3, #61]	; 0x3d

  /* Get the TIMx CR2 register value */
  tmpcr2 = htim->Instance->CR2;
 80022f4:	687b      	ldr	r3, [r7, #4]
 80022f6:	681b      	ldr	r3, [r3, #0]
 80022f8:	685b      	ldr	r3, [r3, #4]
 80022fa:	60fb      	str	r3, [r7, #12]

  /* Get the TIMx SMCR register value */
  tmpsmcr = htim->Instance->SMCR;
 80022fc:	687b      	ldr	r3, [r7, #4]
 80022fe:	681b      	ldr	r3, [r3, #0]
 8002300:	689b      	ldr	r3, [r3, #8]
 8002302:	60bb      	str	r3, [r7, #8]

  /* Reset the MMS Bits */
  tmpcr2 &= ~TIM_CR2_MMS;
 8002304:	68fb      	ldr	r3, [r7, #12]
 8002306:	f023 0370 	bic.w	r3, r3, #112	; 0x70
 800230a:	60fb      	str	r3, [r7, #12]
  /* Select the TRGO source */
  tmpcr2 |=  sMasterConfig->MasterOutputTrigger;
 800230c:	683b      	ldr	r3, [r7, #0]
 800230e:	681b      	ldr	r3, [r3, #0]
 8002310:	68fa      	ldr	r2, [r7, #12]
 8002312:	4313      	orrs	r3, r2
 8002314:	60fb      	str	r3, [r7, #12]

  /* Update TIMx CR2 */
  htim->Instance->CR2 = tmpcr2;
 8002316:	687b      	ldr	r3, [r7, #4]
 8002318:	681b      	ldr	r3, [r3, #0]
 800231a:	68fa      	ldr	r2, [r7, #12]
 800231c:	605a      	str	r2, [r3, #4]

  if (IS_TIM_SLAVE_INSTANCE(htim->Instance))
 800231e:	687b      	ldr	r3, [r7, #4]
 8002320:	681b      	ldr	r3, [r3, #0]
 8002322:	4a16      	ldr	r2, [pc, #88]	; (800237c <HAL_TIMEx_MasterConfigSynchronization+0xb0>)
 8002324:	4293      	cmp	r3, r2
 8002326:	d00e      	beq.n	8002346 <HAL_TIMEx_MasterConfigSynchronization+0x7a>
 8002328:	687b      	ldr	r3, [r7, #4]
 800232a:	681b      	ldr	r3, [r3, #0]
 800232c:	f1b3 4f80 	cmp.w	r3, #1073741824	; 0x40000000
 8002330:	d009      	beq.n	8002346 <HAL_TIMEx_MasterConfigSynchronization+0x7a>
 8002332:	687b      	ldr	r3, [r7, #4]
 8002334:	681b      	ldr	r3, [r3, #0]
 8002336:	4a12      	ldr	r2, [pc, #72]	; (8002380 <HAL_TIMEx_MasterConfigSynchronization+0xb4>)
 8002338:	4293      	cmp	r3, r2
 800233a:	d004      	beq.n	8002346 <HAL_TIMEx_MasterConfigSynchronization+0x7a>
 800233c:	687b      	ldr	r3, [r7, #4]
 800233e:	681b      	ldr	r3, [r3, #0]
 8002340:	4a10      	ldr	r2, [pc, #64]	; (8002384 <HAL_TIMEx_MasterConfigSynchronization+0xb8>)
 8002342:	4293      	cmp	r3, r2
 8002344:	d10c      	bne.n	8002360 <HAL_TIMEx_MasterConfigSynchronization+0x94>
  {
    /* Reset the MSM Bit */
    tmpsmcr &= ~TIM_SMCR_MSM;
 8002346:	68bb      	ldr	r3, [r7, #8]
 8002348:	f023 0380 	bic.w	r3, r3, #128	; 0x80
 800234c:	60bb      	str	r3, [r7, #8]
    /* Set master mode */
    tmpsmcr |= sMasterConfig->MasterSlaveMode;
 800234e:	683b      	ldr	r3, [r7, #0]
 8002350:	685b      	ldr	r3, [r3, #4]
 8002352:	68ba      	ldr	r2, [r7, #8]
 8002354:	4313      	orrs	r3, r2
 8002356:	60bb      	str	r3, [r7, #8]

    /* Update TIMx SMCR */
    htim->Instance->SMCR = tmpsmcr;
 8002358:	687b      	ldr	r3, [r7, #4]
 800235a:	681b      	ldr	r3, [r3, #0]
 800235c:	68ba      	ldr	r2, [r7, #8]
 800235e:	609a      	str	r2, [r3, #8]
  }

  /* Change the htim state */
  htim->State = HAL_TIM_STATE_READY;
 8002360:	687b      	ldr	r3, [r7, #4]
 8002362:	2201      	movs	r2, #1
 8002364:	f883 203d 	strb.w	r2, [r3, #61]	; 0x3d

  __HAL_UNLOCK(htim);
 8002368:	687b      	ldr	r3, [r7, #4]
 800236a:	2200      	movs	r2, #0
 800236c:	f883 203c 	strb.w	r2, [r3, #60]	; 0x3c

  return HAL_OK;
 8002370:	2300      	movs	r3, #0
}
 8002372:	4618      	mov	r0, r3
 8002374:	3714      	adds	r7, #20
 8002376:	46bd      	mov	sp, r7
 8002378:	bc80      	pop	{r7}
 800237a:	4770      	bx	lr
 800237c:	40012c00 	.word	0x40012c00
 8002380:	40000400 	.word	0x40000400
 8002384:	40000800 	.word	0x40000800

08002388 <HAL_TIMEx_CommutCallback>:
  * @brief  Hall commutation changed callback in non-blocking mode
  * @param  htim TIM handle
  * @retval None
  */
__weak void HAL_TIMEx_CommutCallback(TIM_HandleTypeDef *htim)
{
 8002388:	b480      	push	{r7}
 800238a:	b083      	sub	sp, #12
 800238c:	af00      	add	r7, sp, #0
 800238e:	6078      	str	r0, [r7, #4]
  UNUSED(htim);

  /* NOTE : This function should not be modified, when the callback is needed,
            the HAL_TIMEx_CommutCallback could be implemented in the user file
   */
}
 8002390:	bf00      	nop
 8002392:	370c      	adds	r7, #12
 8002394:	46bd      	mov	sp, r7
 8002396:	bc80      	pop	{r7}
 8002398:	4770      	bx	lr

0800239a <HAL_TIMEx_BreakCallback>:
  * @brief  Hall Break detection callback in non-blocking mode
  * @param  htim TIM handle
  * @retval None
  */
__weak void HAL_TIMEx_BreakCallback(TIM_HandleTypeDef *htim)
{
 800239a:	b480      	push	{r7}
 800239c:	b083      	sub	sp, #12
 800239e:	af00      	add	r7, sp, #0
 80023a0:	6078      	str	r0, [r7, #4]
  UNUSED(htim);

  /* NOTE : This function should not be modified, when the callback is needed,
            the HAL_TIMEx_BreakCallback could be implemented in the user file
   */
}
 80023a2:	bf00      	nop
 80023a4:	370c      	adds	r7, #12
 80023a6:	46bd      	mov	sp, r7
 80023a8:	bc80      	pop	{r7}
 80023aa:	4770      	bx	lr

080023ac <HAL_UART_Init>:
  * @param  huart  Pointer to a UART_HandleTypeDef structure that contains
  *                the configuration information for the specified UART module.
  * @retval HAL status
  */
HAL_StatusTypeDef HAL_UART_Init(UART_HandleTypeDef *huart)
{
 80023ac:	b580      	push	{r7, lr}
 80023ae:	b082      	sub	sp, #8
 80023b0:	af00      	add	r7, sp, #0
 80023b2:	6078      	str	r0, [r7, #4]
  /* Check the UART handle allocation */
  if (huart == NULL)
 80023b4:	687b      	ldr	r3, [r7, #4]
 80023b6:	2b00      	cmp	r3, #0
 80023b8:	d101      	bne.n	80023be <HAL_UART_Init+0x12>
  {
    return HAL_ERROR;
 80023ba:	2301      	movs	r3, #1
 80023bc:	e03f      	b.n	800243e <HAL_UART_Init+0x92>
  assert_param(IS_UART_WORD_LENGTH(huart->Init.WordLength));
#if defined(USART_CR1_OVER8)
  assert_param(IS_UART_OVERSAMPLING(huart->Init.OverSampling));
#endif /* USART_CR1_OVER8 */

  if (huart->gState == HAL_UART_STATE_RESET)
 80023be:	687b      	ldr	r3, [r7, #4]
 80023c0:	f893 303d 	ldrb.w	r3, [r3, #61]	; 0x3d
 80023c4:	b2db      	uxtb	r3, r3
 80023c6:	2b00      	cmp	r3, #0
 80023c8:	d106      	bne.n	80023d8 <HAL_UART_Init+0x2c>
  {
    /* Allocate lock resource and initialize it */
    huart->Lock = HAL_UNLOCKED;
 80023ca:	687b      	ldr	r3, [r7, #4]
 80023cc:	2200      	movs	r2, #0
 80023ce:	f883 203c 	strb.w	r2, [r3, #60]	; 0x3c

    /* Init the low level hardware */
    huart->MspInitCallback(huart);
#else
    /* Init the low level hardware : GPIO, CLOCK */
    HAL_UART_MspInit(huart);
 80023d2:	6878      	ldr	r0, [r7, #4]
 80023d4:	f7fe f8c4 	bl	8000560 <HAL_UART_MspInit>
#endif /* (USE_HAL_UART_REGISTER_CALLBACKS) */
  }

  huart->gState = HAL_UART_STATE_BUSY;
 80023d8:	687b      	ldr	r3, [r7, #4]
 80023da:	2224      	movs	r2, #36	; 0x24
 80023dc:	f883 203d 	strb.w	r2, [r3, #61]	; 0x3d

  /* Disable the peripheral */
  __HAL_UART_DISABLE(huart);
 80023e0:	687b      	ldr	r3, [r7, #4]
 80023e2:	681b      	ldr	r3, [r3, #0]
 80023e4:	68da      	ldr	r2, [r3, #12]
 80023e6:	687b      	ldr	r3, [r7, #4]
 80023e8:	681b      	ldr	r3, [r3, #0]
 80023ea:	f422 5200 	bic.w	r2, r2, #8192	; 0x2000
 80023ee:	60da      	str	r2, [r3, #12]

  /* Set the UART Communication parameters */
  UART_SetConfig(huart);
 80023f0:	6878      	ldr	r0, [r7, #4]
 80023f2:	f000 f829 	bl	8002448 <UART_SetConfig>

  /* In asynchronous mode, the following bits must be kept cleared:
     - LINEN and CLKEN bits in the USART_CR2 register,
     - SCEN, HDSEL and IREN  bits in the USART_CR3 register.*/
  CLEAR_BIT(huart->Instance->CR2, (USART_CR2_LINEN | USART_CR2_CLKEN));
 80023f6:	687b      	ldr	r3, [r7, #4]
 80023f8:	681b      	ldr	r3, [r3, #0]
 80023fa:	691a      	ldr	r2, [r3, #16]
 80023fc:	687b      	ldr	r3, [r7, #4]
 80023fe:	681b      	ldr	r3, [r3, #0]
 8002400:	f422 4290 	bic.w	r2, r2, #18432	; 0x4800
 8002404:	611a      	str	r2, [r3, #16]
  CLEAR_BIT(huart->Instance->CR3, (USART_CR3_SCEN | USART_CR3_HDSEL | USART_CR3_IREN));
 8002406:	687b      	ldr	r3, [r7, #4]
 8002408:	681b      	ldr	r3, [r3, #0]
 800240a:	695a      	ldr	r2, [r3, #20]
 800240c:	687b      	ldr	r3, [r7, #4]
 800240e:	681b      	ldr	r3, [r3, #0]
 8002410:	f022 022a 	bic.w	r2, r2, #42	; 0x2a
 8002414:	615a      	str	r2, [r3, #20]

  /* Enable the peripheral */
  __HAL_UART_ENABLE(huart);
 8002416:	687b      	ldr	r3, [r7, #4]
 8002418:	681b      	ldr	r3, [r3, #0]
 800241a:	68da      	ldr	r2, [r3, #12]
 800241c:	687b      	ldr	r3, [r7, #4]
 800241e:	681b      	ldr	r3, [r3, #0]
 8002420:	f442 5200 	orr.w	r2, r2, #8192	; 0x2000
 8002424:	60da      	str	r2, [r3, #12]

  /* Initialize the UART state */
  huart->ErrorCode = HAL_UART_ERROR_NONE;
 8002426:	687b      	ldr	r3, [r7, #4]
 8002428:	2200      	movs	r2, #0
 800242a:	641a      	str	r2, [r3, #64]	; 0x40
  huart->gState = HAL_UART_STATE_READY;
 800242c:	687b      	ldr	r3, [r7, #4]
 800242e:	2220      	movs	r2, #32
 8002430:	f883 203d 	strb.w	r2, [r3, #61]	; 0x3d
  huart->RxState = HAL_UART_STATE_READY;
 8002434:	687b      	ldr	r3, [r7, #4]
 8002436:	2220      	movs	r2, #32
 8002438:	f883 203e 	strb.w	r2, [r3, #62]	; 0x3e

  return HAL_OK;
 800243c:	2300      	movs	r3, #0
}
 800243e:	4618      	mov	r0, r3
 8002440:	3708      	adds	r7, #8
 8002442:	46bd      	mov	sp, r7
 8002444:	bd80      	pop	{r7, pc}
	...

08002448 <UART_SetConfig>:
  * @param  huart  Pointer to a UART_HandleTypeDef structure that contains
  *                the configuration information for the specified UART module.
  * @retval None
  */
static void UART_SetConfig(UART_HandleTypeDef *huart)
{
 8002448:	b580      	push	{r7, lr}
 800244a:	b084      	sub	sp, #16
 800244c:	af00      	add	r7, sp, #0
 800244e:	6078      	str	r0, [r7, #4]
  assert_param(IS_UART_MODE(huart->Init.Mode));

  /*-------------------------- USART CR2 Configuration -----------------------*/
  /* Configure the UART Stop Bits: Set STOP[13:12] bits
     according to huart->Init.StopBits value */
  MODIFY_REG(huart->Instance->CR2, USART_CR2_STOP, huart->Init.StopBits);
 8002450:	687b      	ldr	r3, [r7, #4]
 8002452:	681b      	ldr	r3, [r3, #0]
 8002454:	691b      	ldr	r3, [r3, #16]
 8002456:	f423 5140 	bic.w	r1, r3, #12288	; 0x3000
 800245a:	687b      	ldr	r3, [r7, #4]
 800245c:	68da      	ldr	r2, [r3, #12]
 800245e:	687b      	ldr	r3, [r7, #4]
 8002460:	681b      	ldr	r3, [r3, #0]
 8002462:	430a      	orrs	r2, r1
 8002464:	611a      	str	r2, [r3, #16]
  tmpreg = (uint32_t)huart->Init.WordLength | huart->Init.Parity | huart->Init.Mode | huart->Init.OverSampling;
  MODIFY_REG(huart->Instance->CR1,
             (uint32_t)(USART_CR1_M | USART_CR1_PCE | USART_CR1_PS | USART_CR1_TE | USART_CR1_RE | USART_CR1_OVER8),
             tmpreg);
#else
  tmpreg = (uint32_t)huart->Init.WordLength | huart->Init.Parity | huart->Init.Mode;
 8002466:	687b      	ldr	r3, [r7, #4]
 8002468:	689a      	ldr	r2, [r3, #8]
 800246a:	687b      	ldr	r3, [r7, #4]
 800246c:	691b      	ldr	r3, [r3, #16]
 800246e:	431a      	orrs	r2, r3
 8002470:	687b      	ldr	r3, [r7, #4]
 8002472:	695b      	ldr	r3, [r3, #20]
 8002474:	4313      	orrs	r3, r2
 8002476:	60bb      	str	r3, [r7, #8]
  MODIFY_REG(huart->Instance->CR1,
 8002478:	687b      	ldr	r3, [r7, #4]
 800247a:	681b      	ldr	r3, [r3, #0]
 800247c:	68db      	ldr	r3, [r3, #12]
 800247e:	f423 53b0 	bic.w	r3, r3, #5632	; 0x1600
 8002482:	f023 030c 	bic.w	r3, r3, #12
 8002486:	687a      	ldr	r2, [r7, #4]
 8002488:	6812      	ldr	r2, [r2, #0]
 800248a:	68b9      	ldr	r1, [r7, #8]
 800248c:	430b      	orrs	r3, r1
 800248e:	60d3      	str	r3, [r2, #12]
             tmpreg);
#endif /* USART_CR1_OVER8 */

  /*-------------------------- USART CR3 Configuration -----------------------*/
  /* Configure the UART HFC: Set CTSE and RTSE bits according to huart->Init.HwFlowCtl value */
  MODIFY_REG(huart->Instance->CR3, (USART_CR3_RTSE | USART_CR3_CTSE), huart->Init.HwFlowCtl);
 8002490:	687b      	ldr	r3, [r7, #4]
 8002492:	681b      	ldr	r3, [r3, #0]
 8002494:	695b      	ldr	r3, [r3, #20]
 8002496:	f423 7140 	bic.w	r1, r3, #768	; 0x300
 800249a:	687b      	ldr	r3, [r7, #4]
 800249c:	699a      	ldr	r2, [r3, #24]
 800249e:	687b      	ldr	r3, [r7, #4]
 80024a0:	681b      	ldr	r3, [r3, #0]
 80024a2:	430a      	orrs	r2, r1
 80024a4:	615a      	str	r2, [r3, #20]


  if(huart->Instance == USART1)
 80024a6:	687b      	ldr	r3, [r7, #4]
 80024a8:	681b      	ldr	r3, [r3, #0]
 80024aa:	4a2c      	ldr	r2, [pc, #176]	; (800255c <UART_SetConfig+0x114>)
 80024ac:	4293      	cmp	r3, r2
 80024ae:	d103      	bne.n	80024b8 <UART_SetConfig+0x70>
  {
    pclk = HAL_RCC_GetPCLK2Freq();
 80024b0:	f7ff f834 	bl	800151c <HAL_RCC_GetPCLK2Freq>
 80024b4:	60f8      	str	r0, [r7, #12]
 80024b6:	e002      	b.n	80024be <UART_SetConfig+0x76>
  }
  else
  {
    pclk = HAL_RCC_GetPCLK1Freq();
 80024b8:	f7ff f81c 	bl	80014f4 <HAL_RCC_GetPCLK1Freq>
 80024bc:	60f8      	str	r0, [r7, #12]
  else
  {
    huart->Instance->BRR = UART_BRR_SAMPLING16(pclk, huart->Init.BaudRate);
  }
#else
  huart->Instance->BRR = UART_BRR_SAMPLING16(pclk, huart->Init.BaudRate);
 80024be:	68fa      	ldr	r2, [r7, #12]
 80024c0:	4613      	mov	r3, r2
 80024c2:	009b      	lsls	r3, r3, #2
 80024c4:	4413      	add	r3, r2
 80024c6:	009a      	lsls	r2, r3, #2
 80024c8:	441a      	add	r2, r3
 80024ca:	687b      	ldr	r3, [r7, #4]
 80024cc:	685b      	ldr	r3, [r3, #4]
 80024ce:	009b      	lsls	r3, r3, #2
 80024d0:	fbb2 f3f3 	udiv	r3, r2, r3
 80024d4:	4a22      	ldr	r2, [pc, #136]	; (8002560 <UART_SetConfig+0x118>)
 80024d6:	fba2 2303 	umull	r2, r3, r2, r3
 80024da:	095b      	lsrs	r3, r3, #5
 80024dc:	0119      	lsls	r1, r3, #4
 80024de:	68fa      	ldr	r2, [r7, #12]
 80024e0:	4613      	mov	r3, r2
 80024e2:	009b      	lsls	r3, r3, #2
 80024e4:	4413      	add	r3, r2
 80024e6:	009a      	lsls	r2, r3, #2
 80024e8:	441a      	add	r2, r3
 80024ea:	687b      	ldr	r3, [r7, #4]
 80024ec:	685b      	ldr	r3, [r3, #4]
 80024ee:	009b      	lsls	r3, r3, #2
 80024f0:	fbb2 f2f3 	udiv	r2, r2, r3
 80024f4:	4b1a      	ldr	r3, [pc, #104]	; (8002560 <UART_SetConfig+0x118>)
 80024f6:	fba3 0302 	umull	r0, r3, r3, r2
 80024fa:	095b      	lsrs	r3, r3, #5
 80024fc:	2064      	movs	r0, #100	; 0x64
 80024fe:	fb00 f303 	mul.w	r3, r0, r3
 8002502:	1ad3      	subs	r3, r2, r3
 8002504:	011b      	lsls	r3, r3, #4
 8002506:	3332      	adds	r3, #50	; 0x32
 8002508:	4a15      	ldr	r2, [pc, #84]	; (8002560 <UART_SetConfig+0x118>)
 800250a:	fba2 2303 	umull	r2, r3, r2, r3
 800250e:	095b      	lsrs	r3, r3, #5
 8002510:	f003 03f0 	and.w	r3, r3, #240	; 0xf0
 8002514:	4419      	add	r1, r3
 8002516:	68fa      	ldr	r2, [r7, #12]
 8002518:	4613      	mov	r3, r2
 800251a:	009b      	lsls	r3, r3, #2
 800251c:	4413      	add	r3, r2
 800251e:	009a      	lsls	r2, r3, #2
 8002520:	441a      	add	r2, r3
 8002522:	687b      	ldr	r3, [r7, #4]
 8002524:	685b      	ldr	r3, [r3, #4]
 8002526:	009b      	lsls	r3, r3, #2
 8002528:	fbb2 f2f3 	udiv	r2, r2, r3
 800252c:	4b0c      	ldr	r3, [pc, #48]	; (8002560 <UART_SetConfig+0x118>)
 800252e:	fba3 0302 	umull	r0, r3, r3, r2
 8002532:	095b      	lsrs	r3, r3, #5
 8002534:	2064      	movs	r0, #100	; 0x64
 8002536:	fb00 f303 	mul.w	r3, r0, r3
 800253a:	1ad3      	subs	r3, r2, r3
 800253c:	011b      	lsls	r3, r3, #4
 800253e:	3332      	adds	r3, #50	; 0x32
 8002540:	4a07      	ldr	r2, [pc, #28]	; (8002560 <UART_SetConfig+0x118>)
 8002542:	fba2 2303 	umull	r2, r3, r2, r3
 8002546:	095b      	lsrs	r3, r3, #5
 8002548:	f003 020f 	and.w	r2, r3, #15
 800254c:	687b      	ldr	r3, [r7, #4]
 800254e:	681b      	ldr	r3, [r3, #0]
 8002550:	440a      	add	r2, r1
 8002552:	609a      	str	r2, [r3, #8]
#endif /* USART_CR1_OVER8 */
}
 8002554:	bf00      	nop
 8002556:	3710      	adds	r7, #16
 8002558:	46bd      	mov	sp, r7
 800255a:	bd80      	pop	{r7, pc}
 800255c:	40013800 	.word	0x40013800
 8002560:	51eb851f 	.word	0x51eb851f

08002564 <__libc_init_array>:
 8002564:	b570      	push	{r4, r5, r6, lr}
 8002566:	2600      	movs	r6, #0
 8002568:	4d0c      	ldr	r5, [pc, #48]	; (800259c <__libc_init_array+0x38>)
 800256a:	4c0d      	ldr	r4, [pc, #52]	; (80025a0 <__libc_init_array+0x3c>)
 800256c:	1b64      	subs	r4, r4, r5
 800256e:	10a4      	asrs	r4, r4, #2
 8002570:	42a6      	cmp	r6, r4
 8002572:	d109      	bne.n	8002588 <__libc_init_array+0x24>
 8002574:	f000 f822 	bl	80025bc <_init>
 8002578:	2600      	movs	r6, #0
 800257a:	4d0a      	ldr	r5, [pc, #40]	; (80025a4 <__libc_init_array+0x40>)
 800257c:	4c0a      	ldr	r4, [pc, #40]	; (80025a8 <__libc_init_array+0x44>)
 800257e:	1b64      	subs	r4, r4, r5
 8002580:	10a4      	asrs	r4, r4, #2
 8002582:	42a6      	cmp	r6, r4
 8002584:	d105      	bne.n	8002592 <__libc_init_array+0x2e>
 8002586:	bd70      	pop	{r4, r5, r6, pc}
 8002588:	f855 3b04 	ldr.w	r3, [r5], #4
 800258c:	4798      	blx	r3
 800258e:	3601      	adds	r6, #1
 8002590:	e7ee      	b.n	8002570 <__libc_init_array+0xc>
 8002592:	f855 3b04 	ldr.w	r3, [r5], #4
 8002596:	4798      	blx	r3
 8002598:	3601      	adds	r6, #1
 800259a:	e7f2      	b.n	8002582 <__libc_init_array+0x1e>
 800259c:	080025fc 	.word	0x080025fc
 80025a0:	080025fc 	.word	0x080025fc
 80025a4:	080025fc 	.word	0x080025fc
 80025a8:	08002600 	.word	0x08002600

080025ac <memset>:
 80025ac:	4603      	mov	r3, r0
 80025ae:	4402      	add	r2, r0
 80025b0:	4293      	cmp	r3, r2
 80025b2:	d100      	bne.n	80025b6 <memset+0xa>
 80025b4:	4770      	bx	lr
 80025b6:	f803 1b01 	strb.w	r1, [r3], #1
 80025ba:	e7f9      	b.n	80025b0 <memset+0x4>

080025bc <_init>:
 80025bc:	b5f8      	push	{r3, r4, r5, r6, r7, lr}
 80025be:	bf00      	nop
 80025c0:	bcf8      	pop	{r3, r4, r5, r6, r7}
 80025c2:	bc08      	pop	{r3}
 80025c4:	469e      	mov	lr, r3
 80025c6:	4770      	bx	lr

080025c8 <_fini>:
 80025c8:	b5f8      	push	{r3, r4, r5, r6, r7, lr}
 80025ca:	bf00      	nop
 80025cc:	bcf8      	pop	{r3, r4, r5, r6, r7}
 80025ce:	bc08      	pop	{r3}
 80025d0:	469e      	mov	lr, r3
 80025d2:	4770      	bx	lr
